///////////////////////////////////////////////////////////////////////////////
//                                                                            /
// IAR 8051 C/C++ Compiler V7.30B/W32                   10/Nov/2009  09:22:58 /
// Copyright 2004-2007 IAR Systems. All rights reserved.                      /
//                                                                            /
//    Core               =  plain                                             /
//    Code model         =  banked                                            /
//    Data model         =  large                                             /
//    Calling convention =  xdata reentrant                                   /
//    Constant location  =  data                                              /
//    Dptr setup         =  1,16                                              /
//    Source file        =  C:\Texas Instruments\ZStack-1.4.3-1.2.1\Component /
//                          s\hal\target\CC2430EB\Hal_Sensor.c                /
//    Command line       =  -f "C:\Texas Instruments\ZStack-1.4.3-1.2.1\Proje /
//                          cts\zstack\Samples\p2p_test(coordinator)\CC2430DB /
//                          \..\..\..\Tools\CC2430DB\f8wCoord.cfg"            /
//                          (-DCPU32MHZ -DFORCE_MAC_NEAR -DROOT=__near_func   /
//                          -DMAC_CFG_APP_PENDING_QUEUE=TRUE                  /
//                          -DZDO_COORDINATOR -DRTR_NWK -DBLINK_LEDS          /
//                          "-DCONST=const __code" -DGENERIC=__generic) -f    /
//                          "C:\Texas Instruments\ZStack-1.4.3-1.2.1\Projects /
//                          \zstack\Samples\p2p_test(coordinator)\CC2430DB\.. /
//                          \..\..\Tools\CC2430DB\f8wConfig.cfg" (-DSECURE=0  /
//                          -DDEFAULT_CHANLIST=0x00000800                     /
//                          -DZDAPP_CONFIG_PAN_ID=0xFFFF                      /
//                          -DNWK_START_DELAY=100 -DEXTENDED_JOINING_RANDOM_M /
//                          ASK=0x007F -DBEACON_REQUEST_DELAY=100             /
//                          -DBEACON_REQ_DELAY_MASK=0x00FF                    /
//                          -DROUTE_EXPIRY_TIME=30 -DAPSC_ACK_WAIT_DURATION_P /
//                          OLLED=3000 -DNWK_INDIRECT_MSG_TIMEOUT=7           /
//                          -DMAX_RREQ_ENTRIES=10 -DAPSC_MAX_FRAME_RETRIES=3  /
//                          -DNWK_MAX_DATA_RETRIES=2                          /
//                          -DMAX_POLL_FAILURE_RETRIES=2 -DMAX_BCAST=9        /
//                          -DAPS_MAX_GROUPS=16 -DMAX_RTG_ENTRIES=20          /
//                          -DNWK_MAX_BINDING_ENTRIES=10                      /
//                          -DMAX_BINDING_CLUSTER_IDS=5                       /
//                          "-DDEFAULT_KEY={0x01, 0x03, 0x05, 0x07, 0x09,     /
//                          0x0B, 0x0D, 0x0F, 0x00, 0x02, 0x04, 0x06, 0x08,   /
//                          0x0A, 0x0C, 0x0D}" -DRFD_RCVC_ALWAYS_ON=FALSE     /
//                          -DPOLL_RATE=1000 -DQUEUED_POLL_RATE=100           /
//                          -DRESPONSE_POLL_RATE=100) -DREJOIN_POLL_RATE=440  /
//                          "C:\Texas Instruments\ZStack-1.4.3-1.2.1\Componen /
//                          ts\hal\target\CC2430EB\Hal_Sensor.c" -D CC2430EB  /
//                          -D xREFLECTOR -D ZTOOL_P1 -D MT_TASK -D           /
//                          MT_ZDO_FUNC -D xLCD_SUPPORTED=DEBUG -D            /
//                          NV_RESTORE -lC "C:\Texas                          /
//                          Instruments\ZStack-1.4.3-1.2.1\Projects\zstack\Sa /
//                          mples\p2p_test(coordinator)\CC2430DB\CoordinatorE /
//                          B\List\" -lA "C:\Texas Instruments\ZStack-1.4.3-1 /
//                          .2.1\Projects\zstack\Samples\p2p_test(coordinator /
//                          )\CC2430DB\CoordinatorEB\List\" --diag_suppress   /
//                          Pe001,Pa010 --diag_remark pe550 -o "C:\Texas      /
//                          Instruments\ZStack-1.4.3-1.2.1\Projects\zstack\Sa /
//                          mples\p2p_test(coordinator)\CC2430DB\CoordinatorE /
//                          B\Obj\" -e --require_prototypes -z9               /
//                          --no_code_motion --debug --core=plain             /
//                          --dptr=16,1 --data_model=large                    /
//                          --code_model=banked --calling_convention=xdata_re /
//                          entrant --place_constants=data --nr_virtual_regs  /
//                          8 -I "C:\Texas Instruments\ZStack-1.4.3-1.2.1\Pro /
//                          jects\zstack\Samples\p2p_test(coordinator)\CC2430 /
//                          DB\" -I "C:\Texas Instruments\ZStack-1.4.3-1.2.1\ /
//                          Projects\zstack\Samples\p2p_test(coordinator)\CC2 /
//                          430DB\..\SOURCE\" -I "C:\Texas                    /
//                          Instruments\ZStack-1.4.3-1.2.1\Projects\zstack\Sa /
//                          mples\p2p_test(coordinator)\CC2430DB\..\..\..\ZMA /
//                          IN\TI2430DB\" -I "C:\Texas                        /
//                          Instruments\ZStack-1.4.3-1.2.1\Projects\zstack\Sa /
//                          mples\p2p_test(coordinator)\CC2430DB\..\..\..\..\ /
//                          ..\COMPONENTS\MT\" -I "C:\Texas                   /
//                          Instruments\ZStack-1.4.3-1.2.1\Projects\zstack\Sa /
//                          mples\p2p_test(coordinator)\CC2430DB\..\..\..\..\ /
//                          ..\COMPONENTS\HAL\INCLUDE\" -I "C:\Texas          /
//                          Instruments\ZStack-1.4.3-1.2.1\Projects\zstack\Sa /
//                          mples\p2p_test(coordinator)\CC2430DB\..\..\..\..\ /
//                          ..\COMPONENTS\HAL\TARGET\CC2430EB\" -I "C:\Texas  /
//                          Instruments\ZStack-1.4.3-1.2.1\Projects\zstack\Sa /
//                          mples\p2p_test(coordinator)\CC2430DB\..\..\..\..\ /
//                          ..\COMPONENTS\OSAL\MCU\CCSOC\" -I "C:\Texas       /
//                          Instruments\ZStack-1.4.3-1.2.1\Projects\zstack\Sa /
//                          mples\p2p_test(coordinator)\CC2430DB\..\..\..\..\ /
//                          ..\COMPONENTS\OSAL\INCLUDE\" -I "C:\Texas         /
//                          Instruments\ZStack-1.4.3-1.2.1\Projects\zstack\Sa /
//                          mples\p2p_test(coordinator)\CC2430DB\..\..\..\..\ /
//                          ..\COMPONENTS\STACK\AF\" -I "C:\Texas             /
//                          Instruments\ZStack-1.4.3-1.2.1\Projects\zstack\Sa /
//                          mples\p2p_test(coordinator)\CC2430DB\..\..\..\..\ /
//                          ..\COMPONENTS\STACK\NWK\" -I "C:\Texas            /
//                          Instruments\ZStack-1.4.3-1.2.1\Projects\zstack\Sa /
//                          mples\p2p_test(coordinator)\CC2430DB\..\..\..\..\ /
//                          ..\COMPONENTS\STACK\SEC\" -I "C:\Texas            /
//                          Instruments\ZStack-1.4.3-1.2.1\Projects\zstack\Sa /
//                          mples\p2p_test(coordinator)\CC2430DB\..\..\..\..\ /
//                          ..\COMPONENTS\STACK\SYS\" -I "C:\Texas            /
//                          Instruments\ZStack-1.4.3-1.2.1\Projects\zstack\Sa /
//                          mples\p2p_test(coordinator)\CC2430DB\..\..\..\..\ /
//                          ..\COMPONENTS\STACK\ZDO\" -I "C:\Texas            /
//                          Instruments\ZStack-1.4.3-1.2.1\Projects\zstack\Sa /
//                          mples\p2p_test(coordinator)\CC2430DB\..\..\..\..\ /
//                          ..\COMPONENTS\ZMAC\F8W\" -I "C:\Texas             /
//                          Instruments\ZStack-1.4.3-1.2.1\Projects\zstack\Sa /
//                          mples\p2p_test(coordinator)\CC2430DB\..\..\..\..\ /
//                          ..\COMPONENTS\ZMAC\" -I "C:\Texas                 /
//                          Instruments\ZStack-1.4.3-1.2.1\Projects\zstack\Sa /
//                          mples\p2p_test(coordinator)\CC2430DB\..\..\..\..\ /
//                          ..\COMPONENTS\SERVICES\SADDR\" -I "C:\Texas       /
//                          Instruments\ZStack-1.4.3-1.2.1\Projects\zstack\Sa /
//                          mples\p2p_test(coordinator)\CC2430DB\..\..\..\..\ /
//                          ..\COMPONENTS\SERVICES\SDATA\" -I "C:\Texas       /
//                          Instruments\ZStack-1.4.3-1.2.1\Projects\zstack\Sa /
//                          mples\p2p_test(coordinator)\CC2430DB\..\..\..\..\ /
//                          ..\COMPONENTS\MAC\INCLUDE\" -I "C:\Texas          /
//                          Instruments\ZStack-1.4.3-1.2.1\Projects\zstack\Sa /
//                          mples\p2p_test(coordinator)\CC2430DB\..\..\..\..\ /
//                          ..\COMPONENTS\MAC\HIGH_LEVEL\" -I "C:\Texas       /
//                          Instruments\ZStack-1.4.3-1.2.1\Projects\zstack\Sa /
//                          mples\p2p_test(coordinator)\CC2430DB\..\..\..\..\ /
//                          ..\COMPONENTS\MAC\LOW_LEVEL\SRF03\" -I "C:\Texas  /
//                          Instruments\ZStack-1.4.3-1.2.1\Projects\zstack\Sa /
//                          mples\p2p_test(coordinator)\CC2430DB\..\..\..\..\ /
//                          ..\COMPONENTS\MAC\LOW_LEVEL\SRF03\SINGLE_CHIP\"   /
//                          -I "F:\Program Files\IAR Systems\Embedded         /
//                          Workbench 4.0 Evaluation version\8051\INC\" -I    /
//                          "F:\Program Files\IAR Systems\Embedded Workbench  /
//                          4.0 Evaluation version\8051\INC\CLIB\"            /
//    List file          =  C:\Texas Instruments\ZStack-1.4.3-1.2.1\Projects\ /
//                          zstack\Samples\p2p_test(coordinator)\CC2430DB\Coo /
//                          rdinatorEB\List\Hal_Sensor.s51                    /
//                                                                            /
//                                                                            /
///////////////////////////////////////////////////////////////////////////////

        NAME Hal_Sensor

        RTMODEL "__calling_convention", "xdata_reentrant"
        RTMODEL "__code_model", "banked"
        RTMODEL "__core", "plain"
        RTMODEL "__data_model", "large"
        RTMODEL "__dptr_size", "16"
        RTMODEL "__extended_stack", "disabled"
        RTMODEL "__location_for_constants", "data"
        RTMODEL "__number_of_dptrs", "1"
        RTMODEL "__rt_version", "1"

        RSEG DOVERLAY:DATA:NOROOT(0)
        RSEG IOVERLAY:IDATA:NOROOT(0)
        RSEG ISTACK:IDATA:NOROOT(0)
        RSEG PSTACK:XDATA:NOROOT(0)
        RSEG XSTACK:XDATA:NOROOT(0)

        EXTERN ??halProcessSensorInterrupt?relay
        EXTERN ?BDISPATCH
        EXTERN ?BRET
        EXTERN ?INTERRUPT_ENTER_XSP
        EXTERN ?INTERRUPT_LEAVE_XSP

        PUBLIC ??HalSensorConfig?relay
        FUNCTION ??HalSensorConfig?relay,0203H
        PUBLIC ??halProcessSensorInterrupt?relay
        FUNCTION ??halProcessSensorInterrupt?relay,0203H
        PUBWEAK `??halSensorPort1Isr??INTVEC 123`
        PUBLIC HalSensorConfig
        FUNCTION HalSensorConfig,0203H
        ARGFRAME XSTACK, 0, STACK
        PUBWEAK IEN2
        PUBWEAK P1DIR
        PUBWEAK P1IEN
        PUBWEAK P1IFG
        PUBWEAK P1SEL
        PUBWEAK P2INP
        PUBWEAK PICTL
        PUBWEAK _A_IRCON2
        PUBWEAK _A_P1
        PUBLIC halProcessSensorInterrupt
        FUNCTION halProcessSensorInterrupt,021203H
        ARGFRAME XSTACK, 0, STACK
        ARGFRAME IOVERLAY, 0, STATIC
        ARGFRAME DOVERLAY, 0, STATIC
        LOCFRAME ISTACK, 2, STACK
        PUBLIC halSensorPort1Isr
        FUNCTION halSensorPort1Isr,021233H
        ARGFRAME XSTACK, 0, STACK
        LOCFRAME ISTACK, 15, STACK
        
        CFI Names cfiNames0
        CFI StackFrame CFA_SP SP DATA
        CFI StackFrame CFA_PSP16 PSP16 XDATA
        CFI StackFrame CFA_XSP16 XSP16 XDATA
        CFI StaticOverlayFrame CFA_IOVERLAY IOVERLAY
        CFI StaticOverlayFrame CFA_DOVERLAY DOVERLAY
        CFI Resource `PSW.CY`:1, `B.BR0`:1, `B.BR1`:1, `B.BR2`:1, `B.BR3`:1
        CFI Resource `B.BR4`:1, `B.BR5`:1, `B.BR6`:1, `B.BR7`:1, `VB.BR8`:1
        CFI Resource `VB.BR9`:1, `VB.BR10`:1, `VB.BR11`:1, `VB.BR12`:1
        CFI Resource `VB.BR13`:1, `VB.BR14`:1, `VB.BR15`:1, VB:8, B:8, A:8
        CFI Resource PSW:8, DPL0:8, DPH0:8, R0:8, R1:8, R2:8, R3:8, R4:8, R5:8
        CFI Resource R6:8, R7:8, V0:8, V1:8, V2:8, V3:8, V4:8, V5:8, V6:8, V7:8
        CFI Resource SP:8, PSPH:8, PSPL:8, PSP16:16, XSPH:8, XSPL:8, XSP16:16
        CFI VirtualResource ?RET:24
        CFI Resource ?BRET_EXT:8
        CFI VirtualResource ?RET_HIGH:8, ?RET_LOW:8
        CFI ResourceParts PSP16 PSPH, PSPL
        CFI ResourceParts XSP16 XSPH, XSPL
        CFI ResourceParts ?RET ?BRET_EXT, ?RET_HIGH, ?RET_LOW
        CFI EndNames cfiNames0
        
        CFI Common cfiCommon0 Using cfiNames0
        CFI CodeAlign 1
        CFI DataAlign -1
        CFI ReturnAddress ?RET CODE
        CFI CFA_DOVERLAY Used
        CFI CFA_IOVERLAY Used
        CFI CFA_SP SP+-3
        CFI CFA_PSP16 PSP16+0
        CFI CFA_XSP16 XSP16+0
        CFI `PSW.CY` SameValue
        CFI `B.BR0` SameValue
        CFI `B.BR1` SameValue
        CFI `B.BR2` SameValue
        CFI `B.BR3` SameValue
        CFI `B.BR4` SameValue
        CFI `B.BR5` SameValue
        CFI `B.BR6` SameValue
        CFI `B.BR7` SameValue
        CFI `VB.BR8` SameValue
        CFI `VB.BR9` SameValue
        CFI `VB.BR10` SameValue
        CFI `VB.BR11` SameValue
        CFI `VB.BR12` SameValue
        CFI `VB.BR13` SameValue
        CFI `VB.BR14` SameValue
        CFI `VB.BR15` SameValue
        CFI VB SameValue
        CFI B Undefined
        CFI A Undefined
        CFI PSW SameValue
        CFI DPL0 SameValue
        CFI DPH0 SameValue
        CFI R0 Undefined
        CFI R1 Undefined
        CFI R2 Undefined
        CFI R3 Undefined
        CFI R4 Undefined
        CFI R5 Undefined
        CFI R6 SameValue
        CFI R7 SameValue
        CFI V0 SameValue
        CFI V1 SameValue
        CFI V2 SameValue
        CFI V3 SameValue
        CFI V4 SameValue
        CFI V5 SameValue
        CFI V6 SameValue
        CFI V7 SameValue
        CFI PSPH Undefined
        CFI PSPL Undefined
        CFI XSPH Undefined
        CFI XSPL Undefined
        CFI ?RET Concat
        CFI ?BRET_EXT Frame(CFA_SP, 3)
        CFI ?RET_HIGH Frame(CFA_SP, 2)
        CFI ?RET_LOW Frame(CFA_SP, 1)
        CFI EndCommon cfiCommon0
        
        
        CFI Common cfiCommon1 Using cfiNames0
        CFI CodeAlign 1
        CFI DataAlign -1
        CFI ReturnAddress ?RET CODE
        CFI CFA_DOVERLAY Used
        CFI CFA_IOVERLAY Used
        CFI CFA_SP SP+-2
        CFI CFA_PSP16 PSP16+0
        CFI CFA_XSP16 XSP16+0
        CFI `PSW.CY` SameValue
        CFI `B.BR0` SameValue
        CFI `B.BR1` SameValue
        CFI `B.BR2` SameValue
        CFI `B.BR3` SameValue
        CFI `B.BR4` SameValue
        CFI `B.BR5` SameValue
        CFI `B.BR6` SameValue
        CFI `B.BR7` SameValue
        CFI `VB.BR8` SameValue
        CFI `VB.BR9` SameValue
        CFI `VB.BR10` SameValue
        CFI `VB.BR11` SameValue
        CFI `VB.BR12` SameValue
        CFI `VB.BR13` SameValue
        CFI `VB.BR14` SameValue
        CFI `VB.BR15` SameValue
        CFI VB SameValue
        CFI B SameValue
        CFI A SameValue
        CFI PSW SameValue
        CFI DPL0 SameValue
        CFI DPH0 SameValue
        CFI R0 SameValue
        CFI R1 SameValue
        CFI R2 SameValue
        CFI R3 SameValue
        CFI R4 SameValue
        CFI R5 SameValue
        CFI R6 SameValue
        CFI R7 SameValue
        CFI V0 SameValue
        CFI V1 SameValue
        CFI V2 SameValue
        CFI V3 SameValue
        CFI V4 SameValue
        CFI V5 SameValue
        CFI V6 SameValue
        CFI V7 SameValue
        CFI PSPH Undefined
        CFI PSPL Undefined
        CFI XSPH Undefined
        CFI XSPL Undefined
        CFI ?RET Concat
        CFI ?BRET_EXT SameValue
        CFI ?RET_HIGH Frame(CFA_SP, 2)
        CFI ?RET_LOW Frame(CFA_SP, 1)
        CFI EndCommon cfiCommon1
        
haltemp             SYMBOL "haltemp"
halhumi             SYMBOL "halhumi"
p2p_test_SendTheMessage SYMBOL "p2p_test_SendTheMessage"
??halhumi?relay     SYMBOL "?relay", halhumi
??haltemp?relay     SYMBOL "?relay", haltemp
??p2p_test_SendTheMessage?relay SYMBOL "?relay", p2p_test_SendTheMessage
HalSensorConfig     SYMBOL "HalSensorConfig"
??HalSensorConfig?relay SYMBOL "?relay", HalSensorConfig
halProcessSensorInterrupt SYMBOL "halProcessSensorInterrupt"
??halProcessSensorInterrupt?relay SYMBOL "?relay", halProcessSensorInterrupt
halSensorPort1Isr   SYMBOL "halSensorPort1Isr"
`??halSensorPort1Isr??INTVEC 123` SYMBOL "??INTVEC 123", halSensorPort1Isr

        EXTERN haltemp
        FUNCTION haltemp,0202H
        ARGFRAME ISTACK, 2, STACK
        ARGFRAME PSTACK, 0, STACK
        ARGFRAME XSTACK, 0, STACK
        ARGFRAME IOVERLAY, 0, STATIC
        ARGFRAME DOVERLAY, 0, STATIC
        EXTERN halhumi
        FUNCTION halhumi,0202H
        ARGFRAME ISTACK, 2, STACK
        ARGFRAME PSTACK, 0, STACK
        ARGFRAME XSTACK, 0, STACK
        ARGFRAME IOVERLAY, 0, STATIC
        ARGFRAME DOVERLAY, 0, STATIC
        EXTERN p2p_test_SendTheMessage
        FUNCTION p2p_test_SendTheMessage,0202H
        ARGFRAME ISTACK, 2, STACK
        ARGFRAME PSTACK, 0, STACK
        ARGFRAME XSTACK, 0, STACK
        ARGFRAME IOVERLAY, 0, STATIC
        ARGFRAME DOVERLAY, 0, STATIC
        EXTERN ??halhumi?relay
        FUNCTION ??halhumi?relay,00H
        EXTERN ??haltemp?relay
        FUNCTION ??haltemp?relay,00H
        EXTERN ??p2p_test_SendTheMessage?relay
        FUNCTION ??p2p_test_SendTheMessage?relay,00H
        EXTERN fatheraddr
        EXTERN p2p_msg
        EXTERN shortaddr

// C:\Texas Instruments\ZStack-1.4.3-1.2.1\Components\hal\target\CC2430EB\Hal_Sensor.c
//    1 
//    2 #include "hal_mcu.h"

        ASEGN SFR_AN:DATA:NOROOT,08aH
// unsigned char volatile __sfr P1IFG
P1IFG:
        DS 1

        ASEGN SFR_AN:DATA:NOROOT,08cH
// unsigned char volatile __sfr PICTL
PICTL:
        DS 1

        ASEGN SFR_AN:DATA:NOROOT,08dH
// unsigned char volatile __sfr P1IEN
P1IEN:
        DS 1

        ASEGN SFR_AN:DATA:NOROOT,090H
// union <unnamed> volatile __sfr _A_P1
_A_P1:
        DS 1

        ASEGN SFR_AN:DATA:NOROOT,09aH
// unsigned char volatile __sfr IEN2
IEN2:
        DS 1

        ASEGN SFR_AN:DATA:NOROOT,0e8H
// union <unnamed> volatile __sfr _A_IRCON2
_A_IRCON2:
        DS 1

        ASEGN SFR_AN:DATA:NOROOT,0f4H
// unsigned char volatile __sfr P1SEL
P1SEL:
        DS 1

        ASEGN SFR_AN:DATA:NOROOT,0f7H
// unsigned char volatile __sfr P2INP
P2INP:
        DS 1

        ASEGN SFR_AN:DATA:NOROOT,0feH
// unsigned char volatile __sfr P1DIR
P1DIR:
        DS 1
//    3 #include "hal_defs.h"
//    4 #include "hal_types.h"
//    5 #include "hal_drivers.h"
//    6 #include "hal_adc.h"
//    7 #include "OSAL.h"
//    8 #include "Hal_Sensor.h"
//    9 #include "p2p_test.h"
//   10 
//   11  extern uint8 p2p_msg[8];//the collect message
//   12 
//   13  extern uint16 shortaddr;
//   14  extern uint16 fatheraddr;
//   15  
//   16 
//   17 
//   18 
//   19 
//   20 
//   21 
//   22 

        RSEG BANKED_CODE:CODE:NOROOT(0)
//   23 void HalSensorConfig ( void )
HalSensorConfig:
        CFI Block cfiBlock0 Using cfiCommon0
        CFI Function HalSensorConfig
//   24 {
        ; Saved register size: 0
        ; Auto size: 0
//   25     //HONGWAI SENSOR<<P1_2
//   26  
//   27   P2INP |= 0x40;    /* config the input mode to poll_down */
        ORL     0xf7,#0x40
//   28   P1SEL &= ~( InfraredSensorBit );   /* Set pin function to GPIO */
        ANL     0xf4,#0xfb
//   29   P1DIR &= ~( InfraredSensorBit );   /* Set pin direction to Input */
        ANL     0xfe,#0xfb
//   30   PICTL &= ~( IENBIT );   /* rising edge on input give interrupt */ 
        ANL     0x8c,#0xfd
//   31   IEN2 |= 0x10;     /*enabled interrupt*/
        ORL     0x9a,#0x10
//   32   P1IEN |= InfraredSensorBit;    /*enabled interrupt*/
        ORL     0x8d,#0x4
//   33   P1IFG &= ~(InfraredSensorBit);
        ANL     0x8a,#0xfb
//   34    //HONGWAI SENSOR>
//   35   
//   36   //YANWU SENSOR<<P1_3
//   37     P1SEL &= ~( SmokeSensorBit );   /* Set pin function to GPIO */
        ANL     0xf4,#0xf7
//   38   //P1SEL &= 0xF7;
//   39   P1DIR &= ~( SmokeSensorBit );   /* Set pin direction to Input */
        ANL     0xfe,#0xf7
//   40   //P1DIR &= 0xF7;
//   41   IEN2 |= 0x10;     /*enabled interrupt*/
        ORL     0x9a,#0x10
//   42   P1IEN |= SmokeSensorBit;    /*enabled interrupt*/
        ORL     0x8d,#0x8
//   43   P1IFG &= ~(SmokeSensorBit);
        ANL     0x8a,#0xf7
//   44   //YANWU SENSOR>
//   45   
//   46 
//   47 }
        LJMP    ?BRET
        CFI EndBlock cfiBlock0
        REQUIRE IEN2
        REQUIRE P1IFG
        REQUIRE PICTL
        REQUIRE P1IEN
        REQUIRE P1SEL
        REQUIRE P2INP
        REQUIRE P1DIR
//   48 
//   49 
//   50 /**************************************************************************************************
//   51  * @fn      halProcessSensorInterrupt
//   52  *
//   53  * @brief   Checks to see if it's a valid Sensor interrupt,and send the data to the router 
//   54  * 
//   55  *
//   56  * @param
//   57  *
//   58  * @return
//   59  **************************************************************************************************/

        RSEG BANKED_CODE:CODE:NOROOT(0)
//   60 void halProcessSensorInterrupt (void)
halProcessSensorInterrupt:
        CFI Block cfiBlock1 Using cfiCommon0
        CFI Function halProcessSensorInterrupt
//   61 {   
        FUNCALL halProcessSensorInterrupt, haltemp
        LOCFRAME ISTACK, 2, STACK
        LOCFRAME PSTACK, 0, STACK
        LOCFRAME XSTACK, 0, STACK
        LOCFRAME IOVERLAY, 0, STATIC
        LOCFRAME DOVERLAY, 0, STATIC
        ARGFRAME ISTACK, 2, STACK
        ARGFRAME PSTACK, 0, STACK
        ARGFRAME XSTACK, 0, STACK
        ARGFRAME IOVERLAY, 0, STATIC
        ARGFRAME DOVERLAY, 0, STATIC
        FUNCALL halProcessSensorInterrupt, halhumi
        LOCFRAME ISTACK, 2, STACK
        LOCFRAME PSTACK, 0, STACK
        LOCFRAME XSTACK, 0, STACK
        LOCFRAME IOVERLAY, 0, STATIC
        LOCFRAME DOVERLAY, 0, STATIC
        ARGFRAME ISTACK, 2, STACK
        ARGFRAME PSTACK, 0, STACK
        ARGFRAME XSTACK, 0, STACK
        ARGFRAME IOVERLAY, 0, STATIC
        ARGFRAME DOVERLAY, 0, STATIC
        FUNCALL halProcessSensorInterrupt, p2p_test_SendTheMessage
        LOCFRAME ISTACK, 2, STACK
        LOCFRAME PSTACK, 0, STACK
        LOCFRAME XSTACK, 0, STACK
        LOCFRAME IOVERLAY, 0, STATIC
        LOCFRAME DOVERLAY, 0, STATIC
        ARGFRAME ISTACK, 2, STACK
        ARGFRAME PSTACK, 0, STACK
        ARGFRAME XSTACK, 0, STACK
        ARGFRAME IOVERLAY, 0, STATIC
        ARGFRAME DOVERLAY, 0, STATIC
        PUSH    DPL
        CFI DPL0 Frame(CFA_SP, 4)
        CFI CFA_SP SP+-4
        PUSH    DPH
        CFI DPH0 Frame(CFA_SP, 5)
        CFI CFA_SP SP+-5
        ; Saved register size: 2
        ; Auto size: 0
//   62 
//   63     p2p_msg[0] = 0xFF;
        MOV     A,#-0x1
        MOV     DPTR,#p2p_msg
        MOVX    @DPTR,A
//   64    
//   65       p2p_msg[1] = LO_UINT16(shortaddr);
        MOV     DPTR,#shortaddr
        MOVX    A,@DPTR
        MOV     DPTR,#(p2p_msg + 1)
        MOVX    @DPTR,A
//   66       p2p_msg[2] = HI_UINT16(shortaddr);
        MOV     DPTR,#(shortaddr + 1)
        MOVX    A,@DPTR
        MOV     DPTR,#(p2p_msg + 2)
        MOVX    @DPTR,A
//   67       p2p_msg[3] = LO_UINT16(fatheraddr);
        MOV     DPTR,#fatheraddr
        MOVX    A,@DPTR
        MOV     DPTR,#(p2p_msg + 3)
        MOVX    @DPTR,A
//   68       p2p_msg[4] = HI_UINT16(fatheraddr);
        MOV     DPTR,#(fatheraddr + 1)
        MOVX    A,@DPTR
        MOV     DPTR,#(p2p_msg + 4)
        MOVX    @DPTR,A
//   69    //改了跟p2p_test.c里面的一致   by luzi
//   70      // p2p_msg[5]=0;//wendu
//   71     
//   72      // p2p_msg[6]=0;//shidu
//   73       
//   74       p2p_msg[5]=haltemp();//wendu   
        ; Setup parameters for call to function haltemp
        LCALL   ??haltemp?relay
        MOV     A,R1
        MOV     DPTR,#(p2p_msg + 5)
        MOVX    @DPTR,A
//   75       
//   76       p2p_msg[6]=halhumi();//shidu
        ; Setup parameters for call to function halhumi
        LCALL   ??halhumi?relay
        MOV     A,R1
        MOV     DPTR,#(p2p_msg + 6)
        MOVX    @DPTR,A
//   77       
//   78       p2p_msg[7] = 0;
        CLR     A
        MOV     DPTR,#(p2p_msg + 7)
        MOVX    @DPTR,A
//   79  
//   80     if(P1_3 == 1)//烟雾    
        MOV     C,0x90.3
        JNC     ??halProcessSensorInterrupt_0
//   81     {
//   82       //P1IFG &= ~(SmokeSensorBit);
//   83       p2p_msg[7] |= 1;
        MOV     A,#0x1
        MOVX    @DPTR,A
//   84     }
//   85     else
//   86     {
//   87       p2p_msg[7] |= 0;
//   88     }
//   89     
//   90     if (P1IFG & InfraredSensorBit)  //hongwai
??halProcessSensorInterrupt_0:
        MOV     A,0x8a
        MOV     C,0xE0 /* A   */.2
        JNC     ??halProcessSensorInterrupt_1
//   91     {
//   92       P1IFG &= ~(InfraredSensorBit);
        ANL     0x8a,#0xfb
//   93       p2p_msg[7] |= 2;
        MOVX    A,@DPTR
        SETB    0xE0 /* A   */.1
        MOVX    @DPTR,A
//   94     }
//   95     else
//   96     {
//   97       p2p_msg[7] |= 0;
//   98     }
//   99 	// Send "the" message
//  100     P1IF = 0;
??halProcessSensorInterrupt_1:
        CLR     0xe8.3
//  101     p2p_test_SendTheMessage();
        ; Setup parameters for call to function p2p_test_SendTheMessage
        LCALL   ??p2p_test_SendTheMessage?relay
//  102       
//  103       
//  104       
//  105 
//  106 }
        POP     DPH
        CFI DPH0 SameValue
        CFI CFA_SP SP+-4
        POP     DPL
        CFI DPL0 SameValue
        CFI CFA_SP SP+-3
        LJMP    ?BRET
        CFI EndBlock cfiBlock1
        REQUIRE _A_P1
        REQUIRE P1IFG
        REQUIRE _A_IRCON2
//  107 
//  108 /***************************************************************************************************
//  109  *                                    INTERRUPT SERVICE ROUTINE
//  110  ***************************************************************************************************/
//  111 
//  112 /**************************************************************************************************
//  113  * @fn      halSensorPort1Isr
//  114  *
//  115  * @brief   红外烟雾 ISR
//  116  *
//  117  * @param
//  118  *
//  119  * @return
//  120  **************************************************************************************************/

        RSEG NEAR_CODE:CODE:NOROOT(0)
//  121 HAL_ISR_FUNCTION( halSensorPort1Isr, P1INT_VECTOR )
halSensorPort1Isr:
        CFI Block cfiBlock2 Using cfiCommon1
        CFI Function halSensorPort1Isr
//  122 {
        FUNCALL halSensorPort1Isr, halProcessSensorInterrupt
        LOCFRAME ISTACK, 15, STACK
        LOCFRAME PSTACK, 0, STACK
        LOCFRAME XSTACK, 0, STACK
        LOCFRAME IOVERLAY, 0, STATIC
        LOCFRAME DOVERLAY, 0, STATIC
        ARGFRAME ISTACK, 15, STACK
        ARGFRAME PSTACK, 0, STACK
        ARGFRAME XSTACK, 0, STACK
        ARGFRAME IOVERLAY, 0, STATIC
        ARGFRAME DOVERLAY, 0, STATIC
        PUSH    A
        CFI A Frame(CFA_SP, 3)
        CFI CFA_SP SP+-3
        MOV     A,#-0xe
        LCALL   ?INTERRUPT_ENTER_XSP
        CFI B load(1, XDATA, add(CFA_XSP16, literal(-1)))
        CFI VB load(1, XDATA, add(CFA_XSP16, literal(-2)))
        CFI PSW load(1, XDATA, add(CFA_XSP16, literal(-3)))
        CFI DPL0 load(1, XDATA, add(CFA_XSP16, literal(-4)))
        CFI DPH0 load(1, XDATA, add(CFA_XSP16, literal(-5)))
        CFI R7 load(1, XDATA, add(CFA_XSP16, literal(-6)))
        CFI R6 load(1, XDATA, add(CFA_XSP16, literal(-7)))
        CFI R5 load(1, XDATA, add(CFA_XSP16, literal(-8)))
        CFI R4 load(1, XDATA, add(CFA_XSP16, literal(-9)))
        CFI V0 load(1, XDATA, add(CFA_XSP16, literal(-10)))
        CFI R3 load(1, XDATA, add(CFA_XSP16, literal(-11)))
        CFI R2 load(1, XDATA, add(CFA_XSP16, literal(-12)))
        CFI R1 load(1, XDATA, add(CFA_XSP16, literal(-13)))
        CFI R0 load(1, XDATA, add(CFA_XSP16, literal(-14)))
        CFI CFA_XSP16 add(XSP16, 14)
        ; Saved register size: 15
        ; Auto size: 0
//  123     
//  124     CLEAR_SLEEP_MODE();
//  125     halProcessSensorInterrupt();
        ; Setup parameters for call to function halProcessSensorInterrupt
        LCALL   ??halProcessSensorInterrupt?relay
//  126 }
        MOV     R7,#0x1
        LJMP    ?INTERRUPT_LEAVE_XSP
        CFI EndBlock cfiBlock2

        COMMON INTVEC:CODE:ROOT(0)
        ORG 123
`??halSensorPort1Isr??INTVEC 123`:
        LJMP       (halSensorPort1Isr)

        RSEG BANK_RELAYS:CODE:REORDER:NOROOT(0)
??HalSensorConfig?relay:
        LCALL   ?BDISPATCH
        DATA
        DC24    HalSensorConfig

        RSEG BANK_RELAYS:CODE:REORDER:NOROOT(0)
??halProcessSensorInterrupt?relay:
        LCALL   ?BDISPATCH
        DATA
        DC24    halProcessSensorInterrupt

        END
//  127 
// 
// 134 bytes in segment BANKED_CODE
//  12 bytes in segment BANK_RELAYS
//   3 bytes in segment INTVEC
//  15 bytes in segment NEAR_CODE
//   9 bytes in segment SFR_AN
// 
// 161 bytes of CODE memory (+ 3 bytes shared)
//   0 bytes of DATA memory (+ 9 bytes shared)
//
//Errors: none
//Warnings: none
