///////////////////////////////////////////////////////////////////////////////
//                                                                            /
// IAR 8051 C/C++ Compiler V7.30B/W32                   20/Oct/2014  18:58:35 /
// Copyright 2004-2007 IAR Systems. All rights reserved.                      /
//                                                                            /
//    Core               =  plain                                             /
//    Code model         =  banked                                            /
//    Data model         =  large                                             /
//    Calling convention =  xdata reentrant                                   /
//    Constant location  =  data                                              /
//    Dptr setup         =  1,16                                              /
//    Source file        =  C:\8-22\0最新有用\修改中2013.8.12Texas            /
//                          Instruments longmenshan\ZStack-1.4.3-1.2.1\Projec /
//                          ts\zstack\Samples\network                         /
//                          formaton\Source\p2p_test.c                        /
//    Command line       =  -f "C:\8-22\0最新有用\修改中2013.8.12Texas        /
//                          Instruments longmenshan\ZStack-1.4.3-1.2.1\Projec /
//                          ts\zstack\Samples\network                         /
//                          formaton\CC2430DB\..\..\..\Tools\CC2430DB\f8wEnde /
//                          v.cfg" (-DCPU32MHZ -DFORCE_MAC_NEAR               /
//                          -DROOT=__near_func -DMAC_OPT_FFD=0 -DBLINK_LEDS   /
//                          "-DCONST=const __code" -DGENERIC=__generic) -f    /
//                          "C:\8-22\0最新有用\修改中2013.8.12Texas           /
//                          Instruments longmenshan\ZStack-1.4.3-1.2.1\Projec /
//                          ts\zstack\Samples\network                         /
//                          formaton\CC2430DB\..\..\..\Tools\CC2430DB\f8wConf /
//                          ig.cfg" (-DSECURE=0 -DDEFAULT_CHANLIST=0x00000800 /
//                           -DZDAPP_CONFIG_PAN_ID=0x1234                     /
//                          -DNWK_START_DELAY=100 -DEXTENDED_JOINING_RANDOM_M /
//                          ASK=0x007F -DBEACON_REQUEST_DELAY=100             /
//                          -DBEACON_REQ_DELAY_MASK=0x00FF                    /
//                          -DROUTE_EXPIRY_TIME=30 -DAPSC_ACK_WAIT_DURATION_P /
//                          OLLED=3000 -DNWK_INDIRECT_MSG_TIMEOUT=30          /
//                          -DMAX_RREQ_ENTRIES=10 -DAPSC_MAX_FRAME_RETRIES=3  /
//                          -DNWK_MAX_DATA_RETRIES=2                          /
//                          -DMAX_POLL_FAILURE_RETRIES=2 -DMAX_BCAST=9        /
//                          -DAPS_MAX_GROUPS=16 -DMAX_RTG_ENTRIES=20          /
//                          -DNWK_MAX_BINDING_ENTRIES=10                      /
//                          -DMAX_BINDING_CLUSTER_IDS=5                       /
//                          "-DDEFAULT_KEY={0x01, 0x03, 0x05, 0x07, 0x09,     /
//                          0x0B, 0x0D, 0x0F, 0x00, 0x02, 0x04, 0x06, 0x08,   /
//                          0x0A, 0x0C, 0x0D}" -DRFD_RCVC_ALWAYS_ON=FALSE     /
//                          -DPOLL_RATE=10000 -DQUEUED_POLL_RATE=100          /
//                          -DRESPONSE_POLL_RATE=100) -DREJOIN_POLL_RATE=440  /
//                          "C:\8-22\0最新有用\修改中2013.8.12Texas           /
//                          Instruments longmenshan\ZStack-1.4.3-1.2.1\Projec /
//                          ts\zstack\Samples\network                         /
//                          formaton\Source\p2p_test.c" -D CC2430EB -D        /
//                          NWK_AUTO_POLL -D REFLECTOR -D ZTOOL_P1 -D         /
//                          MT_TASK -D MT_ZDO -D xLCD_SUPPORTED=DEBUG -D      /
//                          POWER_SAVING -lC "C:\8-22\0最新有用\修改中2013.8. /
//                          12Texas Instruments longmenshan\ZStack-1.4.3-1.2. /
//                          1\Projects\zstack\Samples\network                 /
//                          formaton\CC2430DB\EndDeviceEB\List\" -lA          /
//                          "C:\8-22\0最新有用\修改中2013.8.12Texas           /
//                          Instruments longmenshan\ZStack-1.4.3-1.2.1\Projec /
//                          ts\zstack\Samples\network                         /
//                          formaton\CC2430DB\EndDeviceEB\List\"              /
//                          --diag_suppress Pe001,Pa010 --diag_remark pe550   /
//                          -o "C:\8-22\0最新有用\修改中2013.8.12Texas        /
//                          Instruments longmenshan\ZStack-1.4.3-1.2.1\Projec /
//                          ts\zstack\Samples\network                         /
//                          formaton\CC2430DB\EndDeviceEB\Obj\" -e            /
//                          --require_prototypes -z9 --no_code_motion         /
//                          --debug --core=plain --dptr=16,1                  /
//                          --data_model=large --code_model=banked            /
//                          --calling_convention=xdata_reentrant              /
//                          --place_constants=data --nr_virtual_regs 8 -I     /
//                          "C:\8-22\0最新有用\修改中2013.8.12Texas           /
//                          Instruments longmenshan\ZStack-1.4.3-1.2.1\Projec /
//                          ts\zstack\Samples\network formaton\CC2430DB\" -I  /
//                          "C:\8-22\0最新有用\修改中2013.8.12Texas           /
//                          Instruments longmenshan\ZStack-1.4.3-1.2.1\Projec /
//                          ts\zstack\Samples\network                         /
//                          formaton\CC2430DB\..\SOURCE\" -I                  /
//                          "C:\8-22\0最新有用\修改中2013.8.12Texas           /
//                          Instruments longmenshan\ZStack-1.4.3-1.2.1\Projec /
//                          ts\zstack\Samples\network                         /
//                          formaton\CC2430DB\..\..\..\ZMAIN\TI2430DB\" -I    /
//                          "C:\8-22\0最新有用\修改中2013.8.12Texas           /
//                          Instruments longmenshan\ZStack-1.4.3-1.2.1\Projec /
//                          ts\zstack\Samples\network                         /
//                          formaton\CC2430DB\..\..\..\..\..\COMPONENTS\MT\"  /
//                          -I "C:\8-22\0最新有用\修改中2013.8.12Texas        /
//                          Instruments longmenshan\ZStack-1.4.3-1.2.1\Projec /
//                          ts\zstack\Samples\network                         /
//                          formaton\CC2430DB\..\..\..\..\..\COMPONENTS\HAL\I /
//                          NCLUDE\" -I "C:\8-22\0最新有用\修改中2013.8.12Tex /
//                          as Instruments longmenshan\ZStack-1.4.3-1.2.1\Pro /
//                          jects\zstack\Samples\network                      /
//                          formaton\CC2430DB\..\..\..\..\..\COMPONENTS\HAL\T /
//                          ARGET\CC2430EB\" -I "C:\8-22\0最新有用\修改中2013 /
//                          .8.12Texas Instruments longmenshan\ZStack-1.4.3-1 /
//                          .2.1\Projects\zstack\Samples\network              /
//                          formaton\CC2430DB\..\..\..\..\..\COMPONENTS\OSAL\ /
//                          MCU\CCSOC\" -I "C:\8-22\0最新有用\修改中2013.8.12 /
//                          Texas Instruments longmenshan\ZStack-1.4.3-1.2.1\ /
//                          Projects\zstack\Samples\network                   /
//                          formaton\CC2430DB\..\..\..\..\..\COMPONENTS\OSAL\ /
//                          INCLUDE\" -I "C:\8-22\0最新有用\修改中2013.8.12Te /
//                          xas Instruments longmenshan\ZStack-1.4.3-1.2.1\Pr /
//                          ojects\zstack\Samples\network                     /
//                          formaton\CC2430DB\..\..\..\..\..\COMPONENTS\STACK /
//                          \AF\" -I "C:\8-22\0最新有用\修改中2013.8.12Texas  /
//                          Instruments longmenshan\ZStack-1.4.3-1.2.1\Projec /
//                          ts\zstack\Samples\network                         /
//                          formaton\CC2430DB\..\..\..\..\..\COMPONENTS\STACK /
//                          \NWK\" -I "C:\8-22\0最新有用\修改中2013.8.12Texas /
//                           Instruments longmenshan\ZStack-1.4.3-1.2.1\Proje /
//                          cts\zstack\Samples\network                        /
//                          formaton\CC2430DB\..\..\..\..\..\COMPONENTS\STACK /
//                          \SEC\" -I "C:\8-22\0最新有用\修改中2013.8.12Texas /
//                           Instruments longmenshan\ZStack-1.4.3-1.2.1\Proje /
//                          cts\zstack\Samples\network                        /
//                          formaton\CC2430DB\..\..\..\..\..\COMPONENTS\STACK /
//                          \SYS\" -I "C:\8-22\0最新有用\修改中2013.8.12Texas /
//                           Instruments longmenshan\ZStack-1.4.3-1.2.1\Proje /
//                          cts\zstack\Samples\network                        /
//                          formaton\CC2430DB\..\..\..\..\..\COMPONENTS\STACK /
//                          \ZDO\" -I "C:\8-22\0最新有用\修改中2013.8.12Texas /
//                           Instruments longmenshan\ZStack-1.4.3-1.2.1\Proje /
//                          cts\zstack\Samples\network                        /
//                          formaton\CC2430DB\..\..\..\..\..\COMPONENTS\ZMAC\ /
//                          F8W\" -I "C:\8-22\0最新有用\修改中2013.8.12Texas  /
//                          Instruments longmenshan\ZStack-1.4.3-1.2.1\Projec /
//                          ts\zstack\Samples\network                         /
//                          formaton\CC2430DB\..\..\..\..\..\COMPONENTS\ZMAC\ /
//                          " -I "C:\8-22\0最新有用\修改中2013.8.12Texas      /
//                          Instruments longmenshan\ZStack-1.4.3-1.2.1\Projec /
//                          ts\zstack\Samples\network                         /
//                          formaton\CC2430DB\..\..\..\..\..\COMPONENTS\SERVI /
//                          CES\SADDR\" -I "C:\8-22\0最新有用\修改中2013.8.12 /
//                          Texas Instruments longmenshan\ZStack-1.4.3-1.2.1\ /
//                          Projects\zstack\Samples\network                   /
//                          formaton\CC2430DB\..\..\..\..\..\COMPONENTS\SERVI /
//                          CES\SDATA\" -I "C:\8-22\0最新有用\修改中2013.8.12 /
//                          Texas Instruments longmenshan\ZStack-1.4.3-1.2.1\ /
//                          Projects\zstack\Samples\network                   /
//                          formaton\CC2430DB\..\..\..\..\..\COMPONENTS\MAC\I /
//                          NCLUDE\" -I "C:\8-22\0最新有用\修改中2013.8.12Tex /
//                          as Instruments longmenshan\ZStack-1.4.3-1.2.1\Pro /
//                          jects\zstack\Samples\network                      /
//                          formaton\CC2430DB\..\..\..\..\..\COMPONENTS\MAC\H /
//                          IGH_LEVEL\" -I "C:\8-22\0最新有用\修改中2013.8.12 /
//                          Texas Instruments longmenshan\ZStack-1.4.3-1.2.1\ /
//                          Projects\zstack\Samples\network                   /
//                          formaton\CC2430DB\..\..\..\..\..\COMPONENTS\MAC\L /
//                          OW_LEVEL\SRF03\" -I "C:\8-22\0最新有用\修改中2013 /
//                          .8.12Texas Instruments longmenshan\ZStack-1.4.3-1 /
//                          .2.1\Projects\zstack\Samples\network              /
//                          formaton\CC2430DB\..\..\..\..\..\COMPONENTS\MAC\L /
//                          OW_LEVEL\SRF03\SINGLE_CHIP\" -I                   /
//                          "D:\XP的D\Program file\IAR\8051\INC\" -I          /
//                          "D:\XP的D\Program file\IAR\8051\INC\CLIB\"        /
//    List file          =  C:\8-22\0最新有用\修改中2013.8.12Texas            /
//                          Instruments longmenshan\ZStack-1.4.3-1.2.1\Projec /
//                          ts\zstack\Samples\network                         /
//                          formaton\CC2430DB\EndDeviceEB\List\p2p_test.s51   /
//                                                                            /
//                                                                            /
///////////////////////////////////////////////////////////////////////////////

        NAME p2p_test

        RTMODEL "__calling_convention", "xdata_reentrant"
        RTMODEL "__code_model", "banked"
        RTMODEL "__core", "plain"
        RTMODEL "__data_model", "large"
        RTMODEL "__dptr_size", "16"
        RTMODEL "__extended_stack", "disabled"
        RTMODEL "__location_for_constants", "data"
        RTMODEL "__number_of_dptrs", "1"
        RTMODEL "__rt_version", "1"

        RSEG DOVERLAY:DATA:NOROOT(0)
        RSEG IOVERLAY:IDATA:NOROOT(0)
        RSEG ISTACK:IDATA:NOROOT(0)
        RSEG PSTACK:XDATA:NOROOT(0)
        RSEG XSTACK:XDATA:NOROOT(0)

        EXTERN ??HalUARTWrite_uint16?relay
        EXTERN ??SendMsg?relay
        EXTERN ??Water_gage_forecastValue?relay
        EXTERN ??check_water_gage_charge?relay
        EXTERN ??crc_water_gage?relay
        EXTERN ??fill_AppHead?relay
        EXTERN ??fill_AppHead_sn?relay
        EXTERN ??fill_NodeId_time?relay
        EXTERN ??halWait?relay
        EXTERN ??insert_RelationMap?relay
        EXTERN ??p2p_test_MessageMSGCB?relay
        EXTERN ??p2p_test_ProcessZDOMsgs?relay
        EXTERN ??p2p_test_RecvFromUart?relay
        EXTERN ??p2p_test_SendRelationPkt?relay
        EXTERN ??p2p_test_SendToUart?relay
        EXTERN ??p2p_test_Send_Water_Gage?relay
        EXTERN ??p2p_test_StartDataSensorTimer?relay
        EXTERN ??p2p_test_recv_108clusterId?relay
        EXTERN ??p2p_test_recv_RelationMsgclusterId?relay
        EXTERN ??search_RelationMap?relay
        EXTERN ??start_Water_gage_timer?relay
        EXTERN ?ALLOC_XSTACK8
        EXTERN ?BANKED_ENTER_XDATA
        EXTERN ?BANKED_LEAVE_XDATA
        EXTERN ?BDISPATCH
        EXTERN ?BRET
        EXTERN ?DEALLOC_XSTACK8
        EXTERN ?FLT_ADD
        EXTERN ?FLT_DIV
        EXTERN ?FLT_MUL
        EXTERN ?FLT_SUB
        EXTERN ?FLT_TO_L
        EXTERN ?L_ADD
        EXTERN ?L_ADD_X
        EXTERN ?L_EQ_X
        EXTERN ?L_MOV_TO_X
        EXTERN ?L_MOV_X
        EXTERN ?PUSH_XSTACK8_X
        EXTERN ?PUSH_XSTACK_I_ONE
        EXTERN ?PUSH_XSTACK_I_TWO
        EXTERN ?S_SHL
        EXTERN ?UC_SWITCH_SPARSE
        EXTERN ?UL_GT_X
        EXTERN ?UL_SHR
        EXTERN ?UL_TO_FLT
        EXTERN ?US_DIV_MOD
        EXTERN ?US_SHR
        EXTERN ?US_SWITCH_SPARSE
        EXTERN ?V0
        EXTERN ?XSP
        EXTERN ?XSTACK_DISP0_8
        EXTERN __INIT_XDATA_I
        EXTERN __INIT_XDATA_Z

        PUBLIC ??HalUARTWrite_uint16?relay
        FUNCTION ??HalUARTWrite_uint16?relay,0203H
        PUBLIC ??SendMsg?relay
        FUNCTION ??SendMsg?relay,0203H
        PUBLIC ??Water_gage_forecastValue?relay
        FUNCTION ??Water_gage_forecastValue?relay,0203H
        PUBLIC ??check_water_gage_charge?relay
        FUNCTION ??check_water_gage_charge?relay,0203H
        PUBLIC ??crc_water_gage?relay
        FUNCTION ??crc_water_gage?relay,0203H
        PUBLIC ??fill_AppHead?relay
        FUNCTION ??fill_AppHead?relay,0203H
        PUBLIC ??fill_AppHead_sn?relay
        FUNCTION ??fill_AppHead_sn?relay,0203H
        PUBLIC ??fill_NodeId_time?relay
        FUNCTION ??fill_NodeId_time?relay,0203H
        PUBLIC ??halWait?relay
        FUNCTION ??halWait?relay,0203H
        PUBLIC ??insert_RelationMap?relay
        FUNCTION ??insert_RelationMap?relay,0203H
        PUBLIC ??p2p_test_Init?relay
        FUNCTION ??p2p_test_Init?relay,0203H
        PUBLIC ??p2p_test_MessageMSGCB?relay
        FUNCTION ??p2p_test_MessageMSGCB?relay,0203H
        PUBLIC ??p2p_test_ProcessEvent?relay
        FUNCTION ??p2p_test_ProcessEvent?relay,0203H
        PUBLIC ??p2p_test_ProcessZDOMsgs?relay
        FUNCTION ??p2p_test_ProcessZDOMsgs?relay,0203H
        PUBLIC ??p2p_test_RecvFromUart?relay
        FUNCTION ??p2p_test_RecvFromUart?relay,0203H
        PUBLIC ??p2p_test_SendRelationPkt?relay
        FUNCTION ??p2p_test_SendRelationPkt?relay,0203H
        PUBLIC ??p2p_test_SendToUart?relay
        FUNCTION ??p2p_test_SendToUart?relay,0203H
        PUBLIC ??p2p_test_Send_Water_Gage?relay
        FUNCTION ??p2p_test_Send_Water_Gage?relay,0203H
        PUBLIC ??p2p_test_StartDataSensorTimer?relay
        FUNCTION ??p2p_test_StartDataSensorTimer?relay,0203H
        PUBLIC ??p2p_test_recv_108clusterId?relay
        FUNCTION ??p2p_test_recv_108clusterId?relay,0203H
        PUBLIC ??p2p_test_recv_RelationMsgclusterId?relay
        FUNCTION ??p2p_test_recv_RelationMsgclusterId?relay,0203H
        PUBLIC ??search_RelationMap?relay
        FUNCTION ??search_RelationMap?relay,0203H
        PUBLIC ??start_Water_gage_timer?relay
        FUNCTION ??start_Water_gage_timer?relay,0203H
        PUBWEAK CLKCON
        PUBLIC CheckWaterGageChargeTimeFreq
        PUBLIC HalUARTWrite_uint16
        FUNCTION HalUARTWrite_uint16,021203H
        ARGFRAME XSTACK, 37, STACK
        ARGFRAME IOVERLAY, 0, STATIC
        ARGFRAME DOVERLAY, 0, STATIC
        LOCFRAME ISTACK, 3, STACK
        LOCFRAME XSTACK, 2, STACK
        PUBWEAK P1DIR
        PUBWEAK P1SEL
        PUBWEAK P2DIR
        PUBWEAK P2SEL
        PUBLIC SendMsg
        FUNCTION SendMsg,021203H
        ARGFRAME XSTACK, 43, STACK
        ARGFRAME IOVERLAY, 0, STATIC
        ARGFRAME DOVERLAY, 0, STATIC
        LOCFRAME XSTACK, 21, STACK
        PUBWEAK WDCTL
        PUBLIC Water_Gage_data_and_time
        PUBLIC Water_gage_forecastValue
        FUNCTION Water_gage_forecastValue,0203H
        ARGFRAME XSTACK, 55, STACK
        ARGFRAME IOVERLAY, 0, STATIC
        ARGFRAME DOVERLAY, 0, STATIC
        LOCFRAME ISTACK, 8, STACK
        LOCFRAME XSTACK, 52, STACK
        PUBLIC Water_gage_time
        PUBWEAK _A_IEN0
        PUBWEAK _A_P1
        PUBWEAK _A_P2
        PUBWEAK __Constant_0
        PUBWEAK __Constant_40400000
        PUBWEAK __Constant_ffffffff
        PUBLIC check_water_gage_charge
        FUNCTION check_water_gage_charge,021203H
        ARGFRAME XSTACK, 23, STACK
        ARGFRAME IOVERLAY, 0, STATIC
        ARGFRAME DOVERLAY, 0, STATIC
        LOCFRAME ISTACK, 3, STACK
        LOCFRAME XSTACK, 1, STACK
        PUBLIC crc_water_gage
        FUNCTION crc_water_gage,0203H
        ARGFRAME XSTACK, 13, STACK
        ARGFRAME IOVERLAY, 0, STATIC
        ARGFRAME DOVERLAY, 0, STATIC
        LOCFRAME ISTACK, 1, STACK
        LOCFRAME XSTACK, 17, STACK
        PUBLIC fatheraddr
        PUBLIC fill_AppHead
        FUNCTION fill_AppHead,0203H
        ARGFRAME XSTACK, 39, STACK
        ARGFRAME IOVERLAY, 0, STATIC
        ARGFRAME DOVERLAY, 0, STATIC
        LOCFRAME ISTACK, 3, STACK
        LOCFRAME XSTACK, 9, STACK
        PUBLIC fill_AppHead_sn
        FUNCTION fill_AppHead_sn,0203H
        ARGFRAME XSTACK, 21, STACK
        ARGFRAME IOVERLAY, 0, STATIC
        ARGFRAME DOVERLAY, 0, STATIC
        LOCFRAME ISTACK, 3, STACK
        LOCFRAME XSTACK, 10, STACK
        PUBLIC fill_NodeId_time
        FUNCTION fill_NodeId_time,021203H
        ARGFRAME XSTACK, 37, STACK
        ARGFRAME IOVERLAY, 0, STATIC
        ARGFRAME DOVERLAY, 0, STATIC
        LOCFRAME ISTACK, 1, STACK
        LOCFRAME XSTACK, 15, STACK
        PUBLIC halWait
        FUNCTION halWait,0203H
        ARGFRAME XSTACK, 17, STACK
        ARGFRAME IOVERLAY, 0, STATIC
        ARGFRAME DOVERLAY, 0, STATIC
        LOCFRAME XSTACK, 16, STACK
        PUBLIC insert_RelationMap
        FUNCTION insert_RelationMap,021203H
        ARGFRAME XSTACK, 22, STACK
        ARGFRAME IOVERLAY, 0, STATIC
        ARGFRAME DOVERLAY, 0, STATIC
        LOCFRAME ISTACK, 1, STACK
        LOCFRAME XSTACK, 14, STACK
        PUBLIC p2p_test_ClusterList
        PUBLIC p2p_test_DstAddr
        PUBLIC p2p_test_EnddeviceAddr
        PUBLIC p2p_test_Init
        FUNCTION p2p_test_Init,021203H
        ARGFRAME XSTACK, 0, STACK
        LOCFRAME ISTACK, 3, STACK
        PUBLIC p2p_test_MessageMSGCB
        FUNCTION p2p_test_MessageMSGCB,0a1203H
        ARGFRAME XSTACK, 23, STACK
        ARGFRAME IOVERLAY, 0, STATIC
        ARGFRAME DOVERLAY, 0, STATIC
        LOCFRAME XSTACK, 10, STACK
        PUBLIC p2p_test_NwkState
        PUBLIC p2p_test_ProcessEvent
        FUNCTION p2p_test_ProcessEvent,0a1203H
        ARGFRAME XSTACK, 0, STACK
        LOCFRAME ISTACK, 1, STACK
        LOCFRAME XSTACK, 23, STACK
        PUBLIC p2p_test_ProcessZDOMsgs
        FUNCTION p2p_test_ProcessZDOMsgs,0a1203H
        ARGFRAME XSTACK, 23, STACK
        ARGFRAME IOVERLAY, 0, STATIC
        ARGFRAME DOVERLAY, 0, STATIC
        LOCFRAME XSTACK, 10, STACK
        PUBLIC p2p_test_RecvFromUart
        FUNCTION p2p_test_RecvFromUart,021203H
        ARGFRAME XSTACK, 23, STACK
        ARGFRAME IOVERLAY, 0, STATIC
        ARGFRAME DOVERLAY, 0, STATIC
        LOCFRAME ISTACK, 2, STACK
        LOCFRAME XSTACK, 55, STACK
        PUBLIC p2p_test_SendRelationPkt
        FUNCTION p2p_test_SendRelationPkt,021203H
        ARGFRAME XSTACK, 23, STACK
        ARGFRAME IOVERLAY, 0, STATIC
        ARGFRAME DOVERLAY, 0, STATIC
        LOCFRAME ISTACK, 1, STACK
        LOCFRAME XSTACK, 38, STACK
        PUBLIC p2p_test_SendToUart
        FUNCTION p2p_test_SendToUart,021203H
        ARGFRAME XSTACK, 17, STACK
        ARGFRAME IOVERLAY, 0, STATIC
        ARGFRAME DOVERLAY, 0, STATIC
        LOCFRAME ISTACK, 1, STACK
        LOCFRAME XSTACK, 17, STACK
        PUBLIC p2p_test_Send_Water_Gage
        FUNCTION p2p_test_Send_Water_Gage,021203H
        ARGFRAME XSTACK, 23, STACK
        ARGFRAME IOVERLAY, 0, STATIC
        ARGFRAME DOVERLAY, 0, STATIC
        LOCFRAME ISTACK, 1, STACK
        LOCFRAME XSTACK, 13, STACK
        PUBLIC p2p_test_SimpleDesc
        PUBLIC p2p_test_StartDataSensorTimer
        FUNCTION p2p_test_StartDataSensorTimer,021203H
        ARGFRAME XSTACK, 37, STACK
        ARGFRAME IOVERLAY, 0, STATIC
        ARGFRAME DOVERLAY, 0, STATIC
        LOCFRAME ISTACK, 2, STACK
        PUBLIC p2p_test_TaskID
        PUBLIC p2p_test_TransID
        PUBLIC p2p_test_epDesc
        PUBLIC p2p_test_recv_108clusterId
        FUNCTION p2p_test_recv_108clusterId,0a1203H
        ARGFRAME XSTACK, 37, STACK
        ARGFRAME IOVERLAY, 0, STATIC
        ARGFRAME DOVERLAY, 0, STATIC
        LOCFRAME ISTACK, 1, STACK
        LOCFRAME XSTACK, 23, STACK
        PUBLIC p2p_test_recv_RelationMsgclusterId
        FUNCTION p2p_test_recv_RelationMsgclusterId,021203H
        ARGFRAME XSTACK, 10, STACK
        ARGFRAME IOVERLAY, 0, STATIC
        ARGFRAME DOVERLAY, 0, STATIC
        LOCFRAME ISTACK, 1, STACK
        LOCFRAME XSTACK, 31, STACK
        PUBLIC search_RelationMap
        FUNCTION search_RelationMap,0203H
        ARGFRAME XSTACK, 22, STACK
        ARGFRAME IOVERLAY, 0, STATIC
        ARGFRAME DOVERLAY, 0, STATIC
        LOCFRAME ISTACK, 2, STACK
        PUBLIC shortaddr
        PUBLIC start_Water_gage_timer
        FUNCTION start_Water_gage_timer,021203H
        ARGFRAME XSTACK, 37, STACK
        ARGFRAME IOVERLAY, 0, STATIC
        ARGFRAME DOVERLAY, 0, STATIC
        LOCFRAME ISTACK, 2, STACK
        
        CFI Names cfiNames0
        CFI StackFrame CFA_SP SP DATA
        CFI StackFrame CFA_PSP16 PSP16 XDATA
        CFI StackFrame CFA_XSP16 XSP16 XDATA
        CFI StaticOverlayFrame CFA_IOVERLAY IOVERLAY
        CFI StaticOverlayFrame CFA_DOVERLAY DOVERLAY
        CFI Resource `PSW.CY`:1, `B.BR0`:1, `B.BR1`:1, `B.BR2`:1, `B.BR3`:1
        CFI Resource `B.BR4`:1, `B.BR5`:1, `B.BR6`:1, `B.BR7`:1, `VB.BR8`:1
        CFI Resource `VB.BR9`:1, `VB.BR10`:1, `VB.BR11`:1, `VB.BR12`:1
        CFI Resource `VB.BR13`:1, `VB.BR14`:1, `VB.BR15`:1, VB:8, B:8, A:8
        CFI Resource PSW:8, DPL0:8, DPH0:8, R0:8, R1:8, R2:8, R3:8, R4:8, R5:8
        CFI Resource R6:8, R7:8, V0:8, V1:8, V2:8, V3:8, V4:8, V5:8, V6:8, V7:8
        CFI Resource SP:8, PSPH:8, PSPL:8, PSP16:16, XSPH:8, XSPL:8, XSP16:16
        CFI VirtualResource ?RET:24
        CFI Resource ?BRET_EXT:8
        CFI VirtualResource ?RET_HIGH:8, ?RET_LOW:8
        CFI ResourceParts PSP16 PSPH, PSPL
        CFI ResourceParts XSP16 XSPH, XSPL
        CFI ResourceParts ?RET ?BRET_EXT, ?RET_HIGH, ?RET_LOW
        CFI EndNames cfiNames0
        
        CFI Common cfiCommon0 Using cfiNames0
        CFI CodeAlign 1
        CFI DataAlign -1
        CFI ReturnAddress ?RET CODE
        CFI CFA_DOVERLAY Used
        CFI CFA_IOVERLAY Used
        CFI CFA_SP SP+-3
        CFI CFA_PSP16 PSP16+0
        CFI CFA_XSP16 XSP16+0
        CFI `PSW.CY` SameValue
        CFI `B.BR0` SameValue
        CFI `B.BR1` SameValue
        CFI `B.BR2` SameValue
        CFI `B.BR3` SameValue
        CFI `B.BR4` SameValue
        CFI `B.BR5` SameValue
        CFI `B.BR6` SameValue
        CFI `B.BR7` SameValue
        CFI `VB.BR8` SameValue
        CFI `VB.BR9` SameValue
        CFI `VB.BR10` SameValue
        CFI `VB.BR11` SameValue
        CFI `VB.BR12` SameValue
        CFI `VB.BR13` SameValue
        CFI `VB.BR14` SameValue
        CFI `VB.BR15` SameValue
        CFI VB SameValue
        CFI B Undefined
        CFI A Undefined
        CFI PSW SameValue
        CFI DPL0 SameValue
        CFI DPH0 SameValue
        CFI R0 Undefined
        CFI R1 Undefined
        CFI R2 Undefined
        CFI R3 Undefined
        CFI R4 Undefined
        CFI R5 Undefined
        CFI R6 SameValue
        CFI R7 SameValue
        CFI V0 SameValue
        CFI V1 SameValue
        CFI V2 SameValue
        CFI V3 SameValue
        CFI V4 SameValue
        CFI V5 SameValue
        CFI V6 SameValue
        CFI V7 SameValue
        CFI PSPH Undefined
        CFI PSPL Undefined
        CFI XSPH Undefined
        CFI XSPL Undefined
        CFI ?RET Concat
        CFI ?BRET_EXT Frame(CFA_SP, 3)
        CFI ?RET_HIGH Frame(CFA_SP, 2)
        CFI ?RET_LOW Frame(CFA_SP, 1)
        CFI EndCommon cfiCommon0
        
        
        CFI Common cfiCommon1 Using cfiNames0
        CFI CodeAlign 1
        CFI DataAlign -1
        CFI ReturnAddress ?RET CODE
        CFI CFA_DOVERLAY Used
        CFI CFA_IOVERLAY Used
        CFI CFA_SP SP+-2
        CFI CFA_PSP16 PSP16+0
        CFI CFA_XSP16 XSP16+0
        CFI `PSW.CY` SameValue
        CFI `B.BR0` SameValue
        CFI `B.BR1` SameValue
        CFI `B.BR2` SameValue
        CFI `B.BR3` SameValue
        CFI `B.BR4` SameValue
        CFI `B.BR5` SameValue
        CFI `B.BR6` SameValue
        CFI `B.BR7` SameValue
        CFI `VB.BR8` SameValue
        CFI `VB.BR9` SameValue
        CFI `VB.BR10` SameValue
        CFI `VB.BR11` SameValue
        CFI `VB.BR12` SameValue
        CFI `VB.BR13` SameValue
        CFI `VB.BR14` SameValue
        CFI `VB.BR15` SameValue
        CFI VB SameValue
        CFI B SameValue
        CFI A SameValue
        CFI PSW SameValue
        CFI DPL0 SameValue
        CFI DPH0 SameValue
        CFI R0 SameValue
        CFI R1 SameValue
        CFI R2 SameValue
        CFI R3 SameValue
        CFI R4 SameValue
        CFI R5 SameValue
        CFI R6 SameValue
        CFI R7 SameValue
        CFI V0 SameValue
        CFI V1 SameValue
        CFI V2 SameValue
        CFI V3 SameValue
        CFI V4 SameValue
        CFI V5 SameValue
        CFI V6 SameValue
        CFI V7 SameValue
        CFI PSPH Undefined
        CFI PSPL Undefined
        CFI XSPH Undefined
        CFI XSPL Undefined
        CFI ?RET Concat
        CFI ?BRET_EXT SameValue
        CFI ?RET_HIGH Frame(CFA_SP, 2)
        CFI ?RET_LOW Frame(CFA_SP, 1)
        CFI EndCommon cfiCommon1
        
osal_start_timerEx  SYMBOL "osal_start_timerEx"
HalUARTWrite        SYMBOL "HalUARTWrite"
osal_msg_allocate   SYMBOL "osal_msg_allocate"
afRegister          SYMBOL "afRegister"
OpenP1Interrupt     SYMBOL "OpenP1Interrupt"
RegisterP1Interrupt SYMBOL "RegisterP1Interrupt"
StartP1Interrupt    SYMBOL "StartP1Interrupt"
SPIMgr_RegisterTaskID SYMBOL "SPIMgr_RegisterTaskID"
ZDO_RegisterForZDOMsg SYMBOL "ZDO_RegisterForZDOMsg"
osal_msg_receive    SYMBOL "osal_msg_receive"
osal_msg_deallocate SYMBOL "osal_msg_deallocate"
osal_stop_timerEx   SYMBOL "osal_stop_timerEx"
HalLedSet           SYMBOL "HalLedSet"
ZDO_ParseEPListRsp  SYMBOL "ZDO_ParseEPListRsp"
osal_mem_free       SYMBOL "osal_mem_free"
AF_DataRequest      SYMBOL "AF_DataRequest"
SPIMgr_CalcFCS      SYMBOL "SPIMgr_CalcFCS"
osal_GetSystemClock SYMBOL "osal_GetSystemClock"
??AF_DataRequest?relay SYMBOL "?relay", AF_DataRequest
??HalLedSet?relay   SYMBOL "?relay", HalLedSet
??HalUARTWrite?relay SYMBOL "?relay", HalUARTWrite
??OpenP1Interrupt?relay SYMBOL "?relay", OpenP1Interrupt
??RegisterP1Interrupt?relay SYMBOL "?relay", RegisterP1Interrupt
??SPIMgr_CalcFCS?relay SYMBOL "?relay", SPIMgr_CalcFCS
??SPIMgr_RegisterTaskID?relay SYMBOL "?relay", SPIMgr_RegisterTaskID
??StartP1Interrupt?relay SYMBOL "?relay", StartP1Interrupt
??ZDO_ParseEPListRsp?relay SYMBOL "?relay", ZDO_ParseEPListRsp
??ZDO_RegisterForZDOMsg?relay SYMBOL "?relay", ZDO_RegisterForZDOMsg
??afRegister?relay  SYMBOL "?relay", afRegister
??osal_GetSystemClock?relay SYMBOL "?relay", osal_GetSystemClock
??osal_mem_free?relay SYMBOL "?relay", osal_mem_free
??osal_msg_allocate?relay SYMBOL "?relay", osal_msg_allocate
??osal_msg_deallocate?relay SYMBOL "?relay", osal_msg_deallocate
??osal_msg_receive?relay SYMBOL "?relay", osal_msg_receive
??osal_start_timerEx?relay SYMBOL "?relay", osal_start_timerEx
??osal_stop_timerEx?relay SYMBOL "?relay", osal_stop_timerEx
HalUARTWrite_uint16 SYMBOL "HalUARTWrite_uint16"
??HalUARTWrite_uint16?relay SYMBOL "?relay", HalUARTWrite_uint16
SendMsg             SYMBOL "SendMsg"
??SendMsg?relay     SYMBOL "?relay", SendMsg
Water_gage_forecastValue SYMBOL "Water_gage_forecastValue"
??Water_gage_forecastValue?relay SYMBOL "?relay", Water_gage_forecastValue
check_water_gage_charge SYMBOL "check_water_gage_charge"
??check_water_gage_charge?relay SYMBOL "?relay", check_water_gage_charge
crc_water_gage      SYMBOL "crc_water_gage"
??crc_water_gage?relay SYMBOL "?relay", crc_water_gage
fill_AppHead        SYMBOL "fill_AppHead"
??fill_AppHead?relay SYMBOL "?relay", fill_AppHead
fill_AppHead_sn     SYMBOL "fill_AppHead_sn"
??fill_AppHead_sn?relay SYMBOL "?relay", fill_AppHead_sn
fill_NodeId_time    SYMBOL "fill_NodeId_time"
??fill_NodeId_time?relay SYMBOL "?relay", fill_NodeId_time
halWait             SYMBOL "halWait"
??halWait?relay     SYMBOL "?relay", halWait
insert_RelationMap  SYMBOL "insert_RelationMap"
??insert_RelationMap?relay SYMBOL "?relay", insert_RelationMap
p2p_test_Init       SYMBOL "p2p_test_Init"
??p2p_test_Init?relay SYMBOL "?relay", p2p_test_Init
p2p_test_MessageMSGCB SYMBOL "p2p_test_MessageMSGCB"
??p2p_test_MessageMSGCB?relay SYMBOL "?relay", p2p_test_MessageMSGCB
p2p_test_ProcessEvent SYMBOL "p2p_test_ProcessEvent"
??p2p_test_ProcessEvent?relay SYMBOL "?relay", p2p_test_ProcessEvent
p2p_test_ProcessZDOMsgs SYMBOL "p2p_test_ProcessZDOMsgs"
??p2p_test_ProcessZDOMsgs?relay SYMBOL "?relay", p2p_test_ProcessZDOMsgs
p2p_test_RecvFromUart SYMBOL "p2p_test_RecvFromUart"
??p2p_test_RecvFromUart?relay SYMBOL "?relay", p2p_test_RecvFromUart
p2p_test_SendRelationPkt SYMBOL "p2p_test_SendRelationPkt"
??p2p_test_SendRelationPkt?relay SYMBOL "?relay", p2p_test_SendRelationPkt
p2p_test_SendToUart SYMBOL "p2p_test_SendToUart"
??p2p_test_SendToUart?relay SYMBOL "?relay", p2p_test_SendToUart
p2p_test_Send_Water_Gage SYMBOL "p2p_test_Send_Water_Gage"
??p2p_test_Send_Water_Gage?relay SYMBOL "?relay", p2p_test_Send_Water_Gage
p2p_test_StartDataSensorTimer SYMBOL "p2p_test_StartDataSensorTimer"
??p2p_test_StartDataSensorTimer?relay SYMBOL "?relay", p2p_test_StartDataSensorTimer
p2p_test_recv_108clusterId SYMBOL "p2p_test_recv_108clusterId"
??p2p_test_recv_108clusterId?relay SYMBOL "?relay", p2p_test_recv_108clusterId
p2p_test_recv_RelationMsgclusterId SYMBOL "p2p_test_recv_RelationMsgclusterId"
??p2p_test_recv_RelationMsgclusterId?relay SYMBOL "?relay", p2p_test_recv_RelationMsgclusterId
search_RelationMap  SYMBOL "search_RelationMap"
??search_RelationMap?relay SYMBOL "?relay", search_RelationMap
start_Water_gage_timer SYMBOL "start_Water_gage_timer"
??start_Water_gage_timer?relay SYMBOL "?relay", start_Water_gage_timer

        EXTERN osal_start_timerEx
        FUNCTION osal_start_timerEx,0202H
        ARGFRAME ISTACK, 2, STACK
        ARGFRAME PSTACK, 0, STACK
        ARGFRAME XSTACK, 32, STACK
        ARGFRAME IOVERLAY, 0, STATIC
        ARGFRAME DOVERLAY, 0, STATIC
        EXTERN HalUARTWrite
        FUNCTION HalUARTWrite,0202H
        ARGFRAME ISTACK, 2, STACK
        ARGFRAME PSTACK, 0, STACK
        ARGFRAME XSTACK, 37, STACK
        ARGFRAME IOVERLAY, 0, STATIC
        ARGFRAME DOVERLAY, 0, STATIC
        EXTERN osal_msg_allocate
        FUNCTION osal_msg_allocate,0202H
        ARGFRAME ISTACK, 2, STACK
        ARGFRAME PSTACK, 0, STACK
        ARGFRAME XSTACK, 22, STACK
        ARGFRAME IOVERLAY, 0, STATIC
        ARGFRAME DOVERLAY, 0, STATIC
        EXTERN afRegister
        FUNCTION afRegister,0202H
        ARGFRAME ISTACK, 2, STACK
        ARGFRAME PSTACK, 0, STACK
        ARGFRAME XSTACK, 0, STACK
        ARGFRAME IOVERLAY, 0, STATIC
        ARGFRAME DOVERLAY, 0, STATIC
        EXTERN OpenP1Interrupt
        FUNCTION OpenP1Interrupt,0202H
        ARGFRAME ISTACK, 2, STACK
        ARGFRAME PSTACK, 0, STACK
        ARGFRAME XSTACK, 0, STACK
        ARGFRAME IOVERLAY, 0, STATIC
        ARGFRAME DOVERLAY, 0, STATIC
        EXTERN RegisterP1Interrupt
        FUNCTION RegisterP1Interrupt,0202H
        ARGFRAME ISTACK, 2, STACK
        ARGFRAME PSTACK, 0, STACK
        ARGFRAME XSTACK, 0, STACK
        ARGFRAME IOVERLAY, 0, STATIC
        ARGFRAME DOVERLAY, 0, STATIC
        EXTERN StartP1Interrupt
        FUNCTION StartP1Interrupt,0202H
        ARGFRAME ISTACK, 2, STACK
        ARGFRAME PSTACK, 0, STACK
        ARGFRAME XSTACK, 0, STACK
        ARGFRAME IOVERLAY, 0, STATIC
        ARGFRAME DOVERLAY, 0, STATIC
        EXTERN SPIMgr_RegisterTaskID
        FUNCTION SPIMgr_RegisterTaskID,0202H
        ARGFRAME ISTACK, 2, STACK
        ARGFRAME PSTACK, 0, STACK
        ARGFRAME XSTACK, 0, STACK
        ARGFRAME IOVERLAY, 0, STATIC
        ARGFRAME DOVERLAY, 0, STATIC
        EXTERN ZDO_RegisterForZDOMsg
        FUNCTION ZDO_RegisterForZDOMsg,0202H
        ARGFRAME ISTACK, 2, STACK
        ARGFRAME PSTACK, 0, STACK
        ARGFRAME XSTACK, 0, STACK
        ARGFRAME IOVERLAY, 0, STATIC
        ARGFRAME DOVERLAY, 0, STATIC
        EXTERN osal_msg_receive
        FUNCTION osal_msg_receive,0202H
        ARGFRAME ISTACK, 0, STACK
        ARGFRAME PSTACK, 0, STACK
        ARGFRAME XSTACK, 23, STACK
        ARGFRAME IOVERLAY, 0, STATIC
        ARGFRAME DOVERLAY, 0, STATIC
        EXTERN osal_msg_deallocate
        FUNCTION osal_msg_deallocate,0202H
        ARGFRAME ISTACK, 0, STACK
        ARGFRAME PSTACK, 0, STACK
        ARGFRAME XSTACK, 23, STACK
        ARGFRAME IOVERLAY, 0, STATIC
        ARGFRAME DOVERLAY, 0, STATIC
        EXTERN osal_stop_timerEx
        FUNCTION osal_stop_timerEx,0202H
        ARGFRAME ISTACK, 0, STACK
        ARGFRAME PSTACK, 0, STACK
        ARGFRAME XSTACK, 37, STACK
        ARGFRAME IOVERLAY, 0, STATIC
        ARGFRAME DOVERLAY, 0, STATIC
        EXTERN HalLedSet
        FUNCTION HalLedSet,0202H
        ARGFRAME ISTACK, 0, STACK
        ARGFRAME PSTACK, 0, STACK
        ARGFRAME XSTACK, 10, STACK
        ARGFRAME IOVERLAY, 0, STATIC
        ARGFRAME DOVERLAY, 0, STATIC
        EXTERN ZDO_ParseEPListRsp
        FUNCTION ZDO_ParseEPListRsp,0202H
        ARGFRAME ISTACK, 0, STACK
        ARGFRAME PSTACK, 0, STACK
        ARGFRAME XSTACK, 10, STACK
        ARGFRAME IOVERLAY, 0, STATIC
        ARGFRAME DOVERLAY, 0, STATIC
        EXTERN osal_mem_free
        FUNCTION osal_mem_free,0202H
        ARGFRAME ISTACK, 0, STACK
        ARGFRAME PSTACK, 0, STACK
        ARGFRAME XSTACK, 10, STACK
        ARGFRAME IOVERLAY, 0, STATIC
        ARGFRAME DOVERLAY, 0, STATIC
        EXTERN AF_DataRequest
        FUNCTION AF_DataRequest,0202H
        ARGFRAME ISTACK, 0, STACK
        ARGFRAME PSTACK, 0, STACK
        ARGFRAME XSTACK, 46, STACK
        ARGFRAME IOVERLAY, 0, STATIC
        ARGFRAME DOVERLAY, 0, STATIC
        EXTERN SPIMgr_CalcFCS
        FUNCTION SPIMgr_CalcFCS,0202H
        ARGFRAME ISTACK, 0, STACK
        ARGFRAME PSTACK, 0, STACK
        ARGFRAME XSTACK, 17, STACK
        ARGFRAME IOVERLAY, 0, STATIC
        ARGFRAME DOVERLAY, 0, STATIC
        EXTERN osal_GetSystemClock
        FUNCTION osal_GetSystemClock,0202H
        ARGFRAME ISTACK, 0, STACK
        ARGFRAME PSTACK, 0, STACK
        ARGFRAME XSTACK, 15, STACK
        ARGFRAME IOVERLAY, 0, STATIC
        ARGFRAME DOVERLAY, 0, STATIC
        EXTERN ??AF_DataRequest?relay
        FUNCTION ??AF_DataRequest?relay,00H
        EXTERN ??HalLedSet?relay
        FUNCTION ??HalLedSet?relay,00H
        EXTERN ??HalUARTWrite?relay
        FUNCTION ??HalUARTWrite?relay,00H
        EXTERN ??OpenP1Interrupt?relay
        FUNCTION ??OpenP1Interrupt?relay,00H
        EXTERN ??RegisterP1Interrupt?relay
        FUNCTION ??RegisterP1Interrupt?relay,00H
        EXTERN ??SPIMgr_CalcFCS?relay
        FUNCTION ??SPIMgr_CalcFCS?relay,00H
        EXTERN ??SPIMgr_RegisterTaskID?relay
        FUNCTION ??SPIMgr_RegisterTaskID?relay,00H
        EXTERN ??StartP1Interrupt?relay
        FUNCTION ??StartP1Interrupt?relay,00H
        EXTERN ??ZDO_ParseEPListRsp?relay
        FUNCTION ??ZDO_ParseEPListRsp?relay,00H
        EXTERN ??ZDO_RegisterForZDOMsg?relay
        FUNCTION ??ZDO_RegisterForZDOMsg?relay,00H
        EXTERN ??afRegister?relay
        FUNCTION ??afRegister?relay,00H
        EXTERN ??osal_GetSystemClock?relay
        FUNCTION ??osal_GetSystemClock?relay,00H
        EXTERN ??osal_mem_free?relay
        FUNCTION ??osal_mem_free?relay,00H
        EXTERN ??osal_msg_allocate?relay
        FUNCTION ??osal_msg_allocate?relay,00H
        EXTERN ??osal_msg_deallocate?relay
        FUNCTION ??osal_msg_deallocate?relay,00H
        EXTERN ??osal_msg_receive?relay
        FUNCTION ??osal_msg_receive?relay,00H
        EXTERN ??osal_start_timerEx?relay
        FUNCTION ??osal_start_timerEx?relay,00H
        EXTERN ??osal_stop_timerEx?relay
        FUNCTION ??osal_stop_timerEx?relay,00H

// C:\8-22\0最新有用\修改中2013.8.12Texas Instruments longmenshan\ZStack-1.4.3-1.2.1\Projects\zstack\Samples\network formaton\Source\p2p_test.c
//    1 //本版本在已有的功能上添加了水位计和土壤湿度传感器的终端节点自适应周期调整定时休眠机制 2013.7.15
//    2 //且添加了不同水位计数据类型的获取情形（2013.7.17）
//    3 //且添加了水位计临时断电的情形（2013.7.17）
//    4 //将水位计默认类型改为3，接近实际应用，将区间间隔改为变量，可作为设置报文参数（2013.7.23）
//    5 //解决多次收到关联ack影响数据采集时间的bug(2013.7.24)
//    6 //p1_1作为水位计的电源控制开关（2013.7.28）
//    7 //修改NWK_INDIRECT_MSG_TIMEOUT = 30   和POLL_RATE=10000（2013.7.28） 
//    8 //增加zigbee节点重启后的设置报文和水位计关闭门限（2013.7.31） 
//    9 //添加 项目验收关闭水位计，平时不关闭水位计（2013.8.13）
//   10 //稳定测试（100h），已不存在/*长时间可能不稳定，一段时间后普通节点等待重新关联*/问题（2013.8.25）
//   11 //按项目实际需求精简代码（2013.9.4）
//   12 //添加看门狗自动启动（2013.9.4） 最后修改于2013.10.8
//   13 //原来的看门狗不对，已经改正，正常运行（2013.10.28）
//   14 //修改服务器下行设置报文和关联报文ACK，由广播改为单播。（2013.11.10）
//   15 //添加普通节点和PAN节点的重启设置命令（2014.1.15）
//   16 //修改PAN收到关联报文后释放动态内存的位置（2014.4.3）
//   17 //将设置报文PAN转发时改为广播，以便适合多终端节点（2014.7.3）
//   18 /**************************************************************************************************
//   19   Filename:       p2p_test.c
//   20   Revised:        $Date: 2007-10-27 17:16:54 -0700 (Sat, 27 Oct 2007) $
//   21   Revision:       $Revision: 15793 $
//   22 
//   23   Description:    Generic Application (no Profile).
//   24 
//   25 
//   26   Copyright 2004-2007 Texas Instruments Incorporated. All rights reserved.
//   27 
//   28   IMPORTANT: Your use of this Software is limited to those specific rights
//   29   granted under the terms of a software license agreement between the user
//   30   who downloaded the software, his/her employer (which must be your employer)
//   31   and Texas Instruments Incorporated (the "License").  You may not use this
//   32   Software unless you agree to abide by the terms of the License. The License
//   33   limits your use, and you acknowledge, that the Software may not be modified,
//   34   copied or distributed unless embedded on a Texas Instruments microcontroller
//   35   or used solely and exclusively in conjunction with a Texas Instruments radio
//   36   frequency transceiver, which is integrated into your product.  Other than for
//   37   the foregoing purpose, you may not use, reproduce, copy, prepare derivative
//   38   works of, modify, distribute, perform, display or sell this Software and/or
//   39   its documentation for any purpose.
//   40 
//   41   YOU FURTHER ACKNOWLEDGE AND AGREE THAT THE SOFTWARE AND DOCUMENTATION ARE
//   42   PROVIDED AS IS?WITHOUT WARRANTY OF ANY KIND, EITHER EXPRESS OR IMPLIED,
//   43   INCLUDING WITHOUT LIMITATION, ANY WARRANTY OF MERCHANTABILITY, TITLE,
//   44   NON-INFRINGEMENT AND FITNESS FOR A PARTICULAR PURPOSE. IN NO EVENT SHALL
//   45   TEXAS INSTRUMENTS OR ITS LICENSORS BE LIABLE OR OBLIGATED UNDER CONTRACT,
//   46   NEGLIGENCE, STRICT LIABILITY, CONTRIBUTION, BREACH OF WARRANTY, OR OTHER
//   47   LEGAL EQUITABLE THEORY ANY DIRECT OR INDIRECT DAMAGES OR EXPENSES
//   48   INCLUDING BUT NOT LIMITED TO ANY INCIDENTAL, SPECIAL, INDIRECT, PUNITIVE
//   49   OR CONSEQUENTIAL DAMAGES, LOST PROFITS OR LOST DATA, COST OF PROCUREMENT
//   50   OF SUBSTITUTE GOODS, TECHNOLOGY, SERVICES, OR ANY CLAIMS BY THIRD PARTIES
//   51   (INCLUDING BUT NOT LIMITED TO ANY DEFENSE THEREOF), OR OTHER SIMILAR COSTS.
//   52 
//   53   Should you have any questions regarding your right to use this Software,
//   54   contact Texas Instruments Incorporated at www.TI.com.
//   55 **************************************************************************************************/
//   56 
//   57 /*********************************************************************
//   58   This application isn't intended to do anything useful, it is
//   59   intended to be a simple example of an application's structure.
//   60 
//   61   This application sends "Hello World" to another "Generic"
//   62   application every 15 seconds.  The application will also
//   63   receive "Hello World" packets.
//   64 
//   65   The "Hello World" messages are sent/received as MSG type message.
//   66 
//   67   This applications doesn't have a profile, so it handles everything
//   68   directly - itself.
//   69 
//   70   Key control:
//   71     SW1:
//   72     SW2:  initiates end device binding
//   73     SW3:
//   74     SW4:  initiates a match description request
//   75 *********************************************************************/
//   76 
//   77 /*********************************************************************
//   78  * INCLUDES
//   79  */
//   80 
//   81 #include "OSAL.h"
//   82 #include "AF.h"
//   83 #include "ZDApp.h"
//   84 #include "ZDObject.h"
//   85 #include "ZDProfile.h"
//   86 
//   87 #include "p2p_test.h"
//   88 #include "DebugTrace.h"
//   89 
//   90 #include "SPIMgr.h"

        ASEGN SFR_AN:DATA:NOROOT,090H
// union <unnamed> volatile __sfr _A_P1
_A_P1:
        DS 1

        ASEGN SFR_AN:DATA:NOROOT,0a0H
// union <unnamed> volatile __sfr _A_P2
_A_P2:
        DS 1

        ASEGN SFR_AN:DATA:NOROOT,0a8H
// union <unnamed> volatile __sfr _A_IEN0
_A_IEN0:
        DS 1

        ASEGN SFR_AN:DATA:NOROOT,0c6H
// unsigned char volatile __sfr CLKCON
CLKCON:
        DS 1

        ASEGN SFR_AN:DATA:NOROOT,0c9H
// unsigned char volatile __sfr WDCTL
WDCTL:
        DS 1

        ASEGN SFR_AN:DATA:NOROOT,0f4H
// unsigned char volatile __sfr P1SEL
P1SEL:
        DS 1

        ASEGN SFR_AN:DATA:NOROOT,0f5H
// unsigned char volatile __sfr P2SEL
P2SEL:
        DS 1

        ASEGN SFR_AN:DATA:NOROOT,0feH
// unsigned char volatile __sfr P1DIR
P1DIR:
        DS 1

        ASEGN SFR_AN:DATA:NOROOT,0ffH
// unsigned char volatile __sfr P2DIR
P2DIR:
        DS 1
//   91 #include <string.h>
//   92 
//   93 #if !defined( WIN32 )
//   94   #include "OnBoard.h"
//   95 #endif
//   96 
//   97 /* HAL */
//   98 #include "hal_lcd.h"
//   99 #include "hal_led.h"
//  100 #include "hal_key.h"
//  101 #include "hal_uart.h"
//  102 //#include "Hal_Sensor.h"  
//  103 #include "Hal_defs.h"
//  104 #include "hal_adc.h"
//  105 
//  106 /*********************************************************************
//  107  * MACROS
//  108  */
//  109 //zyq add
//  110 #define ADDFLAG16(a,Byte) ((uint16)(a|(0x0001<<(Byte-1))))
//  111 #define TYPE_SENSOR 0x00
//  112 #define TYPE_COMMAND 0x08
//  113 #define TYPE_MAINTAIN 0x01
//  114 #define TYPE_ACK 0x0f
//  115 
//  116 
//  117 #define TYPE_REPORT 0x02
//  118 #define TYPE_QUARY 0x09
//  119 #define TYPE_ACK_UP 0x00
//  120 
//  121 //RelationMsg up or down link typecode
//  122 #define RELATION_MSG_UP 0x01
//  123 #define RELATION_MSG_DOWN 0x01
//  124 //#define TYPE_CODE_SENSOR_ILLUMINATION 0X01
//  125 //#define TYPE_CODE_SENSOR_TEMPERATURE 0X02
//  126 #define TYPE_CODE_SENSOR_RAIN 0x01
//  127 #define TYPE_CODE_SENSOR_SOIL_HUMIDITY 0X02
//  128 #define TYPE_CODE_SENSOR_WATER_GAGE 0x03
//  129 #define TYPE_CODE_SENSOR_ACCELEROMETER 0x04
//  130 #define TYPE_CODE_SENSOR_PORE_PRESSURE 0x05
//  131 #define TYPE_CODE_SENSOR_READ_VCC 0X07
//  132 
//  133 //define sensor's ID
//  134 #define RAIN_ID 0x01
//  135 #define SOIL_ID 0x02
//  136 #define WATER_GAGE_ID 0x03
//  137 #define EARTHQUAKE_ID 0x04
//  138 #define PORE_ID 0x05
//  139 
//  140 //define that zigbee have the sensor or not
//  141 #define RAIN_FLAG 0x00
//  142 #define SOIL_FLAG 0x00
//  143 #define WATER_GAGE_FLAG 0x01
//  144 #define EARTHQUAKE_FLAG 0x00
//  145 #define PORE_FLAG 0x00
//  146 #define MAX_ID 8
//  147 
//  148 #define COMMAND_TYPE_RAIN 1    //雨量K值
//  149 #define COMMAND_TYPE_SOIL_HUMIDITY 2  //土壤湿度K值
//  150 #define COMMAND_TYPE_WATER_GAGE 3   //水位K值
//  151 #define COMMAND_TYPE_VIBRATIO 4   //振动K值
//  152 #define COMMAND_TYPE_PORE_PRESS 5  //孔压K值
//  153 #define COMMAND_TYPE_RAIN_KVALUE 6   //雨量N值
//  154 #define COMMAND_TYPE_WATER_HIGHTYPE 7  //水位空高类型
//  155 #define COMMAND_TYPE_HELLO 8//Hello频率
//  156 #define COMMAND_TYPE_WATER_T 9 //水位计自适应采集周期增加间隔T取值
//  157 #define COMMAND_TYPE_WATER_EDGE_A 10 //水位计自适应边界取值A
//  158 #define COMMAND_TYPE_WATER_EDGE_B 11 //水位计自适应边界取值B
//  159 #define COMMAND_TYPE_WATER_EDGE_C 12 //水位计自适应边界取值C
//  160 #define COMMAND_TYPE_ZIGBEE_RESTART 13 //zigbee重启的设置
//  161 #define COMMAND_TYPE_ACCEPTANCE 14     //项目验收
//  162 #define COMMAND_TYPE_ZIGBEE_RESTART_COMMAND 0x11     //zigbee重启命令
//  163 
//  164 //全部未用到
//  165 /*
//  166 #define TYPE_CODE_COMMAND_MODIFY_K 0x00
//  167 #define TYPE_CODE_COMMAND_MODIFY_N 0x01
//  168 #define TYPE_CODE_COMMAND_REQUIRE 0x02
//  169 #define TYPE_CODE_COMMAND_SENSOR_STOP_EVT 0x03
//  170 #define TYPE_CODE_MAINTAIN_RELATION 0x01
//  171 #define TYPE_CODE_MAINTAIN_RESET_TIME 0x06
//  172 */
//  173 
//  174 //define wate gage information type
//  175 #define Station_Num 0x01
//  176 #define Water_Func_Code 0x03
//  177 #define First_Addr0 0x0000
//  178 #define First_Addr1 0x0001
//  179 #define First_Addr2 0x0002
//  180 #define First_Addr3 0x0003
//  181 #define Water_num 0x0002
//  182 #define Default_Water_Gage First_Addr3
//  183 
//  184 //define soil type for select formula(未使用)  
//  185 /*
//  186 #define  Clay_Soil  0x00
//  187 #define  Loam_Soil  0x01
//  188 #define  Sand_Soil  0x02
//  189 */
//  190 
//  191 #define MAIN_VERSION 0x00
//  192 #define SUB_VERSION 0x01
//  193 
//  194 #define FREQ 0x00
//  195 #define REQUIRE 0x01
//  196 
//  197 #define ACK_YES 0x01
//  198 #define ACK_NO 0x00
//  199 
//  200 
//  201 #define DEBUG 1
//  202 
//  203 //static uint16 SerialNumber;

        RSEG XDATA_Z:XDATA:NOROOT(0)
//  204 static uint8 RES;
RES:
        DS 1
        REQUIRE __INIT_XDATA_Z

        RSEG XDATA_Z:XDATA:NOROOT(0)
//  205 static uint8 ARM_ID;
ARM_ID:
        DS 1
        REQUIRE __INIT_XDATA_Z

        RSEG XDATA_Z:XDATA:NOROOT(0)
//  206 static uint8 Zigbee_ID;
Zigbee_ID:
        DS 1
        REQUIRE __INIT_XDATA_Z
//  207 typedef struct
//  208 {
//  209   uint8 type : 4;
//  210   uint8 SubVersion : 1;
//  211   uint8 MainVersion : 2;
//  212   uint8 AckRequire : 1;
//  213   uint8 TypeCode;
//  214   uint8 sn[2];    //serial number
//  215 } AppHead_t;
//  216 
//  217 typedef struct
//  218 {
//  219   uint8 ARM_id :4;
//  220   uint8 r : 4;
//  221   uint8 sensor_type:4;
//  222   uint8 Zigbee_id :4;
//  223 } NodeId_t;
//  224 
//  225 typedef struct
//  226 {
//  227   uint8 time[4]; 
//  228   NodeId_t NodeId;  
//  229 } NodeIdAndTime_t;
//  230 
//  231 typedef struct
//  232 {
//  233   AppHead_t AppHead;
//  234   NodeIdAndTime_t NodeIdAndTime;
//  235   uint8 count[2];
//  236 } RainMsg_t;
//  237 
//  238 typedef struct
//  239 {
//  240   AppHead_t AppHead;
//  241   NodeIdAndTime_t NodeIdAndTime;
//  242   uint8 AdcVcc[2];
//  243   uint8 AdcValue[2];
//  244  // float SoilValue;
//  245 } Soil_Humidity_t;
//  246 
//  247 typedef struct
//  248 {
//  249   AppHead_t AppHead;
//  250   NodeIdAndTime_t NodeIdAndTime;
//  251   uint8 AdcVcc[2];
//  252   uint8 AdcValue[2];
//  253  // float Accelevalue;
//  254 } Accelerometer_t;
//  255 
//  256 typedef struct
//  257 {
//  258   AppHead_t AppHead;
//  259   NodeIdAndTime_t NodeIdAndTime;
//  260   uint8 AdcVcc[2];
//  261 } Vccvalue_t;
//  262 
//  263 typedef struct
//  264 {
//  265   AppHead_t AppHead;
//  266   NodeIdAndTime_t NodeIdAndTime;
//  267 } ResetTimeMsg_t;
//  268 
//  269 typedef struct
//  270 {
//  271   AppHead_t AppHead;
//  272   uint8 Num[2];
//  273   NodeId_t NodeId[MAX_ID];
//  274 } RelationMsg_t;  
//  275 
//  276 typedef struct
//  277 {
//  278   AppHead_t AppHead;
//  279   NodeId_t NodeId;
//  280 } AppHeadNodeId_t;
//  281 
//  282 typedef struct
//  283 {
//  284   uint8 head[2];
//  285   uint8 len;
//  286 } UartHeadMsg_t;
//  287 
//  288 //water gage information
//  289 typedef struct
//  290 {
//  291   AppHead_t AppHead;
//  292   NodeIdAndTime_t NodeIdAndTime;
//  293   // uint8 water_gage_type[2];
//  294   uint8 water_gage_value[2];  
//  295 }Water_Gage_t;
//  296 
//  297 typedef struct
//  298 {
//  299    uint8 station_number;
//  300    uint8 func_code;
//  301    uint8 first_addr[2];
//  302    uint8 read_num[2];
//  303    uint8 crc[2];
//  304 }Water_Send_Infor_t;
//  305 
//  306 typedef struct
//  307 {
//  308    uint8 station_number;
//  309    uint8 func_code;
//  310    uint8 read_byte_num;
//  311    uint8 data[8];
//  312    uint8 crc[8];
//  313 }Water_read_Infor_t;
//  314 
//  315  struct RelationMap_t 
//  316 {
//  317   uint16 addr16;
//  318   uint8 Zigbee_id;
//  319   struct RelationMap_t *next;
//  320 } ;
//  321 
//  322 typedef struct
//  323 {
//  324    AppHead_t AppHead;
//  325    NodeId_t Src_NodeId;
//  326 } AckUP_t;
//  327 
//  328 //自己编写
//  329 
//  330 
//  331 //保存最近三次数据
//  332 typedef struct
//  333 { 
//  334   uint16 data[3];
//  335   uint32 time[3];
//  336 }Watergage_data_and_time;
//  337 
//  338 
//  339 typedef struct
//  340 { 
//  341   float data[3];
//  342   uint32 time[3];
//  343 }Soilhumidity_data_and_time;
//  344 
//  345 
//  346 typedef struct
//  347 {
//  348   AppHead_t AppHead;
//  349   NodeId_t NodeId;
//  350   uint8 command_type;
//  351   uint16 water_gage_type;      //COMMAND_TYPE_WATER_HIGHTYPE
//  352   uint16 water_gage_freq;      //COMMAND_TYPE_WATER_GAGE
//  353   uint16 water_gage_T;         //COMMAND_TYPE_WATER_T
//  354   uint8  water_gage_A;         //COMMAND_TYPE_WATER_EDGE_A
//  355   uint8  water_gage_B;         //COMMAND_TYPE_WATER_EDGE_B  
//  356   uint8  water_gage_C;         //COMMAND_TYPE_WATER_EDGE_C  
//  357 }Zigbee_Restart_Command_t;
//  358 
//  359 //上次预测值和本次数据实际值的差值

        RSEG XDATA_Z:XDATA:NOROOT(0)
//  360 static uint16 Water_gage_err;
Water_gage_err:
        DS 2
        REQUIRE __INIT_XDATA_Z
//  361 //static float Soil_humidity_err;
//  362 
//  363 //传感器自己的序列号

        RSEG XDATA_Z:XDATA:NOROOT(0)
//  364 static uint16 Water_gage_SerialNumber;
Water_gage_SerialNumber:
        DS 2
        REQUIRE __INIT_XDATA_Z
//  365 //static uint16 Soil_humidity_SerialNumber;
//  366 
//  367 //自适应休眠周期的调整间隔（专利中的T）

        RSEG XDATA_Z:XDATA:NOROOT(0)
//  368 uint16 Water_gage_time ;   
Water_gage_time:
        DS 2
        REQUIRE __INIT_XDATA_Z
//  369 //uint16 Soil_humidity_time ; 
//  370 
//  371 //将时间改为静态的

        RSEG XDATA_Z:XDATA:NOROOT(0)
//  372 static uint32 now;
now:
        DS 4
        REQUIRE __INIT_XDATA_Z
//  373 
//  374 //传感器的预测值

        RSEG XDATA_Z:XDATA:NOROOT(0)
//  375 static uint16 Water_gage_forValue;
Water_gage_forValue:
        DS 2
        REQUIRE __INIT_XDATA_Z
//  376 //static float Soil_humidity_forValue;
//  377 
//  378 //定义一个具体的data_and_time变量

        RSEG XDATA_Z:XDATA:NOROOT(0)
//  379 Watergage_data_and_time  Water_Gage_data_and_time;
Water_Gage_data_and_time:
        DS 18
        REQUIRE __INIT_XDATA_Z
//  380 //Soilhumidity_data_and_time  Soil_humidity_data_and_time;
//  381 

        RSEG XDATA_Z:XDATA:NOROOT(0)
//  382 static uint8 no_charge_flag; 
no_charge_flag:
        DS 1
        REQUIRE __INIT_XDATA_Z

        RSEG XDATA_Z:XDATA:NOROOT(0)
//  383 static uint8 water_gage_on;
water_gage_on:
        DS 1
        REQUIRE __INIT_XDATA_Z

        RSEG XDATA_Z:XDATA:NOROOT(0)
//  384 uint16 CheckWaterGageChargeTimeFreq;
CheckWaterGageChargeTimeFreq:
        DS 2
        REQUIRE __INIT_XDATA_Z
//  385 
//  386 //区间边界值(水位计起始地址为0003，水位值，mm)

        RSEG XDATA_Z:XDATA:NOROOT(0)
//  387 static uint8 Water_gage_err_a  ;
Water_gage_err_a:
        DS 1
        REQUIRE __INIT_XDATA_Z

        RSEG XDATA_Z:XDATA:NOROOT(0)
//  388 static uint8 Water_gage_err_b  ;
Water_gage_err_b:
        DS 1
        REQUIRE __INIT_XDATA_Z

        RSEG XDATA_Z:XDATA:NOROOT(0)
//  389 static uint8 Water_gage_err_c  ;
Water_gage_err_c:
        DS 1
        REQUIRE __INIT_XDATA_Z
//  390 
//  391 /*
//  392 #define Soil_humidity_err_a  0.1  //0.1V
//  393 #define Soil_humidity_err_b  0.5  //0.5V
//  394 #define Soil_humidity_err_c  1.0  //1.0V
//  395 */
//  396 
//  397 //水位计量程
//  398 #define Water_gage_data_span 30000
//  399 

        RSEG XDATA_Z:XDATA:NOROOT(0)
//  400 static uint8 relation_done ;
relation_done:
        DS 1
        REQUIRE __INIT_XDATA_Z
//  401 
//  402 //项目验收  （非验收不关闭水位计，减少继电器拨片损耗）

        RSEG XDATA_Z:XDATA:NOROOT(0)
//  403 static uint8 acceptance;
acceptance:
        DS 1
        REQUIRE __INIT_XDATA_Z
//  404 /*********************************************************************
//  405  * CONSTANTS
//  406  */
//  407 #define CLKSPD  ( CLKCON & 0x01 )
//  408 #define DATA P1_1
//  409 #define SCK P1_0
//  410 
//  411 // This list should be filled with Application specific Cluster IDs.
//  412 /*********************************************************************
//  413  * TYPEDEFS
//  414  */
//  415 
//  416 /*********************************************************************
//  417  * GLOBAL VARIABLES
//  418  */
//  419 
//  420 // This list should be filled with Application specific Cluster IDs.

        RSEG XDATA_I:XDATA:NOROOT(0)
        DATA
//  421 const cId_t p2p_test_ClusterList[p2p_test_MAX_CLUSTERS] =
p2p_test_ClusterList:
        DS 6
        REQUIRE `?<Initializer for p2p_test_ClusterList>`
        REQUIRE __INIT_XDATA_I
//  422 {
//  423   p2p_test_CLUSTERID,
//  424   p2p_test_108ID,
//  425   p2p_test_RelationMsg,
//  426   //fire_extinguisher_clusterId
//  427 };
//  428 

        RSEG XDATA_I:XDATA:NOROOT(0)
        DATA
//  429 const SimpleDescriptionFormat_t p2p_test_SimpleDesc =
p2p_test_SimpleDesc:
        DS 12
        REQUIRE `?<Initializer for p2p_test_SimpleDesc>`
        REQUIRE __INIT_XDATA_I

        RSEG XDATA_I:XDATA:NOROOT(0)
        DATA
__Constant_40400000:
        DS 4
        REQUIRE `?<Initializer for __Constant_40400000>`
        REQUIRE __INIT_XDATA_I

        RSEG XDATA_I:XDATA:NOROOT(0)
        DATA
__Constant_ffffffff:
        DS 4
        REQUIRE `?<Initializer for __Constant_ffffffff>`
        REQUIRE __INIT_XDATA_I

        RSEG XDATA_I:XDATA:NOROOT(0)
        DATA
__Constant_0:
        DS 4
        REQUIRE `?<Initializer for __Constant_0>`
        REQUIRE __INIT_XDATA_I
//  430 {
//  431   p2p_test_ENDPOINT,              //  int Endpoint;
//  432   p2p_test_PROFID,                //  uint16 AppProfId[2];
//  433   p2p_test_DEVICEID,              //  uint16 AppDeviceId[2];
//  434   p2p_test_DEVICE_VERSION,        //  int   AppDevVer:4;
//  435   p2p_test_FLAGS,                 //  int   AppFlags:4;
//  436   p2p_test_MAX_CLUSTERS,          //  byte  AppNumInClusters;
//  437   (cId_t *)p2p_test_ClusterList,  //  byte *pAppInClusterList;
//  438   p2p_test_MAX_CLUSTERS,          //  byte  AppNumInClusters;
//  439   (cId_t *)p2p_test_ClusterList   //  byte *pAppInClusterList;
//  440 };
//  441 
//  442 // This is the Endpoint/Interface description.  It is defined here, but
//  443 // filled-in in p2p_test_Init().  Another way to go would be to fill
//  444 // in the structure here and make it a "const" (in code space).  The
//  445 // way it's defined in this sample app it is define in RAM.

        RSEG XDATA_Z:XDATA:NOROOT(0)
//  446 endPointDesc_t p2p_test_epDesc;
p2p_test_epDesc:
        DS 6
        REQUIRE __INIT_XDATA_Z
//  447 
//  448 /*********************************************************************
//  449  * EXTERNAL VARIABLES
//  450  */
//  451 
//  452 /*********************************************************************
//  453  * EXTERNAL FUNCTIONS
//  454  */
//  455 
//  456 /*********************************************************************
//  457  * LOCAL VARIABLES
//  458  */

        RSEG XDATA_Z:XDATA:NOROOT(0)
//  459 byte p2p_test_TaskID;   // Task ID for internal task/event processing
p2p_test_TaskID:
        DS 1
        REQUIRE __INIT_XDATA_Z
//  460                           // This variable will be received when
//  461                           // p2p_test_Init() is called.

        RSEG XDATA_Z:XDATA:NOROOT(0)
//  462 devStates_t p2p_test_NwkState;
p2p_test_NwkState:
        DS 1
        REQUIRE __INIT_XDATA_Z
//  463 
//  464 
//  465 byte p2p_test_TransID;  // This is the unique message ID (counter)
//  466 
//  467 

        RSEG XDATA_Z:XDATA:NOROOT(0)
//  468 byte p2p_test_TransID;  // This is the unique message ID (counter)
p2p_test_TransID:
        DS 1
        REQUIRE __INIT_XDATA_Z
//  469 

        RSEG XDATA_Z:XDATA:NOROOT(0)
//  470 afAddrType_t p2p_test_DstAddr;
p2p_test_DstAddr:
        DS 4
        REQUIRE __INIT_XDATA_Z

        RSEG XDATA_Z:XDATA:NOROOT(0)
//  471 afAddrType_t p2p_test_EnddeviceAddr;//add by yd 终端节点的短地址
p2p_test_EnddeviceAddr:
        DS 4
        REQUIRE __INIT_XDATA_Z
//  472   //uint8 p2p_msg[6];//the collect message

        RSEG XDATA_Z:XDATA:NOROOT(0)
//  473  uint16 shortaddr;
shortaddr:
        DS 2
        REQUIRE __INIT_XDATA_Z

        RSEG XDATA_Z:XDATA:NOROOT(0)
//  474  uint16 fatheraddr;
fatheraddr:
        DS 2
        REQUIRE __INIT_XDATA_Z
//  475  
//  476 //zyq add
//  477 /*
//  478 static uint8 SendRainCountFreq; //wait SendRainCountFreq send to PAN
//  479 static uint16 SendRainTimeFreq; //every SendRainTimeFreq minute send rain msg
//  480 static uint32 SendRainRemainTime;//unit second
//  481 static uint8 RainCountNum;
//  482 
//  483 static uint16 SendSoilHumidityTimeFreq;
//  484 static uint32 SendSoilHumidityRemainTime;
//  485 
//  486 static uint16 SendAccelerometerTimeFreq;
//  487 static uint32 SendAccelerometerRemainTime;
//  488 
//  489  
//  490 static uint16 SendVccValueTimeFreq;
//  491 static uint32 SendVccValueRemainTime;
//  492 */
//  493  

        RSEG XDATA_Z:XDATA:NOROOT(0)
//  494 static uint16 SendWaterGageTimeFreq;
SendWaterGageTimeFreq:
        DS 2
        REQUIRE __INIT_XDATA_Z

        RSEG XDATA_Z:XDATA:NOROOT(0)
//  495 static uint16 SendWaterGageRemainTime;
SendWaterGageRemainTime:
        DS 2
        REQUIRE __INIT_XDATA_Z
//  496 

        RSEG XDATA_Z:XDATA:NOROOT(0)
//  497 static uint16 WaterGageUnit;
WaterGageUnit:
        DS 2
        REQUIRE __INIT_XDATA_Z
//  498 //static uint8 SOIL_TYPE ;
//  499 
//  500 //static uint8 SoilHumidityFlag ;
//  501 //static uint8 RainFlag ;

        RSEG XDATA_Z:XDATA:NOROOT(0)
//  502 static uint8 WaterGageFlag;
WaterGageFlag:
        DS 1
        REQUIRE __INIT_XDATA_Z

        RSEG XDATA_Z:XDATA:NOROOT(0)
//  503 static struct RelationMap_t *Head_Map=NULL;
Head_Map:
        DS 2
        REQUIRE __INIT_XDATA_Z

        RSEG XDATA_Z:XDATA:NOROOT(0)
//  504 static struct RelationMap_t *Tail_Map=NULL;
Tail_Map:
        DS 2
        REQUIRE __INIT_XDATA_Z

        RSEG XDATA_Z:XDATA:NOROOT(0)
//  505 static uint16 FlagMap;
FlagMap:
        DS 2
        REQUIRE __INIT_XDATA_Z
//  506 
//  507 
//  508 
//  509 
//  510 /*********************************************************************
//  511  * LOCAL FUNCTIONS
//  512  */
//  513 void p2p_test_ProcessZDOMsgs( zdoIncomingMsg_t *inMsg );
//  514 //void p2p_test_HandleKeys( byte shift, byte keys );
//  515 void p2p_test_MessageMSGCB( afIncomingMSGPacket_t *pckt );
//  516 //void p2p_test_SendTheMessage( void );
//  517 
//  518 //zyq add
//  519 void p2p_test_recv_108clusterId(uint8 *pkt, uint8 length);
//  520 void p2p_test_recv_RelationMsgclusterId(uint8 *pkt,uint8 length,uint16 srcaddr);
//  521 
//  522 void p2p_test_RecvFromUart(uint8 *Msg);
//  523 void p2p_test_SendToUart(uint8 *Data, uint8 DataLength);
//  524 
//  525 void fill_AppHead(AppHead_t *AppHead, uint8 AckRequire, uint8 MainVersion, uint8 SubVersion, uint8 type, uint8 TypeCode);
//  526 void fill_AppHead_sn(AppHead_t *AppHead, uint8 AckRequire, uint8 MainVersion, uint8 SubVersion, uint8 type, uint8 TypeCode,uint16 SerialNumber);
//  527 void fill_NodeId_time(NodeIdAndTime_t *NodeIdAndTime,uint8 ARM_Id,uint8 Zigbee_id,uint8 sensor_type);
//  528 void SendMsg(uint8 *msg, uint8 MsgSize, afAddrType_t Dst, uint8 options,uint16 cID);
//  529 
//  530 //void p2p_test_SendResetRelativeTime( void );//未用到
//  531 void p2p_test_SendRelationPkt( void );
//  532 
//  533 
//  534 void p2p_test_interrupt_rain(uint16 count);
//  535 void p2p_test_SendRainTimeFreqAndRequire( uint8 FreqOrRequire );
//  536 void p2p_test_SendSoilHumidityTimeFreqAndRequire( uint8 FreqOrRequire );
//  537 void p2p_test_SendAccelerometerTimeFreqAndRequire(uint8 FreqOrRequire);
//  538 
//  539 void p2p_test_Send_VCC_VALUE(uint8 FreqOrRequire);
//  540 void p2p_test_Send_Water_Gage(uint8 FreqOrRequire,uint16 watergagetype);
//  541 void crc_water_gage(Water_Send_Infor_t * temp);
//  542 //unsigned short Read_SHT_TEMP_digital_sensor(void);
//  543 //unsigned short Read_SHT_HUMI_digital_sensor(void);
//  544 
//  545 void p2p_test_StartDataSensorTimer(void);
//  546 extern uint8 halWait(unsigned char wait);
//  547 void insert_RelationMap(struct RelationMap_t *map,uint16 addr,uint8 zigbee_id);
//  548 uint8 search_RelationMap(uint16 addr);
//  549 
//  550 //void READ_TEST( afIncomingMSGPacket_t *MSGpkt );
//  551 
//  552 //自己编写
//  553 
//  554 //函数声明
//  555 uint16 Water_gage_forecastValue(Watergage_data_and_time);
//  556 float Soil_humidity_forecastValue(Soilhumidity_data_and_time);
//  557 void HalUARTWrite_uint16(uint16);
//  558 void start_Water_gage_timer(void);
//  559 void start_Soil_humidity_timer(void);
//  560 float Soil_humidity_DtoA(uint16,uint16);
//  561 void check_water_gage_charge(void);
//  562 #if defined(RTR_NWK)
//  563 void print_AssociatedDevList(void);
//  564 #endif
//  565 
//  566 #if defined(RTR_NWK)
//  567 void print_AssociatedDevList()
//  568 {
//  569   uint8 one_end =0xAB;
//  570   for(uint8 x=0;x<NWK_MAX_DEVICES;x++)
//  571   {
//  572     if(AssociatedDevList[x].shortAddr !=0xFFFF)
//  573     {
//  574     HalUARTWrite_uint16(AssociatedDevList[x].shortAddr);
//  575     HalUARTWrite_uint16(AssociatedDevList[x].addrIdx);
//  576     HalUARTWrite(0,(uint8*)&(AssociatedDevList[x].nodeRelation), sizeof(uint8));
//  577     HalUARTWrite(0,(uint8*)&(AssociatedDevList[x].devStatus), sizeof(uint8));
//  578     HalUARTWrite(0,(uint8*)&(AssociatedDevList[x].assocCnt), sizeof(uint8));
//  579     HalUARTWrite(0,(uint8*)&(AssociatedDevList[x].linkInfo.txCost), sizeof(uint8));
//  580     HalUARTWrite(0,(uint8*)&(AssociatedDevList[x].linkInfo.rxCost), sizeof(uint8));
//  581     HalUARTWrite(0,(uint8*)&(AssociatedDevList[x].linkInfo.inKeySeqNum), sizeof(uint8));
//  582     HalUARTWrite(0,(uint8*)&(one_end), sizeof(uint8));
//  583     }
//  584     else
//  585     {
//  586       return;
//  587     }
//  588   }
//  589 }
//  590 #endif
//  591 
//  592 //检查水位计是否有电，防止水位计偶然断电后自动恢复

        RSEG BANKED_CODE:CODE:NOROOT(0)
//  593 void check_water_gage_charge()
check_water_gage_charge:
        CFI Block cfiBlock0 Using cfiCommon0
        CFI Function check_water_gage_charge
//  594 {
        FUNCALL check_water_gage_charge, osal_start_timerEx
        LOCFRAME ISTACK, 2, STACK
        LOCFRAME PSTACK, 0, STACK
        LOCFRAME XSTACK, 1, STACK
        LOCFRAME IOVERLAY, 0, STATIC
        LOCFRAME DOVERLAY, 0, STATIC
        ARGFRAME ISTACK, 2, STACK
        ARGFRAME PSTACK, 0, STACK
        ARGFRAME XSTACK, 1, STACK
        ARGFRAME IOVERLAY, 0, STATIC
        ARGFRAME DOVERLAY, 0, STATIC
        FUNCALL check_water_gage_charge, osal_start_timerEx
        LOCFRAME ISTACK, 2, STACK
        LOCFRAME PSTACK, 0, STACK
        LOCFRAME XSTACK, 1, STACK
        LOCFRAME IOVERLAY, 0, STATIC
        LOCFRAME DOVERLAY, 0, STATIC
        ARGFRAME ISTACK, 2, STACK
        ARGFRAME PSTACK, 0, STACK
        ARGFRAME XSTACK, 1, STACK
        ARGFRAME IOVERLAY, 0, STATIC
        ARGFRAME DOVERLAY, 0, STATIC
        FUNCALL check_water_gage_charge, HalUARTWrite
        LOCFRAME ISTACK, 2, STACK
        LOCFRAME PSTACK, 0, STACK
        LOCFRAME XSTACK, 1, STACK
        LOCFRAME IOVERLAY, 0, STATIC
        LOCFRAME DOVERLAY, 0, STATIC
        ARGFRAME ISTACK, 2, STACK
        ARGFRAME PSTACK, 0, STACK
        ARGFRAME XSTACK, 1, STACK
        ARGFRAME IOVERLAY, 0, STATIC
        ARGFRAME DOVERLAY, 0, STATIC
        PUSH    DPL
        CFI DPL0 Frame(CFA_SP, 4)
        CFI CFA_SP SP+-4
        PUSH    DPH
        CFI DPH0 Frame(CFA_SP, 5)
        CFI CFA_SP SP+-5
        ; Saved register size: 2
        ; Auto size: 1
        MOV     A,#-0x1
        LCALL   ?ALLOC_XSTACK8
        CFI CFA_XSP16 add(XSP16, 1)
//  595   if(no_charge_flag ==1)      //表示水位计没电
        MOV     DPTR,#no_charge_flag
        MOVX    A,@DPTR
        XRL     A,#0x1
        JNZ     ??check_water_gage_charge_0
//  596   {
//  597     osal_start_timerEx(p2p_test_TaskID,
//  598                           p2p_test_SEND_WATER_GAGE_MSG_EVT, 
//  599                           (SendWaterGageTimeFreq -60 )* 1000);
        ; Setup parameters for call to function osal_start_timerEx
        MOV     DPTR,#SendWaterGageTimeFreq
        MOVX    A,@DPTR
        ADD     A,#-0x3c
        MOV     R4,A
        INC     DPTR
        MOVX    A,@DPTR
        ADDC    A,#-0x1
        LCALL   ?Subroutine20 & 0xFFFF
??CrossCallReturnLabel_54:
        SJMP    ??check_water_gage_charge_1
//  600     osal_start_timerEx(p2p_test_TaskID,
//  601                           p2p_test_CHECK_WATER_GAGE_CHARGE_MSG_EVT, 
//  602                           CheckWaterGageChargeTimeFreq * 1000);
//  603   }
//  604   else if (no_charge_flag==0)    //表示水位计仍在正常工作
??check_water_gage_charge_0:
        MOVX    A,@DPTR
        JNZ     ??CrossCallReturnLabel_9
//  605   {
//  606     osal_start_timerEx(p2p_test_TaskID,
//  607                           p2p_test_CHECK_WATER_GAGE_CHARGE_MSG_EVT, 
//  608                           CheckWaterGageChargeTimeFreq * 1000);
??check_water_gage_charge_1:
        ; Setup parameters for call to function osal_start_timerEx
        LCALL   ?Subroutine2 & 0xFFFF
//  609   }
//  610 
//  611 #if DEBUG  
//  612     uint8 x =255;
??CrossCallReturnLabel_9:
        MOV     A,#-0x1
        LCALL   ?Subroutine27 & 0xFFFF
//  613     HalUARTWrite(0,&x, sizeof(x));
//  614 #endif
//  615 } 
??CrossCallReturnLabel_74:
        MOV     A,#0x1
        LJMP    ?Subroutine52 & 0xFFFF
        CFI EndBlock cfiBlock0
//  616 
//  617 
//  618 //正确顺序输出16位数据到串口

        RSEG BANKED_CODE:CODE:NOROOT(0)
//  619 void HalUARTWrite_uint16(uint16 data)
HalUARTWrite_uint16:
        CFI Block cfiBlock1 Using cfiCommon0
        CFI Function HalUARTWrite_uint16
//  620 {
        FUNCALL HalUARTWrite_uint16, HalUARTWrite
        LOCFRAME ISTACK, 2, STACK
        LOCFRAME PSTACK, 0, STACK
        LOCFRAME XSTACK, 2, STACK
        LOCFRAME IOVERLAY, 0, STATIC
        LOCFRAME DOVERLAY, 0, STATIC
        ARGFRAME ISTACK, 2, STACK
        ARGFRAME PSTACK, 0, STACK
        ARGFRAME XSTACK, 2, STACK
        ARGFRAME IOVERLAY, 0, STATIC
        ARGFRAME DOVERLAY, 0, STATIC
        PUSH    DPL
        CFI DPL0 Frame(CFA_SP, 4)
        CFI CFA_SP SP+-4
        PUSH    DPH
        CFI DPH0 Frame(CFA_SP, 5)
        CFI CFA_SP SP+-5
        ; Saved register size: 2
        ; Auto size: 2
        MOV     A,#-0x2
        LCALL   ?ALLOC_XSTACK8
        CFI CFA_XSP16 add(XSP16, 2)
//  621   typedef struct{
//  622     uint8 x[2];
//  623   }x;
//  624    x xdata;       
//  625   xdata.x[0] = (data>>8)&0x00FF;
        MOV     A,R3
        MOV     DPL,?XSP + 0
        MOV     DPH,?XSP + 1
        MOVX    @DPTR,A
//  626   xdata.x[1] = data & 0x00FF;
        MOV     A,#0x1
        LCALL   ?XSTACK_DISP0_8
        MOV     A,R2
        MOVX    @DPTR,A
//  627   HalUARTWrite(0,(uint8*)&xdata, sizeof(xdata));
        ; Setup parameters for call to function HalUARTWrite
        MOV     R4,#0x2
        MOV     R5,#0x0
        MOV     DPL,?XSP + 0
        MOV     DPH,?XSP + 1
        MOV     R2,DPL
        MOV     R3,DPH
        MOV     R1,#0x0
        LCALL   ??HalUARTWrite?relay
//  628 }
        MOV     A,#0x2
        LJMP    ?Subroutine52 & 0xFFFF
        CFI EndBlock cfiBlock1
//  629 
//  630 //预测水位计下一数据值

        RSEG BANKED_CODE:CODE:NOROOT(0)
//  631 uint16 Water_gage_forecastValue(Watergage_data_and_time sdat)
Water_gage_forecastValue:
        CFI Block cfiBlock2 Using cfiCommon0
        CFI Function Water_gage_forecastValue
//  632   {
        MOV     A,#-0x10
        LCALL   ?BANKED_ENTER_XDATA
        CFI DPH0 load(1, XDATA, add(CFA_XSP16, literal(-1)))
        CFI DPL0 load(1, XDATA, add(CFA_XSP16, literal(-2)))
        CFI ?BRET_EXT load(1, XDATA, add(CFA_XSP16, literal(-3)))
        CFI ?RET_HIGH load(1, XDATA, add(CFA_XSP16, literal(-4)))
        CFI ?RET_LOW load(1, XDATA, add(CFA_XSP16, literal(-5)))
        CFI R7 load(1, XDATA, add(CFA_XSP16, literal(-6)))
        CFI V7 load(1, XDATA, add(CFA_XSP16, literal(-7)))
        CFI V6 load(1, XDATA, add(CFA_XSP16, literal(-8)))
        CFI V5 load(1, XDATA, add(CFA_XSP16, literal(-9)))
        CFI V4 load(1, XDATA, add(CFA_XSP16, literal(-10)))
        CFI V3 load(1, XDATA, add(CFA_XSP16, literal(-11)))
        CFI V2 load(1, XDATA, add(CFA_XSP16, literal(-12)))
        CFI V1 load(1, XDATA, add(CFA_XSP16, literal(-13)))
        CFI V0 load(1, XDATA, add(CFA_XSP16, literal(-14)))
        CFI VB load(1, XDATA, add(CFA_XSP16, literal(-15)))
        CFI R6 load(1, XDATA, add(CFA_XSP16, literal(-16)))
        CFI CFA_SP SP+0
        CFI CFA_XSP16 add(XSP16, 16)
        ; Saved register size: 16
        ; Auto size: 36
        MOV     A,#-0x24
        LCALL   ?ALLOC_XSTACK8
        CFI CFA_XSP16 add(XSP16, 52)
//  633      double x1,x2,x3;
//  634      double y1,y2,y3;
//  635      double b,k;
//  636      
//  637      if( (sdat.time[2]>sdat.time[1])&&(sdat.time[1]>sdat.time[0]) )
        MOV     A,#0x3e
        LCALL   ?XSTACK_DISP0_8
        PUSH    DPL
        CFI CFA_SP SP+-1
        PUSH    DPH
        CFI CFA_SP SP+-2
        MOV     A,#0x42
        LCALL   ?XSTACK_DISP0_8
        MOV     R0,#?V0 + 0
        LCALL   ?L_MOV_X
        POP     DPH
        CFI CFA_SP SP+-1
        POP     DPL
        CFI CFA_SP SP+0
        MOV     R0,#?V0 + 0
        LCALL   ?UL_GT_X
        JC      $+5
        LJMP    ??Water_gage_forecastValue_0 & 0xFFFF
        MOV     A,#0x3a
        LCALL   ?XSTACK_DISP0_8
        PUSH    DPL
        CFI CFA_SP SP+-1
        PUSH    DPH
        CFI CFA_SP SP+-2
        MOV     A,#0x3e
        LCALL   ?XSTACK_DISP0_8
        MOV     R0,#?V0 + 0
        LCALL   ?L_MOV_X
        POP     DPH
        CFI CFA_SP SP+-1
        POP     DPL
        CFI CFA_SP SP+0
        MOV     R0,#?V0 + 0
        LCALL   ?UL_GT_X
        JNC     ??Water_gage_forecastValue_0
//  638      {
//  639        y1=sdat.data[0];
        MOV     A,#0x34
        LCALL   ?XSTACK_DISP0_8
        LCALL   ?Subroutine0 & 0xFFFF
??CrossCallReturnLabel_0:
        LCALL   ?UL_TO_FLT
        MOV     A,#0xc
        LCALL   ?XSTACK_DISP0_8
        MOV     R0,#?V0 + 0
        LCALL   ?L_MOV_TO_X
//  640        x1=sdat.time[0];
        MOV     A,#0x3a
        LCALL   ?XSTACK_DISP0_8
        MOV     R0,#?V0 + 0
        LCALL   ?L_MOV_X
        MOV     R0,#?V0 + 0
        LCALL   ?UL_TO_FLT
        MOV     A,#0x4
        LCALL   ?XSTACK_DISP0_8
        MOV     R0,#?V0 + 0
        LCALL   ?L_MOV_TO_X
//  641        y2=sdat.data[1];
        MOV     A,#0x36
        LCALL   ?XSTACK_DISP0_8
        LCALL   ?Subroutine0 & 0xFFFF
??CrossCallReturnLabel_1:
        LCALL   ?UL_TO_FLT
        MOV     A,#0x10
        LCALL   ?XSTACK_DISP0_8
        MOV     R0,#?V0 + 0
        LCALL   ?L_MOV_TO_X
//  642        x2=sdat.time[1];
        MOV     A,#0x3e
        LCALL   ?XSTACK_DISP0_8
        MOV     R0,#?V0 + 0
        LCALL   ?L_MOV_X
        MOV     R0,#?V0 + 0
        LCALL   ?UL_TO_FLT
        MOV     A,#0x8
        LCALL   ?XSTACK_DISP0_8
        MOV     R0,#?V0 + 0
        LCALL   ?L_MOV_TO_X
//  643        y3=sdat.data[2];
        MOV     A,#0x38
        LCALL   ?XSTACK_DISP0_8
        LCALL   ?Subroutine0 & 0xFFFF
??CrossCallReturnLabel_2:
        LCALL   ?UL_TO_FLT
        MOV     A,#0x14
        LCALL   ?XSTACK_DISP0_8
        MOV     R0,#?V0 + 0
        LCALL   ?L_MOV_TO_X
//  644        x3=sdat.time[2];
        MOV     A,#0x42
        LJMP    ??Water_gage_forecastValue_1 & 0xFFFF
//  645 
//  646      
//  647      }
//  648      else if( (sdat.time[0]>sdat.time[2])&&(sdat.time[2]>sdat.time[1]) )
??Water_gage_forecastValue_0:
        MOV     A,#0x42
        LCALL   ?XSTACK_DISP0_8
        PUSH    DPL
        CFI CFA_SP SP+-1
        PUSH    DPH
        CFI CFA_SP SP+-2
        MOV     A,#0x3a
        LCALL   ?XSTACK_DISP0_8
        MOV     R0,#?V0 + 0
        LCALL   ?L_MOV_X
        POP     DPH
        CFI CFA_SP SP+-1
        POP     DPL
        CFI CFA_SP SP+0
        MOV     R0,#?V0 + 0
        LCALL   ?UL_GT_X
        JC      $+5
        LJMP    ??Water_gage_forecastValue_2 & 0xFFFF
        MOV     A,#0x3e
        LCALL   ?XSTACK_DISP0_8
        PUSH    DPL
        CFI CFA_SP SP+-1
        PUSH    DPH
        CFI CFA_SP SP+-2
        MOV     A,#0x42
        LCALL   ?XSTACK_DISP0_8
        MOV     R0,#?V0 + 0
        LCALL   ?L_MOV_X
        POP     DPH
        CFI CFA_SP SP+-1
        POP     DPL
        CFI CFA_SP SP+0
        MOV     R0,#?V0 + 0
        LCALL   ?UL_GT_X
        JNC     ??Water_gage_forecastValue_2
//  649      {
//  650        y1=sdat.data[1];
        MOV     A,#0x36
        LCALL   ?XSTACK_DISP0_8
        LCALL   ?Subroutine0 & 0xFFFF
??CrossCallReturnLabel_3:
        LCALL   ?UL_TO_FLT
        MOV     A,#0xc
        LCALL   ?XSTACK_DISP0_8
        MOV     R0,#?V0 + 0
        LCALL   ?L_MOV_TO_X
//  651        x1=sdat.time[1];
        MOV     A,#0x3e
        LCALL   ?XSTACK_DISP0_8
        MOV     R0,#?V0 + 0
        LCALL   ?L_MOV_X
        MOV     R0,#?V0 + 0
        LCALL   ?UL_TO_FLT
        MOV     A,#0x4
        LCALL   ?XSTACK_DISP0_8
        MOV     R0,#?V0 + 0
        LCALL   ?L_MOV_TO_X
//  652        y2=sdat.data[2];
        MOV     A,#0x38
        LCALL   ?XSTACK_DISP0_8
        LCALL   ?Subroutine0 & 0xFFFF
??CrossCallReturnLabel_4:
        LCALL   ?UL_TO_FLT
        MOV     A,#0x10
        LCALL   ?XSTACK_DISP0_8
        MOV     R0,#?V0 + 0
        LCALL   ?L_MOV_TO_X
//  653        x2=sdat.time[2];
        MOV     A,#0x42
        LCALL   ?XSTACK_DISP0_8
        MOV     R0,#?V0 + 0
        LCALL   ?L_MOV_X
        MOV     R0,#?V0 + 0
        LCALL   ?UL_TO_FLT
        MOV     A,#0x8
        LCALL   ?XSTACK_DISP0_8
        MOV     R0,#?V0 + 0
        LCALL   ?L_MOV_TO_X
//  654        y3=sdat.data[0];
        MOV     A,#0x34
        LCALL   ?XSTACK_DISP0_8
        LCALL   ?Subroutine0 & 0xFFFF
??CrossCallReturnLabel_5:
        LCALL   ?UL_TO_FLT
        MOV     A,#0x14
        LCALL   ?XSTACK_DISP0_8
        MOV     R0,#?V0 + 0
        LCALL   ?L_MOV_TO_X
//  655        x3=sdat.time[0];
        MOV     A,#0x3a
        SJMP    ??Water_gage_forecastValue_1
//  656      }
//  657      else
//  658      {
//  659        y1=sdat.data[2];
??Water_gage_forecastValue_2:
        MOV     A,#0x38
        LCALL   ?XSTACK_DISP0_8
        LCALL   ?Subroutine0 & 0xFFFF
??CrossCallReturnLabel_6:
        LCALL   ?UL_TO_FLT
        MOV     A,#0xc
        LCALL   ?XSTACK_DISP0_8
        MOV     R0,#?V0 + 0
        LCALL   ?L_MOV_TO_X
//  660        x1=sdat.time[2];
        MOV     A,#0x42
        LCALL   ?XSTACK_DISP0_8
        MOV     R0,#?V0 + 0
        LCALL   ?L_MOV_X
        MOV     R0,#?V0 + 0
        LCALL   ?UL_TO_FLT
        MOV     A,#0x4
        LCALL   ?XSTACK_DISP0_8
        MOV     R0,#?V0 + 0
        LCALL   ?L_MOV_TO_X
//  661        y2=sdat.data[0];
        MOV     A,#0x34
        LCALL   ?XSTACK_DISP0_8
        LCALL   ?Subroutine0 & 0xFFFF
??CrossCallReturnLabel_7:
        LCALL   ?UL_TO_FLT
        MOV     A,#0x10
        LCALL   ?XSTACK_DISP0_8
        MOV     R0,#?V0 + 0
        LCALL   ?L_MOV_TO_X
//  662        x2=sdat.time[0];
        MOV     A,#0x3a
        LCALL   ?XSTACK_DISP0_8
        MOV     R0,#?V0 + 0
        LCALL   ?L_MOV_X
        MOV     R0,#?V0 + 0
        LCALL   ?UL_TO_FLT
        MOV     A,#0x8
        LCALL   ?XSTACK_DISP0_8
        MOV     R0,#?V0 + 0
        LCALL   ?L_MOV_TO_X
//  663        y3=sdat.data[1];
        MOV     A,#0x36
        LCALL   ?XSTACK_DISP0_8
        LCALL   ?Subroutine0 & 0xFFFF
??CrossCallReturnLabel_8:
        LCALL   ?UL_TO_FLT
        MOV     A,#0x14
        LCALL   ?XSTACK_DISP0_8
        MOV     R0,#?V0 + 0
        LCALL   ?L_MOV_TO_X
//  664        x3=sdat.time[1];
        MOV     A,#0x3e
??Water_gage_forecastValue_1:
        LCALL   ?XSTACK_DISP0_8
        MOV     R0,#?V0 + 0
        LCALL   ?L_MOV_X
        MOV     R0,#?V0 + 0
        LCALL   ?UL_TO_FLT
        MOV     DPL,?XSP + 0
        MOV     DPH,?XSP + 1
        MOV     R0,#?V0 + 0
        LCALL   ?L_MOV_TO_X
//  665      }
//  666     
//  667      k=( (3*(x1*y1+x2*y2+x3*y3)-(x1+x2+x3)*(y1+y2+y3))/(3*(x1*x1+x2*x2+x3*x3)-(x1+x2+x3)*(x1+x2+x3)) );
        MOV     A,#0xc
        LCALL   ?XSTACK_DISP0_8
        MOV     R0,#?V0 + 0
        LCALL   ?L_MOV_X
        MOV     A,#0x10
        LCALL   ?XSTACK_DISP0_8
        MOV     R0,#?V0 + 4
        LCALL   ?L_MOV_X
        MOV     R0,#?V0 + 0
        MOV     R1,#?V0 + 4
        LCALL   ?FLT_ADD
        MOV     A,#0x14
        LCALL   ?XSTACK_DISP0_8
        MOV     R0,#?V0 + 4
        LCALL   ?L_MOV_X
        MOV     R0,#?V0 + 0
        MOV     R1,#?V0 + 4
        LCALL   ?FLT_ADD
        MOV     A,#0x1c
        LCALL   ?XSTACK_DISP0_8
        MOV     R0,#?V0 + 0
        LCALL   ?L_MOV_TO_X
        MOV     A,#0x4
        LCALL   ?XSTACK_DISP0_8
        MOV     R0,#?V0 + 0
        LCALL   ?L_MOV_X
        MOV     A,#0x8
        LCALL   ?XSTACK_DISP0_8
        MOV     R0,#?V0 + 4
        LCALL   ?L_MOV_X
        MOV     R0,#?V0 + 0
        MOV     R1,#?V0 + 4
        LCALL   ?FLT_ADD
        MOV     DPL,?XSP + 0
        MOV     DPH,?XSP + 1
        MOV     R0,#?V0 + 4
        LCALL   ?L_MOV_X
        MOV     R0,#?V0 + 0
        MOV     R1,#?V0 + 4
        LCALL   ?FLT_ADD
        MOV     A,#0x18
        LCALL   ?XSTACK_DISP0_8
        MOV     R0,#?V0 + 0
        LCALL   ?L_MOV_TO_X
        MOV     A,#0x4
        LCALL   ?XSTACK_DISP0_8
        MOV     R0,#?V0 + 0
        LCALL   ?L_MOV_X
        MOV     A,#0xc
        LCALL   ?XSTACK_DISP0_8
        MOV     R0,#?V0 + 4
        LCALL   ?L_MOV_X
        MOV     R0,#?V0 + 0
        MOV     R1,#?V0 + 4
        LCALL   ?FLT_MUL
        PUSH    ?V0 + 0
        CFI CFA_SP SP+-1
        PUSH    ?V0 + 1
        CFI CFA_SP SP+-2
        PUSH    ?V0 + 2
        CFI CFA_SP SP+-3
        PUSH    ?V0 + 3
        CFI CFA_SP SP+-4
        MOV     A,#0x8
        LCALL   ?XSTACK_DISP0_8
        MOV     R0,#?V0 + 4
        LCALL   ?L_MOV_X
        MOV     A,#0x10
        LCALL   ?XSTACK_DISP0_8
        MOV     R0,#?V0 + 0
        LCALL   ?L_MOV_X
        MOV     R0,#?V0 + 4
        MOV     R1,#?V0 + 0
        LCALL   ?FLT_MUL
        POP     ?V0 + 3
        CFI CFA_SP SP+-3
        POP     ?V0 + 2
        CFI CFA_SP SP+-2
        POP     ?V0 + 1
        CFI CFA_SP SP+-1
        POP     ?V0 + 0
        CFI CFA_SP SP+0
        MOV     R0,#?V0 + 0
        MOV     R1,#?V0 + 4
        LCALL   ?FLT_ADD
        PUSH    ?V0 + 0
        CFI CFA_SP SP+-1
        PUSH    ?V0 + 1
        CFI CFA_SP SP+-2
        PUSH    ?V0 + 2
        CFI CFA_SP SP+-3
        PUSH    ?V0 + 3
        CFI CFA_SP SP+-4
        MOV     DPL,?XSP + 0
        MOV     DPH,?XSP + 1
        MOV     R0,#?V0 + 4
        LCALL   ?L_MOV_X
        MOV     A,#0x14
        LCALL   ?XSTACK_DISP0_8
        MOV     R0,#?V0 + 0
        LCALL   ?L_MOV_X
        MOV     R0,#?V0 + 4
        MOV     R1,#?V0 + 0
        LCALL   ?FLT_MUL
        POP     ?V0 + 3
        CFI CFA_SP SP+-3
        POP     ?V0 + 2
        CFI CFA_SP SP+-2
        POP     ?V0 + 1
        CFI CFA_SP SP+-1
        POP     ?V0 + 0
        CFI CFA_SP SP+0
        MOV     R0,#?V0 + 0
        MOV     R1,#?V0 + 4
        LCALL   ?FLT_ADD
        MOV     DPTR,#__Constant_40400000
        MOV     R0,#?V0 + 4
        LCALL   ?L_MOV_X
        MOV     R0,#?V0 + 0
        MOV     R1,#?V0 + 4
        LCALL   ?FLT_MUL
        PUSH    ?V0 + 0
        CFI CFA_SP SP+-1
        PUSH    ?V0 + 1
        CFI CFA_SP SP+-2
        PUSH    ?V0 + 2
        CFI CFA_SP SP+-3
        PUSH    ?V0 + 3
        CFI CFA_SP SP+-4
        MOV     A,#0x18
        LCALL   ?XSTACK_DISP0_8
        MOV     R0,#?V0 + 4
        LCALL   ?L_MOV_X
        MOV     A,#0x1c
        LCALL   ?XSTACK_DISP0_8
        MOV     R0,#?V0 + 0
        LCALL   ?L_MOV_X
        MOV     R0,#?V0 + 4
        MOV     R1,#?V0 + 0
        LCALL   ?FLT_MUL
        POP     ?V0 + 3
        CFI CFA_SP SP+-3
        POP     ?V0 + 2
        CFI CFA_SP SP+-2
        POP     ?V0 + 1
        CFI CFA_SP SP+-1
        POP     ?V0 + 0
        CFI CFA_SP SP+0
        MOV     R0,#?V0 + 0
        MOV     R1,#?V0 + 4
        LCALL   ?FLT_SUB
        PUSH    ?V0 + 0
        CFI CFA_SP SP+-1
        PUSH    ?V0 + 1
        CFI CFA_SP SP+-2
        PUSH    ?V0 + 2
        CFI CFA_SP SP+-3
        PUSH    ?V0 + 3
        CFI CFA_SP SP+-4
        MOV     A,#0x4
        LCALL   ?XSTACK_DISP0_8
        MOV     R0,#?V0 + 0
        LCALL   ?L_MOV_X
        MOV     A,#0x4
        LCALL   ?XSTACK_DISP0_8
        MOV     R0,#?V0 + 4
        LCALL   ?L_MOV_X
        MOV     R0,#?V0 + 0
        MOV     R1,#?V0 + 4
        LCALL   ?FLT_MUL
        PUSH    ?V0 + 0
        CFI CFA_SP SP+-5
        PUSH    ?V0 + 1
        CFI CFA_SP SP+-6
        PUSH    ?V0 + 2
        CFI CFA_SP SP+-7
        PUSH    ?V0 + 3
        CFI CFA_SP SP+-8
        MOV     A,#0x8
        LCALL   ?XSTACK_DISP0_8
        MOV     R0,#?V0 + 4
        LCALL   ?L_MOV_X
        MOV     A,#0x8
        LCALL   ?XSTACK_DISP0_8
        MOV     R0,#?V0 + 0
        LCALL   ?L_MOV_X
        MOV     R0,#?V0 + 4
        MOV     R1,#?V0 + 0
        LCALL   ?FLT_MUL
        POP     ?V0 + 3
        CFI CFA_SP SP+-7
        POP     ?V0 + 2
        CFI CFA_SP SP+-6
        POP     ?V0 + 1
        CFI CFA_SP SP+-5
        POP     ?V0 + 0
        CFI CFA_SP SP+-4
        MOV     R0,#?V0 + 0
        MOV     R1,#?V0 + 4
        LCALL   ?FLT_ADD
        PUSH    ?V0 + 0
        CFI CFA_SP SP+-5
        PUSH    ?V0 + 1
        CFI CFA_SP SP+-6
        PUSH    ?V0 + 2
        CFI CFA_SP SP+-7
        PUSH    ?V0 + 3
        CFI CFA_SP SP+-8
        MOV     DPL,?XSP + 0
        MOV     DPH,?XSP + 1
        MOV     R0,#?V0 + 4
        LCALL   ?L_MOV_X
        MOV     DPL,?XSP + 0
        MOV     DPH,?XSP + 1
        MOV     R0,#?V0 + 0
        LCALL   ?L_MOV_X
        MOV     R0,#?V0 + 4
        MOV     R1,#?V0 + 0
        LCALL   ?FLT_MUL
        POP     ?V0 + 3
        CFI CFA_SP SP+-7
        POP     ?V0 + 2
        CFI CFA_SP SP+-6
        POP     ?V0 + 1
        CFI CFA_SP SP+-5
        POP     ?V0 + 0
        CFI CFA_SP SP+-4
        MOV     R0,#?V0 + 0
        MOV     R1,#?V0 + 4
        LCALL   ?FLT_ADD
        MOV     DPTR,#__Constant_40400000
        MOV     R0,#?V0 + 4
        LCALL   ?L_MOV_X
        MOV     R0,#?V0 + 0
        MOV     R1,#?V0 + 4
        LCALL   ?FLT_MUL
        PUSH    ?V0 + 0
        CFI CFA_SP SP+-5
        PUSH    ?V0 + 1
        CFI CFA_SP SP+-6
        PUSH    ?V0 + 2
        CFI CFA_SP SP+-7
        PUSH    ?V0 + 3
        CFI CFA_SP SP+-8
        MOV     A,#0x18
        LCALL   ?XSTACK_DISP0_8
        MOV     R0,#?V0 + 4
        LCALL   ?L_MOV_X
        MOV     A,#0x18
        LCALL   ?XSTACK_DISP0_8
        MOV     R0,#?V0 + 0
        LCALL   ?L_MOV_X
        MOV     R0,#?V0 + 4
        MOV     R1,#?V0 + 0
        LCALL   ?FLT_MUL
        POP     ?V0 + 3
        CFI CFA_SP SP+-7
        POP     ?V0 + 2
        CFI CFA_SP SP+-6
        POP     ?V0 + 1
        CFI CFA_SP SP+-5
        POP     ?V0 + 0
        CFI CFA_SP SP+-4
        MOV     R0,#?V0 + 0
        MOV     R1,#?V0 + 4
        LCALL   ?FLT_SUB
        POP     ?V0 + 7
        CFI CFA_SP SP+-3
        POP     ?V0 + 6
        CFI CFA_SP SP+-2
        POP     ?V0 + 5
        CFI CFA_SP SP+-1
        POP     ?V0 + 4
        CFI CFA_SP SP+0
        MOV     R0,#?V0 + 4
        MOV     R1,#?V0 + 0
        LCALL   ?FLT_DIV
        MOV     A,#0x20
        LCALL   ?XSTACK_DISP0_8
        MOV     R0,#?V0 + 4
        LCALL   ?L_MOV_TO_X
//  668      b=( (y1+y2+y3) -k*(x1+x2+x3) )/3;
//  669 
//  670      uint16 y4 =k*(x3+SendWaterGageTimeFreq*1000)+b;
//  671      
//  672      return y4;
        MOV     A,#0x20
        LCALL   ?XSTACK_DISP0_8
        MOV     R0,#?V0 + 0
        LCALL   ?L_MOV_X
        PUSH    ?V0 + 0
        CFI CFA_SP SP+-1
        PUSH    ?V0 + 1
        CFI CFA_SP SP+-2
        PUSH    ?V0 + 2
        CFI CFA_SP SP+-3
        PUSH    ?V0 + 3
        CFI CFA_SP SP+-4
        MOV     DPL,?XSP + 0
        MOV     DPH,?XSP + 1
        MOV     R0,#?V0 + 4
        LCALL   ?L_MOV_X
        MOV     DPTR,#SendWaterGageTimeFreq
        LCALL   ?Subroutine14 & 0xFFFF
??CrossCallReturnLabel_38:
        MOV     A,?V0 + 0
        MOV     B,#-0x18
        MUL     AB
        XCH     A,?V0 + 0
        MOV     R2,B
        MOV     B,#0x3
        MUL     AB
        ADD     A,R2
        MOV     R2,A
        MOV     B,#-0x18
        MOV     A,?V0 + 1
        MUL     AB
        ADD     A,R2
        MOV     ?V0 + 1,A
        MOV     ?V0 + 2,#0x0
        MOV     ?V0 + 3,#0x0
        MOV     R0,#?V0 + 0
        LCALL   ?UL_TO_FLT
        MOV     R0,#?V0 + 4
        MOV     R1,#?V0 + 0
        LCALL   ?FLT_ADD
        POP     ?V0 + 3
        CFI CFA_SP SP+-3
        POP     ?V0 + 2
        CFI CFA_SP SP+-2
        POP     ?V0 + 1
        CFI CFA_SP SP+-1
        POP     ?V0 + 0
        CFI CFA_SP SP+0
        MOV     R0,#?V0 + 0
        MOV     R1,#?V0 + 4
        LCALL   ?FLT_MUL
        PUSH    ?V0 + 0
        CFI CFA_SP SP+-1
        PUSH    ?V0 + 1
        CFI CFA_SP SP+-2
        PUSH    ?V0 + 2
        CFI CFA_SP SP+-3
        PUSH    ?V0 + 3
        CFI CFA_SP SP+-4
        MOV     A,#0x1c
        LCALL   ?XSTACK_DISP0_8
        MOV     R0,#?V0 + 0
        LCALL   ?L_MOV_X
        PUSH    ?V0 + 0
        CFI CFA_SP SP+-5
        PUSH    ?V0 + 1
        CFI CFA_SP SP+-6
        PUSH    ?V0 + 2
        CFI CFA_SP SP+-7
        PUSH    ?V0 + 3
        CFI CFA_SP SP+-8
        MOV     A,#0x20
        LCALL   ?XSTACK_DISP0_8
        MOV     R0,#?V0 + 4
        LCALL   ?L_MOV_X
        MOV     A,#0x18
        LCALL   ?XSTACK_DISP0_8
        MOV     R0,#?V0 + 0
        LCALL   ?L_MOV_X
        MOV     R0,#?V0 + 4
        MOV     R1,#?V0 + 0
        LCALL   ?FLT_MUL
        POP     ?V0 + 3
        CFI CFA_SP SP+-7
        POP     ?V0 + 2
        CFI CFA_SP SP+-6
        POP     ?V0 + 1
        CFI CFA_SP SP+-5
        POP     ?V0 + 0
        CFI CFA_SP SP+-4
        MOV     R0,#?V0 + 0
        MOV     R1,#?V0 + 4
        LCALL   ?FLT_SUB
        MOV     DPTR,#__Constant_40400000
        MOV     R0,#?V0 + 4
        LCALL   ?L_MOV_X
        MOV     R0,#?V0 + 0
        MOV     R1,#?V0 + 4
        LCALL   ?FLT_DIV
        POP     ?V0 + 7
        CFI CFA_SP SP+-3
        POP     ?V0 + 6
        CFI CFA_SP SP+-2
        POP     ?V0 + 5
        CFI CFA_SP SP+-1
        POP     ?V0 + 4
        CFI CFA_SP SP+0
        MOV     R0,#?V0 + 4
        MOV     R1,#?V0 + 0
        LCALL   ?FLT_ADD
        MOV     R0,#?V0 + 4
        LCALL   ?FLT_TO_L
        MOV     R2,?V0 + 4
        MOV     R3,?V0 + 5
        MOV     A,#0x24
        LJMP    ?Subroutine53 & 0xFFFF
        CFI EndBlock cfiBlock2
//  673   }

        RSEG BANKED_CODE:CODE:NOROOT(0)
?Subroutine0:
        CFI Block cfiCond3 Using cfiCommon0
        CFI NoFunction
        CFI Conditional ??CrossCallReturnLabel_0
        CFI R6 load(1, XDATA, add(CFA_XSP16, literal(-16)))
        CFI VB load(1, XDATA, add(CFA_XSP16, literal(-15)))
        CFI V0 load(1, XDATA, add(CFA_XSP16, literal(-14)))
        CFI V1 load(1, XDATA, add(CFA_XSP16, literal(-13)))
        CFI V2 load(1, XDATA, add(CFA_XSP16, literal(-12)))
        CFI V3 load(1, XDATA, add(CFA_XSP16, literal(-11)))
        CFI V4 load(1, XDATA, add(CFA_XSP16, literal(-10)))
        CFI V5 load(1, XDATA, add(CFA_XSP16, literal(-9)))
        CFI V6 load(1, XDATA, add(CFA_XSP16, literal(-8)))
        CFI V7 load(1, XDATA, add(CFA_XSP16, literal(-7)))
        CFI R7 load(1, XDATA, add(CFA_XSP16, literal(-6)))
        CFI ?RET_LOW load(1, XDATA, add(CFA_XSP16, literal(-5)))
        CFI ?RET_HIGH load(1, XDATA, add(CFA_XSP16, literal(-4)))
        CFI ?BRET_EXT load(1, XDATA, add(CFA_XSP16, literal(-3)))
        CFI DPL0 load(1, XDATA, add(CFA_XSP16, literal(-2)))
        CFI DPH0 load(1, XDATA, add(CFA_XSP16, literal(-1)))
        CFI CFA_SP SP+0
        CFI CFA_XSP16 add(XSP16, 52)
        CFI Block cfiCond4 Using cfiCommon0
        CFI (cfiCond4) NoFunction
        CFI (cfiCond4) Conditional ??CrossCallReturnLabel_1
        CFI (cfiCond4) R6 load(1, XDATA, add(CFA_XSP16, literal(-16)))
        CFI (cfiCond4) VB load(1, XDATA, add(CFA_XSP16, literal(-15)))
        CFI (cfiCond4) V0 load(1, XDATA, add(CFA_XSP16, literal(-14)))
        CFI (cfiCond4) V1 load(1, XDATA, add(CFA_XSP16, literal(-13)))
        CFI (cfiCond4) V2 load(1, XDATA, add(CFA_XSP16, literal(-12)))
        CFI (cfiCond4) V3 load(1, XDATA, add(CFA_XSP16, literal(-11)))
        CFI (cfiCond4) V4 load(1, XDATA, add(CFA_XSP16, literal(-10)))
        CFI (cfiCond4) V5 load(1, XDATA, add(CFA_XSP16, literal(-9)))
        CFI (cfiCond4) V6 load(1, XDATA, add(CFA_XSP16, literal(-8)))
        CFI (cfiCond4) V7 load(1, XDATA, add(CFA_XSP16, literal(-7)))
        CFI (cfiCond4) R7 load(1, XDATA, add(CFA_XSP16, literal(-6)))
        CFI (cfiCond4) ?RET_LOW load(1, XDATA, add(CFA_XSP16, literal(-5)))
        CFI (cfiCond4) ?RET_HIGH load(1, XDATA, add(CFA_XSP16, literal(-4)))
        CFI (cfiCond4) ?BRET_EXT load(1, XDATA, add(CFA_XSP16, literal(-3)))
        CFI (cfiCond4) DPL0 load(1, XDATA, add(CFA_XSP16, literal(-2)))
        CFI (cfiCond4) DPH0 load(1, XDATA, add(CFA_XSP16, literal(-1)))
        CFI (cfiCond4) CFA_SP SP+0
        CFI (cfiCond4) CFA_XSP16 add(XSP16, 52)
        CFI Block cfiCond5 Using cfiCommon0
        CFI (cfiCond5) NoFunction
        CFI (cfiCond5) Conditional ??CrossCallReturnLabel_2
        CFI (cfiCond5) R6 load(1, XDATA, add(CFA_XSP16, literal(-16)))
        CFI (cfiCond5) VB load(1, XDATA, add(CFA_XSP16, literal(-15)))
        CFI (cfiCond5) V0 load(1, XDATA, add(CFA_XSP16, literal(-14)))
        CFI (cfiCond5) V1 load(1, XDATA, add(CFA_XSP16, literal(-13)))
        CFI (cfiCond5) V2 load(1, XDATA, add(CFA_XSP16, literal(-12)))
        CFI (cfiCond5) V3 load(1, XDATA, add(CFA_XSP16, literal(-11)))
        CFI (cfiCond5) V4 load(1, XDATA, add(CFA_XSP16, literal(-10)))
        CFI (cfiCond5) V5 load(1, XDATA, add(CFA_XSP16, literal(-9)))
        CFI (cfiCond5) V6 load(1, XDATA, add(CFA_XSP16, literal(-8)))
        CFI (cfiCond5) V7 load(1, XDATA, add(CFA_XSP16, literal(-7)))
        CFI (cfiCond5) R7 load(1, XDATA, add(CFA_XSP16, literal(-6)))
        CFI (cfiCond5) ?RET_LOW load(1, XDATA, add(CFA_XSP16, literal(-5)))
        CFI (cfiCond5) ?RET_HIGH load(1, XDATA, add(CFA_XSP16, literal(-4)))
        CFI (cfiCond5) ?BRET_EXT load(1, XDATA, add(CFA_XSP16, literal(-3)))
        CFI (cfiCond5) DPL0 load(1, XDATA, add(CFA_XSP16, literal(-2)))
        CFI (cfiCond5) DPH0 load(1, XDATA, add(CFA_XSP16, literal(-1)))
        CFI (cfiCond5) CFA_SP SP+0
        CFI (cfiCond5) CFA_XSP16 add(XSP16, 52)
        CFI Block cfiCond6 Using cfiCommon0
        CFI (cfiCond6) NoFunction
        CFI (cfiCond6) Conditional ??CrossCallReturnLabel_3
        CFI (cfiCond6) R6 load(1, XDATA, add(CFA_XSP16, literal(-16)))
        CFI (cfiCond6) VB load(1, XDATA, add(CFA_XSP16, literal(-15)))
        CFI (cfiCond6) V0 load(1, XDATA, add(CFA_XSP16, literal(-14)))
        CFI (cfiCond6) V1 load(1, XDATA, add(CFA_XSP16, literal(-13)))
        CFI (cfiCond6) V2 load(1, XDATA, add(CFA_XSP16, literal(-12)))
        CFI (cfiCond6) V3 load(1, XDATA, add(CFA_XSP16, literal(-11)))
        CFI (cfiCond6) V4 load(1, XDATA, add(CFA_XSP16, literal(-10)))
        CFI (cfiCond6) V5 load(1, XDATA, add(CFA_XSP16, literal(-9)))
        CFI (cfiCond6) V6 load(1, XDATA, add(CFA_XSP16, literal(-8)))
        CFI (cfiCond6) V7 load(1, XDATA, add(CFA_XSP16, literal(-7)))
        CFI (cfiCond6) R7 load(1, XDATA, add(CFA_XSP16, literal(-6)))
        CFI (cfiCond6) ?RET_LOW load(1, XDATA, add(CFA_XSP16, literal(-5)))
        CFI (cfiCond6) ?RET_HIGH load(1, XDATA, add(CFA_XSP16, literal(-4)))
        CFI (cfiCond6) ?BRET_EXT load(1, XDATA, add(CFA_XSP16, literal(-3)))
        CFI (cfiCond6) DPL0 load(1, XDATA, add(CFA_XSP16, literal(-2)))
        CFI (cfiCond6) DPH0 load(1, XDATA, add(CFA_XSP16, literal(-1)))
        CFI (cfiCond6) CFA_SP SP+0
        CFI (cfiCond6) CFA_XSP16 add(XSP16, 52)
        CFI Block cfiCond7 Using cfiCommon0
        CFI (cfiCond7) NoFunction
        CFI (cfiCond7) Conditional ??CrossCallReturnLabel_4
        CFI (cfiCond7) R6 load(1, XDATA, add(CFA_XSP16, literal(-16)))
        CFI (cfiCond7) VB load(1, XDATA, add(CFA_XSP16, literal(-15)))
        CFI (cfiCond7) V0 load(1, XDATA, add(CFA_XSP16, literal(-14)))
        CFI (cfiCond7) V1 load(1, XDATA, add(CFA_XSP16, literal(-13)))
        CFI (cfiCond7) V2 load(1, XDATA, add(CFA_XSP16, literal(-12)))
        CFI (cfiCond7) V3 load(1, XDATA, add(CFA_XSP16, literal(-11)))
        CFI (cfiCond7) V4 load(1, XDATA, add(CFA_XSP16, literal(-10)))
        CFI (cfiCond7) V5 load(1, XDATA, add(CFA_XSP16, literal(-9)))
        CFI (cfiCond7) V6 load(1, XDATA, add(CFA_XSP16, literal(-8)))
        CFI (cfiCond7) V7 load(1, XDATA, add(CFA_XSP16, literal(-7)))
        CFI (cfiCond7) R7 load(1, XDATA, add(CFA_XSP16, literal(-6)))
        CFI (cfiCond7) ?RET_LOW load(1, XDATA, add(CFA_XSP16, literal(-5)))
        CFI (cfiCond7) ?RET_HIGH load(1, XDATA, add(CFA_XSP16, literal(-4)))
        CFI (cfiCond7) ?BRET_EXT load(1, XDATA, add(CFA_XSP16, literal(-3)))
        CFI (cfiCond7) DPL0 load(1, XDATA, add(CFA_XSP16, literal(-2)))
        CFI (cfiCond7) DPH0 load(1, XDATA, add(CFA_XSP16, literal(-1)))
        CFI (cfiCond7) CFA_SP SP+0
        CFI (cfiCond7) CFA_XSP16 add(XSP16, 52)
        CFI Block cfiCond8 Using cfiCommon0
        CFI (cfiCond8) NoFunction
        CFI (cfiCond8) Conditional ??CrossCallReturnLabel_5
        CFI (cfiCond8) R6 load(1, XDATA, add(CFA_XSP16, literal(-16)))
        CFI (cfiCond8) VB load(1, XDATA, add(CFA_XSP16, literal(-15)))
        CFI (cfiCond8) V0 load(1, XDATA, add(CFA_XSP16, literal(-14)))
        CFI (cfiCond8) V1 load(1, XDATA, add(CFA_XSP16, literal(-13)))
        CFI (cfiCond8) V2 load(1, XDATA, add(CFA_XSP16, literal(-12)))
        CFI (cfiCond8) V3 load(1, XDATA, add(CFA_XSP16, literal(-11)))
        CFI (cfiCond8) V4 load(1, XDATA, add(CFA_XSP16, literal(-10)))
        CFI (cfiCond8) V5 load(1, XDATA, add(CFA_XSP16, literal(-9)))
        CFI (cfiCond8) V6 load(1, XDATA, add(CFA_XSP16, literal(-8)))
        CFI (cfiCond8) V7 load(1, XDATA, add(CFA_XSP16, literal(-7)))
        CFI (cfiCond8) R7 load(1, XDATA, add(CFA_XSP16, literal(-6)))
        CFI (cfiCond8) ?RET_LOW load(1, XDATA, add(CFA_XSP16, literal(-5)))
        CFI (cfiCond8) ?RET_HIGH load(1, XDATA, add(CFA_XSP16, literal(-4)))
        CFI (cfiCond8) ?BRET_EXT load(1, XDATA, add(CFA_XSP16, literal(-3)))
        CFI (cfiCond8) DPL0 load(1, XDATA, add(CFA_XSP16, literal(-2)))
        CFI (cfiCond8) DPH0 load(1, XDATA, add(CFA_XSP16, literal(-1)))
        CFI (cfiCond8) CFA_SP SP+0
        CFI (cfiCond8) CFA_XSP16 add(XSP16, 52)
        CFI Block cfiCond9 Using cfiCommon0
        CFI (cfiCond9) NoFunction
        CFI (cfiCond9) Conditional ??CrossCallReturnLabel_6
        CFI (cfiCond9) R6 load(1, XDATA, add(CFA_XSP16, literal(-16)))
        CFI (cfiCond9) VB load(1, XDATA, add(CFA_XSP16, literal(-15)))
        CFI (cfiCond9) V0 load(1, XDATA, add(CFA_XSP16, literal(-14)))
        CFI (cfiCond9) V1 load(1, XDATA, add(CFA_XSP16, literal(-13)))
        CFI (cfiCond9) V2 load(1, XDATA, add(CFA_XSP16, literal(-12)))
        CFI (cfiCond9) V3 load(1, XDATA, add(CFA_XSP16, literal(-11)))
        CFI (cfiCond9) V4 load(1, XDATA, add(CFA_XSP16, literal(-10)))
        CFI (cfiCond9) V5 load(1, XDATA, add(CFA_XSP16, literal(-9)))
        CFI (cfiCond9) V6 load(1, XDATA, add(CFA_XSP16, literal(-8)))
        CFI (cfiCond9) V7 load(1, XDATA, add(CFA_XSP16, literal(-7)))
        CFI (cfiCond9) R7 load(1, XDATA, add(CFA_XSP16, literal(-6)))
        CFI (cfiCond9) ?RET_LOW load(1, XDATA, add(CFA_XSP16, literal(-5)))
        CFI (cfiCond9) ?RET_HIGH load(1, XDATA, add(CFA_XSP16, literal(-4)))
        CFI (cfiCond9) ?BRET_EXT load(1, XDATA, add(CFA_XSP16, literal(-3)))
        CFI (cfiCond9) DPL0 load(1, XDATA, add(CFA_XSP16, literal(-2)))
        CFI (cfiCond9) DPH0 load(1, XDATA, add(CFA_XSP16, literal(-1)))
        CFI (cfiCond9) CFA_SP SP+0
        CFI (cfiCond9) CFA_XSP16 add(XSP16, 52)
        CFI Block cfiCond10 Using cfiCommon0
        CFI (cfiCond10) NoFunction
        CFI (cfiCond10) Conditional ??CrossCallReturnLabel_7
        CFI (cfiCond10) R6 load(1, XDATA, add(CFA_XSP16, literal(-16)))
        CFI (cfiCond10) VB load(1, XDATA, add(CFA_XSP16, literal(-15)))
        CFI (cfiCond10) V0 load(1, XDATA, add(CFA_XSP16, literal(-14)))
        CFI (cfiCond10) V1 load(1, XDATA, add(CFA_XSP16, literal(-13)))
        CFI (cfiCond10) V2 load(1, XDATA, add(CFA_XSP16, literal(-12)))
        CFI (cfiCond10) V3 load(1, XDATA, add(CFA_XSP16, literal(-11)))
        CFI (cfiCond10) V4 load(1, XDATA, add(CFA_XSP16, literal(-10)))
        CFI (cfiCond10) V5 load(1, XDATA, add(CFA_XSP16, literal(-9)))
        CFI (cfiCond10) V6 load(1, XDATA, add(CFA_XSP16, literal(-8)))
        CFI (cfiCond10) V7 load(1, XDATA, add(CFA_XSP16, literal(-7)))
        CFI (cfiCond10) R7 load(1, XDATA, add(CFA_XSP16, literal(-6)))
        CFI (cfiCond10) ?RET_LOW load(1, XDATA, add(CFA_XSP16, literal(-5)))
        CFI (cfiCond10) ?RET_HIGH load(1, XDATA, add(CFA_XSP16, literal(-4)))
        CFI (cfiCond10) ?BRET_EXT load(1, XDATA, add(CFA_XSP16, literal(-3)))
        CFI (cfiCond10) DPL0 load(1, XDATA, add(CFA_XSP16, literal(-2)))
        CFI (cfiCond10) DPH0 load(1, XDATA, add(CFA_XSP16, literal(-1)))
        CFI (cfiCond10) CFA_SP SP+0
        CFI (cfiCond10) CFA_XSP16 add(XSP16, 52)
        CFI Block cfiCond11 Using cfiCommon0
        CFI (cfiCond11) NoFunction
        CFI (cfiCond11) Conditional ??CrossCallReturnLabel_8
        CFI (cfiCond11) R6 load(1, XDATA, add(CFA_XSP16, literal(-16)))
        CFI (cfiCond11) VB load(1, XDATA, add(CFA_XSP16, literal(-15)))
        CFI (cfiCond11) V0 load(1, XDATA, add(CFA_XSP16, literal(-14)))
        CFI (cfiCond11) V1 load(1, XDATA, add(CFA_XSP16, literal(-13)))
        CFI (cfiCond11) V2 load(1, XDATA, add(CFA_XSP16, literal(-12)))
        CFI (cfiCond11) V3 load(1, XDATA, add(CFA_XSP16, literal(-11)))
        CFI (cfiCond11) V4 load(1, XDATA, add(CFA_XSP16, literal(-10)))
        CFI (cfiCond11) V5 load(1, XDATA, add(CFA_XSP16, literal(-9)))
        CFI (cfiCond11) V6 load(1, XDATA, add(CFA_XSP16, literal(-8)))
        CFI (cfiCond11) V7 load(1, XDATA, add(CFA_XSP16, literal(-7)))
        CFI (cfiCond11) R7 load(1, XDATA, add(CFA_XSP16, literal(-6)))
        CFI (cfiCond11) ?RET_LOW load(1, XDATA, add(CFA_XSP16, literal(-5)))
        CFI (cfiCond11) ?RET_HIGH load(1, XDATA, add(CFA_XSP16, literal(-4)))
        CFI (cfiCond11) ?BRET_EXT load(1, XDATA, add(CFA_XSP16, literal(-3)))
        CFI (cfiCond11) DPL0 load(1, XDATA, add(CFA_XSP16, literal(-2)))
        CFI (cfiCond11) DPH0 load(1, XDATA, add(CFA_XSP16, literal(-1)))
        CFI (cfiCond11) CFA_SP SP+0
        CFI (cfiCond11) CFA_XSP16 add(XSP16, 52)
        CFI Block cfiPicker12 Using cfiCommon1
        CFI (cfiPicker12) NoFunction
        CFI (cfiPicker12) Picker
        LCALL   ?Subroutine43 & 0xFFFF
??CrossCallReturnLabel_125:
        MOV     ?V0 + 2,#0x0
        MOV     ?V0 + 3,#0x0
        MOV     R0,#?V0 + 0
        RET
        CFI EndBlock cfiCond3
        CFI EndBlock cfiCond4
        CFI EndBlock cfiCond5
        CFI EndBlock cfiCond6
        CFI EndBlock cfiCond7
        CFI EndBlock cfiCond8
        CFI EndBlock cfiCond9
        CFI EndBlock cfiCond10
        CFI EndBlock cfiCond11
        CFI EndBlock cfiPicker12
//  674 
//  675 /*
//  676 //预测土壤湿度传感器下一数据值
//  677 float Soil_humidity_forecastValue(Soilhumidity_data_and_time sdat)
//  678 {
//  679      double x1,x2,x3;
//  680      double y1,y2,y3;
//  681      double b,k;
//  682      
//  683      if( (sdat.time[2]>sdat.time[1])&&(sdat.time[1]>sdat.time[0]) )
//  684      {
//  685        y1=sdat.data[0];
//  686        x1=sdat.time[0];
//  687        y2=sdat.data[1];
//  688        x2=sdat.time[1];
//  689        y3=sdat.data[2];
//  690        x3=sdat.time[2];
//  691 
//  692      
//  693      }
//  694      else if( (sdat.time[0]>sdat.time[2])&&(sdat.time[2]>sdat.time[1]) )
//  695      {
//  696        y1=sdat.data[1];
//  697        x1=sdat.time[1];
//  698        y2=sdat.data[2];
//  699        x2=sdat.time[2];
//  700        y3=sdat.data[0];
//  701        x3=sdat.time[0];
//  702      }
//  703      else
//  704      {
//  705        y1=sdat.data[2];
//  706        x1=sdat.time[2];
//  707        y2=sdat.data[0];
//  708        x2=sdat.time[0];
//  709        y3=sdat.data[1];
//  710        x3=sdat.time[1];
//  711      }
//  712     
//  713      k=( (3*(x1*y1+x2*y2+x3*y3)-(x1+x2+x3)*(y1+y2+y3))/(3*(x1*x1+x2*x2+x3*x3)-(x1+x2+x3)*(x1+x2+x3)) );
//  714      b=( (y1+y2+y3) -k*(x1+x2+x3) )/3;
//  715 
//  716 
//  717      float y4 =k*(x3+SendSoilHumidityTimeFreq*1000)+b;
//  718      
//  719      return y4;
//  720 
//  721 }
//  722 */
//  723 //启动水位定时器

        RSEG BANKED_CODE:CODE:NOROOT(0)
//  724 void start_Water_gage_timer()
start_Water_gage_timer:
        CFI Block cfiBlock13 Using cfiCommon0
        CFI Function start_Water_gage_timer
//  725 {
        FUNCALL start_Water_gage_timer, osal_start_timerEx
        LOCFRAME ISTACK, 2, STACK
        LOCFRAME PSTACK, 0, STACK
        LOCFRAME XSTACK, 0, STACK
        LOCFRAME IOVERLAY, 0, STATIC
        LOCFRAME DOVERLAY, 0, STATIC
        ARGFRAME ISTACK, 2, STACK
        ARGFRAME PSTACK, 0, STACK
        ARGFRAME XSTACK, 0, STACK
        ARGFRAME IOVERLAY, 0, STATIC
        ARGFRAME DOVERLAY, 0, STATIC
        FUNCALL start_Water_gage_timer, osal_start_timerEx
        LOCFRAME ISTACK, 2, STACK
        LOCFRAME PSTACK, 0, STACK
        LOCFRAME XSTACK, 0, STACK
        LOCFRAME IOVERLAY, 0, STATIC
        LOCFRAME DOVERLAY, 0, STATIC
        ARGFRAME ISTACK, 2, STACK
        ARGFRAME PSTACK, 0, STACK
        ARGFRAME XSTACK, 0, STACK
        ARGFRAME IOVERLAY, 0, STATIC
        ARGFRAME DOVERLAY, 0, STATIC
        PUSH    DPL
        CFI DPL0 Frame(CFA_SP, 4)
        CFI CFA_SP SP+-4
        PUSH    DPH
        CFI DPH0 Frame(CFA_SP, 5)
        CFI CFA_SP SP+-5
        ; Saved register size: 2
        ; Auto size: 0
//  726 
//  727     if(!SendWaterGageRemainTime)
        MOV     DPTR,#SendWaterGageRemainTime
        MOVX    A,@DPTR
        JNZ     ??start_Water_gage_timer_0
        INC     DPTR
        MOVX    A,@DPTR
??start_Water_gage_timer_0:
        JNZ     ??CrossCallReturnLabel_84
//  728      {
//  729        SendWaterGageRemainTime= (SendWaterGageTimeFreq >= 60) ? (SendWaterGageTimeFreq - 60) : 0;//补偿发送前的定时1min
        MOV     DPTR,#SendWaterGageTimeFreq
        CLR     C
        MOVX    A,@DPTR
        SUBB    A,#0x3c
        INC     DPTR
        MOVX    A,@DPTR
        SUBB    A,#0x0
        JC      ??start_Water_gage_timer_1
        MOV     DPTR,#SendWaterGageTimeFreq
        MOVX    A,@DPTR
        ADD     A,#-0x3c
        MOV     R0,A
        INC     DPTR
        MOVX    A,@DPTR
        ADDC    A,#-0x1
        MOV     R1,A
        MOV     DPTR,#SendWaterGageRemainTime
        LCALL   ??Subroutine31_0 & 0xFFFF
//  730 
//  731      }
//  732      if(SendWaterGageRemainTime > 65)//osal_start_timerEx max time is 65.535s
??CrossCallReturnLabel_84:
        MOV     DPTR,#SendWaterGageRemainTime
        CLR     C
        MOVX    A,@DPTR
        SUBB    A,#0x42
        INC     DPTR
        MOVX    A,@DPTR
        SUBB    A,#0x0
        JC      ??start_Water_gage_timer_1
//  733      {
//  734        SendWaterGageRemainTime-= 65;
        MOV     DPTR,#SendWaterGageRemainTime
        MOVX    A,@DPTR
        ADD     A,#-0x41
        MOVX    @DPTR,A
        INC     DPTR
        MOVX    A,@DPTR
        ADDC    A,#-0x1
        MOVX    @DPTR,A
//  735        osal_start_timerEx( p2p_test_TaskID,
//  736                           p2p_test_START_WATER_GAGE_TIME_MSG_EVT, //不发数据，再次启动一个定时器
//  737                           65000);
        ; Setup parameters for call to function osal_start_timerEx
        MOV     R4,#-0x18
        MOV     R5,#-0x3
        MOV     R2,#0x10
        LCALL   ??Subroutine20_1 & 0xFFFF
??CrossCallReturnLabel_58:
        SJMP    ??start_Water_gage_timer_2
//  738      }
//  739      else 
//  740      {
//  741        osal_start_timerEx(p2p_test_TaskID,
//  742                           p2p_test_SEND_WATER_GAGE_MSG_EVT, 
//  743                           SendWaterGageRemainTime * 1000);
??start_Water_gage_timer_1:
        ; Setup parameters for call to function osal_start_timerEx
        MOV     DPTR,#SendWaterGageRemainTime
        MOVX    A,@DPTR
        MOV     R4,A
        INC     DPTR
        MOVX    A,@DPTR
        LCALL   ?Subroutine20 & 0xFFFF
//  744       SendWaterGageRemainTime= 0;
??CrossCallReturnLabel_55:
        MOV     DPTR,#SendWaterGageRemainTime
        CLR     A
        MOVX    @DPTR,A
        INC     DPTR
        MOVX    @DPTR,A
//  745      }
//  746 
//  747        return;
??start_Water_gage_timer_2:
        LJMP    ??Subroutine52_0 & 0xFFFF
        CFI EndBlock cfiBlock13
//  748 
//  749   
//  750 }
//  751 /*
//  752 //启动土壤湿度的定时器
//  753 void start_Soil_humidity_timer()
//  754 {
//  755 
//  756     if(!SendSoilHumidityRemainTime)
//  757     {
//  758       SendSoilHumidityRemainTime = SendSoilHumidityTimeFreq;
//  759     }
//  760 
//  761     if(SendSoilHumidityRemainTime>65)//osal_start_timerEx max time is 65.535s
//  762     {
//  763       SendSoilHumidityRemainTime -= 65;
//  764       osal_start_timerEx( p2p_test_TaskID,
//  765                        p2p_test_START_SOIL_HUMIDITY_TIME_MSG_EVT,
//  766                       65000 );
//  767     }
//  768     else
//  769     {
//  770        osal_start_timerEx( p2p_test_TaskID,
//  771                       p2p_test_SEND_SOIL_HUMIDITY_FREQ_MSG_EVT,
//  772                       SendSoilHumidityTimeFreq*1000 );
//  773        SendSoilHumidityRemainTime = 0;
//  774     }
//  775 
//  776       return;      
//  777 
//  778   }
//  779 
//  780 //将土壤湿度采集后经处理获得的数字值变为实际的模拟值（考虑参考电压后），以便存储和预测
//  781 float Soil_humidity_DtoA(uint16 data,uint16 vcc)
//  782   {
//  783     float x =( (1.25*data*vcc/8191)/8191);
//  784     return x;
//  785   }
//  786 */
//  787 
//  788 /*********************************************************************
//  789  * NETWORK LAYER CALLBACKS
//  790  */
//  791 
//  792 /*********************************************************************
//  793  * PUBLIC FUNCTIONS
//  794  */
//  795 
//  796 /*********************************************************************
//  797  * @fn      p2p_test_Init
//  798  *
//  799  * @brief   Initialization function for the Generic App Task.
//  800  *          This is called during initialization and should contain
//  801  *          any application specific initialization (ie. hardware
//  802  *          initialization/setup, table initialization, power up
//  803  *          notificaiton ... ).
//  804  *
//  805  * @param   task_id - the ID assigned by OSAL.  This ID should be
//  806  *                    used to send messages and set timers.
//  807  *
//  808  * @return  none
//  809  */

        RSEG BANKED_CODE:CODE:NOROOT(0)
//  810 void p2p_test_Init( byte task_id )
p2p_test_Init:
        CFI Block cfiBlock14 Using cfiCommon0
        CFI Function p2p_test_Init
//  811 { 
        FUNCALL p2p_test_Init, osal_msg_allocate
        LOCFRAME ISTACK, 2, STACK
        LOCFRAME PSTACK, 0, STACK
        LOCFRAME XSTACK, 0, STACK
        LOCFRAME IOVERLAY, 0, STATIC
        LOCFRAME DOVERLAY, 0, STATIC
        ARGFRAME ISTACK, 2, STACK
        ARGFRAME PSTACK, 0, STACK
        ARGFRAME XSTACK, 0, STACK
        ARGFRAME IOVERLAY, 0, STATIC
        ARGFRAME DOVERLAY, 0, STATIC
        FUNCALL p2p_test_Init, afRegister
        LOCFRAME ISTACK, 2, STACK
        LOCFRAME PSTACK, 0, STACK
        LOCFRAME XSTACK, 0, STACK
        LOCFRAME IOVERLAY, 0, STATIC
        LOCFRAME DOVERLAY, 0, STATIC
        ARGFRAME ISTACK, 2, STACK
        ARGFRAME PSTACK, 0, STACK
        ARGFRAME XSTACK, 0, STACK
        ARGFRAME IOVERLAY, 0, STATIC
        ARGFRAME DOVERLAY, 0, STATIC
        FUNCALL p2p_test_Init, OpenP1Interrupt
        LOCFRAME ISTACK, 2, STACK
        LOCFRAME PSTACK, 0, STACK
        LOCFRAME XSTACK, 0, STACK
        LOCFRAME IOVERLAY, 0, STATIC
        LOCFRAME DOVERLAY, 0, STATIC
        ARGFRAME ISTACK, 2, STACK
        ARGFRAME PSTACK, 0, STACK
        ARGFRAME XSTACK, 0, STACK
        ARGFRAME IOVERLAY, 0, STATIC
        ARGFRAME DOVERLAY, 0, STATIC
        FUNCALL p2p_test_Init, RegisterP1Interrupt
        LOCFRAME ISTACK, 2, STACK
        LOCFRAME PSTACK, 0, STACK
        LOCFRAME XSTACK, 0, STACK
        LOCFRAME IOVERLAY, 0, STATIC
        LOCFRAME DOVERLAY, 0, STATIC
        ARGFRAME ISTACK, 2, STACK
        ARGFRAME PSTACK, 0, STACK
        ARGFRAME XSTACK, 0, STACK
        ARGFRAME IOVERLAY, 0, STATIC
        ARGFRAME DOVERLAY, 0, STATIC
        FUNCALL p2p_test_Init, StartP1Interrupt
        LOCFRAME ISTACK, 2, STACK
        LOCFRAME PSTACK, 0, STACK
        LOCFRAME XSTACK, 0, STACK
        LOCFRAME IOVERLAY, 0, STATIC
        LOCFRAME DOVERLAY, 0, STATIC
        ARGFRAME ISTACK, 2, STACK
        ARGFRAME PSTACK, 0, STACK
        ARGFRAME XSTACK, 0, STACK
        ARGFRAME IOVERLAY, 0, STATIC
        ARGFRAME DOVERLAY, 0, STATIC
        FUNCALL p2p_test_Init, SPIMgr_RegisterTaskID
        LOCFRAME ISTACK, 2, STACK
        LOCFRAME PSTACK, 0, STACK
        LOCFRAME XSTACK, 0, STACK
        LOCFRAME IOVERLAY, 0, STATIC
        LOCFRAME DOVERLAY, 0, STATIC
        ARGFRAME ISTACK, 2, STACK
        ARGFRAME PSTACK, 0, STACK
        ARGFRAME XSTACK, 0, STACK
        ARGFRAME IOVERLAY, 0, STATIC
        ARGFRAME DOVERLAY, 0, STATIC
        FUNCALL p2p_test_Init, ZDO_RegisterForZDOMsg
        LOCFRAME ISTACK, 2, STACK
        LOCFRAME PSTACK, 0, STACK
        LOCFRAME XSTACK, 0, STACK
        LOCFRAME IOVERLAY, 0, STATIC
        LOCFRAME DOVERLAY, 0, STATIC
        ARGFRAME ISTACK, 2, STACK
        ARGFRAME PSTACK, 0, STACK
        ARGFRAME XSTACK, 0, STACK
        ARGFRAME IOVERLAY, 0, STATIC
        ARGFRAME DOVERLAY, 0, STATIC
        FUNCALL p2p_test_Init, ZDO_RegisterForZDOMsg
        LOCFRAME ISTACK, 2, STACK
        LOCFRAME PSTACK, 0, STACK
        LOCFRAME XSTACK, 0, STACK
        LOCFRAME IOVERLAY, 0, STATIC
        LOCFRAME DOVERLAY, 0, STATIC
        ARGFRAME ISTACK, 2, STACK
        ARGFRAME PSTACK, 0, STACK
        ARGFRAME XSTACK, 0, STACK
        ARGFRAME IOVERLAY, 0, STATIC
        ARGFRAME DOVERLAY, 0, STATIC
        PUSH    DPL
        CFI DPL0 Frame(CFA_SP, 4)
        CFI CFA_SP SP+-4
        PUSH    DPH
        CFI DPH0 Frame(CFA_SP, 5)
        CFI CFA_SP SP+-5
        ; Saved register size: 2
        ; Auto size: 0
//  812   p2p_test_TaskID = task_id;
        MOV     A,R1
        MOV     DPTR,#p2p_test_TaskID
        MOVX    @DPTR,A
//  813   p2p_test_NwkState = DEV_INIT;
        MOV     A,#0x1
        MOV     DPTR,#p2p_test_NwkState
        MOVX    @DPTR,A
//  814   p2p_test_TransID = 0;
        CLR     A
        MOV     DPTR,#p2p_test_TransID
        MOVX    @DPTR,A
//  815 //zyq add
//  816   /*
//  817   SendRainCountFreq = 1;
//  818   RainCountNum = 0;  
//  819   SendRainTimeFreq = 1;//product unit= 1 minute test unit=1 second
//  820   SendRainRemainTime = 0;
//  821   SendSoilHumidityTimeFreq = 5;
//  822   SendSoilHumidityRemainTime = 0;  
//  823   SendAccelerometerTimeFreq=1;
//  824   SendAccelerometerRemainTime=0;
//  825   SendVccValueTimeFreq   = 1;
//  826   SendVccValueRemainTime = 0;
//  827   */
//  828   SendWaterGageTimeFreq = 1*60;//单位 s
        MOV     DPTR,#SendWaterGageTimeFreq
        MOV     A,#0x3c
        MOVX    @DPTR,A
        INC     DPTR
        CLR     A
        MOVX    @DPTR,A
//  829   SendWaterGageRemainTime=0;
        MOV     DPTR,#SendWaterGageRemainTime
        MOVX    @DPTR,A
        INC     DPTR
        MOVX    @DPTR,A
//  830   
//  831   //select watergage type;
//  832   WaterGageUnit=Default_Water_Gage;
        MOV     DPTR,#WaterGageUnit
        MOV     A,#0x3
        MOVX    @DPTR,A
        INC     DPTR
        CLR     A
        MOVX    @DPTR,A
//  833   //select soil type:0--Clay_Soil,1--Loam_Soil,2--Sand_Soil.init is Clay_Soil
//  834   //SOIL_TYPE = 0;
//  835 //  SerialNumber = 0;
//  836   
//  837 //自己编写
//  838   //初始化
//  839   Water_gage_SerialNumber = 0;
        MOV     DPTR,#Water_gage_SerialNumber
        MOVX    @DPTR,A
        INC     DPTR
        MOVX    @DPTR,A
//  840   Water_gage_time = 1*60;
        MOV     DPTR,#Water_gage_time
        MOV     A,#0x3c
        MOVX    @DPTR,A
        INC     DPTR
        CLR     A
        MOVX    @DPTR,A
//  841   Water_gage_forValue=0;
        MOV     DPTR,#Water_gage_forValue
        MOVX    @DPTR,A
        INC     DPTR
        MOVX    @DPTR,A
//  842 
//  843   no_charge_flag = 0;
        MOV     DPTR,#no_charge_flag
        MOVX    @DPTR,A
//  844   water_gage_on = 0;
        MOV     DPTR,#water_gage_on
        MOVX    @DPTR,A
//  845   CheckWaterGageChargeTimeFreq =60; // 1min
        MOV     DPTR,#CheckWaterGageChargeTimeFreq
        MOV     A,#0x3c
        MOVX    @DPTR,A
        INC     DPTR
        CLR     A
        MOVX    @DPTR,A
//  846   
//  847   Water_gage_err_a = 10;  //10mm
        MOV     A,#0xa
        MOV     DPTR,#Water_gage_err_a
        MOVX    @DPTR,A
//  848   Water_gage_err_b = 50;  //50mm
        MOV     A,#0x32
        MOV     DPTR,#Water_gage_err_b
        MOVX    @DPTR,A
//  849   Water_gage_err_c = 100; //100mm
        MOV     A,#0x64
        MOV     DPTR,#Water_gage_err_c
        MOVX    @DPTR,A
//  850   
//  851   /*
//  852   Soil_humidity_SerialNumber = 0;
//  853   Soil_humidity_time = 5*60;
//  854   Soil_humidity_forValue=0;
//  855   */
//  856   relation_done =0;
        CLR     A
        MOV     DPTR,#relation_done
        MOVX    @DPTR,A
//  857   acceptance = 1;
        MOV     A,#0x1
        MOV     DPTR,#acceptance
        MOVX    @DPTR,A
//  858   
//  859 //未用到 
//  860   /*SoilHumidityFlag=0;
//  861    RainFlag=0;*/
//  862    WaterGageFlag=0;
        CLR     A
        MOV     DPTR,#WaterGageFlag
        MOVX    @DPTR,A
//  863    
//  864    ARM_ID=0x00;
        MOV     DPTR,#ARM_ID
        MOVX    @DPTR,A
//  865    Zigbee_ID=0x00;
        MOV     DPTR,#Zigbee_ID
        MOVX    @DPTR,A
//  866    RES=0x00;
        MOV     DPTR,#RES
        MOVX    @DPTR,A
//  867    
//  868    Head_Map=(struct RelationMap_t *)osal_msg_allocate(sizeof(struct RelationMap_t));//init relation map
        ; Setup parameters for call to function osal_msg_allocate
        MOV     R2,#0x5
        MOV     R3,A
        LCALL   ??osal_msg_allocate?relay
        MOV     DPTR,#Head_Map
        MOV     A,R2
        MOVX    @DPTR,A
        INC     DPTR
        MOV     A,R3
        LCALL   ?Subroutine9 & 0xFFFF
//  869    Head_Map->addr16=0x0000;
//  870    Head_Map->Zigbee_id=Zigbee_ID;
??CrossCallReturnLabel_30:
        PUSH    A
        CFI CFA_SP SP+-6
        LCALL   ?Subroutine8 & 0xFFFF
??CrossCallReturnLabel_27:
        POP     A
        CFI CFA_SP SP+-5
        MOVX    @DPTR,A
//  871    Head_Map->next=NULL;
        LCALL   ?Subroutine8 & 0xFFFF
??CrossCallReturnLabel_28:
        INC     DPTR
        CLR     A
        MOVX    @DPTR,A
        INC     DPTR
        MOVX    @DPTR,A
//  872    Tail_Map=Head_Map;
        MOV     DPTR,#Head_Map
        LCALL   ??Subroutine16_0 & 0xFFFF
??CrossCallReturnLabel_43:
        LCALL   ?Subroutine31 & 0xFFFF
//  873    FlagMap=0x0000;
??CrossCallReturnLabel_85:
        MOV     DPTR,#FlagMap
        CLR     A
        MOVX    @DPTR,A
        INC     DPTR
        MOVX    @DPTR,A
//  874 
//  875    // NodeId = 17;
//  876    //NodeId = 32;
//  877    //NodeId = 51;
//  878    //NodeId = 68 ;
//  879    //NodeId = 85 ;
//  880    // Device hardware initialization can be added here or in main() (Zmain.c).
//  881    // If the hardware is application specific - add it here.
//  882    // If the hardware is other parts of the device add it in main().
//  883 
//  884   p2p_test_DstAddr.addrMode = (afAddrMode_t)Addr16Bit;//must't be modify in other
        MOV     A,#0x2
        MOV     DPTR,#(p2p_test_DstAddr + 2)
        MOVX    @DPTR,A
//  885   p2p_test_DstAddr.endPoint = p2p_test_ENDPOINT;
        MOV     A,#0xa
        MOV     DPTR,#(p2p_test_DstAddr + 3)
        MOVX    @DPTR,A
//  886   p2p_test_DstAddr.addr.shortAddr = 0x0000;
        MOV     DPTR,#p2p_test_DstAddr
        CLR     A
        MOVX    @DPTR,A
        INC     DPTR
        MOVX    @DPTR,A
//  887   
//  888   p2p_test_EnddeviceAddr.addrMode = (afAddrMode_t)Addr16Bit;//must't be modify in other
        MOV     A,#0x2
        MOV     DPTR,#(p2p_test_EnddeviceAddr + 2)
        MOVX    @DPTR,A
//  889   p2p_test_EnddeviceAddr.endPoint = p2p_test_ENDPOINT;
        MOV     A,#0xa
        MOV     DPTR,#(p2p_test_EnddeviceAddr + 3)
        MOVX    @DPTR,A
//  890   p2p_test_EnddeviceAddr.addr.shortAddr = 0xFFFF;
        MOV     DPTR,#p2p_test_EnddeviceAddr
        MOV     A,#-0x1
        MOVX    @DPTR,A
        INC     DPTR
        MOVX    @DPTR,A
//  891 
//  892   // Fill out the endpoint description.
//  893   p2p_test_epDesc.endPoint = p2p_test_ENDPOINT;
        MOV     A,#0xa
        MOV     DPTR,#p2p_test_epDesc
        MOVX    @DPTR,A
//  894   p2p_test_epDesc.task_id = &p2p_test_TaskID;
        MOV     DPTR,#(p2p_test_epDesc + 1)
        MOV     A,#(p2p_test_TaskID & 0xff)
        MOVX    @DPTR,A
        INC     DPTR
        MOV     A,#((p2p_test_TaskID >> 8) & 0xff)
        MOVX    @DPTR,A
//  895   p2p_test_epDesc.simpleDesc
//  896             = (SimpleDescriptionFormat_t *)&p2p_test_SimpleDesc;
        MOV     DPTR,#(p2p_test_epDesc + 3)
        MOV     A,#(p2p_test_SimpleDesc & 0xff)
        MOVX    @DPTR,A
        INC     DPTR
        MOV     A,#((p2p_test_SimpleDesc >> 8) & 0xff)
        MOVX    @DPTR,A
//  897   p2p_test_epDesc.latencyReq = noLatencyReqs;
        CLR     A
        MOV     DPTR,#(p2p_test_epDesc + 5)
        MOVX    @DPTR,A
//  898 
//  899   // Register the endpoint description with the AF
//  900   afRegister( &p2p_test_epDesc );
        ; Setup parameters for call to function afRegister
        MOV     R2,#(p2p_test_epDesc & 0xff)
        MOV     R3,#((p2p_test_epDesc >> 8) & 0xff)
        LCALL   ??afRegister?relay
//  901   
//  902   //P1_0 is the driver of uart1 
//  903   P1SEL&=~(0x01);  //uart1 enable drive P1_0
        ANL     0xf4,#0xfe
//  904   P1DIR |=(0x01);   //P1_0 output
        ORL     0xfe,#0x1
//  905   
//  906   P2SEL&=~(0x01);  //uart1 enable drive P2_0
        ANL     0xf5,#0xfe
//  907   P2DIR |=(0x01);   //P2_0 output
        ORL     0xff,#0x1
//  908   P2_0=0;
        CLR     0xa0.0
//  909  
//  910   P1SEL&=~(0x02);  // P1_1
        ANL     0xf4,#0xfd
//  911   P1DIR |=(0x02);   //P1_1 output
        ORL     0xfe,#0x2
//  912   P1_1=0;
        CLR     0x90.1
//  913   //P0SEL &=~ (0x30);
//  914   //P0DIR &=~ (0x30);
//  915   // Register for all key events - This app will handle all key events
//  916   //RegisterForKeys( p2p_test_TaskID );
//  917   /* 
//  918   P2SEL &= ~(0x01);  //LED general-- test purpose
//  919   P2DIR |= (0x01);   //LED output-- test purpose
//  920   P2_0=1;            //LED brig.hten-- test purpose
//  921   */ 
//  922   
//  923   //p1.3 -- general -- input -- pullup -- FallEdge
//  924   OpenP1Interrupt(PIN_3, FUN_SELECT_GENERAL, DIRECTION_INPUT, INPUT_MODE_PULLUP, FALL_EDGE); 
        ; Setup parameters for call to function OpenP1Interrupt
        MOV     R5,#0x1
        MOV     R4,#0x0
        MOV     R3,#0x0
        MOV     R2,#0x0
        MOV     R1,#0x3
        LCALL   ??OpenP1Interrupt?relay
//  925   RegisterP1Interrupt(PIN_3, p2p_test_TaskID);
        ; Setup parameters for call to function RegisterP1Interrupt
        MOV     DPTR,#p2p_test_TaskID
        MOVX    A,@DPTR
        MOV     R2,A
        MOV     R1,#0x3
        LCALL   ??RegisterP1Interrupt?relay
//  926   StartP1Interrupt(PIN_3);   
        ; Setup parameters for call to function StartP1Interrupt
        MOV     R1,#0x3
        LCALL   ??StartP1Interrupt?relay
//  927   SPIMgr_RegisterTaskID(p2p_test_TaskID);//for uart recv
        ; Setup parameters for call to function SPIMgr_RegisterTaskID
        MOV     DPTR,#p2p_test_TaskID
        MOVX    A,@DPTR
        MOV     R1,A
        LCALL   ??SPIMgr_RegisterTaskID?relay
//  928 
//  929 
//  930   // Update the display
//  931   //#if defined ( LCD_SUPPORTED )
//  932   //    HalLcdWriteString( "p2p_test", HAL_LCD_LINE_1 );
//  933   //#endif
//  934 
//  935   ZDO_RegisterForZDOMsg( p2p_test_TaskID, End_Device_Bind_rsp );
        ; Setup parameters for call to function ZDO_RegisterForZDOMsg
        MOV     R2,#0x20
        MOV     R3,#-0x80
        MOV     DPTR,#p2p_test_TaskID
        MOVX    A,@DPTR
        MOV     R1,A
        LCALL   ??ZDO_RegisterForZDOMsg?relay
//  936   ZDO_RegisterForZDOMsg( p2p_test_TaskID, Match_Desc_rsp );
        ; Setup parameters for call to function ZDO_RegisterForZDOMsg
        MOV     R2,#0x6
        MOV     R3,#-0x80
        MOV     DPTR,#p2p_test_TaskID
        MOVX    A,@DPTR
        MOV     R1,A
        LCALL   ??ZDO_RegisterForZDOMsg?relay
//  937 }
        SJMP    ??Subroutine52_0
        CFI EndBlock cfiBlock14
        REQUIRE _A_P1
        REQUIRE _A_P2
        REQUIRE P1SEL
        REQUIRE P2SEL
        REQUIRE P1DIR
        REQUIRE P2DIR

        RSEG BANKED_CODE:CODE:NOROOT(0)
?Subroutine52:
        CFI Block cfiBlock15 Using cfiCommon0
        CFI NoFunction
        CFI CFA_SP SP+-5
        CFI CFA_XSP16 add(XSP16, 1)
        CFI DPL0 Frame(CFA_SP, 4)
        CFI DPH0 Frame(CFA_SP, 5)
        CFI Invalid
        LCALL   ?DEALLOC_XSTACK8
        CFI CFA_XSP16 XSP16+0
        CFI Valid
??Subroutine52_0:
        POP     DPH
        CFI CFA_SP SP+-4
        CFI DPH0 SameValue
        POP     DPL
        CFI CFA_SP SP+-3
        CFI DPL0 SameValue
        LJMP    ?BRET
        CFI EndBlock cfiBlock15
//  938 
//  939 /*********************************************************************
//  940  * @fn      p2p_test_ProcessEvent
//  941  *
//  942  * @brief   Generic Application Task event processor.  This function
//  943  *          is called to process all events for the task.  Events
//  944  *          include timers, messages and any other user defined events.
//  945  *
//  946  * @param   task_id  - The OSAL assigned task ID.
//  947  * @param   events - events to process.  This is a bit map and can
//  948  *                   contain more than one event.
//  949  *
//  950  * @return  none
//  951  */

        RSEG BANKED_CODE:CODE:NOROOT(0)
//  952 UINT16 p2p_test_ProcessEvent( byte task_id, UINT16 events )
p2p_test_ProcessEvent:
        CFI Block cfiBlock16 Using cfiCommon0
        CFI Function p2p_test_ProcessEvent
//  953 {
        FUNCALL p2p_test_ProcessEvent, osal_msg_receive
        LOCFRAME ISTACK, 0, STACK
        LOCFRAME PSTACK, 0, STACK
        LOCFRAME XSTACK, 23, STACK
        LOCFRAME IOVERLAY, 0, STATIC
        LOCFRAME DOVERLAY, 0, STATIC
        ARGFRAME ISTACK, 0, STACK
        ARGFRAME PSTACK, 0, STACK
        ARGFRAME XSTACK, 23, STACK
        ARGFRAME IOVERLAY, 0, STATIC
        ARGFRAME DOVERLAY, 0, STATIC
        FUNCALL p2p_test_ProcessEvent, HalUARTWrite
        LOCFRAME ISTACK, 0, STACK
        LOCFRAME PSTACK, 0, STACK
        LOCFRAME XSTACK, 23, STACK
        LOCFRAME IOVERLAY, 0, STATIC
        LOCFRAME DOVERLAY, 0, STATIC
        ARGFRAME ISTACK, 0, STACK
        ARGFRAME PSTACK, 0, STACK
        ARGFRAME XSTACK, 23, STACK
        ARGFRAME IOVERLAY, 0, STATIC
        ARGFRAME DOVERLAY, 0, STATIC
        FUNCALL p2p_test_ProcessEvent, osal_msg_deallocate
        LOCFRAME ISTACK, 0, STACK
        LOCFRAME PSTACK, 0, STACK
        LOCFRAME XSTACK, 23, STACK
        LOCFRAME IOVERLAY, 0, STATIC
        LOCFRAME DOVERLAY, 0, STATIC
        ARGFRAME ISTACK, 0, STACK
        ARGFRAME PSTACK, 0, STACK
        ARGFRAME XSTACK, 23, STACK
        ARGFRAME IOVERLAY, 0, STATIC
        ARGFRAME DOVERLAY, 0, STATIC
        FUNCALL p2p_test_ProcessEvent, osal_msg_receive
        LOCFRAME ISTACK, 0, STACK
        LOCFRAME PSTACK, 0, STACK
        LOCFRAME XSTACK, 23, STACK
        LOCFRAME IOVERLAY, 0, STATIC
        LOCFRAME DOVERLAY, 0, STATIC
        ARGFRAME ISTACK, 0, STACK
        ARGFRAME PSTACK, 0, STACK
        ARGFRAME XSTACK, 23, STACK
        ARGFRAME IOVERLAY, 0, STATIC
        ARGFRAME DOVERLAY, 0, STATIC
        FUNCALL p2p_test_ProcessEvent, p2p_test_ProcessZDOMsgs
        LOCFRAME ISTACK, 0, STACK
        LOCFRAME PSTACK, 0, STACK
        LOCFRAME XSTACK, 23, STACK
        LOCFRAME IOVERLAY, 0, STATIC
        LOCFRAME DOVERLAY, 0, STATIC
        ARGFRAME ISTACK, 0, STACK
        ARGFRAME PSTACK, 0, STACK
        ARGFRAME XSTACK, 23, STACK
        ARGFRAME IOVERLAY, 0, STATIC
        ARGFRAME DOVERLAY, 0, STATIC
        FUNCALL p2p_test_ProcessEvent, HalUARTWrite
        LOCFRAME ISTACK, 0, STACK
        LOCFRAME PSTACK, 0, STACK
        LOCFRAME XSTACK, 23, STACK
        LOCFRAME IOVERLAY, 0, STATIC
        LOCFRAME DOVERLAY, 0, STATIC
        ARGFRAME ISTACK, 0, STACK
        ARGFRAME PSTACK, 0, STACK
        ARGFRAME XSTACK, 23, STACK
        ARGFRAME IOVERLAY, 0, STATIC
        ARGFRAME DOVERLAY, 0, STATIC
        FUNCALL p2p_test_ProcessEvent, p2p_test_RecvFromUart
        LOCFRAME ISTACK, 0, STACK
        LOCFRAME PSTACK, 0, STACK
        LOCFRAME XSTACK, 23, STACK
        LOCFRAME IOVERLAY, 0, STATIC
        LOCFRAME DOVERLAY, 0, STATIC
        ARGFRAME ISTACK, 0, STACK
        ARGFRAME PSTACK, 0, STACK
        ARGFRAME XSTACK, 23, STACK
        ARGFRAME IOVERLAY, 0, STATIC
        ARGFRAME DOVERLAY, 0, STATIC
        FUNCALL p2p_test_ProcessEvent, p2p_test_MessageMSGCB
        LOCFRAME ISTACK, 0, STACK
        LOCFRAME PSTACK, 0, STACK
        LOCFRAME XSTACK, 23, STACK
        LOCFRAME IOVERLAY, 0, STATIC
        LOCFRAME DOVERLAY, 0, STATIC
        ARGFRAME ISTACK, 0, STACK
        ARGFRAME PSTACK, 0, STACK
        ARGFRAME XSTACK, 23, STACK
        ARGFRAME IOVERLAY, 0, STATIC
        ARGFRAME DOVERLAY, 0, STATIC
        FUNCALL p2p_test_ProcessEvent, osal_start_timerEx
        LOCFRAME ISTACK, 0, STACK
        LOCFRAME PSTACK, 0, STACK
        LOCFRAME XSTACK, 23, STACK
        LOCFRAME IOVERLAY, 0, STATIC
        LOCFRAME DOVERLAY, 0, STATIC
        ARGFRAME ISTACK, 0, STACK
        ARGFRAME PSTACK, 0, STACK
        ARGFRAME XSTACK, 23, STACK
        ARGFRAME IOVERLAY, 0, STATIC
        ARGFRAME DOVERLAY, 0, STATIC
        FUNCALL p2p_test_ProcessEvent, HalUARTWrite
        LOCFRAME ISTACK, 0, STACK
        LOCFRAME PSTACK, 0, STACK
        LOCFRAME XSTACK, 23, STACK
        LOCFRAME IOVERLAY, 0, STATIC
        LOCFRAME DOVERLAY, 0, STATIC
        ARGFRAME ISTACK, 0, STACK
        ARGFRAME PSTACK, 0, STACK
        ARGFRAME XSTACK, 23, STACK
        ARGFRAME IOVERLAY, 0, STATIC
        ARGFRAME DOVERLAY, 0, STATIC
        FUNCALL p2p_test_ProcessEvent, osal_stop_timerEx
        LOCFRAME ISTACK, 0, STACK
        LOCFRAME PSTACK, 0, STACK
        LOCFRAME XSTACK, 23, STACK
        LOCFRAME IOVERLAY, 0, STATIC
        LOCFRAME DOVERLAY, 0, STATIC
        ARGFRAME ISTACK, 0, STACK
        ARGFRAME PSTACK, 0, STACK
        ARGFRAME XSTACK, 23, STACK
        ARGFRAME IOVERLAY, 0, STATIC
        ARGFRAME DOVERLAY, 0, STATIC
        FUNCALL p2p_test_ProcessEvent, osal_stop_timerEx
        LOCFRAME ISTACK, 0, STACK
        LOCFRAME PSTACK, 0, STACK
        LOCFRAME XSTACK, 23, STACK
        LOCFRAME IOVERLAY, 0, STATIC
        LOCFRAME DOVERLAY, 0, STATIC
        ARGFRAME ISTACK, 0, STACK
        ARGFRAME PSTACK, 0, STACK
        ARGFRAME XSTACK, 23, STACK
        ARGFRAME IOVERLAY, 0, STATIC
        ARGFRAME DOVERLAY, 0, STATIC
        FUNCALL p2p_test_ProcessEvent, HalUARTWrite
        LOCFRAME ISTACK, 0, STACK
        LOCFRAME PSTACK, 0, STACK
        LOCFRAME XSTACK, 23, STACK
        LOCFRAME IOVERLAY, 0, STATIC
        LOCFRAME DOVERLAY, 0, STATIC
        ARGFRAME ISTACK, 0, STACK
        ARGFRAME PSTACK, 0, STACK
        ARGFRAME XSTACK, 23, STACK
        ARGFRAME IOVERLAY, 0, STATIC
        ARGFRAME DOVERLAY, 0, STATIC
        FUNCALL p2p_test_ProcessEvent, osal_start_timerEx
        LOCFRAME ISTACK, 0, STACK
        LOCFRAME PSTACK, 0, STACK
        LOCFRAME XSTACK, 23, STACK
        LOCFRAME IOVERLAY, 0, STATIC
        LOCFRAME DOVERLAY, 0, STATIC
        ARGFRAME ISTACK, 0, STACK
        ARGFRAME PSTACK, 0, STACK
        ARGFRAME XSTACK, 23, STACK
        ARGFRAME IOVERLAY, 0, STATIC
        ARGFRAME DOVERLAY, 0, STATIC
        FUNCALL p2p_test_ProcessEvent, HalUARTWrite
        LOCFRAME ISTACK, 0, STACK
        LOCFRAME PSTACK, 0, STACK
        LOCFRAME XSTACK, 23, STACK
        LOCFRAME IOVERLAY, 0, STATIC
        LOCFRAME DOVERLAY, 0, STATIC
        ARGFRAME ISTACK, 0, STACK
        ARGFRAME PSTACK, 0, STACK
        ARGFRAME XSTACK, 23, STACK
        ARGFRAME IOVERLAY, 0, STATIC
        ARGFRAME DOVERLAY, 0, STATIC
        FUNCALL p2p_test_ProcessEvent, HalUARTWrite
        LOCFRAME ISTACK, 0, STACK
        LOCFRAME PSTACK, 0, STACK
        LOCFRAME XSTACK, 23, STACK
        LOCFRAME IOVERLAY, 0, STATIC
        LOCFRAME DOVERLAY, 0, STATIC
        ARGFRAME ISTACK, 0, STACK
        ARGFRAME PSTACK, 0, STACK
        ARGFRAME XSTACK, 23, STACK
        ARGFRAME IOVERLAY, 0, STATIC
        ARGFRAME DOVERLAY, 0, STATIC
        FUNCALL p2p_test_ProcessEvent, HalUARTWrite
        LOCFRAME ISTACK, 0, STACK
        LOCFRAME PSTACK, 0, STACK
        LOCFRAME XSTACK, 23, STACK
        LOCFRAME IOVERLAY, 0, STATIC
        LOCFRAME DOVERLAY, 0, STATIC
        ARGFRAME ISTACK, 0, STACK
        ARGFRAME PSTACK, 0, STACK
        ARGFRAME XSTACK, 23, STACK
        ARGFRAME IOVERLAY, 0, STATIC
        ARGFRAME DOVERLAY, 0, STATIC
        FUNCALL p2p_test_ProcessEvent, HalUARTWrite
        LOCFRAME ISTACK, 0, STACK
        LOCFRAME PSTACK, 0, STACK
        LOCFRAME XSTACK, 23, STACK
        LOCFRAME IOVERLAY, 0, STATIC
        LOCFRAME DOVERLAY, 0, STATIC
        ARGFRAME ISTACK, 0, STACK
        ARGFRAME PSTACK, 0, STACK
        ARGFRAME XSTACK, 23, STACK
        ARGFRAME IOVERLAY, 0, STATIC
        ARGFRAME DOVERLAY, 0, STATIC
        FUNCALL p2p_test_ProcessEvent, HalUARTWrite
        LOCFRAME ISTACK, 0, STACK
        LOCFRAME PSTACK, 0, STACK
        LOCFRAME XSTACK, 23, STACK
        LOCFRAME IOVERLAY, 0, STATIC
        LOCFRAME DOVERLAY, 0, STATIC
        ARGFRAME ISTACK, 0, STACK
        ARGFRAME PSTACK, 0, STACK
        ARGFRAME XSTACK, 23, STACK
        ARGFRAME IOVERLAY, 0, STATIC
        ARGFRAME DOVERLAY, 0, STATIC
        FUNCALL p2p_test_ProcessEvent, HalUARTWrite
        LOCFRAME ISTACK, 0, STACK
        LOCFRAME PSTACK, 0, STACK
        LOCFRAME XSTACK, 23, STACK
        LOCFRAME IOVERLAY, 0, STATIC
        LOCFRAME DOVERLAY, 0, STATIC
        ARGFRAME ISTACK, 0, STACK
        ARGFRAME PSTACK, 0, STACK
        ARGFRAME XSTACK, 23, STACK
        ARGFRAME IOVERLAY, 0, STATIC
        ARGFRAME DOVERLAY, 0, STATIC
        FUNCALL p2p_test_ProcessEvent, HalUARTWrite
        LOCFRAME ISTACK, 0, STACK
        LOCFRAME PSTACK, 0, STACK
        LOCFRAME XSTACK, 23, STACK
        LOCFRAME IOVERLAY, 0, STATIC
        LOCFRAME DOVERLAY, 0, STATIC
        ARGFRAME ISTACK, 0, STACK
        ARGFRAME PSTACK, 0, STACK
        ARGFRAME XSTACK, 23, STACK
        ARGFRAME IOVERLAY, 0, STATIC
        ARGFRAME DOVERLAY, 0, STATIC
        FUNCALL p2p_test_ProcessEvent, p2p_test_SendRelationPkt
        LOCFRAME ISTACK, 0, STACK
        LOCFRAME PSTACK, 0, STACK
        LOCFRAME XSTACK, 23, STACK
        LOCFRAME IOVERLAY, 0, STATIC
        LOCFRAME DOVERLAY, 0, STATIC
        ARGFRAME ISTACK, 0, STACK
        ARGFRAME PSTACK, 0, STACK
        ARGFRAME XSTACK, 23, STACK
        ARGFRAME IOVERLAY, 0, STATIC
        ARGFRAME DOVERLAY, 0, STATIC
        FUNCALL p2p_test_ProcessEvent, p2p_test_Send_Water_Gage
        LOCFRAME ISTACK, 0, STACK
        LOCFRAME PSTACK, 0, STACK
        LOCFRAME XSTACK, 23, STACK
        LOCFRAME IOVERLAY, 0, STATIC
        LOCFRAME DOVERLAY, 0, STATIC
        ARGFRAME ISTACK, 0, STACK
        ARGFRAME PSTACK, 0, STACK
        ARGFRAME XSTACK, 23, STACK
        ARGFRAME IOVERLAY, 0, STATIC
        ARGFRAME DOVERLAY, 0, STATIC
        FUNCALL p2p_test_ProcessEvent, start_Water_gage_timer
        LOCFRAME ISTACK, 0, STACK
        LOCFRAME PSTACK, 0, STACK
        LOCFRAME XSTACK, 23, STACK
        LOCFRAME IOVERLAY, 0, STATIC
        LOCFRAME DOVERLAY, 0, STATIC
        ARGFRAME ISTACK, 0, STACK
        ARGFRAME PSTACK, 0, STACK
        ARGFRAME XSTACK, 23, STACK
        ARGFRAME IOVERLAY, 0, STATIC
        ARGFRAME DOVERLAY, 0, STATIC
        FUNCALL p2p_test_ProcessEvent, check_water_gage_charge
        LOCFRAME ISTACK, 0, STACK
        LOCFRAME PSTACK, 0, STACK
        LOCFRAME XSTACK, 23, STACK
        LOCFRAME IOVERLAY, 0, STATIC
        LOCFRAME DOVERLAY, 0, STATIC
        ARGFRAME ISTACK, 0, STACK
        ARGFRAME PSTACK, 0, STACK
        ARGFRAME XSTACK, 23, STACK
        ARGFRAME IOVERLAY, 0, STATIC
        ARGFRAME DOVERLAY, 0, STATIC
        MOV     A,#-0xc
        LCALL   ?BANKED_ENTER_XDATA
        CFI DPH0 load(1, XDATA, add(CFA_XSP16, literal(-1)))
        CFI DPL0 load(1, XDATA, add(CFA_XSP16, literal(-2)))
        CFI ?BRET_EXT load(1, XDATA, add(CFA_XSP16, literal(-3)))
        CFI ?RET_HIGH load(1, XDATA, add(CFA_XSP16, literal(-4)))
        CFI ?RET_LOW load(1, XDATA, add(CFA_XSP16, literal(-5)))
        CFI R7 load(1, XDATA, add(CFA_XSP16, literal(-6)))
        CFI V3 load(1, XDATA, add(CFA_XSP16, literal(-7)))
        CFI V2 load(1, XDATA, add(CFA_XSP16, literal(-8)))
        CFI V1 load(1, XDATA, add(CFA_XSP16, literal(-9)))
        CFI V0 load(1, XDATA, add(CFA_XSP16, literal(-10)))
        CFI VB load(1, XDATA, add(CFA_XSP16, literal(-11)))
        CFI R6 load(1, XDATA, add(CFA_XSP16, literal(-12)))
        CFI CFA_SP SP+0
        CFI CFA_XSP16 add(XSP16, 12)
        ; Saved register size: 12
        ; Auto size: 11
        MOV     A,#-0xb
        LCALL   ?ALLOC_XSTACK8
        CFI CFA_XSP16 add(XSP16, 23)
        MOV     A,R2
        MOV     R6,A
        MOV     A,R3
        MOV     R7,A
//  954   afIncomingMSGPacket_t *MSGpkt;
//  955   afDataConfirm_t *afDataConfirm;
//  956 
//  957 #if DEBUG
//  958   uint8 x1 = 17;
        MOV     A,#0x1
        LCALL   ?XSTACK_DISP0_8
        MOV     A,#0x11
        MOVX    @DPTR,A
//  959   uint8 x2 = 34;
        MOV     A,#0x2
        LCALL   ?XSTACK_DISP0_8
        MOV     A,#0x22
        MOVX    @DPTR,A
//  960   uint8 x3 = 51;
        MOV     A,#0x3
        LCALL   ?XSTACK_DISP0_8
        MOV     A,#0x33
        MOVX    @DPTR,A
//  961   uint8 x4 = 68;
        MOV     A,#0x4
        LCALL   ?XSTACK_DISP0_8
        MOV     A,#0x44
        MOVX    @DPTR,A
//  962   uint8 x5 = 85;
        MOV     A,#0x5
        LCALL   ?XSTACK_DISP0_8
        MOV     A,#0x55
        MOVX    @DPTR,A
//  963   uint8 x6 = 102;
        MOV     A,#0x6
        LCALL   ?XSTACK_DISP0_8
        MOV     A,#0x66
        MOVX    @DPTR,A
//  964   uint8 x7 = 119;
        MOV     A,#0x7
        LCALL   ?XSTACK_DISP0_8
        MOV     A,#0x77
        MOVX    @DPTR,A
//  965   uint8 x8 = 136;
        MOV     A,#0x8
        LCALL   ?XSTACK_DISP0_8
        MOV     A,#-0x78
        MOVX    @DPTR,A
//  966   uint8 x9 = 153;
        MOV     A,#0x9
        LCALL   ?XSTACK_DISP0_8
        MOV     A,#-0x67
        MOVX    @DPTR,A
//  967   uint8 x10 = 170;
        MOV     A,#0xa
        LCALL   ?XSTACK_DISP0_8
        MOV     A,#-0x56
        MOVX    @DPTR,A
//  968   
//  969 #endif
//  970   
//  971   // Data Confirmation message fields
//  972   byte sentEP;
//  973   ZStatus_t sentStatus;
//  974   byte sentTransID;       // This should match the value sent
//  975   
//  976   if ( events & SYS_EVENT_MSG )
        MOV     A,#-0x80
        ANL     A,R7
        MOV     R1,A
        CLR     A
        JNZ     ??p2p_test_ProcessEvent_0
        MOV     A,R1
??p2p_test_ProcessEvent_0:
        JNZ     $+5
        LJMP    ??p2p_test_ProcessEvent_1 & 0xFFFF
//  977   {
//  978     MSGpkt = (afIncomingMSGPacket_t *)osal_msg_receive( p2p_test_TaskID );
        ; Setup parameters for call to function osal_msg_receive
        SJMP    ??p2p_test_ProcessEvent_2
//  979     while ( MSGpkt )
//  980     {
//  981       switch ( MSGpkt->hdr.event )
//  982       {
//  983         case ZDO_CB_MSG:
//  984           p2p_test_ProcessZDOMsgs( (zdoIncomingMsg_t *)MSGpkt );
//  985           break;
//  986 
//  987         case KEY_CHANGE:
//  988           // p2p_test_HandleKeys( ((keyChange_t *)MSGpkt)->state, ((keyChange_t *)MSGpkt)->keys );
//  989           break;
//  990         case CMD_SERIAL_MSG: 
//  991           {
//  992 #if DEBUG 
//  993           uint8 x3 = 0xEE;
//  994           HalUARTWrite(0,&x3, sizeof(x3));
//  995 #endif  
//  996           p2p_test_RecvFromUart( ((mtOSALSerialData_t *)MSGpkt)->msg ); 
//  997           }
//  998           break;
//  999         case P1_0_INTERRUPT:
// 1000           
// 1001           break;
// 1002         case P1_1_INTERRUPT:
// 1003           
// 1004           break;
// 1005         case P1_2_INTERRUPT:
// 1006 
// 1007           break;
// 1008         case P1_3_INTERRUPT:
// 1009           //HalUARTWrite(0,te,3);
// 1010          // p2p_test_interrupt_rain(  ( (rain_t *)MSGpkt )->count  );          
// 1011           break;
// 1012         case P1_4_INTERRUPT:
// 1013           
// 1014           break;
// 1015         case P1_5_INTERRUPT:
// 1016           
// 1017           break;
// 1018         case P1_6_INTERRUPT:
// 1019           
// 1020           break;
// 1021         case P1_7_INTERRUPT:
// 1022           
// 1023           break;          
// 1024         case AF_DATA_CONFIRM_CMD:
// 1025           // This message is received as a confirmation of a data packet sent.
// 1026           // The status is of ZStatus_t type [defined in ZComDef.h]
// 1027           // The message fields are defined in AF.h
// 1028           afDataConfirm = (afDataConfirm_t *)MSGpkt;
// 1029           sentEP = afDataConfirm->endpoint;
// 1030           sentStatus = afDataConfirm->hdr.status;
// 1031           sentTransID = afDataConfirm->transID;
// 1032           (void)sentEP;
// 1033           (void)sentTransID;
// 1034 
// 1035           // Action taken when confirmation is received.
// 1036           if ( sentStatus != ZSuccess )
// 1037           {
// 1038             // The data wasn't delivered -- Do something
// 1039           }
// 1040           break;
// 1041 
// 1042         case AF_INCOMING_MSG_CMD:
// 1043           p2p_test_MessageMSGCB( MSGpkt );
// 1044           //READ_TEST( MSGpkt );//DONG
// 1045             
// 1046  //         HalLedSet( HAL_LED_1, HAL_LED_MODE_ON );
// 1047   //        MicroWait( 62500 );
// 1048   //        MicroWait( 62500 );
// 1049    //       HalLedSet( HAL_LED_1, HAL_LED_MODE_OFF );
// 1050           break;
// 1051 
// 1052         case ZDO_STATE_CHANGE:
// 1053           p2p_test_NwkState = (devStates_t)(MSGpkt->hdr.status);
// 1054 
// 1055         //网络层组网成功
// 1056           if(p2p_test_NwkState ==DEV_END_DEVICE)
// 1057           {  
// 1058           osal_start_timerEx( p2p_test_TaskID,
// 1059                             p2p_test_SEND_MAINTAIN_MSG_EVT,
// 1060                             1000 );           
// 1061 #if DEBUG          
// 1062           HalUARTWrite(0,&x1, sizeof(x1));
// 1063 #endif
// 1064           }
// 1065           //网络层组网失败（如pan断电）
// 1066           else if(p2p_test_NwkState ==DEV_INIT)
// 1067           {
// 1068             osal_stop_timerEx(p2p_test_TaskID, 
// 1069                               p2p_test_SEND_WATER_GAGE_MSG_EVT);
// 1070             osal_stop_timerEx(p2p_test_TaskID, 
// 1071                               p2p_test_CHECK_WATER_GAGE_CHARGE_MSG_EVT);
// 1072             //p2p_test_Init(p2p_test_TaskID);//不加此句，之前的数据仍保存
// 1073           
// 1074 #if DEBUG          
// 1075           HalUARTWrite(0,&x2, sizeof(x2));
// 1076 #endif    
// 1077          //start watchdog mode, default time interval 1s
// 1078           SystemReset();
// 1079 
// 1080           }      
// 1081           //pan开启
// 1082           else if(p2p_test_NwkState ==DEV_ZB_COORD)
// 1083           {
// 1084                osal_start_timerEx( p2p_test_TaskID,
// 1085                             p2p_test_SEND_MAINTAIN_MSG_EVT,
// 1086                             1000 );    
// 1087 #if DEBUG          
// 1088           HalUARTWrite(0,&x3, sizeof(x3));
// 1089 #endif               
// 1090           }
// 1091 
// 1092 #if DEBUG  
// 1093           else if(p2p_test_NwkState ==DEV_HOLD)   
// 1094             HalUARTWrite(0,&x4, sizeof(x4)); 
// 1095           else if(p2p_test_NwkState ==DEV_NWK_DISC)   
// 1096             HalUARTWrite(0,&x5, sizeof(x5));   
// 1097           else if(p2p_test_NwkState ==DEV_NWK_JOINING)   
// 1098             HalUARTWrite(0,&x6, sizeof(x6));
// 1099           else if(p2p_test_NwkState ==DEV_NWK_REJOIN)   
// 1100             HalUARTWrite(0,&x7, sizeof(x7)); 
// 1101           else if(p2p_test_NwkState ==DEV_END_DEVICE_UNAUTH)   
// 1102             HalUARTWrite(0,&x8, sizeof(x8));   
// 1103           else if(p2p_test_NwkState ==DEV_COORD_STARTING)   
// 1104             HalUARTWrite(0,&x9, sizeof(x9));      
// 1105           else if(p2p_test_NwkState ==DEV_NWK_ORPHAN)   
??p2p_test_ProcessEvent_3:
        MOVX    A,@DPTR
        XRL     A,#0xa
        JNZ     ??p2p_test_ProcessEvent_4
// 1106             HalUARTWrite(0,&x10, sizeof(x10));           
        ; Setup parameters for call to function HalUARTWrite
        MOV     R4,#0x1
        MOV     R5,#0x0
        MOV     A,#0xa
??p2p_test_ProcessEvent_5:
        LCALL   ?XSTACK_DISP0_8
        MOV     R2,DPL
        MOV     R3,DPH
        MOV     R1,#0x0
        LCALL   ??HalUARTWrite?relay
// 1107 #endif 
// 1108           break;
// 1109 
// 1110         default:
// 1111           break;
// 1112       }
// 1113 
// 1114       // Release the memory
// 1115       osal_msg_deallocate( (uint8 *)MSGpkt );
??p2p_test_ProcessEvent_4:
        ; Setup parameters for call to function osal_msg_deallocate
        MOV     R2,?V0 + 0
        MOV     R3,?V0 + 1
        LCALL   ??osal_msg_deallocate?relay
// 1116 
// 1117       // Next
// 1118       MSGpkt = (afIncomingMSGPacket_t *)osal_msg_receive( p2p_test_TaskID );
        ; Setup parameters for call to function osal_msg_receive
??p2p_test_ProcessEvent_2:
        MOV     DPTR,#p2p_test_TaskID
        MOVX    A,@DPTR
        MOV     R1,A
        LCALL   ??osal_msg_receive?relay
        MOV     ?V0 + 0,R2
        MOV     ?V0 + 1,R3
        MOV     A,?V0 + 0
        JNZ     ??p2p_test_ProcessEvent_6
        MOV     A,?V0 + 1
??p2p_test_ProcessEvent_6:
        JNZ     $+5
        LJMP    ??p2p_test_ProcessEvent_7 & 0xFFFF
        MOV     DPL,?V0 + 0
        MOV     DPH,?V0 + 1
        MOVX    A,@DPTR
        LCALL   ?UC_SWITCH_SPARSE
`?<Jumptable for p2p_test_ProcessEvent>_0`:
        DATA
        DB        0
        DB        4
        DB        1
        DW        ??p2p_test_ProcessEvent_8
        DB        26
        DW        ??p2p_test_ProcessEvent_9
        DB        209
        DW        ??p2p_test_ProcessEvent_10
        DB        211
        DW        ??p2p_test_ProcessEvent_11
        DW        ??p2p_test_ProcessEvent_4
        CODE
??p2p_test_ProcessEvent_11:
        ; Setup parameters for call to function p2p_test_ProcessZDOMsgs
        MOV     R2,?V0 + 0
        MOV     R3,?V0 + 1
        LCALL   ??p2p_test_ProcessZDOMsgs?relay
        SJMP    ??p2p_test_ProcessEvent_4
??p2p_test_ProcessEvent_8:
        MOV     A,#-0x12
        LCALL   ?Subroutine27 & 0xFFFF
??CrossCallReturnLabel_75:
        ; Setup parameters for call to function p2p_test_RecvFromUart
        MOV     DPL,?V0 + 0
        MOV     DPH,?V0 + 1
        INC     DPTR
        INC     DPTR
        LCALL   ?Subroutine54 & 0xFFFF
??CrossCallReturnLabel_148:
        LCALL   ??p2p_test_RecvFromUart?relay
        SJMP    ??p2p_test_ProcessEvent_4
??p2p_test_ProcessEvent_9:
        ; Setup parameters for call to function p2p_test_MessageMSGCB
        MOV     R2,?V0 + 0
        MOV     R3,?V0 + 1
        LCALL   ??p2p_test_MessageMSGCB?relay
        SJMP    ??p2p_test_ProcessEvent_4
??p2p_test_ProcessEvent_10:
        MOV     DPL,?V0 + 0
        MOV     DPH,?V0 + 1
        INC     DPTR
        MOVX    A,@DPTR
        MOV     DPTR,#p2p_test_NwkState
        MOVX    @DPTR,A
        XRL     A,#0x6
        JNZ     ??p2p_test_ProcessEvent_12
        ; Setup parameters for call to function osal_start_timerEx
        LCALL   ?Subroutine19 & 0xFFFF
??CrossCallReturnLabel_155:
        MOV     A,R4
        LJMP    ??p2p_test_ProcessEvent_5 & 0xFFFF
??p2p_test_ProcessEvent_12:
        MOVX    A,@DPTR
        XRL     A,#0x1
        JNZ     ??p2p_test_ProcessEvent_13
        ; Setup parameters for call to function osal_stop_timerEx
        MOV     R2,#-0x80
        LCALL   ?Subroutine45 & 0xFFFF
??CrossCallReturnLabel_132:
        ; Setup parameters for call to function osal_stop_timerEx
        MOV     R2,#0x0
        MOV     R3,#0x1
        LCALL   ??Subroutine45_0 & 0xFFFF
??CrossCallReturnLabel_134:
        ; Setup parameters for call to function HalUARTWrite
        MOV     R4,#0x1
        MOV     R5,#0x0
        MOV     A,#0x2
        LCALL   ?XSTACK_DISP0_8
        MOV     R2,DPL
        MOV     R3,DPH
        MOV     R1,#0x0
        LCALL   ??HalUARTWrite?relay
        CLR     0xa8.7
        MOV     0xc9,#-0x55
        MOV     0xc9,#0x5b
??p2p_test_ProcessEvent_14:
        NOP
        SJMP    ??p2p_test_ProcessEvent_14
??p2p_test_ProcessEvent_13:
        MOVX    A,@DPTR
        XRL     A,#0x9
        JNZ     ??p2p_test_ProcessEvent_15
        ; Setup parameters for call to function osal_start_timerEx
        LCALL   ?Subroutine19 & 0xFFFF
??CrossCallReturnLabel_156:
        MOV     A,#0x3
        LJMP    ??p2p_test_ProcessEvent_5 & 0xFFFF
??p2p_test_ProcessEvent_15:
        MOVX    A,@DPTR
        JNZ     ??p2p_test_ProcessEvent_16
        ; Setup parameters for call to function HalUARTWrite
        MOV     R4,#0x1
        MOV     R5,#0x0
        MOV     A,#0x4
        LJMP    ??p2p_test_ProcessEvent_5 & 0xFFFF
??p2p_test_ProcessEvent_16:
        XRL     A,#0x2
        JNZ     ??p2p_test_ProcessEvent_17
        ; Setup parameters for call to function HalUARTWrite
        MOV     R4,#0x1
        MOV     R5,#0x0
        MOV     A,#0x5
        LJMP    ??p2p_test_ProcessEvent_5 & 0xFFFF
??p2p_test_ProcessEvent_17:
        MOVX    A,@DPTR
        XRL     A,#0x3
        JNZ     ??p2p_test_ProcessEvent_18
        ; Setup parameters for call to function HalUARTWrite
        MOV     R4,#0x1
        MOV     R5,#0x0
        MOV     A,#0x6
        LJMP    ??p2p_test_ProcessEvent_5 & 0xFFFF
??p2p_test_ProcessEvent_18:
        MOVX    A,@DPTR
        XRL     A,#0x4
        JNZ     ??p2p_test_ProcessEvent_19
        ; Setup parameters for call to function HalUARTWrite
        MOV     R4,#0x1
        MOV     R5,#0x0
        MOV     A,#0x7
        LJMP    ??p2p_test_ProcessEvent_5 & 0xFFFF
??p2p_test_ProcessEvent_19:
        MOVX    A,@DPTR
        XRL     A,#0x5
        JNZ     ??p2p_test_ProcessEvent_20
        ; Setup parameters for call to function HalUARTWrite
        MOV     R4,#0x1
        MOV     R5,#0x0
        MOV     A,#0x8
        LJMP    ??p2p_test_ProcessEvent_5 & 0xFFFF
??p2p_test_ProcessEvent_20:
        MOVX    A,@DPTR
        XRL     A,#0x8
        JZ      $+5
        LJMP    ??p2p_test_ProcessEvent_3 & 0xFFFF
        ; Setup parameters for call to function HalUARTWrite
        MOV     R4,#0x1
        MOV     R5,#0x0
        MOV     A,#0x9
        LJMP    ??p2p_test_ProcessEvent_5 & 0xFFFF
// 1119     }
// 1120 
// 1121     // return unprocessed events
// 1122     return (events ^ SYS_EVENT_MSG);
??p2p_test_ProcessEvent_7:
        MOV     A,R6
        MOV     R2,A
        MOV     A,#-0x80
??p2p_test_ProcessEvent_21:
        XRL     A,R7
??p2p_test_ProcessEvent_22:
        MOV     R3,A
        SJMP    ??p2p_test_ProcessEvent_23
// 1123   }
// 1124   
// 1125   if ( events & p2p_test_SEND_MAINTAIN_MSG_EVT)
??p2p_test_ProcessEvent_1:
        MOV     A,R6
        MOV     C,0xE0 /* A   */.0
        JNC     ??p2p_test_ProcessEvent_24
// 1126   {
// 1127     p2p_test_SendRelationPkt();
        ; Setup parameters for call to function p2p_test_SendRelationPkt
        LCALL   ??p2p_test_SendRelationPkt?relay
// 1128     //p2p_test_SendResetRelativeTime();
// 1129     // return unprocessed events
// 1130     return (events ^ p2p_test_SEND_MAINTAIN_MSG_EVT);    
        MOV     A,#0x1
??p2p_test_ProcessEvent_25:
        XRL     A,R6
        MOV     R2,A
        MOV     A,R7
        SJMP    ??p2p_test_ProcessEvent_22
// 1131   }
// 1132 
// 1133  /* if ( events & p2p_test_SEND_RAIN_FREQ_MSG_EVT)
// 1134   {
// 1135     p2p_test_SendRainTimeFreqAndRequire( FREQ );
// 1136     // return unprocessed events
// 1137     return (events ^ p2p_test_SEND_RAIN_FREQ_MSG_EVT);    
// 1138   }
// 1139   
// 1140   if ( events & p2p_test_SEND_SOIL_HUMIDITY_FREQ_MSG_EVT )
// 1141   {
// 1142     p2p_test_SendSoilHumidityTimeFreqAndRequire( FREQ );
// 1143     // return unprocessed events
// 1144     return (events ^ p2p_test_SEND_SOIL_HUMIDITY_FREQ_MSG_EVT);
// 1145   }  
// 1146   
// 1147 
// 1148   
// 1149   if ( events & p2p_test_SEND_VCC_VALUE_FREQ_MSG_EVT )
// 1150   {
// 1151     p2p_test_Send_VCC_VALUE( FREQ );
// 1152     // return unprocessed events
// 1153     return (events ^ p2p_test_SEND_VCC_VALUE_FREQ_MSG_EVT);
// 1154   }  
// 1155  */ 
// 1156   if( events & p2p_test_SEND_WATER_GAGE_MSG_EVT )
??p2p_test_ProcessEvent_24:
        ANL     A,#0x80
        JZ      ??p2p_test_ProcessEvent_26
// 1157   {
// 1158     p2p_test_Send_Water_Gage(FREQ,WaterGageUnit);
        ; Setup parameters for call to function p2p_test_Send_Water_Gage
        MOV     DPTR,#WaterGageUnit
        LCALL   ?Subroutine54 & 0xFFFF
??CrossCallReturnLabel_149:
        MOV     R1,#0x0
        LCALL   ??p2p_test_Send_Water_Gage?relay
// 1159     return (events ^ p2p_test_SEND_WATER_GAGE_MSG_EVT);
        MOV     A,#-0x80
        SJMP    ??p2p_test_ProcessEvent_25
// 1160   }
// 1161   
// 1162  /* if ( events &  p2p_test_SEND_ACCELEROMETER_FREQ_MSG_EVT )
// 1163   {
// 1164     p2p_test_SendAccelerometerTimeFreqAndRequire( FREQ );
// 1165     // return unprocessed events
// 1166     return (events ^ p2p_test_SEND_ACCELEROMETER_FREQ_MSG_EVT);
// 1167   } */
// 1168   
// 1169    //自己编写
// 1170   //适合SendWaterGageTimeFreq大于65s的情况
// 1171   if (events & p2p_test_START_WATER_GAGE_TIME_MSG_EVT)
??p2p_test_ProcessEvent_26:
        MOV     A,R6
        ANL     A,#0x10
        JZ      ??p2p_test_ProcessEvent_27
// 1172   {
// 1173     start_Water_gage_timer();
        ; Setup parameters for call to function start_Water_gage_timer
        LCALL   ??start_Water_gage_timer?relay
// 1174    return (events ^ p2p_test_START_WATER_GAGE_TIME_MSG_EVT);
        MOV     A,#0x10
        SJMP    ??p2p_test_ProcessEvent_25
// 1175   }
// 1176   
// 1177  /* if (events &  p2p_test_START_SOIL_HUMIDITY_TIME_MSG_EVT)
// 1178   {
// 1179     start_Soil_humidity_timer();
// 1180    return (events ^  p2p_test_START_SOIL_HUMIDITY_TIME_MSG_EVT);
// 1181   }
// 1182 */
// 1183   if (events &  p2p_test_CHECK_WATER_GAGE_CHARGE_MSG_EVT)
??p2p_test_ProcessEvent_27:
        MOV     A,#0x1
        ANL     A,R7
        MOV     R1,A
        CLR     A
        JNZ     ??p2p_test_ProcessEvent_28
        MOV     A,R1
??p2p_test_ProcessEvent_28:
        JZ      ??p2p_test_ProcessEvent_29
// 1184   {
// 1185     check_water_gage_charge();
        ; Setup parameters for call to function check_water_gage_charge
        LCALL   ??check_water_gage_charge?relay
// 1186    return (events ^  p2p_test_CHECK_WATER_GAGE_CHARGE_MSG_EVT);
        MOV     A,R6
        MOV     R2,A
        MOV     A,#0x1
        SJMP    ??p2p_test_ProcessEvent_21
// 1187   }  
// 1188   
// 1189  
// 1190    
// 1191   // Discard unknown events
// 1192   return 0;
??p2p_test_ProcessEvent_29:
        MOV     R2,#0x0
        MOV     R3,#0x0
??p2p_test_ProcessEvent_23:
        MOV     A,#0xb
        CFI EndBlock cfiBlock16
        REQUIRE ?Subroutine59
        REQUIRE _A_IEN0
        REQUIRE WDCTL
        ; // Fall through to label ?Subroutine59
// 1193 }

        RSEG BANKED_CODE:CODE:NOROOT(0)
?Subroutine59:
        CFI Block cfiBlock17 Using cfiCommon0
        CFI NoFunction
        CFI CFA_SP SP+0
        CFI CFA_XSP16 add(XSP16, 23)
        CFI VB load(1, XDATA, add(CFA_XSP16, literal(-11)))
        CFI DPL0 load(1, XDATA, add(CFA_XSP16, literal(-2)))
        CFI DPH0 load(1, XDATA, add(CFA_XSP16, literal(-1)))
        CFI R6 load(1, XDATA, add(CFA_XSP16, literal(-12)))
        CFI R7 load(1, XDATA, add(CFA_XSP16, literal(-6)))
        CFI V0 load(1, XDATA, add(CFA_XSP16, literal(-10)))
        CFI V1 load(1, XDATA, add(CFA_XSP16, literal(-9)))
        CFI V2 load(1, XDATA, add(CFA_XSP16, literal(-8)))
        CFI V3 load(1, XDATA, add(CFA_XSP16, literal(-7)))
        CFI ?BRET_EXT load(1, XDATA, add(CFA_XSP16, literal(-3)))
        CFI ?RET_HIGH load(1, XDATA, add(CFA_XSP16, literal(-4)))
        CFI ?RET_LOW load(1, XDATA, add(CFA_XSP16, literal(-5)))
        CFI Invalid
        LCALL   ?DEALLOC_XSTACK8
        CFI CFA_XSP16 add(XSP16, 12)
        CFI Valid
??Subroutine59_0:
        MOV     R7,#0x4
        LJMP    ?BANKED_LEAVE_XDATA
        CFI EndBlock cfiBlock17

        RSEG BANKED_CODE:CODE:NOROOT(0)
?Subroutine27:
        CFI Block cfiCond18 Using cfiCommon0
        CFI NoFunction
        CFI Conditional ??CrossCallReturnLabel_74
        CFI DPL0 Frame(CFA_SP, 4)
        CFI DPH0 Frame(CFA_SP, 5)
        CFI CFA_SP SP+-5
        CFI CFA_XSP16 add(XSP16, 1)
        CFI Block cfiCond19 Using cfiCommon0
        CFI (cfiCond19) NoFunction
        CFI (cfiCond19) Conditional ??CrossCallReturnLabel_75
        CFI (cfiCond19) R6 load(1, XDATA, add(CFA_XSP16, literal(-12)))
        CFI (cfiCond19) VB load(1, XDATA, add(CFA_XSP16, literal(-11)))
        CFI (cfiCond19) V0 load(1, XDATA, add(CFA_XSP16, literal(-10)))
        CFI (cfiCond19) V1 load(1, XDATA, add(CFA_XSP16, literal(-9)))
        CFI (cfiCond19) V2 load(1, XDATA, add(CFA_XSP16, literal(-8)))
        CFI (cfiCond19) V3 load(1, XDATA, add(CFA_XSP16, literal(-7)))
        CFI (cfiCond19) R7 load(1, XDATA, add(CFA_XSP16, literal(-6)))
        CFI (cfiCond19) ?RET_LOW load(1, XDATA, add(CFA_XSP16, literal(-5)))
        CFI (cfiCond19) ?RET_HIGH load(1, XDATA, add(CFA_XSP16, literal(-4)))
        CFI (cfiCond19) ?BRET_EXT load(1, XDATA, add(CFA_XSP16, literal(-3)))
        CFI (cfiCond19) DPL0 load(1, XDATA, add(CFA_XSP16, literal(-2)))
        CFI (cfiCond19) DPH0 load(1, XDATA, add(CFA_XSP16, literal(-1)))
        CFI (cfiCond19) CFA_SP SP+0
        CFI (cfiCond19) CFA_XSP16 add(XSP16, 23)
        CFI Block cfiCond20 Using cfiCommon0
        CFI (cfiCond20) NoFunction
        CFI (cfiCond20) Conditional ??CrossCallReturnLabel_76
        CFI (cfiCond20) R6 load(1, XDATA, add(CFA_XSP16, literal(-12)))
        CFI (cfiCond20) VB load(1, XDATA, add(CFA_XSP16, literal(-11)))
        CFI (cfiCond20) V0 load(1, XDATA, add(CFA_XSP16, literal(-10)))
        CFI (cfiCond20) V1 load(1, XDATA, add(CFA_XSP16, literal(-9)))
        CFI (cfiCond20) V2 load(1, XDATA, add(CFA_XSP16, literal(-8)))
        CFI (cfiCond20) V3 load(1, XDATA, add(CFA_XSP16, literal(-7)))
        CFI (cfiCond20) R7 load(1, XDATA, add(CFA_XSP16, literal(-6)))
        CFI (cfiCond20) ?RET_LOW load(1, XDATA, add(CFA_XSP16, literal(-5)))
        CFI (cfiCond20) ?RET_HIGH load(1, XDATA, add(CFA_XSP16, literal(-4)))
        CFI (cfiCond20) ?BRET_EXT load(1, XDATA, add(CFA_XSP16, literal(-3)))
        CFI (cfiCond20) DPL0 load(1, XDATA, add(CFA_XSP16, literal(-2)))
        CFI (cfiCond20) DPH0 load(1, XDATA, add(CFA_XSP16, literal(-1)))
        CFI (cfiCond20) CFA_SP SP+0
        CFI (cfiCond20) CFA_XSP16 add(XSP16, 13)
        CFI Block cfiPicker21 Using cfiCommon1
        CFI (cfiPicker21) NoFunction
        CFI (cfiPicker21) Picker
        MOV     DPL,?XSP + 0
        MOV     DPH,?XSP + 1
        CFI Block cfiCond22 Using cfiCommon0
        CFI (cfiCond22) NoFunction
        CFI (cfiCond22) Conditional ??CrossCallReturnLabel_77
        CFI (cfiCond22) R6 load(1, XDATA, add(CFA_XSP16, literal(-16)))
        CFI (cfiCond22) VB load(1, XDATA, add(CFA_XSP16, literal(-15)))
        CFI (cfiCond22) V0 load(1, XDATA, add(CFA_XSP16, literal(-14)))
        CFI (cfiCond22) V1 load(1, XDATA, add(CFA_XSP16, literal(-13)))
        CFI (cfiCond22) V2 load(1, XDATA, add(CFA_XSP16, literal(-12)))
        CFI (cfiCond22) V3 load(1, XDATA, add(CFA_XSP16, literal(-11)))
        CFI (cfiCond22) V4 load(1, XDATA, add(CFA_XSP16, literal(-10)))
        CFI (cfiCond22) V5 load(1, XDATA, add(CFA_XSP16, literal(-9)))
        CFI (cfiCond22) V6 load(1, XDATA, add(CFA_XSP16, literal(-8)))
        CFI (cfiCond22) V7 load(1, XDATA, add(CFA_XSP16, literal(-7)))
        CFI (cfiCond22) R7 load(1, XDATA, add(CFA_XSP16, literal(-6)))
        CFI (cfiCond22) ?RET_LOW load(1, XDATA, add(CFA_XSP16, literal(-5)))
        CFI (cfiCond22) ?RET_HIGH load(1, XDATA, add(CFA_XSP16, literal(-4)))
        CFI (cfiCond22) ?BRET_EXT load(1, XDATA, add(CFA_XSP16, literal(-3)))
        CFI (cfiCond22) DPL0 load(1, XDATA, add(CFA_XSP16, literal(-2)))
        CFI (cfiCond22) DPH0 load(1, XDATA, add(CFA_XSP16, literal(-1)))
        CFI (cfiCond22) CFA_SP SP+0
        CFI (cfiCond22) CFA_XSP16 add(XSP16, 37)
??Subroutine27_0:
        MOVX    @DPTR,A
        ; Setup parameters for call to function HalUARTWrite
        ; Setup parameters for call to function HalUARTWrite
        ; Setup parameters for call to function HalUARTWrite
        ; Setup parameters for call to function HalUARTWrite
        MOV     R4,#0x1
        MOV     R5,#0x0
        MOV     R2,DPL
        MOV     R3,DPH
        MOV     R1,#0x0
        LCALL   ??HalUARTWrite?relay
        RET
        CFI EndBlock cfiCond18
        CFI EndBlock cfiCond19
        CFI EndBlock cfiCond20
        CFI EndBlock cfiPicker21
        CFI EndBlock cfiCond22

        RSEG BANKED_CODE:CODE:NOROOT(0)
?Subroutine19:
        CFI Block cfiCond23 Using cfiCommon0
        CFI NoFunction
        CFI Conditional ??CrossCallReturnLabel_155
        CFI R6 load(1, XDATA, add(CFA_XSP16, literal(-12)))
        CFI VB load(1, XDATA, add(CFA_XSP16, literal(-11)))
        CFI V0 load(1, XDATA, add(CFA_XSP16, literal(-10)))
        CFI V1 load(1, XDATA, add(CFA_XSP16, literal(-9)))
        CFI V2 load(1, XDATA, add(CFA_XSP16, literal(-8)))
        CFI V3 load(1, XDATA, add(CFA_XSP16, literal(-7)))
        CFI R7 load(1, XDATA, add(CFA_XSP16, literal(-6)))
        CFI ?RET_LOW load(1, XDATA, add(CFA_XSP16, literal(-5)))
        CFI ?RET_HIGH load(1, XDATA, add(CFA_XSP16, literal(-4)))
        CFI ?BRET_EXT load(1, XDATA, add(CFA_XSP16, literal(-3)))
        CFI DPL0 load(1, XDATA, add(CFA_XSP16, literal(-2)))
        CFI DPH0 load(1, XDATA, add(CFA_XSP16, literal(-1)))
        CFI CFA_SP SP+0
        CFI CFA_XSP16 add(XSP16, 23)
        CFI Block cfiCond24 Using cfiCommon0
        CFI (cfiCond24) NoFunction
        CFI (cfiCond24) Conditional ??CrossCallReturnLabel_156
        CFI (cfiCond24) R6 load(1, XDATA, add(CFA_XSP16, literal(-12)))
        CFI (cfiCond24) VB load(1, XDATA, add(CFA_XSP16, literal(-11)))
        CFI (cfiCond24) V0 load(1, XDATA, add(CFA_XSP16, literal(-10)))
        CFI (cfiCond24) V1 load(1, XDATA, add(CFA_XSP16, literal(-9)))
        CFI (cfiCond24) V2 load(1, XDATA, add(CFA_XSP16, literal(-8)))
        CFI (cfiCond24) V3 load(1, XDATA, add(CFA_XSP16, literal(-7)))
        CFI (cfiCond24) R7 load(1, XDATA, add(CFA_XSP16, literal(-6)))
        CFI (cfiCond24) ?RET_LOW load(1, XDATA, add(CFA_XSP16, literal(-5)))
        CFI (cfiCond24) ?RET_HIGH load(1, XDATA, add(CFA_XSP16, literal(-4)))
        CFI (cfiCond24) ?BRET_EXT load(1, XDATA, add(CFA_XSP16, literal(-3)))
        CFI (cfiCond24) DPL0 load(1, XDATA, add(CFA_XSP16, literal(-2)))
        CFI (cfiCond24) DPH0 load(1, XDATA, add(CFA_XSP16, literal(-1)))
        CFI (cfiCond24) CFA_SP SP+0
        CFI (cfiCond24) CFA_XSP16 add(XSP16, 23)
        CFI Block cfiPicker25 Using cfiCommon1
        CFI (cfiPicker25) NoFunction
        CFI (cfiPicker25) Picker
        MOV     R4,#-0x18
        MOV     R5,#0x3
        MOV     R2,#0x1
        LCALL   ?Subroutine46 & 0xFFFF
??CrossCallReturnLabel_135:
        ; Setup parameters for call to function HalUARTWrite
        ; Setup parameters for call to function HalUARTWrite
        LJMP    ??Subroutine55_0 & 0xFFFF
        CFI EndBlock cfiCond23
        CFI EndBlock cfiCond24
        CFI EndBlock cfiPicker25
// 1194 
// 1195 /*********************************************************************
// 1196  * Event Generation Functions
// 1197  */
// 1198 /*********************************************************************
// 1199  * @fn      p2p_test_ProcessZDOMsgs()
// 1200  *
// 1201  * @brief   Process response messages
// 1202  *
// 1203  * @param   none
// 1204  *
// 1205  * @return  none
// 1206  */

        RSEG BANKED_CODE:CODE:NOROOT(0)
// 1207 void p2p_test_ProcessZDOMsgs( zdoIncomingMsg_t *inMsg )
p2p_test_ProcessZDOMsgs:
        CFI Block cfiBlock26 Using cfiCommon0
        CFI Function p2p_test_ProcessZDOMsgs
// 1208 { 
        FUNCALL p2p_test_ProcessZDOMsgs, HalLedSet
        LOCFRAME ISTACK, 0, STACK
        LOCFRAME PSTACK, 0, STACK
        LOCFRAME XSTACK, 10, STACK
        LOCFRAME IOVERLAY, 0, STATIC
        LOCFRAME DOVERLAY, 0, STATIC
        ARGFRAME ISTACK, 0, STACK
        ARGFRAME PSTACK, 0, STACK
        ARGFRAME XSTACK, 10, STACK
        ARGFRAME IOVERLAY, 0, STATIC
        ARGFRAME DOVERLAY, 0, STATIC
        FUNCALL p2p_test_ProcessZDOMsgs, HalLedSet
        LOCFRAME ISTACK, 0, STACK
        LOCFRAME PSTACK, 0, STACK
        LOCFRAME XSTACK, 10, STACK
        LOCFRAME IOVERLAY, 0, STATIC
        LOCFRAME DOVERLAY, 0, STATIC
        ARGFRAME ISTACK, 0, STACK
        ARGFRAME PSTACK, 0, STACK
        ARGFRAME XSTACK, 10, STACK
        ARGFRAME IOVERLAY, 0, STATIC
        ARGFRAME DOVERLAY, 0, STATIC
        FUNCALL p2p_test_ProcessZDOMsgs, ZDO_ParseEPListRsp
        LOCFRAME ISTACK, 0, STACK
        LOCFRAME PSTACK, 0, STACK
        LOCFRAME XSTACK, 10, STACK
        LOCFRAME IOVERLAY, 0, STATIC
        LOCFRAME DOVERLAY, 0, STATIC
        ARGFRAME ISTACK, 0, STACK
        ARGFRAME PSTACK, 0, STACK
        ARGFRAME XSTACK, 10, STACK
        ARGFRAME IOVERLAY, 0, STATIC
        ARGFRAME DOVERLAY, 0, STATIC
        FUNCALL p2p_test_ProcessZDOMsgs, HalLedSet
        LOCFRAME ISTACK, 0, STACK
        LOCFRAME PSTACK, 0, STACK
        LOCFRAME XSTACK, 10, STACK
        LOCFRAME IOVERLAY, 0, STATIC
        LOCFRAME DOVERLAY, 0, STATIC
        ARGFRAME ISTACK, 0, STACK
        ARGFRAME PSTACK, 0, STACK
        ARGFRAME XSTACK, 10, STACK
        ARGFRAME IOVERLAY, 0, STATIC
        ARGFRAME DOVERLAY, 0, STATIC
        FUNCALL p2p_test_ProcessZDOMsgs, osal_mem_free
        LOCFRAME ISTACK, 0, STACK
        LOCFRAME PSTACK, 0, STACK
        LOCFRAME XSTACK, 10, STACK
        LOCFRAME IOVERLAY, 0, STATIC
        LOCFRAME DOVERLAY, 0, STATIC
        ARGFRAME ISTACK, 0, STACK
        ARGFRAME PSTACK, 0, STACK
        ARGFRAME XSTACK, 10, STACK
        ARGFRAME IOVERLAY, 0, STATIC
        ARGFRAME DOVERLAY, 0, STATIC
        MOV     A,#-0xa
        LCALL   ?BANKED_ENTER_XDATA
        CFI DPH0 load(1, XDATA, add(CFA_XSP16, literal(-1)))
        CFI DPL0 load(1, XDATA, add(CFA_XSP16, literal(-2)))
        CFI ?BRET_EXT load(1, XDATA, add(CFA_XSP16, literal(-3)))
        CFI ?RET_HIGH load(1, XDATA, add(CFA_XSP16, literal(-4)))
        CFI ?RET_LOW load(1, XDATA, add(CFA_XSP16, literal(-5)))
        CFI R7 load(1, XDATA, add(CFA_XSP16, literal(-6)))
        CFI V1 load(1, XDATA, add(CFA_XSP16, literal(-7)))
        CFI V0 load(1, XDATA, add(CFA_XSP16, literal(-8)))
        CFI VB load(1, XDATA, add(CFA_XSP16, literal(-9)))
        CFI R6 load(1, XDATA, add(CFA_XSP16, literal(-10)))
        CFI CFA_SP SP+0
        CFI CFA_XSP16 add(XSP16, 10)
        ; Saved register size: 10
        ; Auto size: 0
// 1209   switch ( inMsg->clusterID )
        MOV     A,R2
        ADD     A,#0xc
        MOV     DPL,A
        MOV     A,R3
        ADDC    A,#0x0
        MOV     DPH,A
        LCALL   ?Subroutine14 & 0xFFFF
??CrossCallReturnLabel_39:
        MOV     R0,#?V0 + 0
        LCALL   ?US_SWITCH_SPARSE
`?<Jumptable for p2p_test_ProcessZDOMsgs>_0`:
        DATA
        DW        0
        DW        2
        DW        32774
        DW        ??p2p_test_ProcessZDOMsgs_0
        DW        32800
        DW        ??p2p_test_ProcessZDOMsgs_1
        DW        ??p2p_test_ProcessZDOMsgs_2
        CODE
// 1210   {
// 1211     case End_Device_Bind_rsp:
// 1212       if ( ZDO_ParseBindRsp( inMsg ) == ZSuccess )
??p2p_test_ProcessZDOMsgs_1:
        MOV     A,R2
        ADD     A,#0x11
        MOV     DPL,A
        MOV     A,R3
        LCALL   ??Subroutine35_0 & 0xFFFF
??CrossCallReturnLabel_98:
        MOV     R0,A
        INC     DPTR
        MOVX    A,@DPTR
        MOV     DPH,A
        MOV     DPL,R0
        MOVX    A,@DPTR
        JNZ     ??p2p_test_ProcessZDOMsgs_3
// 1213       {
// 1214         // Light LED
// 1215         HalLedSet( HAL_LED_4, HAL_LED_MODE_ON );
        ; Setup parameters for call to function HalLedSet
        MOV     R2,#0x1
??p2p_test_ProcessZDOMsgs_4:
        MOV     R1,#0x8
        LCALL   ??HalLedSet?relay
        SJMP    ??p2p_test_ProcessZDOMsgs_2
// 1216       }
// 1217 #if defined(BLINK_LEDS)
// 1218       else
// 1219       {
// 1220         // Flash LED to show failure
// 1221         HalLedSet ( HAL_LED_4, HAL_LED_MODE_FLASH );
??p2p_test_ProcessZDOMsgs_3:
        ; Setup parameters for call to function HalLedSet
        MOV     R2,#0x4
        SJMP    ??p2p_test_ProcessZDOMsgs_4
// 1222       }
// 1223 #endif
// 1224       break;
// 1225 
// 1226     case Match_Desc_rsp:
// 1227       {
// 1228         ZDO_ActiveEndpointRsp_t *pRsp = ZDO_ParseEPListRsp( inMsg );
??p2p_test_ProcessZDOMsgs_0:
        ; Setup parameters for call to function ZDO_ParseEPListRsp
        LCALL   ??ZDO_ParseEPListRsp?relay
        MOV     ?V0 + 0,R2
        MOV     ?V0 + 1,R3
        MOV     R6,?V0 + 0
        MOV     R7,?V0 + 1
// 1229         if ( pRsp )
        MOV     A,R6
        JNZ     ??p2p_test_ProcessZDOMsgs_5
        MOV     A,R7
??p2p_test_ProcessZDOMsgs_5:
        JZ      ??p2p_test_ProcessZDOMsgs_2
// 1230         {
// 1231           if ( pRsp->status == ZSuccess && pRsp->cnt )
        MOV     DPL,R6
        MOV     DPH,R7
        MOVX    A,@DPTR
        JNZ     ??p2p_test_ProcessZDOMsgs_6
        INC     DPTR
        INC     DPTR
        INC     DPTR
        MOVX    A,@DPTR
        JZ      ??p2p_test_ProcessZDOMsgs_6
// 1232           {
// 1233             p2p_test_DstAddr.addrMode = (afAddrMode_t)Addr16Bit;
        MOV     A,#0x2
        MOV     DPTR,#(p2p_test_DstAddr + 2)
        MOVX    @DPTR,A
// 1234             p2p_test_DstAddr.addr.shortAddr = pRsp->nwkAddr;
        MOV     DPL,R6
        MOV     DPH,R7
        INC     DPTR
        LCALL   ??Subroutine16_0 & 0xFFFF
??CrossCallReturnLabel_44:
        MOV     DPTR,#p2p_test_DstAddr
        LCALL   ??Subroutine31_0 & 0xFFFF
// 1235             // Take the first endpoint, Can be changed to search through endpoints
// 1236             p2p_test_DstAddr.endPoint = pRsp->epList[0];
??CrossCallReturnLabel_86:
        MOV     DPL,R6
        MOV     DPH,R7
        INC     DPTR
        INC     DPTR
        INC     DPTR
        INC     DPTR
        MOVX    A,@DPTR
        MOV     DPTR,#(p2p_test_DstAddr + 3)
        MOVX    @DPTR,A
// 1237 
// 1238             // Light LED
// 1239             HalLedSet( HAL_LED_4, HAL_LED_MODE_ON );
        ; Setup parameters for call to function HalLedSet
        MOV     R2,#0x1
        MOV     R1,#0x8
        LCALL   ??HalLedSet?relay
// 1240           }
// 1241           osal_mem_free( pRsp );
??p2p_test_ProcessZDOMsgs_6:
        ; Setup parameters for call to function osal_mem_free
        MOV     A,R6
        MOV     R2,A
        MOV     A,R7
        MOV     R3,A
        LCALL   ??osal_mem_free?relay
// 1242         }
// 1243       }
// 1244       break;
// 1245   }
// 1246 }
??p2p_test_ProcessZDOMsgs_2:
        LJMP    ?Subroutine60 & 0xFFFF
        CFI EndBlock cfiBlock26

        RSEG BANKED_CODE:CODE:NOROOT(0)
?Subroutine14:
        CFI Block cfiCond27 Using cfiCommon0
        CFI NoFunction
        CFI Conditional ??CrossCallReturnLabel_38
        CFI R6 load(1, XDATA, add(CFA_XSP16, literal(-16)))
        CFI VB load(1, XDATA, add(CFA_XSP16, literal(-15)))
        CFI V0 load(1, XDATA, add(CFA_XSP16, literal(-14)))
        CFI V1 load(1, XDATA, add(CFA_XSP16, literal(-13)))
        CFI V2 load(1, XDATA, add(CFA_XSP16, literal(-12)))
        CFI V3 load(1, XDATA, add(CFA_XSP16, literal(-11)))
        CFI V4 load(1, XDATA, add(CFA_XSP16, literal(-10)))
        CFI V5 load(1, XDATA, add(CFA_XSP16, literal(-9)))
        CFI V6 load(1, XDATA, add(CFA_XSP16, literal(-8)))
        CFI V7 load(1, XDATA, add(CFA_XSP16, literal(-7)))
        CFI R7 load(1, XDATA, add(CFA_XSP16, literal(-6)))
        CFI ?RET_LOW load(1, XDATA, add(CFA_XSP16, literal(-5)))
        CFI ?RET_HIGH load(1, XDATA, add(CFA_XSP16, literal(-4)))
        CFI ?BRET_EXT load(1, XDATA, add(CFA_XSP16, literal(-3)))
        CFI DPL0 load(1, XDATA, add(CFA_XSP16, literal(-2)))
        CFI DPH0 load(1, XDATA, add(CFA_XSP16, literal(-1)))
        CFI CFA_SP SP+-4
        CFI CFA_XSP16 add(XSP16, 52)
        CFI Block cfiCond28 Using cfiCommon0
        CFI (cfiCond28) NoFunction
        CFI (cfiCond28) Conditional ??CrossCallReturnLabel_39
        CFI (cfiCond28) R6 load(1, XDATA, add(CFA_XSP16, literal(-10)))
        CFI (cfiCond28) VB load(1, XDATA, add(CFA_XSP16, literal(-9)))
        CFI (cfiCond28) V0 load(1, XDATA, add(CFA_XSP16, literal(-8)))
        CFI (cfiCond28) V1 load(1, XDATA, add(CFA_XSP16, literal(-7)))
        CFI (cfiCond28) R7 load(1, XDATA, add(CFA_XSP16, literal(-6)))
        CFI (cfiCond28) ?RET_LOW load(1, XDATA, add(CFA_XSP16, literal(-5)))
        CFI (cfiCond28) ?RET_HIGH load(1, XDATA, add(CFA_XSP16, literal(-4)))
        CFI (cfiCond28) ?BRET_EXT load(1, XDATA, add(CFA_XSP16, literal(-3)))
        CFI (cfiCond28) DPL0 load(1, XDATA, add(CFA_XSP16, literal(-2)))
        CFI (cfiCond28) DPH0 load(1, XDATA, add(CFA_XSP16, literal(-1)))
        CFI (cfiCond28) CFA_SP SP+0
        CFI (cfiCond28) CFA_XSP16 add(XSP16, 10)
        CFI Block cfiCond29 Using cfiCommon0
        CFI (cfiCond29) NoFunction
        CFI (cfiCond29) Conditional ??CrossCallReturnLabel_40
        CFI (cfiCond29) R6 load(1, XDATA, add(CFA_XSP16, literal(-14)))
        CFI (cfiCond29) VB load(1, XDATA, add(CFA_XSP16, literal(-13)))
        CFI (cfiCond29) V0 load(1, XDATA, add(CFA_XSP16, literal(-12)))
        CFI (cfiCond29) V1 load(1, XDATA, add(CFA_XSP16, literal(-11)))
        CFI (cfiCond29) V2 load(1, XDATA, add(CFA_XSP16, literal(-10)))
        CFI (cfiCond29) V3 load(1, XDATA, add(CFA_XSP16, literal(-9)))
        CFI (cfiCond29) V4 load(1, XDATA, add(CFA_XSP16, literal(-8)))
        CFI (cfiCond29) V5 load(1, XDATA, add(CFA_XSP16, literal(-7)))
        CFI (cfiCond29) R7 load(1, XDATA, add(CFA_XSP16, literal(-6)))
        CFI (cfiCond29) ?RET_LOW load(1, XDATA, add(CFA_XSP16, literal(-5)))
        CFI (cfiCond29) ?RET_HIGH load(1, XDATA, add(CFA_XSP16, literal(-4)))
        CFI (cfiCond29) ?BRET_EXT load(1, XDATA, add(CFA_XSP16, literal(-3)))
        CFI (cfiCond29) DPL0 load(1, XDATA, add(CFA_XSP16, literal(-2)))
        CFI (cfiCond29) DPH0 load(1, XDATA, add(CFA_XSP16, literal(-1)))
        CFI (cfiCond29) CFA_SP SP+0
        CFI (cfiCond29) CFA_XSP16 add(XSP16, 14)
        CFI Block cfiPicker30 Using cfiCommon1
        CFI (cfiPicker30) NoFunction
        CFI (cfiPicker30) Picker
        LCALL   ?Subroutine43 & 0xFFFF
??CrossCallReturnLabel_127:
        RET
        CFI EndBlock cfiCond27
        CFI EndBlock cfiCond28
        CFI EndBlock cfiCond29
        CFI EndBlock cfiPicker30

        RSEG BANKED_CODE:CODE:NOROOT(0)
?Subroutine43:
        CFI Block cfiCond31 Using cfiCommon0
        CFI NoFunction
        CFI Conditional ??CrossCallReturnLabel_125, ??CrossCallReturnLabel_0
        CFI R6 load(1, XDATA, add(CFA_XSP16, literal(-16)))
        CFI VB load(1, XDATA, add(CFA_XSP16, literal(-15)))
        CFI V0 load(1, XDATA, add(CFA_XSP16, literal(-14)))
        CFI V1 load(1, XDATA, add(CFA_XSP16, literal(-13)))
        CFI V2 load(1, XDATA, add(CFA_XSP16, literal(-12)))
        CFI V3 load(1, XDATA, add(CFA_XSP16, literal(-11)))
        CFI V4 load(1, XDATA, add(CFA_XSP16, literal(-10)))
        CFI V5 load(1, XDATA, add(CFA_XSP16, literal(-9)))
        CFI V6 load(1, XDATA, add(CFA_XSP16, literal(-8)))
        CFI V7 load(1, XDATA, add(CFA_XSP16, literal(-7)))
        CFI R7 load(1, XDATA, add(CFA_XSP16, literal(-6)))
        CFI ?RET_LOW load(1, XDATA, add(CFA_XSP16, literal(-5)))
        CFI ?RET_HIGH load(1, XDATA, add(CFA_XSP16, literal(-4)))
        CFI ?BRET_EXT load(1, XDATA, add(CFA_XSP16, literal(-3)))
        CFI DPL0 load(1, XDATA, add(CFA_XSP16, literal(-2)))
        CFI DPH0 load(1, XDATA, add(CFA_XSP16, literal(-1)))
        CFI CFA_SP SP+0
        CFI CFA_XSP16 add(XSP16, 52)
        CFI Block cfiCond32 Using cfiCommon0
        CFI (cfiCond32) NoFunction
        CFI (cfiCond32) Conditional ??CrossCallReturnLabel_125, ??CrossCallReturnLabel_1
        CFI (cfiCond32) R6 load(1, XDATA, add(CFA_XSP16, literal(-16)))
        CFI (cfiCond32) VB load(1, XDATA, add(CFA_XSP16, literal(-15)))
        CFI (cfiCond32) V0 load(1, XDATA, add(CFA_XSP16, literal(-14)))
        CFI (cfiCond32) V1 load(1, XDATA, add(CFA_XSP16, literal(-13)))
        CFI (cfiCond32) V2 load(1, XDATA, add(CFA_XSP16, literal(-12)))
        CFI (cfiCond32) V3 load(1, XDATA, add(CFA_XSP16, literal(-11)))
        CFI (cfiCond32) V4 load(1, XDATA, add(CFA_XSP16, literal(-10)))
        CFI (cfiCond32) V5 load(1, XDATA, add(CFA_XSP16, literal(-9)))
        CFI (cfiCond32) V6 load(1, XDATA, add(CFA_XSP16, literal(-8)))
        CFI (cfiCond32) V7 load(1, XDATA, add(CFA_XSP16, literal(-7)))
        CFI (cfiCond32) R7 load(1, XDATA, add(CFA_XSP16, literal(-6)))
        CFI (cfiCond32) ?RET_LOW load(1, XDATA, add(CFA_XSP16, literal(-5)))
        CFI (cfiCond32) ?RET_HIGH load(1, XDATA, add(CFA_XSP16, literal(-4)))
        CFI (cfiCond32) ?BRET_EXT load(1, XDATA, add(CFA_XSP16, literal(-3)))
        CFI (cfiCond32) DPL0 load(1, XDATA, add(CFA_XSP16, literal(-2)))
        CFI (cfiCond32) DPH0 load(1, XDATA, add(CFA_XSP16, literal(-1)))
        CFI (cfiCond32) CFA_SP SP+0
        CFI (cfiCond32) CFA_XSP16 add(XSP16, 52)
        CFI Block cfiCond33 Using cfiCommon0
        CFI (cfiCond33) NoFunction
        CFI (cfiCond33) Conditional ??CrossCallReturnLabel_125, ??CrossCallReturnLabel_2
        CFI (cfiCond33) R6 load(1, XDATA, add(CFA_XSP16, literal(-16)))
        CFI (cfiCond33) VB load(1, XDATA, add(CFA_XSP16, literal(-15)))
        CFI (cfiCond33) V0 load(1, XDATA, add(CFA_XSP16, literal(-14)))
        CFI (cfiCond33) V1 load(1, XDATA, add(CFA_XSP16, literal(-13)))
        CFI (cfiCond33) V2 load(1, XDATA, add(CFA_XSP16, literal(-12)))
        CFI (cfiCond33) V3 load(1, XDATA, add(CFA_XSP16, literal(-11)))
        CFI (cfiCond33) V4 load(1, XDATA, add(CFA_XSP16, literal(-10)))
        CFI (cfiCond33) V5 load(1, XDATA, add(CFA_XSP16, literal(-9)))
        CFI (cfiCond33) V6 load(1, XDATA, add(CFA_XSP16, literal(-8)))
        CFI (cfiCond33) V7 load(1, XDATA, add(CFA_XSP16, literal(-7)))
        CFI (cfiCond33) R7 load(1, XDATA, add(CFA_XSP16, literal(-6)))
        CFI (cfiCond33) ?RET_LOW load(1, XDATA, add(CFA_XSP16, literal(-5)))
        CFI (cfiCond33) ?RET_HIGH load(1, XDATA, add(CFA_XSP16, literal(-4)))
        CFI (cfiCond33) ?BRET_EXT load(1, XDATA, add(CFA_XSP16, literal(-3)))
        CFI (cfiCond33) DPL0 load(1, XDATA, add(CFA_XSP16, literal(-2)))
        CFI (cfiCond33) DPH0 load(1, XDATA, add(CFA_XSP16, literal(-1)))
        CFI (cfiCond33) CFA_SP SP+0
        CFI (cfiCond33) CFA_XSP16 add(XSP16, 52)
        CFI Block cfiCond34 Using cfiCommon0
        CFI (cfiCond34) NoFunction
        CFI (cfiCond34) Conditional ??CrossCallReturnLabel_125, ??CrossCallReturnLabel_3
        CFI (cfiCond34) R6 load(1, XDATA, add(CFA_XSP16, literal(-16)))
        CFI (cfiCond34) VB load(1, XDATA, add(CFA_XSP16, literal(-15)))
        CFI (cfiCond34) V0 load(1, XDATA, add(CFA_XSP16, literal(-14)))
        CFI (cfiCond34) V1 load(1, XDATA, add(CFA_XSP16, literal(-13)))
        CFI (cfiCond34) V2 load(1, XDATA, add(CFA_XSP16, literal(-12)))
        CFI (cfiCond34) V3 load(1, XDATA, add(CFA_XSP16, literal(-11)))
        CFI (cfiCond34) V4 load(1, XDATA, add(CFA_XSP16, literal(-10)))
        CFI (cfiCond34) V5 load(1, XDATA, add(CFA_XSP16, literal(-9)))
        CFI (cfiCond34) V6 load(1, XDATA, add(CFA_XSP16, literal(-8)))
        CFI (cfiCond34) V7 load(1, XDATA, add(CFA_XSP16, literal(-7)))
        CFI (cfiCond34) R7 load(1, XDATA, add(CFA_XSP16, literal(-6)))
        CFI (cfiCond34) ?RET_LOW load(1, XDATA, add(CFA_XSP16, literal(-5)))
        CFI (cfiCond34) ?RET_HIGH load(1, XDATA, add(CFA_XSP16, literal(-4)))
        CFI (cfiCond34) ?BRET_EXT load(1, XDATA, add(CFA_XSP16, literal(-3)))
        CFI (cfiCond34) DPL0 load(1, XDATA, add(CFA_XSP16, literal(-2)))
        CFI (cfiCond34) DPH0 load(1, XDATA, add(CFA_XSP16, literal(-1)))
        CFI (cfiCond34) CFA_SP SP+0
        CFI (cfiCond34) CFA_XSP16 add(XSP16, 52)
        CFI Block cfiCond35 Using cfiCommon0
        CFI (cfiCond35) NoFunction
        CFI (cfiCond35) Conditional ??CrossCallReturnLabel_125, ??CrossCallReturnLabel_4
        CFI (cfiCond35) R6 load(1, XDATA, add(CFA_XSP16, literal(-16)))
        CFI (cfiCond35) VB load(1, XDATA, add(CFA_XSP16, literal(-15)))
        CFI (cfiCond35) V0 load(1, XDATA, add(CFA_XSP16, literal(-14)))
        CFI (cfiCond35) V1 load(1, XDATA, add(CFA_XSP16, literal(-13)))
        CFI (cfiCond35) V2 load(1, XDATA, add(CFA_XSP16, literal(-12)))
        CFI (cfiCond35) V3 load(1, XDATA, add(CFA_XSP16, literal(-11)))
        CFI (cfiCond35) V4 load(1, XDATA, add(CFA_XSP16, literal(-10)))
        CFI (cfiCond35) V5 load(1, XDATA, add(CFA_XSP16, literal(-9)))
        CFI (cfiCond35) V6 load(1, XDATA, add(CFA_XSP16, literal(-8)))
        CFI (cfiCond35) V7 load(1, XDATA, add(CFA_XSP16, literal(-7)))
        CFI (cfiCond35) R7 load(1, XDATA, add(CFA_XSP16, literal(-6)))
        CFI (cfiCond35) ?RET_LOW load(1, XDATA, add(CFA_XSP16, literal(-5)))
        CFI (cfiCond35) ?RET_HIGH load(1, XDATA, add(CFA_XSP16, literal(-4)))
        CFI (cfiCond35) ?BRET_EXT load(1, XDATA, add(CFA_XSP16, literal(-3)))
        CFI (cfiCond35) DPL0 load(1, XDATA, add(CFA_XSP16, literal(-2)))
        CFI (cfiCond35) DPH0 load(1, XDATA, add(CFA_XSP16, literal(-1)))
        CFI (cfiCond35) CFA_SP SP+0
        CFI (cfiCond35) CFA_XSP16 add(XSP16, 52)
        CFI Block cfiCond36 Using cfiCommon0
        CFI (cfiCond36) NoFunction
        CFI (cfiCond36) Conditional ??CrossCallReturnLabel_125, ??CrossCallReturnLabel_5
        CFI (cfiCond36) R6 load(1, XDATA, add(CFA_XSP16, literal(-16)))
        CFI (cfiCond36) VB load(1, XDATA, add(CFA_XSP16, literal(-15)))
        CFI (cfiCond36) V0 load(1, XDATA, add(CFA_XSP16, literal(-14)))
        CFI (cfiCond36) V1 load(1, XDATA, add(CFA_XSP16, literal(-13)))
        CFI (cfiCond36) V2 load(1, XDATA, add(CFA_XSP16, literal(-12)))
        CFI (cfiCond36) V3 load(1, XDATA, add(CFA_XSP16, literal(-11)))
        CFI (cfiCond36) V4 load(1, XDATA, add(CFA_XSP16, literal(-10)))
        CFI (cfiCond36) V5 load(1, XDATA, add(CFA_XSP16, literal(-9)))
        CFI (cfiCond36) V6 load(1, XDATA, add(CFA_XSP16, literal(-8)))
        CFI (cfiCond36) V7 load(1, XDATA, add(CFA_XSP16, literal(-7)))
        CFI (cfiCond36) R7 load(1, XDATA, add(CFA_XSP16, literal(-6)))
        CFI (cfiCond36) ?RET_LOW load(1, XDATA, add(CFA_XSP16, literal(-5)))
        CFI (cfiCond36) ?RET_HIGH load(1, XDATA, add(CFA_XSP16, literal(-4)))
        CFI (cfiCond36) ?BRET_EXT load(1, XDATA, add(CFA_XSP16, literal(-3)))
        CFI (cfiCond36) DPL0 load(1, XDATA, add(CFA_XSP16, literal(-2)))
        CFI (cfiCond36) DPH0 load(1, XDATA, add(CFA_XSP16, literal(-1)))
        CFI (cfiCond36) CFA_SP SP+0
        CFI (cfiCond36) CFA_XSP16 add(XSP16, 52)
        CFI Block cfiCond37 Using cfiCommon0
        CFI (cfiCond37) NoFunction
        CFI (cfiCond37) Conditional ??CrossCallReturnLabel_125, ??CrossCallReturnLabel_6
        CFI (cfiCond37) R6 load(1, XDATA, add(CFA_XSP16, literal(-16)))
        CFI (cfiCond37) VB load(1, XDATA, add(CFA_XSP16, literal(-15)))
        CFI (cfiCond37) V0 load(1, XDATA, add(CFA_XSP16, literal(-14)))
        CFI (cfiCond37) V1 load(1, XDATA, add(CFA_XSP16, literal(-13)))
        CFI (cfiCond37) V2 load(1, XDATA, add(CFA_XSP16, literal(-12)))
        CFI (cfiCond37) V3 load(1, XDATA, add(CFA_XSP16, literal(-11)))
        CFI (cfiCond37) V4 load(1, XDATA, add(CFA_XSP16, literal(-10)))
        CFI (cfiCond37) V5 load(1, XDATA, add(CFA_XSP16, literal(-9)))
        CFI (cfiCond37) V6 load(1, XDATA, add(CFA_XSP16, literal(-8)))
        CFI (cfiCond37) V7 load(1, XDATA, add(CFA_XSP16, literal(-7)))
        CFI (cfiCond37) R7 load(1, XDATA, add(CFA_XSP16, literal(-6)))
        CFI (cfiCond37) ?RET_LOW load(1, XDATA, add(CFA_XSP16, literal(-5)))
        CFI (cfiCond37) ?RET_HIGH load(1, XDATA, add(CFA_XSP16, literal(-4)))
        CFI (cfiCond37) ?BRET_EXT load(1, XDATA, add(CFA_XSP16, literal(-3)))
        CFI (cfiCond37) DPL0 load(1, XDATA, add(CFA_XSP16, literal(-2)))
        CFI (cfiCond37) DPH0 load(1, XDATA, add(CFA_XSP16, literal(-1)))
        CFI (cfiCond37) CFA_SP SP+0
        CFI (cfiCond37) CFA_XSP16 add(XSP16, 52)
        CFI Block cfiCond38 Using cfiCommon0
        CFI (cfiCond38) NoFunction
        CFI (cfiCond38) Conditional ??CrossCallReturnLabel_125, ??CrossCallReturnLabel_7
        CFI (cfiCond38) R6 load(1, XDATA, add(CFA_XSP16, literal(-16)))
        CFI (cfiCond38) VB load(1, XDATA, add(CFA_XSP16, literal(-15)))
        CFI (cfiCond38) V0 load(1, XDATA, add(CFA_XSP16, literal(-14)))
        CFI (cfiCond38) V1 load(1, XDATA, add(CFA_XSP16, literal(-13)))
        CFI (cfiCond38) V2 load(1, XDATA, add(CFA_XSP16, literal(-12)))
        CFI (cfiCond38) V3 load(1, XDATA, add(CFA_XSP16, literal(-11)))
        CFI (cfiCond38) V4 load(1, XDATA, add(CFA_XSP16, literal(-10)))
        CFI (cfiCond38) V5 load(1, XDATA, add(CFA_XSP16, literal(-9)))
        CFI (cfiCond38) V6 load(1, XDATA, add(CFA_XSP16, literal(-8)))
        CFI (cfiCond38) V7 load(1, XDATA, add(CFA_XSP16, literal(-7)))
        CFI (cfiCond38) R7 load(1, XDATA, add(CFA_XSP16, literal(-6)))
        CFI (cfiCond38) ?RET_LOW load(1, XDATA, add(CFA_XSP16, literal(-5)))
        CFI (cfiCond38) ?RET_HIGH load(1, XDATA, add(CFA_XSP16, literal(-4)))
        CFI (cfiCond38) ?BRET_EXT load(1, XDATA, add(CFA_XSP16, literal(-3)))
        CFI (cfiCond38) DPL0 load(1, XDATA, add(CFA_XSP16, literal(-2)))
        CFI (cfiCond38) DPH0 load(1, XDATA, add(CFA_XSP16, literal(-1)))
        CFI (cfiCond38) CFA_SP SP+0
        CFI (cfiCond38) CFA_XSP16 add(XSP16, 52)
        CFI Block cfiCond39 Using cfiCommon0
        CFI (cfiCond39) NoFunction
        CFI (cfiCond39) Conditional ??CrossCallReturnLabel_125, ??CrossCallReturnLabel_8
        CFI (cfiCond39) R6 load(1, XDATA, add(CFA_XSP16, literal(-16)))
        CFI (cfiCond39) VB load(1, XDATA, add(CFA_XSP16, literal(-15)))
        CFI (cfiCond39) V0 load(1, XDATA, add(CFA_XSP16, literal(-14)))
        CFI (cfiCond39) V1 load(1, XDATA, add(CFA_XSP16, literal(-13)))
        CFI (cfiCond39) V2 load(1, XDATA, add(CFA_XSP16, literal(-12)))
        CFI (cfiCond39) V3 load(1, XDATA, add(CFA_XSP16, literal(-11)))
        CFI (cfiCond39) V4 load(1, XDATA, add(CFA_XSP16, literal(-10)))
        CFI (cfiCond39) V5 load(1, XDATA, add(CFA_XSP16, literal(-9)))
        CFI (cfiCond39) V6 load(1, XDATA, add(CFA_XSP16, literal(-8)))
        CFI (cfiCond39) V7 load(1, XDATA, add(CFA_XSP16, literal(-7)))
        CFI (cfiCond39) R7 load(1, XDATA, add(CFA_XSP16, literal(-6)))
        CFI (cfiCond39) ?RET_LOW load(1, XDATA, add(CFA_XSP16, literal(-5)))
        CFI (cfiCond39) ?RET_HIGH load(1, XDATA, add(CFA_XSP16, literal(-4)))
        CFI (cfiCond39) ?BRET_EXT load(1, XDATA, add(CFA_XSP16, literal(-3)))
        CFI (cfiCond39) DPL0 load(1, XDATA, add(CFA_XSP16, literal(-2)))
        CFI (cfiCond39) DPH0 load(1, XDATA, add(CFA_XSP16, literal(-1)))
        CFI (cfiCond39) CFA_SP SP+0
        CFI (cfiCond39) CFA_XSP16 add(XSP16, 52)
        CFI Block cfiCond40 Using cfiCommon0
        CFI (cfiCond40) NoFunction
        CFI (cfiCond40) Conditional ??CrossCallReturnLabel_127, ??CrossCallReturnLabel_38
        CFI (cfiCond40) R6 load(1, XDATA, add(CFA_XSP16, literal(-16)))
        CFI (cfiCond40) VB load(1, XDATA, add(CFA_XSP16, literal(-15)))
        CFI (cfiCond40) V0 load(1, XDATA, add(CFA_XSP16, literal(-14)))
        CFI (cfiCond40) V1 load(1, XDATA, add(CFA_XSP16, literal(-13)))
        CFI (cfiCond40) V2 load(1, XDATA, add(CFA_XSP16, literal(-12)))
        CFI (cfiCond40) V3 load(1, XDATA, add(CFA_XSP16, literal(-11)))
        CFI (cfiCond40) V4 load(1, XDATA, add(CFA_XSP16, literal(-10)))
        CFI (cfiCond40) V5 load(1, XDATA, add(CFA_XSP16, literal(-9)))
        CFI (cfiCond40) V6 load(1, XDATA, add(CFA_XSP16, literal(-8)))
        CFI (cfiCond40) V7 load(1, XDATA, add(CFA_XSP16, literal(-7)))
        CFI (cfiCond40) R7 load(1, XDATA, add(CFA_XSP16, literal(-6)))
        CFI (cfiCond40) ?RET_LOW load(1, XDATA, add(CFA_XSP16, literal(-5)))
        CFI (cfiCond40) ?RET_HIGH load(1, XDATA, add(CFA_XSP16, literal(-4)))
        CFI (cfiCond40) ?BRET_EXT load(1, XDATA, add(CFA_XSP16, literal(-3)))
        CFI (cfiCond40) DPL0 load(1, XDATA, add(CFA_XSP16, literal(-2)))
        CFI (cfiCond40) DPH0 load(1, XDATA, add(CFA_XSP16, literal(-1)))
        CFI (cfiCond40) CFA_SP SP+-4
        CFI (cfiCond40) CFA_XSP16 add(XSP16, 52)
        CFI Block cfiCond41 Using cfiCommon0
        CFI (cfiCond41) NoFunction
        CFI (cfiCond41) Conditional ??CrossCallReturnLabel_127, ??CrossCallReturnLabel_39
        CFI (cfiCond41) R6 load(1, XDATA, add(CFA_XSP16, literal(-10)))
        CFI (cfiCond41) VB load(1, XDATA, add(CFA_XSP16, literal(-9)))
        CFI (cfiCond41) V0 load(1, XDATA, add(CFA_XSP16, literal(-8)))
        CFI (cfiCond41) V1 load(1, XDATA, add(CFA_XSP16, literal(-7)))
        CFI (cfiCond41) R7 load(1, XDATA, add(CFA_XSP16, literal(-6)))
        CFI (cfiCond41) ?RET_LOW load(1, XDATA, add(CFA_XSP16, literal(-5)))
        CFI (cfiCond41) ?RET_HIGH load(1, XDATA, add(CFA_XSP16, literal(-4)))
        CFI (cfiCond41) ?BRET_EXT load(1, XDATA, add(CFA_XSP16, literal(-3)))
        CFI (cfiCond41) DPL0 load(1, XDATA, add(CFA_XSP16, literal(-2)))
        CFI (cfiCond41) DPH0 load(1, XDATA, add(CFA_XSP16, literal(-1)))
        CFI (cfiCond41) CFA_SP SP+0
        CFI (cfiCond41) CFA_XSP16 add(XSP16, 10)
        CFI Block cfiCond42 Using cfiCommon0
        CFI (cfiCond42) NoFunction
        CFI (cfiCond42) Conditional ??CrossCallReturnLabel_127, ??CrossCallReturnLabel_40
        CFI (cfiCond42) R6 load(1, XDATA, add(CFA_XSP16, literal(-14)))
        CFI (cfiCond42) VB load(1, XDATA, add(CFA_XSP16, literal(-13)))
        CFI (cfiCond42) V0 load(1, XDATA, add(CFA_XSP16, literal(-12)))
        CFI (cfiCond42) V1 load(1, XDATA, add(CFA_XSP16, literal(-11)))
        CFI (cfiCond42) V2 load(1, XDATA, add(CFA_XSP16, literal(-10)))
        CFI (cfiCond42) V3 load(1, XDATA, add(CFA_XSP16, literal(-9)))
        CFI (cfiCond42) V4 load(1, XDATA, add(CFA_XSP16, literal(-8)))
        CFI (cfiCond42) V5 load(1, XDATA, add(CFA_XSP16, literal(-7)))
        CFI (cfiCond42) R7 load(1, XDATA, add(CFA_XSP16, literal(-6)))
        CFI (cfiCond42) ?RET_LOW load(1, XDATA, add(CFA_XSP16, literal(-5)))
        CFI (cfiCond42) ?RET_HIGH load(1, XDATA, add(CFA_XSP16, literal(-4)))
        CFI (cfiCond42) ?BRET_EXT load(1, XDATA, add(CFA_XSP16, literal(-3)))
        CFI (cfiCond42) DPL0 load(1, XDATA, add(CFA_XSP16, literal(-2)))
        CFI (cfiCond42) DPH0 load(1, XDATA, add(CFA_XSP16, literal(-1)))
        CFI (cfiCond42) CFA_SP SP+0
        CFI (cfiCond42) CFA_XSP16 add(XSP16, 14)
        CFI Block cfiCond43 Using cfiCommon0
        CFI (cfiCond43) NoFunction
        CFI (cfiCond43) Conditional ??CrossCallReturnLabel_126, ??CrossCallReturnLabel_36
        CFI (cfiCond43) R6 load(1, XDATA, add(CFA_XSP16, literal(-16)))
        CFI (cfiCond43) VB load(1, XDATA, add(CFA_XSP16, literal(-15)))
        CFI (cfiCond43) V0 load(1, XDATA, add(CFA_XSP16, literal(-14)))
        CFI (cfiCond43) V1 load(1, XDATA, add(CFA_XSP16, literal(-13)))
        CFI (cfiCond43) V2 load(1, XDATA, add(CFA_XSP16, literal(-12)))
        CFI (cfiCond43) V3 load(1, XDATA, add(CFA_XSP16, literal(-11)))
        CFI (cfiCond43) V4 load(1, XDATA, add(CFA_XSP16, literal(-10)))
        CFI (cfiCond43) V5 load(1, XDATA, add(CFA_XSP16, literal(-9)))
        CFI (cfiCond43) V6 load(1, XDATA, add(CFA_XSP16, literal(-8)))
        CFI (cfiCond43) V7 load(1, XDATA, add(CFA_XSP16, literal(-7)))
        CFI (cfiCond43) R7 load(1, XDATA, add(CFA_XSP16, literal(-6)))
        CFI (cfiCond43) ?RET_LOW load(1, XDATA, add(CFA_XSP16, literal(-5)))
        CFI (cfiCond43) ?RET_HIGH load(1, XDATA, add(CFA_XSP16, literal(-4)))
        CFI (cfiCond43) ?BRET_EXT load(1, XDATA, add(CFA_XSP16, literal(-3)))
        CFI (cfiCond43) DPL0 load(1, XDATA, add(CFA_XSP16, literal(-2)))
        CFI (cfiCond43) DPH0 load(1, XDATA, add(CFA_XSP16, literal(-1)))
        CFI (cfiCond43) CFA_SP SP+0
        CFI (cfiCond43) CFA_XSP16 add(XSP16, 37)
        CFI Block cfiCond44 Using cfiCommon0
        CFI (cfiCond44) NoFunction
        CFI (cfiCond44) Conditional ??CrossCallReturnLabel_126, ??CrossCallReturnLabel_37
        CFI (cfiCond44) R6 load(1, XDATA, add(CFA_XSP16, literal(-16)))
        CFI (cfiCond44) VB load(1, XDATA, add(CFA_XSP16, literal(-15)))
        CFI (cfiCond44) V0 load(1, XDATA, add(CFA_XSP16, literal(-14)))
        CFI (cfiCond44) V1 load(1, XDATA, add(CFA_XSP16, literal(-13)))
        CFI (cfiCond44) V2 load(1, XDATA, add(CFA_XSP16, literal(-12)))
        CFI (cfiCond44) V3 load(1, XDATA, add(CFA_XSP16, literal(-11)))
        CFI (cfiCond44) V4 load(1, XDATA, add(CFA_XSP16, literal(-10)))
        CFI (cfiCond44) V5 load(1, XDATA, add(CFA_XSP16, literal(-9)))
        CFI (cfiCond44) V6 load(1, XDATA, add(CFA_XSP16, literal(-8)))
        CFI (cfiCond44) V7 load(1, XDATA, add(CFA_XSP16, literal(-7)))
        CFI (cfiCond44) R7 load(1, XDATA, add(CFA_XSP16, literal(-6)))
        CFI (cfiCond44) ?RET_LOW load(1, XDATA, add(CFA_XSP16, literal(-5)))
        CFI (cfiCond44) ?RET_HIGH load(1, XDATA, add(CFA_XSP16, literal(-4)))
        CFI (cfiCond44) ?BRET_EXT load(1, XDATA, add(CFA_XSP16, literal(-3)))
        CFI (cfiCond44) DPL0 load(1, XDATA, add(CFA_XSP16, literal(-2)))
        CFI (cfiCond44) DPH0 load(1, XDATA, add(CFA_XSP16, literal(-1)))
        CFI (cfiCond44) CFA_SP SP+0
        CFI (cfiCond44) CFA_XSP16 add(XSP16, 37)
        CFI Block cfiPicker45 Using cfiCommon1
        CFI (cfiPicker45) NoFunction
        CFI (cfiPicker45) Picker
        MOVX    A,@DPTR
        MOV     ?V0 + 0,A
        INC     DPTR
        MOVX    A,@DPTR
        MOV     ?V0 + 1,A
        RET
        CFI EndBlock cfiCond31
        CFI EndBlock cfiCond32
        CFI EndBlock cfiCond33
        CFI EndBlock cfiCond34
        CFI EndBlock cfiCond35
        CFI EndBlock cfiCond36
        CFI EndBlock cfiCond37
        CFI EndBlock cfiCond38
        CFI EndBlock cfiCond39
        CFI EndBlock cfiCond40
        CFI EndBlock cfiCond41
        CFI EndBlock cfiCond42
        CFI EndBlock cfiCond43
        CFI EndBlock cfiCond44
        CFI EndBlock cfiPicker45
// 1247 
// 1248 
// 1249 
// 1250 /*********************************************************************
// 1251  * LOCAL FUNCTIONS
// 1252  */
// 1253 
// 1254 /*********************************************************************
// 1255  * @fn      p2p_test_MessageMSGCB
// 1256  *
// 1257  * @brief   Data message processor callback.  This function processes
// 1258  *          any incoming data - probably from other devices.  So, based
// 1259  *          on cluster ID, perform the intended action.
// 1260  *
// 1261  * @param   none
// 1262  *
// 1263  * @return  none
// 1264  */

        RSEG BANKED_CODE:CODE:NOROOT(0)
// 1265 void p2p_test_MessageMSGCB( afIncomingMSGPacket_t *pkt )
p2p_test_MessageMSGCB:
        CFI Block cfiBlock46 Using cfiCommon0
        CFI Function p2p_test_MessageMSGCB
// 1266 {
        FUNCALL p2p_test_MessageMSGCB, p2p_test_recv_108clusterId
        LOCFRAME ISTACK, 0, STACK
        LOCFRAME PSTACK, 0, STACK
        LOCFRAME XSTACK, 10, STACK
        LOCFRAME IOVERLAY, 0, STATIC
        LOCFRAME DOVERLAY, 0, STATIC
        ARGFRAME ISTACK, 0, STACK
        ARGFRAME PSTACK, 0, STACK
        ARGFRAME XSTACK, 10, STACK
        ARGFRAME IOVERLAY, 0, STATIC
        ARGFRAME DOVERLAY, 0, STATIC
        FUNCALL p2p_test_MessageMSGCB, p2p_test_recv_RelationMsgclusterId
        LOCFRAME ISTACK, 0, STACK
        LOCFRAME PSTACK, 0, STACK
        LOCFRAME XSTACK, 10, STACK
        LOCFRAME IOVERLAY, 0, STATIC
        LOCFRAME DOVERLAY, 0, STATIC
        ARGFRAME ISTACK, 0, STACK
        ARGFRAME PSTACK, 0, STACK
        ARGFRAME XSTACK, 10, STACK
        ARGFRAME IOVERLAY, 0, STATIC
        ARGFRAME DOVERLAY, 0, STATIC
        MOV     A,#-0xa
        LCALL   ?BANKED_ENTER_XDATA
        CFI DPH0 load(1, XDATA, add(CFA_XSP16, literal(-1)))
        CFI DPL0 load(1, XDATA, add(CFA_XSP16, literal(-2)))
        CFI ?BRET_EXT load(1, XDATA, add(CFA_XSP16, literal(-3)))
        CFI ?RET_HIGH load(1, XDATA, add(CFA_XSP16, literal(-4)))
        CFI ?RET_LOW load(1, XDATA, add(CFA_XSP16, literal(-5)))
        CFI R7 load(1, XDATA, add(CFA_XSP16, literal(-6)))
        CFI V1 load(1, XDATA, add(CFA_XSP16, literal(-7)))
        CFI V0 load(1, XDATA, add(CFA_XSP16, literal(-8)))
        CFI VB load(1, XDATA, add(CFA_XSP16, literal(-9)))
        CFI R6 load(1, XDATA, add(CFA_XSP16, literal(-10)))
        CFI CFA_SP SP+0
        CFI CFA_XSP16 add(XSP16, 10)
        ; Saved register size: 10
        ; Auto size: 0
// 1267   uint16 temp_shortaddr;
// 1268   switch ( pkt->clusterId )
        MOV     DPL,R2
        MOV     DPH,R3
        INC     DPTR
        INC     DPTR
        INC     DPTR
        INC     DPTR
        MOVX    A,@DPTR
        MOV     ?V0 + 0,A
        INC     DPTR
        MOVX    A,@DPTR
        JNZ     ??p2p_test_MessageMSGCB_0
        MOV     A,?V0 + 0
        LCALL   ?UC_SWITCH_SPARSE
`?<Jumptable for p2p_test_MessageMSGCB>_0`:
        DATA
        DB        0
        DB        2
        DB        2
        DW        ??p2p_test_MessageMSGCB_1
        DB        4
        DW        ??p2p_test_MessageMSGCB_2
        DW        ??p2p_test_MessageMSGCB_0
        CODE
// 1269   {
// 1270     case p2p_test_CLUSTERID:
// 1271       // "the" message
// 1272       //p2p_test_SendToUart((uint8*)pkt->cmd.Data, pkt->cmd.DataLength);
// 1273       //HalUARTWrite( 0, (uint8*)pkt->cmd.Data, pkt->cmd.DataLength );
// 1274       break;
// 1275     case p2p_test_108ID:
// 1276       p2p_test_recv_108clusterId(pkt->cmd.Data, pkt->cmd.DataLength);
??p2p_test_MessageMSGCB_1:
        ; Setup parameters for call to function p2p_test_recv_108clusterId
        LCALL   ?Subroutine6 & 0xFFFF
??CrossCallReturnLabel_153:
        LCALL   ??p2p_test_recv_108clusterId?relay
        SJMP    ??p2p_test_MessageMSGCB_0
// 1277       //SendRainCountFreq=(pkt->cmd.Data)[0];
// 1278       break;
// 1279     case p2p_test_RelationMsg:
// 1280       temp_shortaddr=pkt->srcAddr.addr.shortAddr;
// 1281       //printf short_addr
// 1282      // p2p_test_SendToUart((uint8 *)&temp_shortaddr,sizeof(temp_shortaddr));
// 1283      // HalUARTWrite(0,(uint8 *)&temp_shortaddr,sizeof(temp_shortaddr));
// 1284       p2p_test_recv_RelationMsgclusterId(pkt->cmd.Data,pkt->cmd.DataLength,temp_shortaddr);
??p2p_test_MessageMSGCB_2:
        ; Setup parameters for call to function p2p_test_recv_RelationMsgclusterId
        MOV     DPL,R2
        MOV     DPH,R3
        INC     DPTR
        INC     DPTR
        INC     DPTR
        INC     DPTR
        INC     DPTR
        INC     DPTR
        LCALL   ?Subroutine44 & 0xFFFF
??CrossCallReturnLabel_128:
        LCALL   ?Subroutine6 & 0xFFFF
??CrossCallReturnLabel_154:
        LCALL   ??p2p_test_recv_RelationMsgclusterId?relay
// 1285       break;
// 1286     
// 1287   }
// 1288 }
??p2p_test_MessageMSGCB_0:
        LJMP    ?Subroutine60 & 0xFFFF
        CFI EndBlock cfiBlock46

        RSEG BANKED_CODE:CODE:NOROOT(0)
?Subroutine6:
        CFI Block cfiCond47 Using cfiCommon0
        CFI NoFunction
        CFI Conditional ??CrossCallReturnLabel_153
        CFI R6 load(1, XDATA, add(CFA_XSP16, literal(-10)))
        CFI VB load(1, XDATA, add(CFA_XSP16, literal(-9)))
        CFI V0 load(1, XDATA, add(CFA_XSP16, literal(-8)))
        CFI V1 load(1, XDATA, add(CFA_XSP16, literal(-7)))
        CFI R7 load(1, XDATA, add(CFA_XSP16, literal(-6)))
        CFI ?RET_LOW load(1, XDATA, add(CFA_XSP16, literal(-5)))
        CFI ?RET_HIGH load(1, XDATA, add(CFA_XSP16, literal(-4)))
        CFI ?BRET_EXT load(1, XDATA, add(CFA_XSP16, literal(-3)))
        CFI DPL0 load(1, XDATA, add(CFA_XSP16, literal(-2)))
        CFI DPH0 load(1, XDATA, add(CFA_XSP16, literal(-1)))
        CFI CFA_SP SP+0
        CFI CFA_XSP16 add(XSP16, 10)
        CFI Block cfiCond48 Using cfiCommon0
        CFI (cfiCond48) NoFunction
        CFI (cfiCond48) Conditional ??CrossCallReturnLabel_154
        CFI (cfiCond48) R6 load(1, XDATA, add(CFA_XSP16, literal(-10)))
        CFI (cfiCond48) VB load(1, XDATA, add(CFA_XSP16, literal(-9)))
        CFI (cfiCond48) V0 load(1, XDATA, add(CFA_XSP16, literal(-8)))
        CFI (cfiCond48) V1 load(1, XDATA, add(CFA_XSP16, literal(-7)))
        CFI (cfiCond48) R7 load(1, XDATA, add(CFA_XSP16, literal(-6)))
        CFI (cfiCond48) ?RET_LOW load(1, XDATA, add(CFA_XSP16, literal(-5)))
        CFI (cfiCond48) ?RET_HIGH load(1, XDATA, add(CFA_XSP16, literal(-4)))
        CFI (cfiCond48) ?BRET_EXT load(1, XDATA, add(CFA_XSP16, literal(-3)))
        CFI (cfiCond48) DPL0 load(1, XDATA, add(CFA_XSP16, literal(-2)))
        CFI (cfiCond48) DPH0 load(1, XDATA, add(CFA_XSP16, literal(-1)))
        CFI (cfiCond48) CFA_SP SP+0
        CFI (cfiCond48) CFA_XSP16 add(XSP16, 10)
        CFI Block cfiPicker49 Using cfiCommon1
        CFI (cfiPicker49) NoFunction
        CFI (cfiPicker49) Picker
        MOV     A,R2
        ADD     A,#0x13
        MOV     DPL,A
        MOV     A,R3
        ADDC    A,#0x0
        MOV     DPH,A
        MOVX    A,@DPTR
        MOV     R1,A
        MOV     A,R2
        ADD     A,#0x15
        MOV     DPL,A
        MOV     A,R3
        ADDC    A,#0x0
        MOV     DPH,A
        CFI EndBlock cfiCond47
        CFI EndBlock cfiCond48
        CFI EndBlock cfiPicker49
        REQUIRE ?Subroutine54
        ; // Fall through to label ?Subroutine54

        RSEG BANKED_CODE:CODE:NOROOT(0)
?Subroutine54:
        CFI Block cfiCond50 Using cfiCommon0
        CFI NoFunction
        CFI Conditional ??CrossCallReturnLabel_153
        CFI R6 load(1, XDATA, add(CFA_XSP16, literal(-10)))
        CFI VB load(1, XDATA, add(CFA_XSP16, literal(-9)))
        CFI V0 load(1, XDATA, add(CFA_XSP16, literal(-8)))
        CFI V1 load(1, XDATA, add(CFA_XSP16, literal(-7)))
        CFI R7 load(1, XDATA, add(CFA_XSP16, literal(-6)))
        CFI ?RET_LOW load(1, XDATA, add(CFA_XSP16, literal(-5)))
        CFI ?RET_HIGH load(1, XDATA, add(CFA_XSP16, literal(-4)))
        CFI ?BRET_EXT load(1, XDATA, add(CFA_XSP16, literal(-3)))
        CFI DPL0 load(1, XDATA, add(CFA_XSP16, literal(-2)))
        CFI DPH0 load(1, XDATA, add(CFA_XSP16, literal(-1)))
        CFI CFA_SP SP+0
        CFI CFA_XSP16 add(XSP16, 10)
        CFI Block cfiCond51 Using cfiCommon0
        CFI (cfiCond51) NoFunction
        CFI (cfiCond51) Conditional ??CrossCallReturnLabel_154
        CFI (cfiCond51) R6 load(1, XDATA, add(CFA_XSP16, literal(-10)))
        CFI (cfiCond51) VB load(1, XDATA, add(CFA_XSP16, literal(-9)))
        CFI (cfiCond51) V0 load(1, XDATA, add(CFA_XSP16, literal(-8)))
        CFI (cfiCond51) V1 load(1, XDATA, add(CFA_XSP16, literal(-7)))
        CFI (cfiCond51) R7 load(1, XDATA, add(CFA_XSP16, literal(-6)))
        CFI (cfiCond51) ?RET_LOW load(1, XDATA, add(CFA_XSP16, literal(-5)))
        CFI (cfiCond51) ?RET_HIGH load(1, XDATA, add(CFA_XSP16, literal(-4)))
        CFI (cfiCond51) ?BRET_EXT load(1, XDATA, add(CFA_XSP16, literal(-3)))
        CFI (cfiCond51) DPL0 load(1, XDATA, add(CFA_XSP16, literal(-2)))
        CFI (cfiCond51) DPH0 load(1, XDATA, add(CFA_XSP16, literal(-1)))
        CFI (cfiCond51) CFA_SP SP+0
        CFI (cfiCond51) CFA_XSP16 add(XSP16, 10)
        CFI Block cfiCond52 Using cfiCommon0
        CFI (cfiCond52) NoFunction
        CFI (cfiCond52) Conditional ??CrossCallReturnLabel_148
        CFI (cfiCond52) R6 load(1, XDATA, add(CFA_XSP16, literal(-12)))
        CFI (cfiCond52) VB load(1, XDATA, add(CFA_XSP16, literal(-11)))
        CFI (cfiCond52) V0 load(1, XDATA, add(CFA_XSP16, literal(-10)))
        CFI (cfiCond52) V1 load(1, XDATA, add(CFA_XSP16, literal(-9)))
        CFI (cfiCond52) V2 load(1, XDATA, add(CFA_XSP16, literal(-8)))
        CFI (cfiCond52) V3 load(1, XDATA, add(CFA_XSP16, literal(-7)))
        CFI (cfiCond52) R7 load(1, XDATA, add(CFA_XSP16, literal(-6)))
        CFI (cfiCond52) ?RET_LOW load(1, XDATA, add(CFA_XSP16, literal(-5)))
        CFI (cfiCond52) ?RET_HIGH load(1, XDATA, add(CFA_XSP16, literal(-4)))
        CFI (cfiCond52) ?BRET_EXT load(1, XDATA, add(CFA_XSP16, literal(-3)))
        CFI (cfiCond52) DPL0 load(1, XDATA, add(CFA_XSP16, literal(-2)))
        CFI (cfiCond52) DPH0 load(1, XDATA, add(CFA_XSP16, literal(-1)))
        CFI (cfiCond52) CFA_SP SP+0
        CFI (cfiCond52) CFA_XSP16 add(XSP16, 23)
        CFI Block cfiCond53 Using cfiCommon0
        CFI (cfiCond53) NoFunction
        CFI (cfiCond53) Conditional ??CrossCallReturnLabel_149
        CFI (cfiCond53) R6 load(1, XDATA, add(CFA_XSP16, literal(-12)))
        CFI (cfiCond53) VB load(1, XDATA, add(CFA_XSP16, literal(-11)))
        CFI (cfiCond53) V0 load(1, XDATA, add(CFA_XSP16, literal(-10)))
        CFI (cfiCond53) V1 load(1, XDATA, add(CFA_XSP16, literal(-9)))
        CFI (cfiCond53) V2 load(1, XDATA, add(CFA_XSP16, literal(-8)))
        CFI (cfiCond53) V3 load(1, XDATA, add(CFA_XSP16, literal(-7)))
        CFI (cfiCond53) R7 load(1, XDATA, add(CFA_XSP16, literal(-6)))
        CFI (cfiCond53) ?RET_LOW load(1, XDATA, add(CFA_XSP16, literal(-5)))
        CFI (cfiCond53) ?RET_HIGH load(1, XDATA, add(CFA_XSP16, literal(-4)))
        CFI (cfiCond53) ?BRET_EXT load(1, XDATA, add(CFA_XSP16, literal(-3)))
        CFI (cfiCond53) DPL0 load(1, XDATA, add(CFA_XSP16, literal(-2)))
        CFI (cfiCond53) DPH0 load(1, XDATA, add(CFA_XSP16, literal(-1)))
        CFI (cfiCond53) CFA_SP SP+0
        CFI (cfiCond53) CFA_XSP16 add(XSP16, 23)
        CFI Block cfiCond54 Using cfiCommon0
        CFI (cfiCond54) NoFunction
        CFI (cfiCond54) Conditional ??CrossCallReturnLabel_150
        CFI (cfiCond54) R6 load(1, XDATA, add(CFA_XSP16, literal(-16)))
        CFI (cfiCond54) VB load(1, XDATA, add(CFA_XSP16, literal(-15)))
        CFI (cfiCond54) V0 load(1, XDATA, add(CFA_XSP16, literal(-14)))
        CFI (cfiCond54) V1 load(1, XDATA, add(CFA_XSP16, literal(-13)))
        CFI (cfiCond54) V2 load(1, XDATA, add(CFA_XSP16, literal(-12)))
        CFI (cfiCond54) V3 load(1, XDATA, add(CFA_XSP16, literal(-11)))
        CFI (cfiCond54) V4 load(1, XDATA, add(CFA_XSP16, literal(-10)))
        CFI (cfiCond54) V5 load(1, XDATA, add(CFA_XSP16, literal(-9)))
        CFI (cfiCond54) V6 load(1, XDATA, add(CFA_XSP16, literal(-8)))
        CFI (cfiCond54) V7 load(1, XDATA, add(CFA_XSP16, literal(-7)))
        CFI (cfiCond54) R7 load(1, XDATA, add(CFA_XSP16, literal(-6)))
        CFI (cfiCond54) ?RET_LOW load(1, XDATA, add(CFA_XSP16, literal(-5)))
        CFI (cfiCond54) ?RET_HIGH load(1, XDATA, add(CFA_XSP16, literal(-4)))
        CFI (cfiCond54) ?BRET_EXT load(1, XDATA, add(CFA_XSP16, literal(-3)))
        CFI (cfiCond54) DPL0 load(1, XDATA, add(CFA_XSP16, literal(-2)))
        CFI (cfiCond54) DPH0 load(1, XDATA, add(CFA_XSP16, literal(-1)))
        CFI (cfiCond54) CFA_SP SP+0
        CFI (cfiCond54) CFA_XSP16 add(XSP16, 22)
        CFI Block cfiCond55 Using cfiCommon0
        CFI (cfiCond55) NoFunction
        CFI (cfiCond55) Conditional ??CrossCallReturnLabel_151
        CFI (cfiCond55) R6 load(1, XDATA, add(CFA_XSP16, literal(-16)))
        CFI (cfiCond55) VB load(1, XDATA, add(CFA_XSP16, literal(-15)))
        CFI (cfiCond55) V0 load(1, XDATA, add(CFA_XSP16, literal(-14)))
        CFI (cfiCond55) V1 load(1, XDATA, add(CFA_XSP16, literal(-13)))
        CFI (cfiCond55) V2 load(1, XDATA, add(CFA_XSP16, literal(-12)))
        CFI (cfiCond55) V3 load(1, XDATA, add(CFA_XSP16, literal(-11)))
        CFI (cfiCond55) V4 load(1, XDATA, add(CFA_XSP16, literal(-10)))
        CFI (cfiCond55) V5 load(1, XDATA, add(CFA_XSP16, literal(-9)))
        CFI (cfiCond55) V6 load(1, XDATA, add(CFA_XSP16, literal(-8)))
        CFI (cfiCond55) V7 load(1, XDATA, add(CFA_XSP16, literal(-7)))
        CFI (cfiCond55) R7 load(1, XDATA, add(CFA_XSP16, literal(-6)))
        CFI (cfiCond55) ?RET_LOW load(1, XDATA, add(CFA_XSP16, literal(-5)))
        CFI (cfiCond55) ?RET_HIGH load(1, XDATA, add(CFA_XSP16, literal(-4)))
        CFI (cfiCond55) ?BRET_EXT load(1, XDATA, add(CFA_XSP16, literal(-3)))
        CFI (cfiCond55) DPL0 load(1, XDATA, add(CFA_XSP16, literal(-2)))
        CFI (cfiCond55) DPH0 load(1, XDATA, add(CFA_XSP16, literal(-1)))
        CFI (cfiCond55) CFA_SP SP+0
        CFI (cfiCond55) CFA_XSP16 add(XSP16, 22)
        CFI Block cfiCond56 Using cfiCommon0
        CFI (cfiCond56) NoFunction
        CFI (cfiCond56) Conditional ??CrossCallReturnLabel_152
        CFI (cfiCond56) R6 load(1, XDATA, add(CFA_XSP16, literal(-12)))
        CFI (cfiCond56) VB load(1, XDATA, add(CFA_XSP16, literal(-11)))
        CFI (cfiCond56) V0 load(1, XDATA, add(CFA_XSP16, literal(-10)))
        CFI (cfiCond56) V1 load(1, XDATA, add(CFA_XSP16, literal(-9)))
        CFI (cfiCond56) V2 load(1, XDATA, add(CFA_XSP16, literal(-8)))
        CFI (cfiCond56) V3 load(1, XDATA, add(CFA_XSP16, literal(-7)))
        CFI (cfiCond56) R7 load(1, XDATA, add(CFA_XSP16, literal(-6)))
        CFI (cfiCond56) ?RET_LOW load(1, XDATA, add(CFA_XSP16, literal(-5)))
        CFI (cfiCond56) ?RET_HIGH load(1, XDATA, add(CFA_XSP16, literal(-4)))
        CFI (cfiCond56) ?BRET_EXT load(1, XDATA, add(CFA_XSP16, literal(-3)))
        CFI (cfiCond56) DPL0 load(1, XDATA, add(CFA_XSP16, literal(-2)))
        CFI (cfiCond56) DPH0 load(1, XDATA, add(CFA_XSP16, literal(-1)))
        CFI (cfiCond56) CFA_SP SP+0
        CFI (cfiCond56) CFA_XSP16 add(XSP16, 12)
        CFI Block cfiPicker57 Using cfiCommon1
        CFI (cfiPicker57) NoFunction
        CFI (cfiPicker57) Picker
        MOVX    A,@DPTR
        MOV     R2,A
        INC     DPTR
        MOVX    A,@DPTR
        MOV     R3,A
        RET
        CFI EndBlock cfiCond50
        CFI EndBlock cfiCond51
        CFI EndBlock cfiCond52
        CFI EndBlock cfiCond53
        CFI EndBlock cfiCond54
        CFI EndBlock cfiCond55
        CFI EndBlock cfiCond56
        CFI EndBlock cfiPicker57
// 1289 
// 1290 
// 1291 /*********************************************************************
// 1292  * @fn      p2p_test_SendTheMessage
// 1293  *
// 1294  * @brief   Send "the" message.
// 1295  *
// 1296  * @param   none
// 1297  *
// 1298  * @return  none
// 1299  */
// 1300 /*
// 1301 void p2p_test_SendTheMessage( void )
// 1302 {
// 1303    //char p2p_msg[] = "Hello World ";
// 1304    if ( AF_DataRequest( &p2p_test_DstAddr, &p2p_test_epDesc,
// 1305                        p2p_test_CLUSTERID,
// 1306                        6,
// 1307                        (byte *)&p2p_msg,
// 1308                        &p2p_test_TransID,
// 1309                        AF_DISCV_ROUTE, AF_DEFAULT_RADIUS ) == afStatus_SUCCESS )
// 1310 
// 1311   {
// 1312     // Successfully requested to be sent.  
// 1313 //    HalUARTWrite( 0,  (uint8 *)p2p_msg, (byte)osal_strlen( p2p_msg ) + 1);
// 1314 
// 1315   } 
// 1316   
// 1317   else
// 1318   {
// 1319     // Error occurred in request to send.
// 1320   }
// 1321 }
// 1322 */
// 1323 
// 1324 /*********************************************************************
// 1325  * @fn      p2p_test_recv_108clusterId
// 1326  *
// 1327  * @brief   
// 1328  *
// 1329  * @param   none
// 1330  *
// 1331  * @return  none
// 1332  */

        RSEG BANKED_CODE:CODE:NOROOT(0)
// 1333 void p2p_test_recv_108clusterId(uint8 *pkt, uint8 length)
p2p_test_recv_108clusterId:
        CFI Block cfiBlock58 Using cfiCommon0
        CFI Function p2p_test_recv_108clusterId
// 1334 {
        FUNCALL p2p_test_recv_108clusterId, p2p_test_SendToUart
        LOCFRAME ISTACK, 0, STACK
        LOCFRAME PSTACK, 0, STACK
        LOCFRAME XSTACK, 17, STACK
        LOCFRAME IOVERLAY, 0, STATIC
        LOCFRAME DOVERLAY, 0, STATIC
        ARGFRAME ISTACK, 0, STACK
        ARGFRAME PSTACK, 0, STACK
        ARGFRAME XSTACK, 17, STACK
        ARGFRAME IOVERLAY, 0, STATIC
        ARGFRAME DOVERLAY, 0, STATIC
        FUNCALL p2p_test_recv_108clusterId, osal_msg_allocate
        LOCFRAME ISTACK, 0, STACK
        LOCFRAME PSTACK, 0, STACK
        LOCFRAME XSTACK, 17, STACK
        LOCFRAME IOVERLAY, 0, STATIC
        LOCFRAME DOVERLAY, 0, STATIC
        ARGFRAME ISTACK, 0, STACK
        ARGFRAME PSTACK, 0, STACK
        ARGFRAME XSTACK, 17, STACK
        ARGFRAME IOVERLAY, 0, STATIC
        ARGFRAME DOVERLAY, 0, STATIC
        FUNCALL p2p_test_recv_108clusterId, fill_AppHead_sn
        LOCFRAME ISTACK, 0, STACK
        LOCFRAME PSTACK, 0, STACK
        LOCFRAME XSTACK, 21, STACK
        LOCFRAME IOVERLAY, 0, STATIC
        LOCFRAME DOVERLAY, 0, STATIC
        ARGFRAME ISTACK, 0, STACK
        ARGFRAME PSTACK, 0, STACK
        ARGFRAME XSTACK, 21, STACK
        ARGFRAME IOVERLAY, 0, STATIC
        ARGFRAME DOVERLAY, 0, STATIC
        FUNCALL p2p_test_recv_108clusterId, SendMsg
        LOCFRAME ISTACK, 0, STACK
        LOCFRAME PSTACK, 0, STACK
        LOCFRAME XSTACK, 23, STACK
        LOCFRAME IOVERLAY, 0, STATIC
        LOCFRAME DOVERLAY, 0, STATIC
        ARGFRAME ISTACK, 0, STACK
        ARGFRAME PSTACK, 0, STACK
        ARGFRAME XSTACK, 23, STACK
        ARGFRAME IOVERLAY, 0, STATIC
        ARGFRAME DOVERLAY, 0, STATIC
        FUNCALL p2p_test_recv_108clusterId, HalUARTWrite_uint16
        LOCFRAME ISTACK, 0, STACK
        LOCFRAME PSTACK, 0, STACK
        LOCFRAME XSTACK, 17, STACK
        LOCFRAME IOVERLAY, 0, STATIC
        LOCFRAME DOVERLAY, 0, STATIC
        ARGFRAME ISTACK, 0, STACK
        ARGFRAME PSTACK, 0, STACK
        ARGFRAME XSTACK, 17, STACK
        ARGFRAME IOVERLAY, 0, STATIC
        ARGFRAME DOVERLAY, 0, STATIC
        FUNCALL p2p_test_recv_108clusterId, osal_msg_deallocate
        LOCFRAME ISTACK, 0, STACK
        LOCFRAME PSTACK, 0, STACK
        LOCFRAME XSTACK, 17, STACK
        LOCFRAME IOVERLAY, 0, STATIC
        LOCFRAME DOVERLAY, 0, STATIC
        ARGFRAME ISTACK, 0, STACK
        ARGFRAME PSTACK, 0, STACK
        ARGFRAME XSTACK, 17, STACK
        ARGFRAME IOVERLAY, 0, STATIC
        ARGFRAME DOVERLAY, 0, STATIC
        FUNCALL p2p_test_recv_108clusterId, SendMsg
        LOCFRAME ISTACK, 0, STACK
        LOCFRAME PSTACK, 0, STACK
        LOCFRAME XSTACK, 23, STACK
        LOCFRAME IOVERLAY, 0, STATIC
        LOCFRAME DOVERLAY, 0, STATIC
        ARGFRAME ISTACK, 0, STACK
        ARGFRAME PSTACK, 0, STACK
        ARGFRAME XSTACK, 23, STACK
        ARGFRAME IOVERLAY, 0, STATIC
        ARGFRAME DOVERLAY, 0, STATIC
        FUNCALL p2p_test_recv_108clusterId, HalUARTWrite_uint16
        LOCFRAME ISTACK, 0, STACK
        LOCFRAME PSTACK, 0, STACK
        LOCFRAME XSTACK, 17, STACK
        LOCFRAME IOVERLAY, 0, STATIC
        LOCFRAME DOVERLAY, 0, STATIC
        ARGFRAME ISTACK, 0, STACK
        ARGFRAME PSTACK, 0, STACK
        ARGFRAME XSTACK, 17, STACK
        ARGFRAME IOVERLAY, 0, STATIC
        ARGFRAME DOVERLAY, 0, STATIC
        FUNCALL p2p_test_recv_108clusterId, SendMsg
        LOCFRAME ISTACK, 0, STACK
        LOCFRAME PSTACK, 0, STACK
        LOCFRAME XSTACK, 23, STACK
        LOCFRAME IOVERLAY, 0, STATIC
        LOCFRAME DOVERLAY, 0, STATIC
        ARGFRAME ISTACK, 0, STACK
        ARGFRAME PSTACK, 0, STACK
        ARGFRAME XSTACK, 23, STACK
        ARGFRAME IOVERLAY, 0, STATIC
        ARGFRAME DOVERLAY, 0, STATIC
        FUNCALL p2p_test_recv_108clusterId, HalUARTWrite
        LOCFRAME ISTACK, 0, STACK
        LOCFRAME PSTACK, 0, STACK
        LOCFRAME XSTACK, 17, STACK
        LOCFRAME IOVERLAY, 0, STATIC
        LOCFRAME DOVERLAY, 0, STATIC
        ARGFRAME ISTACK, 0, STACK
        ARGFRAME PSTACK, 0, STACK
        ARGFRAME XSTACK, 17, STACK
        ARGFRAME IOVERLAY, 0, STATIC
        ARGFRAME DOVERLAY, 0, STATIC
        FUNCALL p2p_test_recv_108clusterId, SendMsg
        LOCFRAME ISTACK, 0, STACK
        LOCFRAME PSTACK, 0, STACK
        LOCFRAME XSTACK, 23, STACK
        LOCFRAME IOVERLAY, 0, STATIC
        LOCFRAME DOVERLAY, 0, STATIC
        ARGFRAME ISTACK, 0, STACK
        ARGFRAME PSTACK, 0, STACK
        ARGFRAME XSTACK, 23, STACK
        ARGFRAME IOVERLAY, 0, STATIC
        ARGFRAME DOVERLAY, 0, STATIC
        FUNCALL p2p_test_recv_108clusterId, HalUARTWrite
        LOCFRAME ISTACK, 0, STACK
        LOCFRAME PSTACK, 0, STACK
        LOCFRAME XSTACK, 17, STACK
        LOCFRAME IOVERLAY, 0, STATIC
        LOCFRAME DOVERLAY, 0, STATIC
        ARGFRAME ISTACK, 0, STACK
        ARGFRAME PSTACK, 0, STACK
        ARGFRAME XSTACK, 17, STACK
        ARGFRAME IOVERLAY, 0, STATIC
        ARGFRAME DOVERLAY, 0, STATIC
        FUNCALL p2p_test_recv_108clusterId, SendMsg
        LOCFRAME ISTACK, 0, STACK
        LOCFRAME PSTACK, 0, STACK
        LOCFRAME XSTACK, 23, STACK
        LOCFRAME IOVERLAY, 0, STATIC
        LOCFRAME DOVERLAY, 0, STATIC
        ARGFRAME ISTACK, 0, STACK
        ARGFRAME PSTACK, 0, STACK
        ARGFRAME XSTACK, 23, STACK
        ARGFRAME IOVERLAY, 0, STATIC
        ARGFRAME DOVERLAY, 0, STATIC
        FUNCALL p2p_test_recv_108clusterId, HalUARTWrite
        LOCFRAME ISTACK, 0, STACK
        LOCFRAME PSTACK, 0, STACK
        LOCFRAME XSTACK, 17, STACK
        LOCFRAME IOVERLAY, 0, STATIC
        LOCFRAME DOVERLAY, 0, STATIC
        ARGFRAME ISTACK, 0, STACK
        ARGFRAME PSTACK, 0, STACK
        ARGFRAME XSTACK, 17, STACK
        ARGFRAME IOVERLAY, 0, STATIC
        ARGFRAME DOVERLAY, 0, STATIC
        FUNCALL p2p_test_recv_108clusterId, SendMsg
        LOCFRAME ISTACK, 0, STACK
        LOCFRAME PSTACK, 0, STACK
        LOCFRAME XSTACK, 23, STACK
        LOCFRAME IOVERLAY, 0, STATIC
        LOCFRAME DOVERLAY, 0, STATIC
        ARGFRAME ISTACK, 0, STACK
        ARGFRAME PSTACK, 0, STACK
        ARGFRAME XSTACK, 23, STACK
        ARGFRAME IOVERLAY, 0, STATIC
        ARGFRAME DOVERLAY, 0, STATIC
        FUNCALL p2p_test_recv_108clusterId, HalUARTWrite
        LOCFRAME ISTACK, 0, STACK
        LOCFRAME PSTACK, 0, STACK
        LOCFRAME XSTACK, 17, STACK
        LOCFRAME IOVERLAY, 0, STATIC
        LOCFRAME DOVERLAY, 0, STATIC
        ARGFRAME ISTACK, 0, STACK
        ARGFRAME PSTACK, 0, STACK
        ARGFRAME XSTACK, 17, STACK
        ARGFRAME IOVERLAY, 0, STATIC
        ARGFRAME DOVERLAY, 0, STATIC
        FUNCALL p2p_test_recv_108clusterId, SendMsg
        LOCFRAME ISTACK, 0, STACK
        LOCFRAME PSTACK, 0, STACK
        LOCFRAME XSTACK, 23, STACK
        LOCFRAME IOVERLAY, 0, STATIC
        LOCFRAME DOVERLAY, 0, STATIC
        ARGFRAME ISTACK, 0, STACK
        ARGFRAME PSTACK, 0, STACK
        ARGFRAME XSTACK, 23, STACK
        ARGFRAME IOVERLAY, 0, STATIC
        ARGFRAME DOVERLAY, 0, STATIC
        FUNCALL p2p_test_recv_108clusterId, HalUARTWrite_uint16
        LOCFRAME ISTACK, 0, STACK
        LOCFRAME PSTACK, 0, STACK
        LOCFRAME XSTACK, 17, STACK
        LOCFRAME IOVERLAY, 0, STATIC
        LOCFRAME DOVERLAY, 0, STATIC
        ARGFRAME ISTACK, 0, STACK
        ARGFRAME PSTACK, 0, STACK
        ARGFRAME XSTACK, 17, STACK
        ARGFRAME IOVERLAY, 0, STATIC
        ARGFRAME DOVERLAY, 0, STATIC
        FUNCALL p2p_test_recv_108clusterId, HalUARTWrite_uint16
        LOCFRAME ISTACK, 0, STACK
        LOCFRAME PSTACK, 0, STACK
        LOCFRAME XSTACK, 17, STACK
        LOCFRAME IOVERLAY, 0, STATIC
        LOCFRAME DOVERLAY, 0, STATIC
        ARGFRAME ISTACK, 0, STACK
        ARGFRAME PSTACK, 0, STACK
        ARGFRAME XSTACK, 17, STACK
        ARGFRAME IOVERLAY, 0, STATIC
        ARGFRAME DOVERLAY, 0, STATIC
        FUNCALL p2p_test_recv_108clusterId, HalUARTWrite_uint16
        LOCFRAME ISTACK, 0, STACK
        LOCFRAME PSTACK, 0, STACK
        LOCFRAME XSTACK, 17, STACK
        LOCFRAME IOVERLAY, 0, STATIC
        LOCFRAME DOVERLAY, 0, STATIC
        ARGFRAME ISTACK, 0, STACK
        ARGFRAME PSTACK, 0, STACK
        ARGFRAME XSTACK, 17, STACK
        ARGFRAME IOVERLAY, 0, STATIC
        ARGFRAME DOVERLAY, 0, STATIC
        FUNCALL p2p_test_recv_108clusterId, HalUARTWrite
        LOCFRAME ISTACK, 0, STACK
        LOCFRAME PSTACK, 0, STACK
        LOCFRAME XSTACK, 17, STACK
        LOCFRAME IOVERLAY, 0, STATIC
        LOCFRAME DOVERLAY, 0, STATIC
        ARGFRAME ISTACK, 0, STACK
        ARGFRAME PSTACK, 0, STACK
        ARGFRAME XSTACK, 17, STACK
        ARGFRAME IOVERLAY, 0, STATIC
        ARGFRAME DOVERLAY, 0, STATIC
        FUNCALL p2p_test_recv_108clusterId, HalUARTWrite
        LOCFRAME ISTACK, 0, STACK
        LOCFRAME PSTACK, 0, STACK
        LOCFRAME XSTACK, 17, STACK
        LOCFRAME IOVERLAY, 0, STATIC
        LOCFRAME DOVERLAY, 0, STATIC
        ARGFRAME ISTACK, 0, STACK
        ARGFRAME PSTACK, 0, STACK
        ARGFRAME XSTACK, 17, STACK
        ARGFRAME IOVERLAY, 0, STATIC
        ARGFRAME DOVERLAY, 0, STATIC
        FUNCALL p2p_test_recv_108clusterId, HalUARTWrite
        LOCFRAME ISTACK, 0, STACK
        LOCFRAME PSTACK, 0, STACK
        LOCFRAME XSTACK, 17, STACK
        LOCFRAME IOVERLAY, 0, STATIC
        LOCFRAME DOVERLAY, 0, STATIC
        ARGFRAME ISTACK, 0, STACK
        ARGFRAME PSTACK, 0, STACK
        ARGFRAME XSTACK, 17, STACK
        ARGFRAME IOVERLAY, 0, STATIC
        ARGFRAME DOVERLAY, 0, STATIC
        FUNCALL p2p_test_recv_108clusterId, SendMsg
        LOCFRAME ISTACK, 0, STACK
        LOCFRAME PSTACK, 0, STACK
        LOCFRAME XSTACK, 23, STACK
        LOCFRAME IOVERLAY, 0, STATIC
        LOCFRAME DOVERLAY, 0, STATIC
        ARGFRAME ISTACK, 0, STACK
        ARGFRAME PSTACK, 0, STACK
        ARGFRAME XSTACK, 23, STACK
        ARGFRAME IOVERLAY, 0, STATIC
        ARGFRAME DOVERLAY, 0, STATIC
        FUNCALL p2p_test_recv_108clusterId, HalUARTWrite
        LOCFRAME ISTACK, 0, STACK
        LOCFRAME PSTACK, 0, STACK
        LOCFRAME XSTACK, 17, STACK
        LOCFRAME IOVERLAY, 0, STATIC
        LOCFRAME DOVERLAY, 0, STATIC
        ARGFRAME ISTACK, 0, STACK
        ARGFRAME PSTACK, 0, STACK
        ARGFRAME XSTACK, 17, STACK
        ARGFRAME IOVERLAY, 0, STATIC
        ARGFRAME DOVERLAY, 0, STATIC
        FUNCALL p2p_test_recv_108clusterId, SendMsg
        LOCFRAME ISTACK, 0, STACK
        LOCFRAME PSTACK, 0, STACK
        LOCFRAME XSTACK, 23, STACK
        LOCFRAME IOVERLAY, 0, STATIC
        LOCFRAME DOVERLAY, 0, STATIC
        ARGFRAME ISTACK, 0, STACK
        ARGFRAME PSTACK, 0, STACK
        ARGFRAME XSTACK, 23, STACK
        ARGFRAME IOVERLAY, 0, STATIC
        ARGFRAME DOVERLAY, 0, STATIC
        FUNCALL p2p_test_recv_108clusterId, HalUARTWrite
        LOCFRAME ISTACK, 0, STACK
        LOCFRAME PSTACK, 0, STACK
        LOCFRAME XSTACK, 17, STACK
        LOCFRAME IOVERLAY, 0, STATIC
        LOCFRAME DOVERLAY, 0, STATIC
        ARGFRAME ISTACK, 0, STACK
        ARGFRAME PSTACK, 0, STACK
        ARGFRAME XSTACK, 17, STACK
        ARGFRAME IOVERLAY, 0, STATIC
        ARGFRAME DOVERLAY, 0, STATIC
        FUNCALL p2p_test_recv_108clusterId, halWait
        LOCFRAME ISTACK, 0, STACK
        LOCFRAME PSTACK, 0, STACK
        LOCFRAME XSTACK, 17, STACK
        LOCFRAME IOVERLAY, 0, STATIC
        LOCFRAME DOVERLAY, 0, STATIC
        ARGFRAME ISTACK, 0, STACK
        ARGFRAME PSTACK, 0, STACK
        ARGFRAME XSTACK, 17, STACK
        ARGFRAME IOVERLAY, 0, STATIC
        ARGFRAME DOVERLAY, 0, STATIC
        MOV     A,#-0x10
        LCALL   ?BANKED_ENTER_XDATA
        CFI DPH0 load(1, XDATA, add(CFA_XSP16, literal(-1)))
        CFI DPL0 load(1, XDATA, add(CFA_XSP16, literal(-2)))
        CFI ?BRET_EXT load(1, XDATA, add(CFA_XSP16, literal(-3)))
        CFI ?RET_HIGH load(1, XDATA, add(CFA_XSP16, literal(-4)))
        CFI ?RET_LOW load(1, XDATA, add(CFA_XSP16, literal(-5)))
        CFI R7 load(1, XDATA, add(CFA_XSP16, literal(-6)))
        CFI V7 load(1, XDATA, add(CFA_XSP16, literal(-7)))
        CFI V6 load(1, XDATA, add(CFA_XSP16, literal(-8)))
        CFI V5 load(1, XDATA, add(CFA_XSP16, literal(-9)))
        CFI V4 load(1, XDATA, add(CFA_XSP16, literal(-10)))
        CFI V3 load(1, XDATA, add(CFA_XSP16, literal(-11)))
        CFI V2 load(1, XDATA, add(CFA_XSP16, literal(-12)))
        CFI V1 load(1, XDATA, add(CFA_XSP16, literal(-13)))
        CFI V0 load(1, XDATA, add(CFA_XSP16, literal(-14)))
        CFI VB load(1, XDATA, add(CFA_XSP16, literal(-15)))
        CFI R6 load(1, XDATA, add(CFA_XSP16, literal(-16)))
        CFI CFA_SP SP+0
        CFI CFA_XSP16 add(XSP16, 16)
        ; Saved register size: 16
        ; Auto size: 1
        MOV     A,#-0x1
        LCALL   ?ALLOC_XSTACK8
        CFI CFA_XSP16 add(XSP16, 17)
        MOV     ?V0 + 2,R2
        MOV     ?V0 + 3,R3
// 1335   AppHead_t *AppHead = (AppHead_t *)pkt;
// 1336   //AppHead->AckRequire;
// 1337   if(AppHead->type == TYPE_SENSOR ||(AppHead->type == TYPE_ACK && AppHead->TypeCode==TYPE_ACK_UP) )
        MOV     DPL,R2
        MOV     DPH,R3
        MOVX    A,@DPTR
        ANL     A,#0xf
        JZ      ??p2p_test_recv_108clusterId_0
        MOVX    A,@DPTR
        ANL     A,#0xf
        XRL     A,#0xf
        JNZ     ??p2p_test_recv_108clusterId_1
        INC     DPTR
        MOVX    A,@DPTR
        JZ      $+5
        LJMP    ??p2p_test_recv_108clusterId_2 & 0xFFFF
// 1338   {
// 1339     //if(AppHead->TypeCode == TYPE_CODE_SENSOR_RAIN)//may be is not need,TYPE_SENSOR all to UART 
// 1340     //{
// 1341       p2p_test_SendToUart(pkt, length);
??p2p_test_recv_108clusterId_0:
        ; Setup parameters for call to function p2p_test_SendToUart
        LCALL   ??p2p_test_SendToUart?relay
// 1342       return;
        LJMP    ??p2p_test_recv_108clusterId_2 & 0xFFFF
// 1343     //}
// 1344   }
// 1345   else if(AppHead->type == TYPE_COMMAND)
??p2p_test_recv_108clusterId_1:
        MOVX    A,@DPTR
        ANL     A,#0xf
        XRL     A,#0x8
        JZ      $+5
        LJMP    ??p2p_test_recv_108clusterId_2 & 0xFFFF
// 1346   {
// 1347     uint8 temp_arm_id,temp_zigbee_id;
// 1348     temp_arm_id=(pkt[4]&0x0f);
// 1349     temp_zigbee_id=(pkt[5]&0xf0)>>4;
        INC     DPTR
        INC     DPTR
        INC     DPTR
        INC     DPTR
        INC     DPTR
        MOVX    A,@DPTR
        SWAP    A
        ANL     A,#0xf
        MOV     R4,A
// 1350     uint16 SerialNumber =BUILD_UINT16(AppHead->sn[1],AppHead->sn[0]);
        MOV     DPL,R2
        MOV     DPH,R3
        INC     DPTR
        INC     DPTR
        INC     DPTR
        LCALL   ?Subroutine21 & 0xFFFF
??CrossCallReturnLabel_182:
        LCALL   ?Subroutine23 & 0xFFFF
// 1351     //uint16 SerialNumber =BUILD_UINT16(pkt[3],pkt[2]);
// 1352     
// 1353     if(ARM_ID==temp_arm_id && Zigbee_ID==temp_zigbee_id)
??CrossCallReturnLabel_64:
        MOV     DPTR,#ARM_ID
        LCALL   ?Subroutine21 & 0xFFFF
??CrossCallReturnLabel_183:
        INC     DPTR
        INC     DPTR
        MOVX    A,@DPTR
        ANL     A,#0xf
        XRL     A,R2
        JZ      $+5
        LJMP    ??p2p_test_recv_108clusterId_2 & 0xFFFF
        MOV     DPTR,#Zigbee_ID
        MOVX    A,@DPTR
        XRL     A,R4
        JZ      $+5
        LJMP    ??p2p_test_recv_108clusterId_2 & 0xFFFF
// 1354     {
// 1355     //  if(AppHead->TypeCode == TYPE_CODE_COMMAND_MODIFY_K)
// 1356   //    {
// 1357         uint8 sensor_type = pkt[6];
        MOV     DPL,?V0 + 2
        MOV     DPH,R3
        INC     DPTR
        INC     DPTR
        INC     DPTR
        INC     DPTR
        INC     DPTR
        INC     DPTR
        MOVX    A,@DPTR
        MOV     DPL,?XSP + 0
        MOV     DPH,?XSP + 1
        MOVX    @DPTR,A
// 1358         uint16 freq = BUILD_UINT16(pkt[7], 0x00);
        MOV     DPL,?V0 + 2
        MOV     DPH,R3
        INC     DPTR
        INC     DPTR
        INC     DPTR
        INC     DPTR
        INC     DPTR
        INC     DPTR
        INC     DPTR
        MOVX    A,@DPTR
        MOV     R6,A
// 1359         AppHeadNodeId_t *AppHeadNodeId=(AppHeadNodeId_t *)osal_msg_allocate(sizeof(AppHeadNodeId_t));
        ; Setup parameters for call to function osal_msg_allocate
        MOV     R2,#0x6
        MOV     R3,#0x0
        LCALL   ??osal_msg_allocate?relay
        MOV     ?V0 + 6,R2
        MOV     ?V0 + 7,R3
// 1360         //fill_AppHead((AppHead_t *)&AppHeadNodeId->AppHead,ACK_NO, MAIN_VERSION, SUB_VERSION,TYPE_ACK,TYPE_ACK_UP);
// 1361         fill_AppHead_sn((AppHead_t *)&AppHeadNodeId->AppHead,ACK_NO, MAIN_VERSION, SUB_VERSION,TYPE_ACK,TYPE_ACK_UP, SerialNumber);
        ; Setup parameters for call to function fill_AppHead_sn
        MOV     R0,#?V0 + 0
        LCALL   ?PUSH_XSTACK_I_TWO
        CFI CFA_XSP16 add(XSP16, 19)
        MOV     ?V0 + 0,#0x0
        MOV     R0,#?V0 + 0
        LCALL   ?PUSH_XSTACK_I_ONE
        CFI CFA_XSP16 add(XSP16, 20)
        MOV     ?V0 + 0,#0xf
        MOV     R0,#?V0 + 0
        LCALL   ?PUSH_XSTACK_I_ONE
        CFI CFA_XSP16 add(XSP16, 21)
        MOV     R5,#0x1
        MOV     R4,#0x0
        MOV     R1,#0x0
        LCALL   ??fill_AppHead_sn?relay
        MOV     A,#0x4
        LCALL   ?DEALLOC_XSTACK8
        CFI CFA_XSP16 add(XSP16, 17)
// 1362 
// 1363         AppHeadNodeId->NodeId.r=RES;
        LCALL   ?Subroutine36 & 0xFFFF
??CrossCallReturnLabel_103:
        PUSH    A
        CFI CFA_SP SP+-1
        LCALL   ?Subroutine25 & 0xFFFF
??CrossCallReturnLabel_66:
        POP     A
        CFI CFA_SP SP+0
        LCALL   ?Subroutine39 & 0xFFFF
// 1364         AppHeadNodeId->NodeId.ARM_id=ARM_ID;
??CrossCallReturnLabel_119:
        PUSH    A
        CFI CFA_SP SP+-1
        MOV     A,#-0x10
        ANL     A,R2
        MOV     R2,A
        POP     A
        CFI CFA_SP SP+0
        ORL     A,R2
        MOV     DPL,R0
        MOV     DPH,R1
        MOVX    @DPTR,A
// 1365         AppHeadNodeId->NodeId.Zigbee_id=Zigbee_ID;//
        MOV     A,?V0 + 6
        ADD     A,#0x5
        INC     R0
        MOV     A,?V0 + 7
        ADDC    A,#0x0
        MOV     R1,A
        MOV     DPTR,#Zigbee_ID
        MOVX    A,@DPTR
        SWAP    A
        ANL     A,#0xf0
        PUSH    A
        CFI CFA_SP SP+-1
        LCALL   ?Subroutine25 & 0xFFFF
??CrossCallReturnLabel_67:
        POP     A
        CFI CFA_SP SP+0
        ORL     A,R2
        MOVX    @DPTR,A
// 1366       //  uint16 freq=(uint16)pkt[7]
// 1367         
// 1368         switch (sensor_type)
        MOV     DPL,?XSP + 0
        MOV     DPH,?XSP + 1
        MOVX    A,@DPTR
        LCALL   ?UC_SWITCH_SPARSE
`?<Jumptable for p2p_test_recv_108clusterId>_0`:
        DATA
        DB        0
        DB        9
        DB        3
        DW        ??p2p_test_recv_108clusterId_3
        DB        7
        DW        ??p2p_test_recv_108clusterId_4
        DB        9
        DW        ??p2p_test_recv_108clusterId_5
        DB        10
        DW        ??p2p_test_recv_108clusterId_6
        DB        11
        DW        ??p2p_test_recv_108clusterId_7
        DB        12
        DW        ??p2p_test_recv_108clusterId_8
        DB        13
        DW        ??p2p_test_recv_108clusterId_9
        DB        14
        DW        ??p2p_test_recv_108clusterId_10
        DB        17
        DW        ??p2p_test_recv_108clusterId_11
        DW        ??CrossCallReturnLabel_13
        CODE
// 1369         {
// 1370        /*   
// 1371        case COMMAND_TYPE_RAIN:               //雨量K值
// 1372           if( (freq & 0x0080) == 0 )          //或者右移7位
// 1373             SendRainTimeFreq = freq;
// 1374           else
// 1375           {
// 1376             freq = freq &0x007F;
// 1377             SendRainTimeFreq = freq*60 ;
// 1378           }
// 1379           //SendRainTimeFreq = freq;
// 1380           osal_stop_timerEx(p2p_test_TaskID, p2p_test_SEND_RAIN_FREQ_MSG_EVT);
// 1381           SendRainRemainTime = 0;//send at once
// 1382           p2p_test_SendRainTimeFreqAndRequire(FREQ);   
// 1383           AppHeadNodeId->NodeId.sensor_type= RAIN_ID ;
// 1384           SendMsg((uint8 *)AppHeadNodeId,sizeof(AppHeadNodeId_t), p2p_test_DstAddr, AF_DISCV_ROUTE,p2p_test_108ID);
// 1385           break;
// 1386           
// 1387         case COMMAND_TYPE_RAIN_KVALUE:         //雨量N值
// 1388           SendRainCountFreq = freq;
// 1389           RainCountNum = 0;//reset  
// 1390           AppHeadNodeId->NodeId.sensor_type= RAIN_ID ;
// 1391           SendMsg((uint8 *)AppHeadNodeId,sizeof(AppHeadNodeId_t), p2p_test_DstAddr, AF_DISCV_ROUTE,p2p_test_108ID);
// 1392           break;
// 1393           
// 1394         case COMMAND_TYPE_SOIL_HUMIDITY:       //土壤湿度K值
// 1395 
// 1396           SendSoilHumidityTimeFreq = freq*60;
// 1397           osal_stop_timerEx(p2p_test_TaskID, p2p_test_SEND_SOIL_HUMIDITY_FREQ_MSG_EVT);
// 1398           SendSoilHumidityRemainTime = 0;//send at once
// 1399           p2p_test_SendSoilHumidityTimeFreqAndRequire(FREQ); 
// 1400           AppHeadNodeId->NodeId.sensor_type= SOIL_ID ;
// 1401           SendMsg((uint8 *)AppHeadNodeId,sizeof(AppHeadNodeId_t), p2p_test_DstAddr, AF_DISCV_ROUTE,p2p_test_108ID);
// 1402           break;
// 1403           
// 1404         case COMMAND_TYPE_VIBRATIO:             //振动K值
// 1405           SendAccelerometerTimeFreq=freq*60;
// 1406           osal_stop_timerEx(p2p_test_TaskID, p2p_test_SEND_ACCELEROMETER_FREQ_MSG_EVT);
// 1407           SendAccelerometerRemainTime = 0;      //send at once
// 1408           AppHeadNodeId->NodeId.sensor_type= EARTHQUAKE_ID ;
// 1409           p2p_test_SendAccelerometerTimeFreqAndRequire(FREQ);
// 1410           SendMsg((uint8 *)AppHeadNodeId,sizeof(AppHeadNodeId_t), p2p_test_DstAddr, AF_DISCV_ROUTE,p2p_test_108ID);
// 1411           break;
// 1412           */
// 1413           
// 1414         case COMMAND_TYPE_WATER_GAGE:            //水位K值
// 1415 
// 1416           SendWaterGageTimeFreq= freq*60;
??p2p_test_recv_108clusterId_3:
        MOV     A,R6
        MOV     B,#0x3c
        MUL     AB
        MOV     DPTR,#SendWaterGageTimeFreq
        LCALL   ?Subroutine1 & 0xFFFF
// 1417           //osal_stop_timerEx(p2p_test_TaskID, p2p_test_SEND_WATER_GAGE_MSG_EVT);
// 1418           //SendWaterGageRemainTime=0;
// 1419           AppHeadNodeId->NodeId.sensor_type= WATER_GAGE_ID ;
// 1420           //p2p_test_Send_Water_Gage(FREQ,WaterGageUnit);
// 1421           SendMsg((uint8 *)AppHeadNodeId,sizeof(AppHeadNodeId_t), p2p_test_DstAddr, AF_DISCV_ROUTE,p2p_test_108ID);
??CrossCallReturnLabel_165:
        LCALL   ?PUSH_XSTACK_I_TWO
        CFI CFA_XSP16 add(XSP16, 19)
        MOV     DPTR,#p2p_test_DstAddr
        MOV     A,#0x4
        LCALL   ?PUSH_XSTACK8_X
        CFI CFA_XSP16 add(XSP16, 23)
        LCALL   ?Subroutine38 & 0xFFFF
??CrossCallReturnLabel_107:
        LCALL   ?DEALLOC_XSTACK8
        CFI CFA_XSP16 add(XSP16, 17)
// 1422 #if DEBUG
// 1423           HalUARTWrite_uint16(SendWaterGageTimeFreq);
        ; Setup parameters for call to function HalUARTWrite_uint16
        MOV     DPTR,#SendWaterGageTimeFreq
??p2p_test_recv_108clusterId_12:
        LCALL   ??Subroutine3_0 & 0xFFFF
// 1424 #endif             
// 1425           break;
// 1426           
// 1427         case COMMAND_TYPE_WATER_HIGHTYPE:          //水位计数据类型
// 1428           WaterGageUnit = BUILD_UINT16(pkt[7],0x00 );
// 1429           //osal_stop_timerEx(p2p_test_TaskID, p2p_test_SEND_WATER_GAGE_MSG_EVT);
// 1430           //SendWaterGageRemainTime=0;
// 1431           AppHeadNodeId->NodeId.sensor_type= WATER_GAGE_ID ;
// 1432           //p2p_test_Send_Water_Gage(FREQ,WaterGageUnit);
// 1433           SendMsg((uint8 *)AppHeadNodeId,sizeof(AppHeadNodeId_t), p2p_test_DstAddr, AF_DISCV_ROUTE,p2p_test_108ID);
// 1434 #if DEBUG
// 1435           HalUARTWrite_uint16(WaterGageUnit);
// 1436 #endif          
// 1437           break;
// 1438           
// 1439         case COMMAND_TYPE_WATER_T:                  //水位计自适应采集周期增加间隔T取值
// 1440           Water_gage_time = BUILD_UINT16(pkt[7],0x00 )*60;   
// 1441           AppHeadNodeId->NodeId.sensor_type= WATER_GAGE_ID ;
// 1442           SendMsg((uint8 *)AppHeadNodeId,sizeof(AppHeadNodeId_t), p2p_test_DstAddr, AF_DISCV_ROUTE,p2p_test_108ID);
// 1443 #if DEBUG
// 1444           HalUARTWrite(0,&pkt[7], sizeof(pkt[7]));
// 1445 #endif
// 1446           break;
// 1447           
// 1448         case COMMAND_TYPE_WATER_EDGE_A:              //水位计自适应边界取值A
// 1449           Water_gage_err_a = pkt[7];
// 1450           AppHeadNodeId->NodeId.sensor_type= WATER_GAGE_ID ;
// 1451           SendMsg((uint8 *)AppHeadNodeId,sizeof(AppHeadNodeId_t), p2p_test_DstAddr, AF_DISCV_ROUTE,p2p_test_108ID);
// 1452 #if DEBUG
// 1453           HalUARTWrite(0,&Water_gage_err_a, sizeof(Water_gage_err_a));
// 1454 #endif
// 1455           
// 1456           break;
// 1457           
// 1458         case COMMAND_TYPE_WATER_EDGE_B:               //水位计自适应边界取值B
// 1459           Water_gage_err_b = pkt[7];
// 1460           AppHeadNodeId->NodeId.sensor_type= WATER_GAGE_ID ;
// 1461           SendMsg((uint8 *)AppHeadNodeId,sizeof(AppHeadNodeId_t), p2p_test_DstAddr, AF_DISCV_ROUTE,p2p_test_108ID);          
// 1462 #if DEBUG
// 1463           HalUARTWrite(0,&Water_gage_err_b, sizeof(Water_gage_err_b));
// 1464 #endif
// 1465           break;
// 1466           
// 1467         case COMMAND_TYPE_WATER_EDGE_C:               //水位计自适应边界取值C
// 1468           Water_gage_err_c = pkt[7];
// 1469           AppHeadNodeId->NodeId.sensor_type= WATER_GAGE_ID ;
// 1470           SendMsg((uint8 *)AppHeadNodeId,sizeof(AppHeadNodeId_t), p2p_test_DstAddr, AF_DISCV_ROUTE,p2p_test_108ID);          
// 1471 #if DEBUG
// 1472           HalUARTWrite(0,&Water_gage_err_c, sizeof(Water_gage_err_c));
// 1473 #endif
// 1474           break;
// 1475           
// 1476         case COMMAND_TYPE_ZIGBEE_RESTART:             //zigbee重启的设置
// 1477           {
// 1478           AppHeadNodeId->NodeId.sensor_type= WATER_GAGE_ID ;
// 1479           SendMsg((uint8 *)AppHeadNodeId,sizeof(AppHeadNodeId_t), p2p_test_DstAddr, AF_DISCV_ROUTE,p2p_test_108ID);   
// 1480         
// 1481 /*          Zigbee_Restart_Command_t *pkt_zst = (Zigbee_Restart_Command_t *)pkt;
// 1482        
// 1483           WaterGageUnit = pkt_zst->water_gage_type;
// 1484           SendWaterGageTimeFreq = pkt_zst-> water_gage_freq;
// 1485           Water_gage_time = pkt_zst-> water_gage_T;
// 1486           Water_gage_err_a = pkt_zst-> water_gage_A;
// 1487           Water_gage_err_b = pkt_zst-> water_gage_B;
// 1488           Water_gage_err_c = pkt_zst-> water_gage_C;  
// 1489 */
// 1490          // osal_stop_timerEx(p2p_test_TaskID, p2p_test_SEND_WATER_GAGE_MSG_EVT);
// 1491           WaterGageUnit = BUILD_UINT16(pkt[8],pkt[7]);
// 1492           SendWaterGageTimeFreq = BUILD_UINT16(pkt[10],pkt[9])*60;
// 1493           Water_gage_time = BUILD_UINT16(pkt[12],pkt[11])*60;
// 1494           Water_gage_err_a = pkt[13];
// 1495           Water_gage_err_b = pkt[14];
// 1496           Water_gage_err_c = pkt[15];
// 1497         
// 1498 #if DEBUG
// 1499           HalUARTWrite_uint16(WaterGageUnit);
// 1500           HalUARTWrite_uint16(SendWaterGageTimeFreq);
// 1501           HalUARTWrite_uint16(Water_gage_time);
// 1502           HalUARTWrite(0,&Water_gage_err_a, sizeof(Water_gage_err_a));        
// 1503           HalUARTWrite(0,&Water_gage_err_b, sizeof(Water_gage_err_b));          
// 1504           HalUARTWrite(0,&Water_gage_err_c, sizeof(Water_gage_err_c));
// 1505 #endif   
// 1506           }
// 1507           break ;
// 1508           
// 1509         case COMMAND_TYPE_ACCEPTANCE:
// 1510           acceptance = pkt[7] ;
// 1511           AppHeadNodeId->NodeId.sensor_type= WATER_GAGE_ID ;
// 1512           SendMsg((uint8 *)AppHeadNodeId,sizeof(AppHeadNodeId_t), p2p_test_DstAddr, AF_DISCV_ROUTE,p2p_test_108ID);          
// 1513 #if DEBUG
// 1514           HalUARTWrite(0,&acceptance, sizeof(acceptance));
// 1515 #endif
// 1516           break;
// 1517           
// 1518         case COMMAND_TYPE_ZIGBEE_RESTART_COMMAND:
// 1519           AppHeadNodeId->NodeId.sensor_type= WATER_GAGE_ID ;
// 1520           SendMsg((uint8 *)AppHeadNodeId,sizeof(AppHeadNodeId_t), p2p_test_DstAddr, AF_DISCV_ROUTE,p2p_test_108ID);          
// 1521 #if DEBUG
// 1522           HalUARTWrite(0,&pkt[7], sizeof(pkt[7]));
// 1523 #endif      
// 1524           halWait(100);
// 1525           SystemReset();
// 1526           
// 1527         default :
// 1528           break;
// 1529          
// 1530         }
// 1531         
// 1532         osal_msg_deallocate((uint8 *)AppHeadNodeId); 
??CrossCallReturnLabel_13:
        ; Setup parameters for call to function osal_msg_deallocate
        MOV     R2,?V0 + 6
        MOV     R3,?V0 + 7
        LCALL   ??osal_msg_deallocate?relay
// 1533         return;
??p2p_test_recv_108clusterId_2:
        MOV     A,#0x1
        LJMP    ?Subroutine53 & 0xFFFF
??p2p_test_recv_108clusterId_4:
        MOV     DPL,?V0 + 2
        MOV     DPH,?V0 + 3
        INC     DPTR
        INC     DPTR
        INC     DPTR
        INC     DPTR
        INC     DPTR
        INC     DPTR
        INC     DPTR
        MOVX    A,@DPTR
        MOV     DPTR,#WaterGageUnit
        MOVX    @DPTR,A
        INC     DPTR
        CLR     A
        LCALL   ??Subroutine1_0 & 0xFFFF
??CrossCallReturnLabel_167:
        LCALL   ?PUSH_XSTACK_I_TWO
        CFI CFA_XSP16 add(XSP16, 19)
        MOV     DPTR,#p2p_test_DstAddr
        MOV     A,#0x4
        LCALL   ?PUSH_XSTACK8_X
        CFI CFA_XSP16 add(XSP16, 23)
        LCALL   ?Subroutine38 & 0xFFFF
??CrossCallReturnLabel_108:
        LCALL   ?DEALLOC_XSTACK8
        CFI CFA_XSP16 add(XSP16, 17)
        ; Setup parameters for call to function HalUARTWrite_uint16
        MOV     DPTR,#WaterGageUnit
        SJMP    ??p2p_test_recv_108clusterId_12
??p2p_test_recv_108clusterId_5:
        MOV     A,?V0 + 2
        ADD     A,#0x7
        MOV     R6,A
        MOV     A,?V0 + 3
        LCALL   ?Subroutine37 & 0xFFFF
??CrossCallReturnLabel_105:
        MOV     B,#0x3c
        MUL     AB
        MOV     DPTR,#Water_gage_time
        LCALL   ?Subroutine1 & 0xFFFF
??CrossCallReturnLabel_166:
        LCALL   ?PUSH_XSTACK_I_TWO
        CFI CFA_XSP16 add(XSP16, 19)
        MOV     DPTR,#p2p_test_DstAddr
        MOV     A,#0x4
        LCALL   ?PUSH_XSTACK8_X
        CFI CFA_XSP16 add(XSP16, 23)
        LCALL   ?Subroutine38 & 0xFFFF
??CrossCallReturnLabel_109:
        LCALL   ?DEALLOC_XSTACK8
        CFI CFA_XSP16 add(XSP16, 17)
        ; Setup parameters for call to function HalUARTWrite
        MOV     R4,#0x1
        MOV     R5,#0x0
        MOV     A,R6
        MOV     R2,A
        MOV     A,R7
        MOV     R3,A
??p2p_test_recv_108clusterId_13:
        MOV     R1,#0x0
        LCALL   ??HalUARTWrite?relay
        SJMP    ??CrossCallReturnLabel_13
??p2p_test_recv_108clusterId_6:
        MOV     DPL,?V0 + 2
        MOV     DPH,?V0 + 3
        INC     DPTR
        INC     DPTR
        INC     DPTR
        INC     DPTR
        INC     DPTR
        INC     DPTR
        INC     DPTR
        MOVX    A,@DPTR
        MOV     DPTR,#Water_gage_err_a
