///////////////////////////////////////////////////////////////////////////////
//                                                                            /
// IAR 8051 C/C++ Compiler V7.30B/W32                   28/Oct/2013  18:58:34 /
// Copyright 2004-2007 IAR Systems. All rights reserved.                      /
//                                                                            /
//    Core               =  plain                                             /
//    Code model         =  banked                                            /
//    Data model         =  large                                             /
//    Calling convention =  xdata reentrant                                   /
//    Constant location  =  data                                              /
//    Dptr setup         =  1,16                                              /
//    Source file        =  C:\8-22\修改中2013.8.12Texas Instruments          /
//                          longmenshan\ZStack-1.4.3-1.2.1\Components\hal\tar /
//                          get\CC2430EB\hal_uart.c                           /
//    Command line       =  -f "C:\8-22\修改中2013.8.12Texas Instruments      /
//                          longmenshan\ZStack-1.4.3-1.2.1\Projects\zstack\Sa /
//                          mples\network formaton\CC2430DB\..\..\..\Tools\CC /
//                          2430DB\f8wCoord.cfg" (-DCPU32MHZ                  /
//                          -DFORCE_MAC_NEAR -DROOT=__near_func               /
//                          -DMAC_CFG_APP_PENDING_QUEUE=TRUE                  /
//                          -DZDO_COORDINATOR -DRTR_NWK -DBLINK_LEDS          /
//                          "-DCONST=const __code" -DGENERIC=__generic) -f    /
//                          "C:\8-22\修改中2013.8.12Texas Instruments         /
//                          longmenshan\ZStack-1.4.3-1.2.1\Projects\zstack\Sa /
//                          mples\network formaton\CC2430DB\..\..\..\Tools\CC /
//                          2430DB\f8wConfig.cfg" (-DSECURE=0                 /
//                          -DDEFAULT_CHANLIST=0x00000800                     /
//                          -DZDAPP_CONFIG_PAN_ID=0x1234                      /
//                          -DNWK_START_DELAY=100 -DEXTENDED_JOINING_RANDOM_M /
//                          ASK=0x007F -DBEACON_REQUEST_DELAY=100             /
//                          -DBEACON_REQ_DELAY_MASK=0x00FF                    /
//                          -DROUTE_EXPIRY_TIME=30 -DAPSC_ACK_WAIT_DURATION_P /
//                          OLLED=3000 -DNWK_INDIRECT_MSG_TIMEOUT=30          /
//                          -DMAX_RREQ_ENTRIES=10 -DAPSC_MAX_FRAME_RETRIES=3  /
//                          -DNWK_MAX_DATA_RETRIES=2                          /
//                          -DMAX_POLL_FAILURE_RETRIES=2 -DMAX_BCAST=9        /
//                          -DAPS_MAX_GROUPS=16 -DMAX_RTG_ENTRIES=20          /
//                          -DNWK_MAX_BINDING_ENTRIES=10                      /
//                          -DMAX_BINDING_CLUSTER_IDS=5                       /
//                          "-DDEFAULT_KEY={0x01, 0x03, 0x05, 0x07, 0x09,     /
//                          0x0B, 0x0D, 0x0F, 0x00, 0x02, 0x04, 0x06, 0x08,   /
//                          0x0A, 0x0C, 0x0D}" -DRFD_RCVC_ALWAYS_ON=FALSE     /
//                          -DPOLL_RATE=10000 -DQUEUED_POLL_RATE=100          /
//                          -DRESPONSE_POLL_RATE=100) -DREJOIN_POLL_RATE=440  /
//                          "C:\8-22\修改中2013.8.12Texas Instruments         /
//                          longmenshan\ZStack-1.4.3-1.2.1\Components\hal\tar /
//                          get\CC2430EB\hal_uart.c" -D CC2430EB -D           /
//                          xREFLECTOR -D ZTOOL_P1 -D MT_TASK -D MT_ZDO_FUNC  /
//                          -D xLCD_SUPPORTED=DEBUG -D NV_RESTORE -lC         /
//                          "C:\8-22\修改中2013.8.12Texas Instruments         /
//                          longmenshan\ZStack-1.4.3-1.2.1\Projects\zstack\Sa /
//                          mples\network formaton\CC2430DB\CoordinatorEB\Lis /
//                          t\" -lA "C:\8-22\修改中2013.8.12Texas             /
//                          Instruments longmenshan\ZStack-1.4.3-1.2.1\Projec /
//                          ts\zstack\Samples\network                         /
//                          formaton\CC2430DB\CoordinatorEB\List\"            /
//                          --diag_suppress Pe001,Pa010 --diag_remark pe550   /
//                          -o "C:\8-22\修改中2013.8.12Texas Instruments      /
//                          longmenshan\ZStack-1.4.3-1.2.1\Projects\zstack\Sa /
//                          mples\network formaton\CC2430DB\CoordinatorEB\Obj /
//                          \" -e --require_prototypes -z9 --no_code_motion   /
//                          --debug --core=plain --dptr=16,1                  /
//                          --data_model=large --code_model=banked            /
//                          --calling_convention=xdata_reentrant              /
//                          --place_constants=data --nr_virtual_regs 8 -I     /
//                          "C:\8-22\修改中2013.8.12Texas Instruments         /
//                          longmenshan\ZStack-1.4.3-1.2.1\Projects\zstack\Sa /
//                          mples\network formaton\CC2430DB\" -I              /
//                          "C:\8-22\修改中2013.8.12Texas Instruments         /
//                          longmenshan\ZStack-1.4.3-1.2.1\Projects\zstack\Sa /
//                          mples\network formaton\CC2430DB\..\SOURCE\" -I    /
//                          "C:\8-22\修改中2013.8.12Texas Instruments         /
//                          longmenshan\ZStack-1.4.3-1.2.1\Projects\zstack\Sa /
//                          mples\network formaton\CC2430DB\..\..\..\ZMAIN\TI /
//                          2430DB\" -I "C:\8-22\修改中2013.8.12Texas         /
//                          Instruments longmenshan\ZStack-1.4.3-1.2.1\Projec /
//                          ts\zstack\Samples\network                         /
//                          formaton\CC2430DB\..\..\..\..\..\COMPONENTS\MT\"  /
//                          -I "C:\8-22\修改中2013.8.12Texas Instruments      /
//                          longmenshan\ZStack-1.4.3-1.2.1\Projects\zstack\Sa /
//                          mples\network formaton\CC2430DB\..\..\..\..\..\CO /
//                          MPONENTS\HAL\INCLUDE\" -I                         /
//                          "C:\8-22\修改中2013.8.12Texas Instruments         /
//                          longmenshan\ZStack-1.4.3-1.2.1\Projects\zstack\Sa /
//                          mples\network formaton\CC2430DB\..\..\..\..\..\CO /
//                          MPONENTS\HAL\TARGET\CC2430EB\" -I                 /
//                          "C:\8-22\修改中2013.8.12Texas Instruments         /
//                          longmenshan\ZStack-1.4.3-1.2.1\Projects\zstack\Sa /
//                          mples\network formaton\CC2430DB\..\..\..\..\..\CO /
//                          MPONENTS\OSAL\MCU\CCSOC\" -I                      /
//                          "C:\8-22\修改中2013.8.12Texas Instruments         /
//                          longmenshan\ZStack-1.4.3-1.2.1\Projects\zstack\Sa /
//                          mples\network formaton\CC2430DB\..\..\..\..\..\CO /
//                          MPONENTS\OSAL\INCLUDE\" -I                        /
//                          "C:\8-22\修改中2013.8.12Texas Instruments         /
//                          longmenshan\ZStack-1.4.3-1.2.1\Projects\zstack\Sa /
//                          mples\network formaton\CC2430DB\..\..\..\..\..\CO /
//                          MPONENTS\STACK\AF\" -I "C:\8-22\修改中2013.8.12Te /
//                          xas Instruments longmenshan\ZStack-1.4.3-1.2.1\Pr /
//                          ojects\zstack\Samples\network                     /
//                          formaton\CC2430DB\..\..\..\..\..\COMPONENTS\STACK /
//                          \NWK\" -I "C:\8-22\修改中2013.8.12Texas           /
//                          Instruments longmenshan\ZStack-1.4.3-1.2.1\Projec /
//                          ts\zstack\Samples\network                         /
//                          formaton\CC2430DB\..\..\..\..\..\COMPONENTS\STACK /
//                          \SEC\" -I "C:\8-22\修改中2013.8.12Texas           /
//                          Instruments longmenshan\ZStack-1.4.3-1.2.1\Projec /
//                          ts\zstack\Samples\network                         /
//                          formaton\CC2430DB\..\..\..\..\..\COMPONENTS\STACK /
//                          \SYS\" -I "C:\8-22\修改中2013.8.12Texas           /
//                          Instruments longmenshan\ZStack-1.4.3-1.2.1\Projec /
//                          ts\zstack\Samples\network                         /
//                          formaton\CC2430DB\..\..\..\..\..\COMPONENTS\STACK /
//                          \ZDO\" -I "C:\8-22\修改中2013.8.12Texas           /
//                          Instruments longmenshan\ZStack-1.4.3-1.2.1\Projec /
//                          ts\zstack\Samples\network                         /
//                          formaton\CC2430DB\..\..\..\..\..\COMPONENTS\ZMAC\ /
//                          F8W\" -I "C:\8-22\修改中2013.8.12Texas            /
//                          Instruments longmenshan\ZStack-1.4.3-1.2.1\Projec /
//                          ts\zstack\Samples\network                         /
//                          formaton\CC2430DB\..\..\..\..\..\COMPONENTS\ZMAC\ /
//                          " -I "C:\8-22\修改中2013.8.12Texas Instruments    /
//                          longmenshan\ZStack-1.4.3-1.2.1\Projects\zstack\Sa /
//                          mples\network formaton\CC2430DB\..\..\..\..\..\CO /
//                          MPONENTS\SERVICES\SADDR\" -I                      /
//                          "C:\8-22\修改中2013.8.12Texas Instruments         /
//                          longmenshan\ZStack-1.4.3-1.2.1\Projects\zstack\Sa /
//                          mples\network formaton\CC2430DB\..\..\..\..\..\CO /
//                          MPONENTS\SERVICES\SDATA\" -I                      /
//                          "C:\8-22\修改中2013.8.12Texas Instruments         /
//                          longmenshan\ZStack-1.4.3-1.2.1\Projects\zstack\Sa /
//                          mples\network formaton\CC2430DB\..\..\..\..\..\CO /
//                          MPONENTS\MAC\INCLUDE\" -I                         /
//                          "C:\8-22\修改中2013.8.12Texas Instruments         /
//                          longmenshan\ZStack-1.4.3-1.2.1\Projects\zstack\Sa /
//                          mples\network formaton\CC2430DB\..\..\..\..\..\CO /
//                          MPONENTS\MAC\HIGH_LEVEL\" -I                      /
//                          "C:\8-22\修改中2013.8.12Texas Instruments         /
//                          longmenshan\ZStack-1.4.3-1.2.1\Projects\zstack\Sa /
//                          mples\network formaton\CC2430DB\..\..\..\..\..\CO /
//                          MPONENTS\MAC\LOW_LEVEL\SRF03\" -I                 /
//                          "C:\8-22\修改中2013.8.12Texas Instruments         /
//                          longmenshan\ZStack-1.4.3-1.2.1\Projects\zstack\Sa /
//                          mples\network formaton\CC2430DB\..\..\..\..\..\CO /
//                          MPONENTS\MAC\LOW_LEVEL\SRF03\SINGLE_CHIP\" -I     /
//                          "C:\Program Files\IAR Systems\Embedded Workbench  /
//                          4.0 Evaluation version\8051\INC\" -I "C:\Program  /
//                          Files\IAR Systems\Embedded Workbench 4.0          /
//                          Evaluation version\8051\INC\CLIB\"                /
//    List file          =  C:\8-22\修改中2013.8.12Texas Instruments          /
//                          longmenshan\ZStack-1.4.3-1.2.1\Projects\zstack\Sa /
//                          mples\network formaton\CC2430DB\CoordinatorEB\Lis /
//                          t\hal_uart.s51                                    /
//                                                                            /
//                                                                            /
///////////////////////////////////////////////////////////////////////////////

        NAME hal_uart

        RTMODEL "__calling_convention", "xdata_reentrant"
        RTMODEL "__code_model", "banked"
        RTMODEL "__core", "plain"
        RTMODEL "__data_model", "large"
        RTMODEL "__dptr_size", "16"
        RTMODEL "__extended_stack", "disabled"
        RTMODEL "__location_for_constants", "data"
        RTMODEL "__number_of_dptrs", "1"
        RTMODEL "__rt_version", "1"

        RSEG DOVERLAY:DATA:NOROOT(0)
        RSEG IOVERLAY:IDATA:NOROOT(0)
        RSEG ISTACK:IDATA:NOROOT(0)
        RSEG PSTACK:XDATA:NOROOT(0)
        RSEG XSTACK:XDATA:NOROOT(0)

        EXTERN ??pollISR?relay
        EXTERN ?BANKED_ENTER_XDATA
        EXTERN ?BANKED_LEAVE_XDATA
        EXTERN ?BDISPATCH
        EXTERN ?BRET
        EXTERN ?CALL_IND
        EXTERN ?V0
        EXTERN __INIT_XDATA_Z

        PUBLIC ??HalUARTClose?relay
        FUNCTION ??HalUARTClose?relay,0203H
        PUBLIC ??HalUARTInit?relay
        FUNCTION ??HalUARTInit?relay,0203H
        PUBLIC ??HalUARTOpen?relay
        FUNCTION ??HalUARTOpen?relay,0203H
        PUBLIC ??HalUARTPoll?relay
        FUNCTION ??HalUARTPoll?relay,0203H
        PUBLIC ??HalUARTRead?relay
        FUNCTION ??HalUARTRead?relay,0203H
        PUBLIC ??HalUARTWrite?relay
        FUNCTION ??HalUARTWrite?relay,0203H
        PUBLIC ??Hal_UART_RxBufLen?relay
        FUNCTION ??Hal_UART_RxBufLen?relay,0203H
        PUBWEAK `??halUart0RxIsr??INTVEC 19`
        PUBWEAK `??halUart0TxIsr??INTVEC 59`
        PUBWEAK `??halUart1RxIsr??INTVEC 27`
        PUBWEAK `??halUart1TxIsr??INTVEC 115`
        FUNCTION ??pollISR?relay,0203H
        PUBWEAK ADCCFG
        PUBLIC HalUARTClose
        FUNCTION HalUARTClose,0203H
        ARGFRAME XSTACK, 0, STACK
        PUBLIC HalUARTInit
        FUNCTION HalUARTInit,0203H
        ARGFRAME XSTACK, 0, STACK
        PUBLIC HalUARTOpen
        FUNCTION HalUARTOpen,021203H
        ARGFRAME XSTACK, 0, STACK
        LOCFRAME ISTACK, 1, STACK
        LOCFRAME XSTACK, 14, STACK
        PUBLIC HalUARTPoll
        FUNCTION HalUARTPoll,021203H
        ARGFRAME XSTACK, 0, STACK
        LOCFRAME ISTACK, 1, STACK
        LOCFRAME XSTACK, 10, STACK
        PUBLIC HalUARTRead
        FUNCTION HalUARTRead,0203H
        ARGFRAME XSTACK, 0, STACK
        LOCFRAME ISTACK, 2, STACK
        LOCFRAME XSTACK, 12, STACK
        PUBLIC HalUARTWrite
        FUNCTION HalUARTWrite,0203H
        ARGFRAME XSTACK, 0, STACK
        LOCFRAME ISTACK, 1, STACK
        LOCFRAME XSTACK, 12, STACK
        PUBLIC Hal_UART_RxBufLen
        FUNCTION Hal_UART_RxBufLen,0203H
        ARGFRAME XSTACK, 0, STACK
        LOCFRAME ISTACK, 3, STACK
        PUBWEAK IEN2
        PUBWEAK P0DIR
        PUBWEAK P0SEL
        PUBWEAK P1DIR
        PUBWEAK P1SEL
        PUBWEAK P2DIR
        PUBWEAK PERCFG
        PUBWEAK ST0
        PUBWEAK U0BAUD
        PUBWEAK U0CSR
        PUBWEAK U0DBUF
        PUBWEAK U0GCR
        PUBWEAK U0UCR
        PUBWEAK U1BAUD
        PUBWEAK U1DBUF
        PUBWEAK U1GCR
        PUBWEAK U1UCR
        PUBWEAK _A_IEN0
        PUBWEAK _A_IRCON2
        PUBWEAK _A_P0
        PUBWEAK _A_P1
        PUBWEAK _A_U1CSR
        PUBLIC halUart0RxIsr
        FUNCTION halUart0RxIsr,0233H
        ARGFRAME XSTACK, 0, STACK
        LOCFRAME ISTACK, 8, STACK
        PUBLIC halUart0TxIsr
        FUNCTION halUart0TxIsr,0233H
        ARGFRAME XSTACK, 0, STACK
        LOCFRAME ISTACK, 8, STACK
        PUBLIC halUart1RxIsr
        FUNCTION halUart1RxIsr,0233H
        ARGFRAME XSTACK, 0, STACK
        LOCFRAME ISTACK, 8, STACK
        PUBLIC halUart1TxIsr
        FUNCTION halUart1TxIsr,0233H
        ARGFRAME XSTACK, 0, STACK
        LOCFRAME ISTACK, 8, STACK
        FUNCTION pollISR,0203H
        ARGFRAME XSTACK, 10, STACK
        ARGFRAME IOVERLAY, 0, STATIC
        ARGFRAME DOVERLAY, 0, STATIC
        LOCFRAME ISTACK, 2, STACK
        LOCFRAME XSTACK, 9, STACK
        
        CFI Names cfiNames0
        CFI StackFrame CFA_SP SP DATA
        CFI StackFrame CFA_PSP16 PSP16 XDATA
        CFI StackFrame CFA_XSP16 XSP16 XDATA
        CFI StaticOverlayFrame CFA_IOVERLAY IOVERLAY
        CFI StaticOverlayFrame CFA_DOVERLAY DOVERLAY
        CFI Resource `PSW.CY`:1, `B.BR0`:1, `B.BR1`:1, `B.BR2`:1, `B.BR3`:1
        CFI Resource `B.BR4`:1, `B.BR5`:1, `B.BR6`:1, `B.BR7`:1, `VB.BR8`:1
        CFI Resource `VB.BR9`:1, `VB.BR10`:1, `VB.BR11`:1, `VB.BR12`:1
        CFI Resource `VB.BR13`:1, `VB.BR14`:1, `VB.BR15`:1, VB:8, B:8, A:8
        CFI Resource PSW:8, DPL0:8, DPH0:8, R0:8, R1:8, R2:8, R3:8, R4:8, R5:8
        CFI Resource R6:8, R7:8, V0:8, V1:8, V2:8, V3:8, V4:8, V5:8, V6:8, V7:8
        CFI Resource SP:8, PSPH:8, PSPL:8, PSP16:16, XSPH:8, XSPL:8, XSP16:16
        CFI VirtualResource ?RET:24
        CFI Resource ?BRET_EXT:8
        CFI VirtualResource ?RET_HIGH:8, ?RET_LOW:8
        CFI ResourceParts PSP16 PSPH, PSPL
        CFI ResourceParts XSP16 XSPH, XSPL
        CFI ResourceParts ?RET ?BRET_EXT, ?RET_HIGH, ?RET_LOW
        CFI EndNames cfiNames0
        
        CFI Common cfiCommon0 Using cfiNames0
        CFI CodeAlign 1
        CFI DataAlign -1
        CFI ReturnAddress ?RET CODE
        CFI CFA_DOVERLAY Used
        CFI CFA_IOVERLAY Used
        CFI CFA_SP SP+-3
        CFI CFA_PSP16 PSP16+0
        CFI CFA_XSP16 XSP16+0
        CFI `PSW.CY` SameValue
        CFI `B.BR0` SameValue
        CFI `B.BR1` SameValue
        CFI `B.BR2` SameValue
        CFI `B.BR3` SameValue
        CFI `B.BR4` SameValue
        CFI `B.BR5` SameValue
        CFI `B.BR6` SameValue
        CFI `B.BR7` SameValue
        CFI `VB.BR8` SameValue
        CFI `VB.BR9` SameValue
        CFI `VB.BR10` SameValue
        CFI `VB.BR11` SameValue
        CFI `VB.BR12` SameValue
        CFI `VB.BR13` SameValue
        CFI `VB.BR14` SameValue
        CFI `VB.BR15` SameValue
        CFI VB SameValue
        CFI B Undefined
        CFI A Undefined
        CFI PSW SameValue
        CFI DPL0 SameValue
        CFI DPH0 SameValue
        CFI R0 Undefined
        CFI R1 Undefined
        CFI R2 Undefined
        CFI R3 Undefined
        CFI R4 Undefined
        CFI R5 Undefined
        CFI R6 SameValue
        CFI R7 SameValue
        CFI V0 SameValue
        CFI V1 SameValue
        CFI V2 SameValue
        CFI V3 SameValue
        CFI V4 SameValue
        CFI V5 SameValue
        CFI V6 SameValue
        CFI V7 SameValue
        CFI PSPH Undefined
        CFI PSPL Undefined
        CFI XSPH Undefined
        CFI XSPL Undefined
        CFI ?RET Concat
        CFI ?BRET_EXT Frame(CFA_SP, 3)
        CFI ?RET_HIGH Frame(CFA_SP, 2)
        CFI ?RET_LOW Frame(CFA_SP, 1)
        CFI EndCommon cfiCommon0
        
        
        CFI Common cfiCommon1 Using cfiNames0
        CFI CodeAlign 1
        CFI DataAlign -1
        CFI ReturnAddress ?RET CODE
        CFI CFA_DOVERLAY Used
        CFI CFA_IOVERLAY Used
        CFI CFA_SP SP+-2
        CFI CFA_PSP16 PSP16+0
        CFI CFA_XSP16 XSP16+0
        CFI `PSW.CY` SameValue
        CFI `B.BR0` SameValue
        CFI `B.BR1` SameValue
        CFI `B.BR2` SameValue
        CFI `B.BR3` SameValue
        CFI `B.BR4` SameValue
        CFI `B.BR5` SameValue
        CFI `B.BR6` SameValue
        CFI `B.BR7` SameValue
        CFI `VB.BR8` SameValue
        CFI `VB.BR9` SameValue
        CFI `VB.BR10` SameValue
        CFI `VB.BR11` SameValue
        CFI `VB.BR12` SameValue
        CFI `VB.BR13` SameValue
        CFI `VB.BR14` SameValue
        CFI `VB.BR15` SameValue
        CFI VB SameValue
        CFI B SameValue
        CFI A SameValue
        CFI PSW SameValue
        CFI DPL0 SameValue
        CFI DPH0 SameValue
        CFI R0 SameValue
        CFI R1 SameValue
        CFI R2 SameValue
        CFI R3 SameValue
        CFI R4 SameValue
        CFI R5 SameValue
        CFI R6 SameValue
        CFI R7 SameValue
        CFI V0 SameValue
        CFI V1 SameValue
        CFI V2 SameValue
        CFI V3 SameValue
        CFI V4 SameValue
        CFI V5 SameValue
        CFI V6 SameValue
        CFI V7 SameValue
        CFI PSPH Undefined
        CFI PSPL Undefined
        CFI XSPH Undefined
        CFI XSPL Undefined
        CFI ?RET Concat
        CFI ?BRET_EXT SameValue
        CFI ?RET_HIGH Frame(CFA_SP, 2)
        CFI ?RET_LOW Frame(CFA_SP, 1)
        CFI EndCommon cfiCommon1
        
osal_mem_alloc      SYMBOL "osal_mem_alloc"
??osal_mem_alloc?relay SYMBOL "?relay", osal_mem_alloc
HalUARTClose        SYMBOL "HalUARTClose"
??HalUARTClose?relay SYMBOL "?relay", HalUARTClose
HalUARTInit         SYMBOL "HalUARTInit"
??HalUARTInit?relay SYMBOL "?relay", HalUARTInit
HalUARTOpen         SYMBOL "HalUARTOpen"
??HalUARTOpen?relay SYMBOL "?relay", HalUARTOpen
HalUARTPoll         SYMBOL "HalUARTPoll"
??HalUARTPoll?relay SYMBOL "?relay", HalUARTPoll
HalUARTRead         SYMBOL "HalUARTRead"
??HalUARTRead?relay SYMBOL "?relay", HalUARTRead
HalUARTWrite        SYMBOL "HalUARTWrite"
??HalUARTWrite?relay SYMBOL "?relay", HalUARTWrite
Hal_UART_RxBufLen   SYMBOL "Hal_UART_RxBufLen"
??Hal_UART_RxBufLen?relay SYMBOL "?relay", Hal_UART_RxBufLen
halUart0RxIsr       SYMBOL "halUart0RxIsr"
`??halUart0RxIsr??INTVEC 19` SYMBOL "??INTVEC 19", halUart0RxIsr
halUart0TxIsr       SYMBOL "halUart0TxIsr"
`??halUart0TxIsr??INTVEC 59` SYMBOL "??INTVEC 59", halUart0TxIsr
halUart1RxIsr       SYMBOL "halUart1RxIsr"
`??halUart1RxIsr??INTVEC 27` SYMBOL "??INTVEC 27", halUart1RxIsr
halUart1TxIsr       SYMBOL "halUart1TxIsr"
`??halUart1TxIsr??INTVEC 115` SYMBOL "??INTVEC 115", halUart1TxIsr

        EXTERN osal_mem_alloc
        FUNCTION osal_mem_alloc,0202H
        ARGFRAME ISTACK, 0, STACK
        ARGFRAME PSTACK, 0, STACK
        ARGFRAME XSTACK, 14, STACK
        ARGFRAME IOVERLAY, 0, STATIC
        ARGFRAME DOVERLAY, 0, STATIC
        EXTERN ??osal_mem_alloc?relay
        FUNCTION ??osal_mem_alloc?relay,00H

// C:\8-22\修改中2013.8.12Texas Instruments longmenshan\ZStack-1.4.3-1.2.1\Components\hal\target\CC2430EB\hal_uart.c
//    1 /**************************************************************************************************
//    2   Filename:       _hal_uart.c
//    3   Revised:        $Date: 2007-11-01 08:44:53 -0700 (Thu, 01 Nov 2007) $
//    4   Revision:       $Revision: 15821 $
//    5 
//    6   Description: This file contains the interface to the H/W UART driver.
//    7 
//    8 
//    9   Copyright 2006-2007 Texas Instruments Incorporated. All rights reserved.
//   10 
//   11   IMPORTANT: Your use of this Software is limited to those specific rights
//   12   granted under the terms of a software license agreement between the user
//   13   who downloaded the software, his/her employer (which must be your employer)
//   14   and Texas Instruments Incorporated (the "License").  You may not use this
//   15   Software unless you agree to abide by the terms of the License. The License
//   16   limits your use, and you acknowledge, that the Software may not be modified,
//   17   copied or distributed unless embedded on a Texas Instruments microcontroller
//   18   or used solely and exclusively in conjunction with a Texas Instruments radio
//   19   frequency transceiver, which is integrated into your product.  Other than for
//   20   the foregoing purpose, you may not use, reproduce, copy, prepare derivative
//   21   works of, modify, distribute, perform, display or sell this Software and/or
//   22   its documentation for any purpose.
//   23 
//   24   YOU FURTHER ACKNOWLEDGE AND AGREE THAT THE SOFTWARE AND DOCUMENTATION ARE
//   25   PROVIDED AS IS?WITHOUT WARRANTY OF ANY KIND, EITHER EXPRESS OR IMPLIED, 
//   26   INCLUDING WITHOUT LIMITATION, ANY WARRANTY OF MERCHANTABILITY, TITLE, 
//   27   NON-INFRINGEMENT AND FITNESS FOR A PARTICULAR PURPOSE. IN NO EVENT SHALL
//   28   TEXAS INSTRUMENTS OR ITS LICENSORS BE LIABLE OR OBLIGATED UNDER CONTRACT,
//   29   NEGLIGENCE, STRICT LIABILITY, CONTRIBUTION, BREACH OF WARRANTY, OR OTHER
//   30   LEGAL EQUITABLE THEORY ANY DIRECT OR INDIRECT DAMAGES OR EXPENSES
//   31   INCLUDING BUT NOT LIMITED TO ANY INCIDENTAL, SPECIAL, INDIRECT, PUNITIVE
//   32   OR CONSEQUENTIAL DAMAGES, LOST PROFITS OR LOST DATA, COST OF PROCUREMENT
//   33   OF SUBSTITUTE GOODS, TECHNOLOGY, SERVICES, OR ANY CLAIMS BY THIRD PARTIES
//   34   (INCLUDING BUT NOT LIMITED TO ANY DEFENSE THEREOF), OR OTHER SIMILAR COSTS.
//   35 
//   36   Should you have any questions regarding your right to use this Software,
//   37   contact Texas Instruments Incorporated at www.TI.com. 
//   38 **************************************************************************************************/
//   39 
//   40 /*********************************************************************
//   41  * INCLUDES
//   42  */
//   43 
//   44 #include "hal_types.h"
//   45 #include "hal_assert.h"
//   46 #include "hal_board.h"

        ASEGN SFR_AN:DATA:NOROOT,080H
// union <unnamed> volatile __sfr _A_P0
_A_P0:
        DS 1

        ASEGN SFR_AN:DATA:NOROOT,086H
// unsigned char volatile __sfr U0CSR
U0CSR:
        DS 1

        ASEGN SFR_AN:DATA:NOROOT,090H
// union <unnamed> volatile __sfr _A_P1
_A_P1:
        DS 1

        ASEGN SFR_AN:DATA:NOROOT,095H
// unsigned char volatile __sfr ST0
ST0:
        DS 1

        ASEGN SFR_AN:DATA:NOROOT,09aH
// unsigned char volatile __sfr IEN2
IEN2:
        DS 1

        ASEGN SFR_AN:DATA:NOROOT,0a8H
// union <unnamed> volatile __sfr _A_IEN0
_A_IEN0:
        DS 1

        ASEGN SFR_AN:DATA:NOROOT,0c1H
// unsigned char volatile __sfr U0DBUF
U0DBUF:
        DS 1

        ASEGN SFR_AN:DATA:NOROOT,0c2H
// unsigned char volatile __sfr U0BAUD
U0BAUD:
        DS 1

        ASEGN SFR_AN:DATA:NOROOT,0c4H
// unsigned char volatile __sfr U0UCR
U0UCR:
        DS 1

        ASEGN SFR_AN:DATA:NOROOT,0c5H
// unsigned char volatile __sfr U0GCR
U0GCR:
        DS 1

        ASEGN SFR_AN:DATA:NOROOT,0e8H
// union <unnamed> volatile __sfr _A_IRCON2
_A_IRCON2:
        DS 1

        ASEGN SFR_AN:DATA:NOROOT,0f1H
// unsigned char volatile __sfr PERCFG
PERCFG:
        DS 1

        ASEGN SFR_AN:DATA:NOROOT,0f2H
// unsigned char volatile __sfr ADCCFG
ADCCFG:
        DS 1

        ASEGN SFR_AN:DATA:NOROOT,0f3H
// unsigned char volatile __sfr P0SEL
P0SEL:
        DS 1

        ASEGN SFR_AN:DATA:NOROOT,0f4H
// unsigned char volatile __sfr P1SEL
P1SEL:
        DS 1

        ASEGN SFR_AN:DATA:NOROOT,0f8H
// union <unnamed> volatile __sfr _A_U1CSR
_A_U1CSR:
        DS 1

        ASEGN SFR_AN:DATA:NOROOT,0f9H
// unsigned char volatile __sfr U1DBUF
U1DBUF:
        DS 1

        ASEGN SFR_AN:DATA:NOROOT,0faH
// unsigned char volatile __sfr U1BAUD
U1BAUD:
        DS 1

        ASEGN SFR_AN:DATA:NOROOT,0fbH
// unsigned char volatile __sfr U1UCR
U1UCR:
        DS 1

        ASEGN SFR_AN:DATA:NOROOT,0fcH
// unsigned char volatile __sfr U1GCR
U1GCR:
        DS 1

        ASEGN SFR_AN:DATA:NOROOT,0fdH
// unsigned char volatile __sfr P0DIR
P0DIR:
        DS 1

        ASEGN SFR_AN:DATA:NOROOT,0feH
// unsigned char volatile __sfr P1DIR
P1DIR:
        DS 1

        ASEGN SFR_AN:DATA:NOROOT,0ffH
// unsigned char volatile __sfr P2DIR
P2DIR:
        DS 1
//   47 #include "hal_defs.h"
//   48 #if defined( HAL_UART_DMA ) && HAL_UART_DMA
//   49   #include "hal_dma.h"
//   50 #endif
//   51 #include "hal_mcu.h"
//   52 #include "hal_uart.h"
//   53 #include "osal.h"
//   54 
//   55 /*********************************************************************
//   56  * MACROS
//   57  */
//   58 
//   59 #if !defined ( HAL_UART_DEBUG )
//   60   #define HAL_UART_DEBUG  FALSE
//   61 #endif
//   62 
//   63 #if !defined ( HAL_UART_CLOSE )
//   64   #define HAL_UART_CLOSE  FALSE
//   65 #endif
//   66 
//   67 #if !defined ( HAL_UART_BIG_TX_BUF )
//   68   #define HAL_UART_BIG_TX_BUF  FALSE
//   69 #endif
//   70 
//   71 /*
//   72  *  The MAC_ASSERT macro is for use during debugging.
//   73  *  The given expression must evaluate as "true" or else fatal error occurs.
//   74  *  At that point, the call stack feature of the debugger can pinpoint where
//   75  *  the problem occurred.
//   76  *
//   77  *  To disable this feature and save code size, the project should define
//   78  *  HAL_UART_DEBUG to FALSE.
//   79  */
//   80 #if ( HAL_UART_DEBUG )
//   81   #define HAL_UART_ASSERT( expr)        HAL_ASSERT( expr )
//   82 #else
//   83   #define HAL_UART_ASSERT( expr )
//   84 #endif
//   85 
//   86 #define P2DIR_PRIPO               0xC0
//   87 #if HAL_UART_0_ENABLE
//   88   #define HAL_UART_PRIPO          0x00
//   89 #else
//   90   #define HAL_UART_PRIPO          0x40
//   91 #endif
//   92 
//   93 #define HAL_UART_0_PERCFG_BIT     0x01  // USART0 on P0, so clear this bit.
//   94 #define HAL_UART_0_P0_RX_TX       0x0c  // Peripheral I/O Select for Rx/Tx.
//   95 #define HAL_UART_0_P0_RTS         0x10  // Peripheral I/O Select for RTS.
//   96 #define HAL_UART_0_P0_CTS         0x20  // Peripheral I/O Select for CTS.
//   97 
//   98 #define HAL_UART_1_PERCFG_BIT     0x02  // USART1 on P1, so set this bit.
//   99 #define HAL_UART_1_P1_RTS         0x10  // Peripheral I/O Select for RTS.
//  100 #define HAL_UART_1_P1_CTS         0x20  // Peripheral I/O Select for CTS.
//  101 #define HAL_UART_1_P1_RX_TX       0xC0  // Peripheral I/O Select for Rx/Tx.
//  102 
//  103 #define TX_AVAIL( cfg ) \ 
//  104   ((cfg->txTail == cfg->txHead) ? (cfg->txMax-1) : \ 
//  105   ((cfg->txTail >  cfg->txHead) ? (cfg->txTail - cfg->txHead - 1) : \ 
//  106                      (cfg->txMax - cfg->txHead + cfg->txTail)))
//  107 
//  108 #define RX0_FLOW_ON  ( P0 &= ~HAL_UART_0_P0_CTS )
//  109 #define RX0_FLOW_OFF ( P0 |= HAL_UART_0_P0_CTS )
//  110 #define RX1_FLOW_ON  ( P1 &= ~HAL_UART_1_P1_CTS)
//  111 #define RX1_FLOW_OFF ( P1 |= HAL_UART_1_P1_CTS )
//  112 
//  113 #define RX_STOP_FLOW( cfg ) { \ 
//  114   if ( !(cfg->flag & UART_CFG_U1F) ) \ 
//  115   { \ 
//  116     RX0_FLOW_OFF; \ 
//  117   } \ 
//  118   else \ 
//  119   { \ 
//  120     RX1_FLOW_OFF; \ 
//  121   } \ 
//  122   if ( cfg->flag & UART_CFG_DMA ) \ 
//  123   { \ 
//  124     cfg->rxTick = DMA_RX_DLY; \ 
//  125   } \ 
//  126   cfg->flag |= UART_CFG_RXF; \ 
//  127 }
//  128 
//  129 #define RX_STRT_FLOW( cfg ) { \ 
//  130   if ( !(cfg->flag & UART_CFG_U1F) ) \ 
//  131   { \ 
//  132     RX0_FLOW_ON; \ 
//  133   } \ 
//  134   else \ 
//  135   { \ 
//  136     RX1_FLOW_ON; \ 
//  137   } \ 
//  138   cfg->flag &= ~UART_CFG_RXF; \ 
//  139 }
//  140 
//  141 #define UART_RX_AVAIL( cfg ) \ 
//  142   ( (cfg->rxHead >= cfg->rxTail) ? (cfg->rxHead - cfg->rxTail) : \ 
//  143                                    (cfg->rxMax - cfg->rxTail + cfg->rxHead +1 ) )
//  144 
//  145 /* Need to leave enough of the Rx buffer free to handle the incoming bytes
//  146  * after asserting flow control, but before the transmitter has obeyed it.
//  147  * At the max expected baud rate of 115.2k, 16 bytes will only take ~1.3 msecs,
//  148  * but at the min expected baud rate of 38.4k, they could take ~4.2 msecs.
//  149  * SAFE_RX_MIN and DMA_RX_DLY must both be consistent according to
//  150  * the min & max expected baud rate.
//  151  */
//  152 #if !defined( SAFE_RX_MIN )
//  153   #define SAFE_RX_MIN  48  // bytes - max expected per poll @ 115.2k
//  154   // 16 bytes @ 38.4 kBaud -> 4.16 msecs -> 138 32-kHz ticks.
//  155   #define DMA_RX_DLY  140
//  156   //  2 bytes @ 38.4 kBaud -> 0.52 msecs ->  17 32-kHz ticks.
//  157   #define DMA_TX_DLY   20
//  158 #endif
//  159 
//  160 // The timeout tick is at 32-kHz, so multiply msecs by 33.
//  161 #define RX_MSECS_TO_TICKS  33
//  162 
//  163 // The timeout only supports 1 byte.
//  164 #if !defined( HAL_UART_RX_IDLE )
//  165   #define HAL_UART_RX_IDLE  (6 * RX_MSECS_TO_TICKS)
//  166 #endif
//  167 
//  168 // Only supporting 1 of the 2 USART modules to be driven by DMA at a time.
//  169 #if HAL_UART_DMA == 1
//  170   #define DMATRIG_RX  HAL_DMA_TRIG_URX0
//  171   #define DMATRIG_TX  HAL_DMA_TRIG_UTX0
//  172   #define DMA_UDBUF   HAL_DMA_U0DBUF
//  173   #define DMA_PAD     U0BAUD
//  174 #elif HAL_UART_DMA == 2
//  175   #define DMATRIG_RX  HAL_DMA_TRIG_URX1
//  176   #define DMATRIG_TX  HAL_DMA_TRIG_UTX1
//  177   #define DMA_UDBUF   HAL_DMA_U1DBUF
//  178   #define DMA_PAD     U1BAUD
//  179 #endif
//  180 
//  181 #define DMA_RX( cfg ) { \ 
//  182   volatile uint8 ft2430 = U0DBUF; \ 
//  183   \ 
//  184   halDMADesc_t *ch = HAL_DMA_GET_DESC1234( HAL_DMA_CH_RX ); \ 
//  185   \ 
//  186   HAL_DMA_SET_DEST( ch, cfg->rxBuf ); \ 
//  187   \ 
//  188   HAL_DMA_SET_LEN( ch, cfg->rxMax ); \ 
//  189   \ 
//  190   HAL_DMA_CLEAR_IRQ( HAL_DMA_CH_RX ); \ 
//  191   \ 
//  192   HAL_DMA_ARM_CH( HAL_DMA_CH_RX ); \ 
//  193 }
//  194 
//  195 #define DMA_TX( cfg ) { \ 
//  196   halDMADesc_t *ch = HAL_DMA_GET_DESC1234( HAL_DMA_CH_TX ); \ 
//  197   \ 
//  198   HAL_DMA_SET_SOURCE( ch, (cfg->txBuf + cfg->txTail) ); \ 
//  199   \ 
//  200   HAL_DMA_SET_LEN( ch, cfg->txCnt ); \ 
//  201   \ 
//  202   HAL_DMA_CLEAR_IRQ( HAL_DMA_CH_TX ); \ 
//  203   \ 
//  204   HAL_DMA_ARM_CH( HAL_DMA_CH_TX ); \ 
//  205   \ 
//  206   HAL_DMA_START_CH( HAL_DMA_CH_TX ); \ 
//  207 }
//  208 
//  209 /*********************************************************************
//  210  * TYPEDEFS
//  211  */
//  212 
//  213 typedef struct
//  214 {
//  215   uint8 *rxBuf;
//  216   uint8 rxHead;
//  217   uint8 rxTail;
//  218   uint8 rxMax;
//  219   uint8 rxCnt;
//  220   uint8 rxTick;
//  221   uint8 rxHigh;
//  222 
//  223   uint8 *txBuf;
//  224 #if HAL_UART_BIG_TX_BUF
//  225   uint16 txHead;
//  226   uint16 txTail;
//  227   uint16 txMax;
//  228   uint16 txCnt;
//  229 #else
//  230   uint8 txHead;
//  231   uint8 txTail;
//  232   uint8 txMax;
//  233   uint8 txCnt;
//  234 #endif
//  235   uint8 txTick;
//  236 
//  237   uint8 flag;
//  238 
//  239   halUARTCBack_t rxCB;
//  240 } uartCfg_t;
//  241 
//  242 /*********************************************************************
//  243  * CONSTANTS
//  244  */
//  245 
//  246 // Used by DMA macros to shift 1 to create a mask for DMA registers.
//  247 #define HAL_DMA_CH_TX    3
//  248 #define HAL_DMA_CH_RX    4
//  249 
//  250 #define HAL_DMA_U0DBUF  0xDFC1
//  251 #define HAL_DMA_U1DBUF  0xDFF9
//  252 
//  253 // UxCSR - USART Control and Status Register.
//  254 #define CSR_MODE      0x80
//  255 #define CSR_RE        0x40
//  256 #define CSR_SLAVE     0x20
//  257 #define CSR_FE        0x10
//  258 #define CSR_ERR       0x08
//  259 #define CSR_RX_BYTE   0x04
//  260 #define CSR_TX_BYTE   0x02
//  261 #define CSR_ACTIVE    0x01
//  262 
//  263 // UxUCR - USART UART Control Register.
//  264 #define UCR_FLUSH     0x80
//  265 #define UCR_FLOW      0x40
//  266 #define UCR_D9        0x20
//  267 #define UCR_BIT9      0x10
//  268 #define UCR_PARITY    0x08
//  269 #define UCR_SPB       0x04
//  270 #define UCR_STOP      0x02
//  271 #define UCR_START     0x01
//  272 
//  273 #define UTX0IE        0x04
//  274 #define UTX1IE        0x08
//  275 
//  276 #define UART_CFG_U1F  0x80  // USART1 flag bit.
//  277 #define UART_CFG_DMA  0x40  // Port is using DMA.
//  278 #define UART_CFG_FLW  0x20  // Port is using flow control.
//  279 #define UART_CFG_SP4  0x10
//  280 #define UART_CFG_SP3  0x08
//  281 #define UART_CFG_SP2  0x04
//  282 #define UART_CFG_RXF  0x02  // Rx flow is disabled.
//  283 #define UART_CFG_TXF  0x01  // Tx is in process.
//  284 
//  285 /*********************************************************************
//  286  * GLOBAL VARIABLES
//  287  */
//  288 
//  289 /*********************************************************************
//  290  * GLOBAL FUNCTIONS
//  291  */
//  292 
//  293 /*********************************************************************
//  294  * LOCAL VARIABLES
//  295  */
//  296 
//  297 #if HAL_UART_0_ENABLE

        RSEG XDATA_Z:XDATA:NOROOT(0)
//  298 static uartCfg_t *cfg0;
cfg0:
        DS 2
        REQUIRE __INIT_XDATA_Z
//  299 #endif
//  300 #if HAL_UART_1_ENABLE

        RSEG XDATA_Z:XDATA:NOROOT(0)
//  301 static uartCfg_t *cfg1;
cfg1:
        DS 2
        REQUIRE __INIT_XDATA_Z
//  302 #endif
//  303 
//  304 /*********************************************************************
//  305  * LOCAL FUNCTIONS
//  306  */
//  307 
//  308 #if HAL_UART_DMA
//  309 static void pollDMA( uartCfg_t *cfg );
//  310 #endif
//  311 #if HAL_UART_ISR
//  312 static void pollISR( uartCfg_t *cfg );
//  313 #endif
//  314 
//  315 #if HAL_UART_DMA
//  316 /******************************************************************************
//  317  * @fn      pollDMA
//  318  *
//  319  * @brief   Poll a USART module implemented by DMA.
//  320  *
//  321  * @param   cfg - USART configuration structure.
//  322  *
//  323  * @return  none
//  324  *****************************************************************************/
//  325 static void pollDMA( uartCfg_t *cfg )
//  326 {
//  327   const uint8 cnt = cfg->rxHead;
//  328   uint8 *pad = cfg->rxBuf+(cfg->rxHead*2);
//  329 
//  330   // Pack the received bytes to the front of the queue.
//  331   while ( (*pad == DMA_PAD) && (cfg->rxHead < cfg->rxMax) )
//  332   {
//  333     cfg->rxBuf[cfg->rxHead++] = *(pad+1);
//  334     pad += 2;
//  335   }
//  336 
//  337   if ( !(cfg->flag & UART_CFG_RXF) )
//  338   {
//  339     /* It is necessary to stop Rx flow and wait for H/W-enqueued bytes still
//  340      * incoming to stop before resetting the DMA Rx engine. If DMA Rx is
//  341      * aborted during incoming data, a byte may be lost inside the engine
//  342      * during the 2-step transfer process of read/write.
//  343      */
//  344     if ( cfg->rxHead >= (cfg->rxMax - SAFE_RX_MIN) )
//  345     {
//  346       RX_STOP_FLOW( cfg );
//  347     }
//  348     // If anything received, reset the Rx idle timer.
//  349     else if ( cfg->rxHead != cnt )
//  350     {
//  351       cfg->rxTick = HAL_UART_RX_IDLE;
//  352     }
//  353   }
//  354   else if ( !cfg->rxTick && (cfg->rxHead == cfg->rxTail) )
//  355   {
//  356     HAL_DMA_ABORT_CH( HAL_DMA_CH_RX );
//  357     cfg->rxHead = cfg->rxTail = 0;
//  358     osal_memset( cfg->rxBuf, ~DMA_PAD, cfg->rxMax*2 );
//  359     DMA_RX( cfg );
//  360     RX_STRT_FLOW( cfg );
//  361   }
//  362 
//  363   if ( HAL_DMA_CHECK_IRQ( HAL_DMA_CH_TX ) )
//  364   {
//  365     HAL_DMA_CLEAR_IRQ( HAL_DMA_CH_TX );
//  366     cfg->flag &= ~UART_CFG_TXF;
//  367     cfg->txTick = DMA_TX_DLY;
//  368 
//  369     if ( (cfg->txMax - cfg->txCnt) < cfg->txTail )
//  370     {
//  371       cfg->txTail = 0;  // DMA can only run to the end of the Tx buffer.
//  372     }
//  373     else
//  374     {
//  375       cfg->txTail += cfg->txCnt;
//  376     }
//  377   }
//  378   else if ( !(cfg->flag & UART_CFG_TXF) && !cfg->txTick )
//  379   {
//  380     if ( cfg->txTail != cfg->txHead )
//  381     {
//  382       if ( cfg->txTail < cfg->txHead )
//  383       {
//  384         cfg->txCnt = cfg->txHead - cfg->txTail;
//  385       }
//  386       else  // Can only run DMA engine up to max, then restart at zero.
//  387       {
//  388         cfg->txCnt = cfg->txMax - cfg->txTail + 1;
//  389       }
//  390 
//  391       cfg->flag |= UART_CFG_TXF;
//  392       DMA_TX( cfg );
//  393     }
//  394   }
//  395 }
//  396 #endif
//  397 
//  398 #if HAL_UART_ISR
//  399 /******************************************************************************
//  400  * @fn      pollISR
//  401  *
//  402  * @brief   Poll a USART module implemented by ISR.
//  403  *
//  404  * @param   cfg - USART configuration structure.
//  405  *
//  406  * @return  none
//  407  *****************************************************************************/

        RSEG BANKED_CODE:CODE:NOROOT(0)
//  408 static void pollISR( uartCfg_t *cfg )
pollISR:
        CFI Block cfiBlock0 Using cfiCommon0
        CFI Function pollISR
//  409 {
        MOV     A,#-0x9
        LCALL   ?BANKED_ENTER_XDATA
        CFI DPH0 load(1, XDATA, add(CFA_XSP16, literal(-1)))
        CFI DPL0 load(1, XDATA, add(CFA_XSP16, literal(-2)))
        CFI ?BRET_EXT load(1, XDATA, add(CFA_XSP16, literal(-3)))
        CFI ?RET_HIGH load(1, XDATA, add(CFA_XSP16, literal(-4)))
        CFI ?RET_LOW load(1, XDATA, add(CFA_XSP16, literal(-5)))
        CFI R7 load(1, XDATA, add(CFA_XSP16, literal(-6)))
        CFI V0 load(1, XDATA, add(CFA_XSP16, literal(-7)))
        CFI VB load(1, XDATA, add(CFA_XSP16, literal(-8)))
        CFI R6 load(1, XDATA, add(CFA_XSP16, literal(-9)))
        CFI CFA_SP SP+0
        CFI CFA_XSP16 add(XSP16, 9)
        ; Saved register size: 9
        ; Auto size: 0
//  410   uint8 cnt = UART_RX_AVAIL( cfg );
        MOV     DPL,R2
        MOV     DPH,R3
        INC     DPTR
        INC     DPTR
        MOVX    A,@DPTR
        PUSH    A
        CFI CFA_SP SP+-1
        MOV     DPL,R2
        MOV     DPH,R3
        INC     DPTR
        INC     DPTR
        INC     DPTR
        MOVX    A,@DPTR
        MOV     R4,A
        POP     A
        CFI CFA_SP SP+0
        CLR     C
        SUBB    A,R4
        MOV     DPL,R2
        MOV     DPH,R3
        INC     DPTR
        INC     DPTR
        JC      ??pollISR_0
        MOVX    A,@DPTR
        CLR     C
        SUBB    A,R4
        SJMP    ??pollISR_1
??pollISR_0:
        PUSH    DPL
        CFI CFA_SP SP+-1
        PUSH    DPH
        CFI CFA_SP SP+-2
        MOV     DPL,R2
        MOV     DPH,R3
        INC     DPTR
        INC     DPTR
        INC     DPTR
        INC     DPTR
        MOVX    A,@DPTR
        CLR     C
        SUBB    A,R4
        POP     DPH
        CFI CFA_SP SP+-1
        POP     DPL
        CFI CFA_SP SP+0
        MOV     R4,A
        MOVX    A,@DPTR
        ADD     A,R4
        INC     A
??pollISR_1:
        MOV     R4,A
        MOV     A,R4
        MOV     R5,A
//  411 
//  412   if ( !(cfg->flag & UART_CFG_RXF) )
        LCALL   ?Subroutine10 & 0xFFFF
??CrossCallReturnLabel_26:
        MOV     C,0xE0 /* A   */.1
        JC      ??pollISR_2
//  413   {
//  414     // If anything received, reset the Rx idle timer.
//  415     if ( cfg->rxCnt != cnt )
        MOV     DPL,R2
        MOV     DPH,R3
        INC     DPTR
        INC     DPTR
        INC     DPTR
        INC     DPTR
        INC     DPTR
        MOVX    A,@DPTR
        XRL     A,R5
        JZ      ??pollISR_3
//  416     {
//  417       cfg->rxTick = HAL_UART_RX_IDLE;
        MOV     A,#-0x3a
        MOV     DPL,R2
        MOV     DPH,R3
        INC     DPTR
        INC     DPTR
        INC     DPTR
        INC     DPTR
        INC     DPTR
        INC     DPTR
        MOVX    @DPTR,A
//  418       cfg->rxCnt = cnt;
        MOV     A,R5
        MOV     DPL,R2
        MOV     DPH,R3
        INC     DPTR
        INC     DPTR
        INC     DPTR
        INC     DPTR
        INC     DPTR
        MOVX    @DPTR,A
//  419     }
//  420 
//  421     /* It is necessary to stop Rx flow in advance of a full Rx buffer because
//  422      * bytes can keep coming while sending H/W fifo flushes.
//  423      */
//  424     if ( cfg->rxCnt >= (cfg->rxMax - SAFE_RX_MIN) )
??pollISR_3:
        MOV     DPL,R2
        MOV     DPH,R3
        INC     DPTR
        INC     DPTR
        INC     DPTR
        INC     DPTR
        INC     DPTR
        MOVX    A,@DPTR
        MOV     R4,A
        MOV     DPL,R2
        MOV     DPH,R3
        LCALL   ?Subroutine16 & 0xFFFF
??CrossCallReturnLabel_47:
        MOV     A,R4
        LCALL   ?Subroutine22 & 0xFFFF
??CrossCallReturnLabel_64:
        JC      ??pollISR_2
//  425     {
//  426       RX_STOP_FLOW( cfg );
        LCALL   ?Subroutine10 & 0xFFFF
??CrossCallReturnLabel_27:
        MOV     C,0xE0 /* A   */.7
        JC      ??pollISR_4
        SETB    0x80.5
        SJMP    ??pollISR_5
??pollISR_4:
        SETB    0x90.5
??pollISR_5:
        MOV     C,0xE0 /* A   */.6
        JNC     ??pollISR_6
        MOV     A,#-0x74
        MOV     DPL,R2
        MOV     DPH,R3
        INC     DPTR
        INC     DPTR
        INC     DPTR
        INC     DPTR
        INC     DPTR
        INC     DPTR
        MOVX    @DPTR,A
??pollISR_6:
        LCALL   ?Subroutine10 & 0xFFFF
??CrossCallReturnLabel_28:
        SETB    0xE0 /* A   */.1
        MOVX    @DPTR,A
//  427     }
//  428   }
//  429 }
??pollISR_2:
        MOV     R7,#0x1
        LJMP    ?BANKED_LEAVE_XDATA
        CFI EndBlock cfiBlock0
        REQUIRE _A_P0
        REQUIRE _A_P1

        RSEG BANKED_CODE:CODE:NOROOT(0)
?Subroutine10:
        CFI Block cfiCond1 Using cfiCommon0
        CFI NoFunction
        CFI Conditional ??CrossCallReturnLabel_26
        CFI R6 load(1, XDATA, add(CFA_XSP16, literal(-9)))
        CFI VB load(1, XDATA, add(CFA_XSP16, literal(-8)))
        CFI V0 load(1, XDATA, add(CFA_XSP16, literal(-7)))
        CFI R7 load(1, XDATA, add(CFA_XSP16, literal(-6)))
        CFI ?RET_LOW load(1, XDATA, add(CFA_XSP16, literal(-5)))
        CFI ?RET_HIGH load(1, XDATA, add(CFA_XSP16, literal(-4)))
        CFI ?BRET_EXT load(1, XDATA, add(CFA_XSP16, literal(-3)))
        CFI DPL0 load(1, XDATA, add(CFA_XSP16, literal(-2)))
        CFI DPH0 load(1, XDATA, add(CFA_XSP16, literal(-1)))
        CFI CFA_SP SP+0
        CFI CFA_XSP16 add(XSP16, 9)
        CFI Block cfiCond2 Using cfiCommon0
        CFI (cfiCond2) NoFunction
        CFI (cfiCond2) Conditional ??CrossCallReturnLabel_27
        CFI (cfiCond2) R6 load(1, XDATA, add(CFA_XSP16, literal(-9)))
        CFI (cfiCond2) VB load(1, XDATA, add(CFA_XSP16, literal(-8)))
        CFI (cfiCond2) V0 load(1, XDATA, add(CFA_XSP16, literal(-7)))
        CFI (cfiCond2) R7 load(1, XDATA, add(CFA_XSP16, literal(-6)))
        CFI (cfiCond2) ?RET_LOW load(1, XDATA, add(CFA_XSP16, literal(-5)))
        CFI (cfiCond2) ?RET_HIGH load(1, XDATA, add(CFA_XSP16, literal(-4)))
        CFI (cfiCond2) ?BRET_EXT load(1, XDATA, add(CFA_XSP16, literal(-3)))
        CFI (cfiCond2) DPL0 load(1, XDATA, add(CFA_XSP16, literal(-2)))
        CFI (cfiCond2) DPH0 load(1, XDATA, add(CFA_XSP16, literal(-1)))
        CFI (cfiCond2) CFA_SP SP+0
        CFI (cfiCond2) CFA_XSP16 add(XSP16, 9)
        CFI Block cfiCond3 Using cfiCommon0
        CFI (cfiCond3) NoFunction
        CFI (cfiCond3) Conditional ??CrossCallReturnLabel_28
        CFI (cfiCond3) R6 load(1, XDATA, add(CFA_XSP16, literal(-9)))
        CFI (cfiCond3) VB load(1, XDATA, add(CFA_XSP16, literal(-8)))
        CFI (cfiCond3) V0 load(1, XDATA, add(CFA_XSP16, literal(-7)))
        CFI (cfiCond3) R7 load(1, XDATA, add(CFA_XSP16, literal(-6)))
        CFI (cfiCond3) ?RET_LOW load(1, XDATA, add(CFA_XSP16, literal(-5)))
        CFI (cfiCond3) ?RET_HIGH load(1, XDATA, add(CFA_XSP16, literal(-4)))
        CFI (cfiCond3) ?BRET_EXT load(1, XDATA, add(CFA_XSP16, literal(-3)))
        CFI (cfiCond3) DPL0 load(1, XDATA, add(CFA_XSP16, literal(-2)))
        CFI (cfiCond3) DPH0 load(1, XDATA, add(CFA_XSP16, literal(-1)))
        CFI (cfiCond3) CFA_SP SP+0
        CFI (cfiCond3) CFA_XSP16 add(XSP16, 9)
        CFI Block cfiPicker4 Using cfiCommon1
        CFI (cfiPicker4) NoFunction
        CFI (cfiPicker4) Picker
        MOV     A,R2
        ADD     A,#0xf
        MOV     DPL,A
        MOV     A,R3
        LCALL   ??Subroutine19_0 & 0xFFFF
??CrossCallReturnLabel_53:
        RET
        CFI EndBlock cfiCond1
        CFI EndBlock cfiCond2
        CFI EndBlock cfiCond3
        CFI EndBlock cfiPicker4
//  430 #endif
//  431 
//  432 /******************************************************************************
//  433  * @fn      HalUARTInit
//  434  *
//  435  * @brief   Initialize the UART
//  436  *
//  437  * @param   none
//  438  *
//  439  * @return  none
//  440  *****************************************************************************/

        RSEG BANKED_CODE:CODE:NOROOT(0)
//  441 void HalUARTInit( void )
HalUARTInit:
        CFI Block cfiBlock5 Using cfiCommon0
        CFI Function HalUARTInit
//  442 {
        ; Saved register size: 0
        ; Auto size: 0
//  443 #if HAL_UART_DMA
//  444   halDMADesc_t *ch;
//  445 #endif
//  446 
//  447   // Set P2 priority - USART0 over USART1 if both are defined.
//  448   P2DIR &= ~P2DIR_PRIPO;
        ANL     0xff,#0x3f
        MOV     A,0xff
//  449   P2DIR |= HAL_UART_PRIPO;
        MOV     0xff,0xff
//  450 
//  451 #if HAL_UART_0_ENABLE
//  452   // Set UART0 I/O location to P0.
//  453   PERCFG &= ~HAL_UART_0_PERCFG_BIT;
        ANL     0xf1,#0xfe
//  454 
//  455   /* Enable Tx and Rx on P0 */
//  456   P0SEL |= HAL_UART_0_P0_RX_TX;
        ORL     0xf3,#0xc
        MOV     A,0xf3
//  457 
//  458   /* Make sure ADC doesnt use this */
//  459   ADCCFG &= ~HAL_UART_0_P0_RX_TX;
        ANL     0xf2,#0xf3
        MOV     A,0xf2
//  460 
//  461   /* Mode is UART Mode */
//  462   U0CSR = CSR_MODE;
        MOV     0x86,#-0x80
//  463 
//  464   /* Flush it */
//  465   U0UCR = UCR_FLUSH;
        MOV     0xc4,#-0x80
//  466 #endif
//  467 
//  468 #if HAL_UART_1_ENABLE
//  469   // Set UART1 I/O location to P1.
//  470   PERCFG |= HAL_UART_1_PERCFG_BIT;
        ORL     0xf1,#0x2
//  471 
//  472   /* Enable Tx and Rx on P1 */
//  473   P1SEL  |= HAL_UART_1_P1_RX_TX;
        ORL     0xf4,#0xc0
        MOV     A,0xf4
//  474 
//  475   /* Make sure ADC doesnt use this */
//  476   ADCCFG &= ~HAL_UART_1_P1_RX_TX;
        ANL     0xf2,#0x3f
        MOV     A,0xf2
//  477 
//  478   /* Mode is UART Mode */
//  479   U1CSR = CSR_MODE;
        MOV     0xf8,#-0x80
//  480 
//  481   /* Flush it */
//  482   U1UCR = UCR_FLUSH;
        MOV     0xfb,#-0x80
//  483 #endif
//  484 
//  485 #if HAL_UART_DMA
//  486   // Setup Tx by DMA.
//  487   ch = HAL_DMA_GET_DESC1234( HAL_DMA_CH_TX );
//  488 
//  489   // The start address of the destination.
//  490   HAL_DMA_SET_DEST( ch, DMA_UDBUF );
//  491 
//  492   // Using the length field to determine how many bytes to transfer.
//  493   HAL_DMA_SET_VLEN( ch, HAL_DMA_VLEN_USE_LEN );
//  494 
//  495   // One byte is transferred each time.
//  496   HAL_DMA_SET_WORD_SIZE( ch, HAL_DMA_WORDSIZE_BYTE );
//  497 
//  498   // The bytes are transferred 1-by-1 on Tx Complete trigger.
//  499   HAL_DMA_SET_TRIG_MODE( ch, HAL_DMA_TMODE_SINGLE );
//  500   HAL_DMA_SET_TRIG_SRC( ch, DMATRIG_TX );
//  501 
//  502   // The source address is decremented by 1 byte after each transfer.
//  503   HAL_DMA_SET_SRC_INC( ch, HAL_DMA_SRCINC_1 );
//  504 
//  505   // The destination address is constant - the Tx Data Buffer.
//  506   HAL_DMA_SET_DST_INC( ch, HAL_DMA_DSTINC_0 );
//  507 
//  508   // The DMA is to be polled and shall not issue an IRQ upon completion.
//  509   HAL_DMA_SET_IRQ( ch, HAL_DMA_IRQMASK_DISABLE );
//  510 
//  511   // Xfer all 8 bits of a byte xfer.
//  512   HAL_DMA_SET_M8( ch, HAL_DMA_M8_USE_8_BITS );
//  513 
//  514   // DMA Tx has shared priority for memory access - every other one.
//  515   HAL_DMA_SET_PRIORITY( ch, HAL_DMA_PRI_HIGH );
//  516 
//  517   // Setup Rx by DMA.
//  518   ch = HAL_DMA_GET_DESC1234( HAL_DMA_CH_RX );
//  519 
//  520   // The start address of the source.
//  521   HAL_DMA_SET_SOURCE( ch, DMA_UDBUF );
//  522 
//  523   // Using the length field to determine how many bytes to transfer.
//  524   HAL_DMA_SET_VLEN( ch, HAL_DMA_VLEN_USE_LEN );
//  525 
//  526   /* The trick is to cfg DMA to xfer 2 bytes for every 1 byte of Rx.
//  527    * The byte after the Rx Data Buffer is the Baud Cfg Register,
//  528    * which always has a known value. So init Rx buffer to inverse of that
//  529    * known value. DMA word xfer will flip the bytes, so every valid Rx byte
//  530    * in the Rx buffer will be preceded by a DMA_PAD char equal to the
//  531    * Baud Cfg Register value.
//  532    */
//  533   HAL_DMA_SET_WORD_SIZE( ch, HAL_DMA_WORDSIZE_WORD );
//  534 
//  535   // The bytes are transferred 1-by-1 on Rx Complete trigger.
//  536   HAL_DMA_SET_TRIG_MODE( ch, HAL_DMA_TMODE_SINGLE );
//  537   HAL_DMA_SET_TRIG_SRC( ch, DMATRIG_RX );
//  538 
//  539   // The source address is constant - the Rx Data Buffer.
//  540   HAL_DMA_SET_SRC_INC( ch, HAL_DMA_SRCINC_0 );
//  541 
//  542   // The destination address is incremented by 1 word after each transfer.
//  543   HAL_DMA_SET_DST_INC( ch, HAL_DMA_DSTINC_1 );
//  544 
//  545   // The DMA is to be polled and shall not issue an IRQ upon completion.
//  546   HAL_DMA_SET_IRQ( ch, HAL_DMA_IRQMASK_DISABLE );
//  547 
//  548   // Xfer all 8 bits of a byte xfer.
//  549   HAL_DMA_SET_M8( ch, HAL_DMA_M8_USE_8_BITS );
//  550 
//  551   // DMA has highest priority for memory access.
//  552   HAL_DMA_SET_PRIORITY( ch, HAL_DMA_PRI_HIGH );
//  553 #endif
//  554 }
        LJMP    ?BRET
        CFI EndBlock cfiBlock5
        REQUIRE U0CSR
        REQUIRE U0UCR
        REQUIRE PERCFG
        REQUIRE ADCCFG
        REQUIRE P0SEL
        REQUIRE P1SEL
        REQUIRE _A_U1CSR
        REQUIRE U1UCR
        REQUIRE P2DIR
//  555 
//  556 /******************************************************************************
//  557  * @fn      HalUARTOpen
//  558  *
//  559  * @brief   Open a port according tp the configuration specified by parameter.
//  560  *
//  561  * @param   port   - UART port
//  562  *          config - contains configuration information
//  563  *
//  564  * @return  Status of the function call
//  565  *****************************************************************************/

        RSEG BANKED_CODE:CODE:NOROOT(0)
//  566 uint8 HalUARTOpen( uint8 port, halUARTCfg_t *config )
HalUARTOpen:
        CFI Block cfiBlock6 Using cfiCommon0
        CFI Function HalUARTOpen
//  567 {
        FUNCALL HalUARTOpen, osal_mem_alloc
        LOCFRAME ISTACK, 0, STACK
        LOCFRAME PSTACK, 0, STACK
        LOCFRAME XSTACK, 14, STACK
        LOCFRAME IOVERLAY, 0, STATIC
        LOCFRAME DOVERLAY, 0, STATIC
        ARGFRAME ISTACK, 0, STACK
        ARGFRAME PSTACK, 0, STACK
        ARGFRAME XSTACK, 14, STACK
        ARGFRAME IOVERLAY, 0, STATIC
        ARGFRAME DOVERLAY, 0, STATIC
        FUNCALL HalUARTOpen, osal_mem_alloc
        LOCFRAME ISTACK, 0, STACK
        LOCFRAME PSTACK, 0, STACK
        LOCFRAME XSTACK, 14, STACK
        LOCFRAME IOVERLAY, 0, STATIC
        LOCFRAME DOVERLAY, 0, STATIC
        ARGFRAME ISTACK, 0, STACK
        ARGFRAME PSTACK, 0, STACK
        ARGFRAME XSTACK, 14, STACK
        ARGFRAME IOVERLAY, 0, STATIC
        ARGFRAME DOVERLAY, 0, STATIC
        FUNCALL HalUARTOpen, osal_mem_alloc
        LOCFRAME ISTACK, 0, STACK
        LOCFRAME PSTACK, 0, STACK
        LOCFRAME XSTACK, 14, STACK
        LOCFRAME IOVERLAY, 0, STATIC
        LOCFRAME DOVERLAY, 0, STATIC
        ARGFRAME ISTACK, 0, STACK
        ARGFRAME PSTACK, 0, STACK
        ARGFRAME XSTACK, 14, STACK
        ARGFRAME IOVERLAY, 0, STATIC
        ARGFRAME DOVERLAY, 0, STATIC
        FUNCALL HalUARTOpen, osal_mem_alloc
        LOCFRAME ISTACK, 0, STACK
        LOCFRAME PSTACK, 0, STACK
        LOCFRAME XSTACK, 14, STACK
        LOCFRAME IOVERLAY, 0, STATIC
        LOCFRAME DOVERLAY, 0, STATIC
        ARGFRAME ISTACK, 0, STACK
        ARGFRAME PSTACK, 0, STACK
        ARGFRAME XSTACK, 14, STACK
        ARGFRAME IOVERLAY, 0, STATIC
        ARGFRAME DOVERLAY, 0, STATIC
        MOV     A,#-0xe
        LCALL   ?BANKED_ENTER_XDATA
        CFI DPH0 load(1, XDATA, add(CFA_XSP16, literal(-1)))
        CFI DPL0 load(1, XDATA, add(CFA_XSP16, literal(-2)))
        CFI ?BRET_EXT load(1, XDATA, add(CFA_XSP16, literal(-3)))
        CFI ?RET_HIGH load(1, XDATA, add(CFA_XSP16, literal(-4)))
        CFI ?RET_LOW load(1, XDATA, add(CFA_XSP16, literal(-5)))
        CFI R7 load(1, XDATA, add(CFA_XSP16, literal(-6)))
        CFI V5 load(1, XDATA, add(CFA_XSP16, literal(-7)))
        CFI V4 load(1, XDATA, add(CFA_XSP16, literal(-8)))
        CFI V3 load(1, XDATA, add(CFA_XSP16, literal(-9)))
        CFI V2 load(1, XDATA, add(CFA_XSP16, literal(-10)))
        CFI V1 load(1, XDATA, add(CFA_XSP16, literal(-11)))
        CFI V0 load(1, XDATA, add(CFA_XSP16, literal(-12)))
        CFI VB load(1, XDATA, add(CFA_XSP16, literal(-13)))
        CFI R6 load(1, XDATA, add(CFA_XSP16, literal(-14)))
        CFI CFA_SP SP+0
        CFI CFA_XSP16 add(XSP16, 14)
        ; Saved register size: 14
        ; Auto size: 0
        MOV     ?V0 + 2,R1
        MOV     ?V0 + 0,R2
        MOV     ?V0 + 1,R3
//  568   uartCfg_t **cfgPP = NULL;
        MOV     R6,#0x0
        MOV     R7,#0x0
//  569   uartCfg_t *cfg;
//  570 
//  571 #if HAL_UART_0_ENABLE
//  572   if ( port == HAL_UART_PORT_0 )
        MOV     A,R1
        JNZ     ??HalUARTOpen_0
//  573   {
//  574     cfgPP = &cfg0;
        MOV     R6,#(cfg0 & 0xff)
        MOV     R7,#((cfg0 >> 8) & 0xff)
        SJMP    ??HalUARTOpen_1
//  575   }
//  576 #endif
//  577 
//  578 #if HAL_UART_1_ENABLE
//  579   if ( port == HAL_UART_PORT_1 )
??HalUARTOpen_0:
        MOV     A,#0x1
        XRL     A,?V0 + 2
        JNZ     ??HalUARTOpen_1
//  580   {
//  581     cfgPP = &cfg1;
        MOV     R6,#(cfg1 & 0xff)
        MOV     R7,#((cfg1 >> 8) & 0xff)
//  582   }
//  583 #endif
//  584 
//  585   HAL_UART_ASSERT( cfgPP );
//  586 
//  587 #if HAL_UART_CLOSE
//  588   // Protect against user re-opening port before closing it.
//  589   HalUARTClose( port );
//  590 #else
//  591   HAL_UART_ASSERT( *cfgPP == NULL );
//  592 #endif
//  593 
//  594   HAL_UART_ASSERT( (config->baudRate == HAL_UART_BR_38400) ||
//  595                    (config->baudRate == HAL_UART_BR_9600) );
//  596 
//  597   /* Whereas runtime heap alloc can be expected to fail - one-shot system
//  598    * initialization must succeed, so no check for alloc fail.
//  599    */
//  600   *cfgPP = (uartCfg_t *)osal_mem_alloc( sizeof( uartCfg_t ) );
??HalUARTOpen_1:
        ; Setup parameters for call to function osal_mem_alloc
        MOV     R2,#0x12
        MOV     R3,#0x0
        LCALL   ??osal_mem_alloc?relay
        MOV     DPL,R6
        MOV     DPH,R7
        MOV     A,R2
        MOVX    @DPTR,A
        INC     DPTR
        MOV     A,R3
        LCALL   ?Subroutine20 & 0xFFFF
//  601   cfg = *cfgPP;
??CrossCallReturnLabel_114:
        MOVX    A,@DPTR
        MOV     R6,A
        INC     DPTR
        MOVX    A,@DPTR
        MOV     R7,A
//  602   HAL_UART_ASSERT( cfg );
//  603 
//  604   cfg->rxMax = config->rx.maxBufSize;
        MOV     A,?V0 + 0
        ADD     A,#0xa
        MOV     ?V0 + 4,A
        MOV     A,?V0 + 1
        ADDC    A,#0x0
        MOV     ?V0 + 5,A
        MOV     DPL,?V0 + 4
        MOV     DPH,A
        MOVX    A,@DPTR
        MOV     DPL,R6
        MOV     DPH,R7
        INC     DPTR
        INC     DPTR
        INC     DPTR
        INC     DPTR
        MOVX    @DPTR,A
//  605 
//  606 #if !HAL_UART_BIG_TX_BUF
//  607   HAL_UART_ASSERT( (config->tx.maxBufSize < 256) );
//  608 #endif
//  609   cfg->txMax = config->tx.maxBufSize;
        MOV     A,R6
        ADD     A,#0xc
        MOV     R0,A
        MOV     A,R7
        ADDC    A,#0x0
        MOV     R1,A
        MOV     A,?V0 + 0
        ADD     A,#0x12
        MOV     DPL,A
        MOV     A,?V0 + 1
        LCALL   ??Subroutine14_1 & 0xFFFF
??CrossCallReturnLabel_37:
        MOV     DPL,R0
        MOV     DPH,R1
        MOVX    @DPTR,A
//  610   cfg->txBuf = osal_mem_alloc( cfg->txMax+1 );
        ; Setup parameters for call to function osal_mem_alloc
        LCALL   ?Subroutine18 & 0xFFFF
??CrossCallReturnLabel_117:
        INC     DPTR
        INC     DPTR
        INC     DPTR
        INC     DPTR
        INC     DPTR
        INC     DPTR
        INC     DPTR
        INC     DPTR
        MOV     A,R2
        MOVX    @DPTR,A
        INC     DPTR
        MOV     A,R3
        MOVX    @DPTR,A
//  611 
//  612   cfg->rxHead = cfg->rxTail = 0;
        CLR     A
        MOV     DPL,R6
        MOV     DPH,R7
        INC     DPTR
        INC     DPTR
        INC     DPTR
        LCALL   ?Subroutine15 & 0xFFFF
??CrossCallReturnLabel_44:
        INC     DPTR
        MOVX    @DPTR,A
//  613   cfg->txHead = cfg->txTail = 0;
        MOV     A,R6
        ADD     A,#0xb
        LCALL   ?Subroutine21 & 0xFFFF
??CrossCallReturnLabel_57:
        CLR     A
        LCALL   ?Subroutine15 & 0xFFFF
??CrossCallReturnLabel_45:
        INC     DPTR
        INC     DPTR
        INC     DPTR
        INC     DPTR
        INC     DPTR
        INC     DPTR
        INC     DPTR
        INC     DPTR
        INC     DPTR
        MOVX    @DPTR,A
//  614   cfg->rxHigh = config->rx.maxBufSize - config->flowControlThreshold;
        MOV     DPL,?V0 + 0
        MOV     DPH,?V0 + 1
        INC     DPTR
        INC     DPTR
        INC     DPTR
        MOVX    A,@DPTR
        MOV     R0,A
        MOV     DPL,?V0 + 4
        MOV     DPH,?V0 + 5
        MOVX    A,@DPTR
        CLR     C
        SUBB    A,R0
        MOV     DPL,R6
        MOV     DPH,R7
        INC     DPTR
        INC     DPTR
        INC     DPTR
        INC     DPTR
        INC     DPTR
        INC     DPTR
        INC     DPTR
        MOVX    @DPTR,A
//  615   cfg->rxCB = config->callBackFunc;
        MOV     A,?V0 + 0
        ADD     A,#0x1b
        MOV     DPL,A
        MOV     A,?V0 + 1
        LCALL   ??Subroutine21_0 & 0xFFFF
??CrossCallReturnLabel_58:
        LCALL   ?Subroutine5 & 0xFFFF
??CrossCallReturnLabel_10:
        MOV     A,R6
        ADD     A,#0x10
        LCALL   ?Subroutine21 & 0xFFFF
??CrossCallReturnLabel_59:
        MOV     A,R0
        MOVX    @DPTR,A
        INC     DPTR
        MOV     A,R1
        MOVX    @DPTR,A
//  616 
//  617 #if HAL_UART_0_ENABLE
//  618   if ( port == HAL_UART_PORT_0 )
        MOV     A,?V0 + 2
        JNZ     ??HalUARTOpen_2
        MOV     0xc2,#0x3b
//  619   {
//  620     // Only supporting 38400 or 9600 for code size - other is possible.
//  621     U0BAUD = (config->baudRate == HAL_UART_BR_38400) ? 59 : 59;
//  622     U0GCR = (config->baudRate == HAL_UART_BR_38400) ? 10 : 8;
        MOV     DPL,?V0 + 0
        MOV     DPH,?V0 + 1
        INC     DPTR
        MOVX    A,@DPTR
        XRL     A,#0x6
        JNZ     ??HalUARTOpen_3
        MOV     R2,#0xa
        SJMP    ??HalUARTOpen_4
??HalUARTOpen_3:
        MOV     R2,#0x8
??HalUARTOpen_4:
        MOV     0xc5,R2
//  623 
//  624     U0CSR |= CSR_RE;
        ORL     0x86,#0x40
//  625 
//  626 #if HAL_UART_DMA == 1
//  627     cfg->flag = UART_CFG_DMA;
//  628     HAL_UART_ASSERT( (config->rx.maxBufSize <= 128) );
//  629     HAL_UART_ASSERT( (config->rx.maxBufSize > SAFE_RX_MIN) );
//  630     cfg->rxBuf = osal_mem_alloc( cfg->rxMax*2 );
//  631     osal_memset( cfg->rxBuf, ~DMA_PAD, cfg->rxMax*2 );
//  632     DMA_RX( cfg );
//  633 #else
//  634     cfg->flag = 0;
        LCALL   ?Subroutine12 & 0xFFFF
??CrossCallReturnLabel_31:
        CLR     A
        LCALL   ?Subroutine1 & 0xFFFF
//  635     HAL_UART_ASSERT( (config->rx.maxBufSize < 256) );
//  636     cfg->rxBuf = osal_mem_alloc( cfg->rxMax+1 );
//  637     URX0IE = 1;
??CrossCallReturnLabel_2:
        SETB    0xa8.2
//  638     IEN2 |= UTX0IE;
        ORL     0x9a,#0x4
//  639 #endif
//  640 
//  641     // 8 bits/char; no parity; 1 stop bit; stop bit hi.
//  642     if ( config->flowControl )
        MOV     DPL,?V0 + 0
        MOV     DPH,?V0 + 1
        INC     DPTR
        INC     DPTR
        MOVX    A,@DPTR
        JZ      ??HalUARTOpen_5
//  643     {
//  644       cfg->flag |= UART_CFG_FLW;
        LCALL   ?Subroutine11 & 0xFFFF
//  645       U0UCR = UCR_FLOW | UCR_STOP;
??CrossCallReturnLabel_29:
        MOV     0xc4,#0x42
//  646       // Must rely on H/W for RTS (i.e. Tx stops when receiver negates CTS.)
//  647       P0SEL |= HAL_UART_0_P0_RTS;
        ORL     0xf3,#0x10
//  648       // Cannot use H/W for CTS as DMA does not clear the Rx bytes properly.
//  649       P0DIR |= HAL_UART_0_P0_CTS;
        ORL     0xfd,#0x20
//  650       RX0_FLOW_ON;
        CLR     0x80.5
        SJMP    ??HalUARTOpen_6
//  651     }
//  652     else
//  653     {
//  654       U0UCR = UCR_STOP;
??HalUARTOpen_5:
        MOV     0xc4,#0x2
        SJMP    ??HalUARTOpen_6
//  655     }
//  656     }
//  657 #endif
//  658 
//  659 #if HAL_UART_1_ENABLE
//  660   if ( port == HAL_UART_PORT_1 )
??HalUARTOpen_2:
        MOV     A,#0x1
        XRL     A,?V0 + 2
        JNZ     ??HalUARTOpen_6
        MOV     0xfa,#0x3b
//  661   {
//  662     // Only supporting 38400 or 115200 for code size - other is possible.
//  663     U1BAUD = (config->baudRate == HAL_UART_BR_38400) ? 59 : 59;
//  664     U1GCR = (config->baudRate == HAL_UART_BR_38400) ? 10 : 8;
        MOV     DPL,?V0 + 0
        MOV     DPH,?V0 + 1
        INC     DPTR
        MOVX    A,@DPTR
        XRL     A,#0x6
        JNZ     ??HalUARTOpen_7
        MOV     R2,#0xa
        SJMP    ??HalUARTOpen_8
??HalUARTOpen_7:
        MOV     R2,#0x8
??HalUARTOpen_8:
        MOV     0xfc,R2
//  665 
//  666     U1CSR |= CSR_RE;
        SETB    0xf8.6
//  667 
//  668 #if HAL_UART_DMA == 2
//  669     cfg->flag = (UART_CFG_U1F | UART_CFG_DMA);
//  670     HAL_UART_ASSERT( (config->rx.maxBufSize <= 128) );
//  671     HAL_UART_ASSERT( (config->rx.maxBufSize > SAFE_RX_MIN) );
//  672     cfg->rxBuf = osal_mem_alloc( cfg->rxMax*2 );
//  673     osal_memset( cfg->rxBuf, ~DMA_PAD, cfg->rxMax*2 );
//  674     DMA_RX( cfg );
//  675 #else
//  676     cfg->flag = UART_CFG_U1F;
        LCALL   ?Subroutine12 & 0xFFFF
??CrossCallReturnLabel_32:
        MOV     A,#-0x80
        LCALL   ?Subroutine1 & 0xFFFF
//  677     HAL_UART_ASSERT( (config->rx.maxBufSize < 256) );
//  678     cfg->rxBuf = osal_mem_alloc( cfg->rxMax+1 );
//  679     URX1IE = 1;
??CrossCallReturnLabel_3:
        SETB    0xa8.3
//  680     IEN2 |= UTX1IE;
        ORL     0x9a,#0x8
//  681 #endif
//  682 
//  683     // 8 bits/char; no parity; 1 stop bit; stop bit hi.
//  684     if ( config->flowControl )
        MOV     DPL,?V0 + 0
        MOV     DPH,?V0 + 1
        INC     DPTR
        INC     DPTR
        MOVX    A,@DPTR
        JZ      ??HalUARTOpen_9
//  685     {
//  686       cfg->flag |= UART_CFG_FLW;
        LCALL   ?Subroutine11 & 0xFFFF
//  687       U1UCR = UCR_FLOW | UCR_STOP;
??CrossCallReturnLabel_30:
        MOV     0xfb,#0x42
//  688       // Must rely on H/W for RTS (i.e. Tx stops when receiver negates CTS.)
//  689       P1SEL |= HAL_UART_1_P1_RTS;
        ORL     0xf4,#0x10
//  690       // Cannot use H/W for CTS as DMA does not clear the Rx bytes properly.
//  691       P1DIR |= HAL_UART_1_P1_CTS;
        ORL     0xfe,#0x20
//  692       RX1_FLOW_ON;
        CLR     0x90.5
        SJMP    ??HalUARTOpen_6
//  693     }
//  694     else
//  695     {
//  696       U1UCR = UCR_STOP;
??HalUARTOpen_9:
        MOV     0xfb,#0x2
//  697     }
//  698   }
//  699 #endif
//  700 
//  701   return HAL_UART_SUCCESS;
??HalUARTOpen_6:
        MOV     R1,#0x0
        MOV     R7,#0x6
        LJMP    ?BANKED_LEAVE_XDATA
        CFI EndBlock cfiBlock6
        REQUIRE _A_P0
        REQUIRE U0CSR
        REQUIRE _A_P1
        REQUIRE IEN2
        REQUIRE _A_IEN0
        REQUIRE U0BAUD
        REQUIRE U0UCR
        REQUIRE U0GCR
        REQUIRE P0SEL
        REQUIRE P1SEL
        REQUIRE _A_U1CSR
        REQUIRE U1BAUD
        REQUIRE U1UCR
        REQUIRE U1GCR
        REQUIRE P0DIR
        REQUIRE P1DIR
//  702 }

        RSEG BANKED_CODE:CODE:NOROOT(0)
?Subroutine11:
        CFI Block cfiCond7 Using cfiCommon0
        CFI NoFunction
        CFI Conditional ??CrossCallReturnLabel_29
        CFI R6 load(1, XDATA, add(CFA_XSP16, literal(-14)))
        CFI VB load(1, XDATA, add(CFA_XSP16, literal(-13)))
        CFI V0 load(1, XDATA, add(CFA_XSP16, literal(-12)))
        CFI V1 load(1, XDATA, add(CFA_XSP16, literal(-11)))
        CFI V2 load(1, XDATA, add(CFA_XSP16, literal(-10)))
        CFI V3 load(1, XDATA, add(CFA_XSP16, literal(-9)))
        CFI V4 load(1, XDATA, add(CFA_XSP16, literal(-8)))
        CFI V5 load(1, XDATA, add(CFA_XSP16, literal(-7)))
        CFI R7 load(1, XDATA, add(CFA_XSP16, literal(-6)))
        CFI ?RET_LOW load(1, XDATA, add(CFA_XSP16, literal(-5)))
        CFI ?RET_HIGH load(1, XDATA, add(CFA_XSP16, literal(-4)))
        CFI ?BRET_EXT load(1, XDATA, add(CFA_XSP16, literal(-3)))
        CFI DPL0 load(1, XDATA, add(CFA_XSP16, literal(-2)))
        CFI DPH0 load(1, XDATA, add(CFA_XSP16, literal(-1)))
        CFI CFA_SP SP+0
        CFI CFA_XSP16 add(XSP16, 14)
        CFI Block cfiCond8 Using cfiCommon0
        CFI (cfiCond8) NoFunction
        CFI (cfiCond8) Conditional ??CrossCallReturnLabel_30
        CFI (cfiCond8) R6 load(1, XDATA, add(CFA_XSP16, literal(-14)))
        CFI (cfiCond8) VB load(1, XDATA, add(CFA_XSP16, literal(-13)))
        CFI (cfiCond8) V0 load(1, XDATA, add(CFA_XSP16, literal(-12)))
        CFI (cfiCond8) V1 load(1, XDATA, add(CFA_XSP16, literal(-11)))
        CFI (cfiCond8) V2 load(1, XDATA, add(CFA_XSP16, literal(-10)))
        CFI (cfiCond8) V3 load(1, XDATA, add(CFA_XSP16, literal(-9)))
        CFI (cfiCond8) V4 load(1, XDATA, add(CFA_XSP16, literal(-8)))
        CFI (cfiCond8) V5 load(1, XDATA, add(CFA_XSP16, literal(-7)))
        CFI (cfiCond8) R7 load(1, XDATA, add(CFA_XSP16, literal(-6)))
        CFI (cfiCond8) ?RET_LOW load(1, XDATA, add(CFA_XSP16, literal(-5)))
        CFI (cfiCond8) ?RET_HIGH load(1, XDATA, add(CFA_XSP16, literal(-4)))
        CFI (cfiCond8) ?BRET_EXT load(1, XDATA, add(CFA_XSP16, literal(-3)))
        CFI (cfiCond8) DPL0 load(1, XDATA, add(CFA_XSP16, literal(-2)))
        CFI (cfiCond8) DPH0 load(1, XDATA, add(CFA_XSP16, literal(-1)))
        CFI (cfiCond8) CFA_SP SP+0
        CFI (cfiCond8) CFA_XSP16 add(XSP16, 14)
        CFI Block cfiPicker9 Using cfiCommon1
        CFI (cfiPicker9) NoFunction
        CFI (cfiPicker9) Picker
        MOV     A,R6
        ADD     A,#0xf
        MOV     DPL,A
        MOV     A,R7
        LCALL   ??Subroutine19_0 & 0xFFFF
??CrossCallReturnLabel_54:
        SETB    0xE0 /* A   */.5
        MOVX    @DPTR,A
        RET
        CFI EndBlock cfiCond7
        CFI EndBlock cfiCond8
        CFI EndBlock cfiPicker9

        RSEG BANKED_CODE:CODE:NOROOT(0)
?Subroutine1:
        CFI Block cfiCond10 Using cfiCommon0
        CFI NoFunction
        CFI Conditional ??CrossCallReturnLabel_2
        CFI R6 load(1, XDATA, add(CFA_XSP16, literal(-14)))
        CFI VB load(1, XDATA, add(CFA_XSP16, literal(-13)))
        CFI V0 load(1, XDATA, add(CFA_XSP16, literal(-12)))
        CFI V1 load(1, XDATA, add(CFA_XSP16, literal(-11)))
        CFI V2 load(1, XDATA, add(CFA_XSP16, literal(-10)))
        CFI V3 load(1, XDATA, add(CFA_XSP16, literal(-9)))
        CFI V4 load(1, XDATA, add(CFA_XSP16, literal(-8)))
        CFI V5 load(1, XDATA, add(CFA_XSP16, literal(-7)))
        CFI R7 load(1, XDATA, add(CFA_XSP16, literal(-6)))
        CFI ?RET_LOW load(1, XDATA, add(CFA_XSP16, literal(-5)))
        CFI ?RET_HIGH load(1, XDATA, add(CFA_XSP16, literal(-4)))
        CFI ?BRET_EXT load(1, XDATA, add(CFA_XSP16, literal(-3)))
        CFI DPL0 load(1, XDATA, add(CFA_XSP16, literal(-2)))
        CFI DPH0 load(1, XDATA, add(CFA_XSP16, literal(-1)))
        CFI CFA_SP SP+0
        CFI CFA_XSP16 add(XSP16, 14)
        CFI Block cfiCond11 Using cfiCommon0
        CFI (cfiCond11) NoFunction
        CFI (cfiCond11) Conditional ??CrossCallReturnLabel_3
        CFI (cfiCond11) R6 load(1, XDATA, add(CFA_XSP16, literal(-14)))
        CFI (cfiCond11) VB load(1, XDATA, add(CFA_XSP16, literal(-13)))
        CFI (cfiCond11) V0 load(1, XDATA, add(CFA_XSP16, literal(-12)))
        CFI (cfiCond11) V1 load(1, XDATA, add(CFA_XSP16, literal(-11)))
        CFI (cfiCond11) V2 load(1, XDATA, add(CFA_XSP16, literal(-10)))
        CFI (cfiCond11) V3 load(1, XDATA, add(CFA_XSP16, literal(-9)))
        CFI (cfiCond11) V4 load(1, XDATA, add(CFA_XSP16, literal(-8)))
        CFI (cfiCond11) V5 load(1, XDATA, add(CFA_XSP16, literal(-7)))
        CFI (cfiCond11) R7 load(1, XDATA, add(CFA_XSP16, literal(-6)))
        CFI (cfiCond11) ?RET_LOW load(1, XDATA, add(CFA_XSP16, literal(-5)))
        CFI (cfiCond11) ?RET_HIGH load(1, XDATA, add(CFA_XSP16, literal(-4)))
        CFI (cfiCond11) ?BRET_EXT load(1, XDATA, add(CFA_XSP16, literal(-3)))
        CFI (cfiCond11) DPL0 load(1, XDATA, add(CFA_XSP16, literal(-2)))
        CFI (cfiCond11) DPH0 load(1, XDATA, add(CFA_XSP16, literal(-1)))
        CFI (cfiCond11) CFA_SP SP+0
        CFI (cfiCond11) CFA_XSP16 add(XSP16, 14)
        CFI Block cfiPicker12 Using cfiCommon1
        CFI (cfiPicker12) NoFunction
        CFI (cfiPicker12) Picker
        LCALL   ?Subroutine20 & 0xFFFF
??CrossCallReturnLabel_115:
        INC     DPTR
        INC     DPTR
        INC     DPTR
        INC     DPTR
        MOVX    A,@DPTR
        LCALL   ?Subroutine18 & 0xFFFF
??CrossCallReturnLabel_118:
        MOV     A,R2
        MOVX    @DPTR,A
        INC     DPTR
        MOV     A,R3
        MOVX    @DPTR,A
        RET
        CFI EndBlock cfiCond10
        CFI EndBlock cfiCond11
        CFI EndBlock cfiPicker12

        RSEG BANKED_CODE:CODE:NOROOT(0)
?Subroutine18:
        CFI Block cfiCond13 Using cfiCommon0
        CFI NoFunction
        CFI Conditional ??CrossCallReturnLabel_117
        CFI R6 load(1, XDATA, add(CFA_XSP16, literal(-14)))
        CFI VB load(1, XDATA, add(CFA_XSP16, literal(-13)))
        CFI V0 load(1, XDATA, add(CFA_XSP16, literal(-12)))
        CFI V1 load(1, XDATA, add(CFA_XSP16, literal(-11)))
        CFI V2 load(1, XDATA, add(CFA_XSP16, literal(-10)))
        CFI V3 load(1, XDATA, add(CFA_XSP16, literal(-9)))
        CFI V4 load(1, XDATA, add(CFA_XSP16, literal(-8)))
        CFI V5 load(1, XDATA, add(CFA_XSP16, literal(-7)))
        CFI R7 load(1, XDATA, add(CFA_XSP16, literal(-6)))
        CFI ?RET_LOW load(1, XDATA, add(CFA_XSP16, literal(-5)))
        CFI ?RET_HIGH load(1, XDATA, add(CFA_XSP16, literal(-4)))
        CFI ?BRET_EXT load(1, XDATA, add(CFA_XSP16, literal(-3)))
        CFI DPL0 load(1, XDATA, add(CFA_XSP16, literal(-2)))
        CFI DPH0 load(1, XDATA, add(CFA_XSP16, literal(-1)))
        CFI CFA_SP SP+0
        CFI CFA_XSP16 add(XSP16, 14)
        CFI Block cfiCond14 Using cfiCommon0
        CFI (cfiCond14) NoFunction
        CFI (cfiCond14) Conditional ??CrossCallReturnLabel_118, ??CrossCallReturnLabel_2
        CFI (cfiCond14) R6 load(1, XDATA, add(CFA_XSP16, literal(-14)))
        CFI (cfiCond14) VB load(1, XDATA, add(CFA_XSP16, literal(-13)))
        CFI (cfiCond14) V0 load(1, XDATA, add(CFA_XSP16, literal(-12)))
        CFI (cfiCond14) V1 load(1, XDATA, add(CFA_XSP16, literal(-11)))
        CFI (cfiCond14) V2 load(1, XDATA, add(CFA_XSP16, literal(-10)))
        CFI (cfiCond14) V3 load(1, XDATA, add(CFA_XSP16, literal(-9)))
        CFI (cfiCond14) V4 load(1, XDATA, add(CFA_XSP16, literal(-8)))
        CFI (cfiCond14) V5 load(1, XDATA, add(CFA_XSP16, literal(-7)))
        CFI (cfiCond14) R7 load(1, XDATA, add(CFA_XSP16, literal(-6)))
        CFI (cfiCond14) ?RET_LOW load(1, XDATA, add(CFA_XSP16, literal(-5)))
        CFI (cfiCond14) ?RET_HIGH load(1, XDATA, add(CFA_XSP16, literal(-4)))
        CFI (cfiCond14) ?BRET_EXT load(1, XDATA, add(CFA_XSP16, literal(-3)))
        CFI (cfiCond14) DPL0 load(1, XDATA, add(CFA_XSP16, literal(-2)))
        CFI (cfiCond14) DPH0 load(1, XDATA, add(CFA_XSP16, literal(-1)))
        CFI (cfiCond14) CFA_SP SP+0
        CFI (cfiCond14) CFA_XSP16 add(XSP16, 14)
        CFI Block cfiCond15 Using cfiCommon0
        CFI (cfiCond15) NoFunction
        CFI (cfiCond15) Conditional ??CrossCallReturnLabel_118, ??CrossCallReturnLabel_3
        CFI (cfiCond15) R6 load(1, XDATA, add(CFA_XSP16, literal(-14)))
        CFI (cfiCond15) VB load(1, XDATA, add(CFA_XSP16, literal(-13)))
        CFI (cfiCond15) V0 load(1, XDATA, add(CFA_XSP16, literal(-12)))
        CFI (cfiCond15) V1 load(1, XDATA, add(CFA_XSP16, literal(-11)))
        CFI (cfiCond15) V2 load(1, XDATA, add(CFA_XSP16, literal(-10)))
        CFI (cfiCond15) V3 load(1, XDATA, add(CFA_XSP16, literal(-9)))
        CFI (cfiCond15) V4 load(1, XDATA, add(CFA_XSP16, literal(-8)))
        CFI (cfiCond15) V5 load(1, XDATA, add(CFA_XSP16, literal(-7)))
        CFI (cfiCond15) R7 load(1, XDATA, add(CFA_XSP16, literal(-6)))
        CFI (cfiCond15) ?RET_LOW load(1, XDATA, add(CFA_XSP16, literal(-5)))
        CFI (cfiCond15) ?RET_HIGH load(1, XDATA, add(CFA_XSP16, literal(-4)))
        CFI (cfiCond15) ?BRET_EXT load(1, XDATA, add(CFA_XSP16, literal(-3)))
        CFI (cfiCond15) DPL0 load(1, XDATA, add(CFA_XSP16, literal(-2)))
        CFI (cfiCond15) DPH0 load(1, XDATA, add(CFA_XSP16, literal(-1)))
        CFI (cfiCond15) CFA_SP SP+0
        CFI (cfiCond15) CFA_XSP16 add(XSP16, 14)
        CFI Block cfiPicker16 Using cfiCommon1
        CFI (cfiPicker16) NoFunction
        CFI (cfiPicker16) Picker
        MOV     R0,A
        MOV     A,#0x1
        ADD     A,R0
        MOV     R2,A
        CLR     A
        ADDC    A,#0x0
        MOV     R3,A
        LCALL   ??osal_mem_alloc?relay
        CFI EndBlock cfiCond13
        CFI EndBlock cfiCond14
        CFI EndBlock cfiCond15
        CFI EndBlock cfiPicker16
        REQUIRE ?Subroutine46
        ; // Fall through to label ?Subroutine46

        RSEG BANKED_CODE:CODE:NOROOT(0)
?Subroutine46:
        CFI Block cfiCond17 Using cfiCommon0
        CFI NoFunction
        CFI Conditional ??CrossCallReturnLabel_117
        CFI R6 load(1, XDATA, add(CFA_XSP16, literal(-14)))
        CFI VB load(1, XDATA, add(CFA_XSP16, literal(-13)))
        CFI V0 load(1, XDATA, add(CFA_XSP16, literal(-12)))
        CFI V1 load(1, XDATA, add(CFA_XSP16, literal(-11)))
        CFI V2 load(1, XDATA, add(CFA_XSP16, literal(-10)))
        CFI V3 load(1, XDATA, add(CFA_XSP16, literal(-9)))
        CFI V4 load(1, XDATA, add(CFA_XSP16, literal(-8)))
        CFI V5 load(1, XDATA, add(CFA_XSP16, literal(-7)))
        CFI R7 load(1, XDATA, add(CFA_XSP16, literal(-6)))
        CFI ?RET_LOW load(1, XDATA, add(CFA_XSP16, literal(-5)))
        CFI ?RET_HIGH load(1, XDATA, add(CFA_XSP16, literal(-4)))
        CFI ?BRET_EXT load(1, XDATA, add(CFA_XSP16, literal(-3)))
        CFI DPL0 load(1, XDATA, add(CFA_XSP16, literal(-2)))
        CFI DPH0 load(1, XDATA, add(CFA_XSP16, literal(-1)))
        CFI CFA_SP SP+0
        CFI CFA_XSP16 add(XSP16, 14)
        CFI Block cfiCond18 Using cfiCommon0
        CFI (cfiCond18) NoFunction
        CFI (cfiCond18) Conditional ??CrossCallReturnLabel_118, ??CrossCallReturnLabel_2
        CFI (cfiCond18) R6 load(1, XDATA, add(CFA_XSP16, literal(-14)))
        CFI (cfiCond18) VB load(1, XDATA, add(CFA_XSP16, literal(-13)))
        CFI (cfiCond18) V0 load(1, XDATA, add(CFA_XSP16, literal(-12)))
        CFI (cfiCond18) V1 load(1, XDATA, add(CFA_XSP16, literal(-11)))
        CFI (cfiCond18) V2 load(1, XDATA, add(CFA_XSP16, literal(-10)))
        CFI (cfiCond18) V3 load(1, XDATA, add(CFA_XSP16, literal(-9)))
        CFI (cfiCond18) V4 load(1, XDATA, add(CFA_XSP16, literal(-8)))
        CFI (cfiCond18) V5 load(1, XDATA, add(CFA_XSP16, literal(-7)))
        CFI (cfiCond18) R7 load(1, XDATA, add(CFA_XSP16, literal(-6)))
        CFI (cfiCond18) ?RET_LOW load(1, XDATA, add(CFA_XSP16, literal(-5)))
        CFI (cfiCond18) ?RET_HIGH load(1, XDATA, add(CFA_XSP16, literal(-4)))
        CFI (cfiCond18) ?BRET_EXT load(1, XDATA, add(CFA_XSP16, literal(-3)))
        CFI (cfiCond18) DPL0 load(1, XDATA, add(CFA_XSP16, literal(-2)))
        CFI (cfiCond18) DPH0 load(1, XDATA, add(CFA_XSP16, literal(-1)))
        CFI (cfiCond18) CFA_SP SP+0
        CFI (cfiCond18) CFA_XSP16 add(XSP16, 14)
        CFI Block cfiCond19 Using cfiCommon0
        CFI (cfiCond19) NoFunction
        CFI (cfiCond19) Conditional ??CrossCallReturnLabel_118, ??CrossCallReturnLabel_3
        CFI (cfiCond19) R6 load(1, XDATA, add(CFA_XSP16, literal(-14)))
        CFI (cfiCond19) VB load(1, XDATA, add(CFA_XSP16, literal(-13)))
        CFI (cfiCond19) V0 load(1, XDATA, add(CFA_XSP16, literal(-12)))
        CFI (cfiCond19) V1 load(1, XDATA, add(CFA_XSP16, literal(-11)))
        CFI (cfiCond19) V2 load(1, XDATA, add(CFA_XSP16, literal(-10)))
        CFI (cfiCond19) V3 load(1, XDATA, add(CFA_XSP16, literal(-9)))
        CFI (cfiCond19) V4 load(1, XDATA, add(CFA_XSP16, literal(-8)))
        CFI (cfiCond19) V5 load(1, XDATA, add(CFA_XSP16, literal(-7)))
        CFI (cfiCond19) R7 load(1, XDATA, add(CFA_XSP16, literal(-6)))
        CFI (cfiCond19) ?RET_LOW load(1, XDATA, add(CFA_XSP16, literal(-5)))
        CFI (cfiCond19) ?RET_HIGH load(1, XDATA, add(CFA_XSP16, literal(-4)))
        CFI (cfiCond19) ?BRET_EXT load(1, XDATA, add(CFA_XSP16, literal(-3)))
        CFI (cfiCond19) DPL0 load(1, XDATA, add(CFA_XSP16, literal(-2)))
        CFI (cfiCond19) DPH0 load(1, XDATA, add(CFA_XSP16, literal(-1)))
        CFI (cfiCond19) CFA_SP SP+0
        CFI (cfiCond19) CFA_XSP16 add(XSP16, 14)
        CFI Block cfiCond20 Using cfiCommon0
        CFI (cfiCond20) NoFunction
        CFI (cfiCond20) Conditional ??CrossCallReturnLabel_114
        CFI (cfiCond20) R6 load(1, XDATA, add(CFA_XSP16, literal(-14)))
        CFI (cfiCond20) VB load(1, XDATA, add(CFA_XSP16, literal(-13)))
        CFI (cfiCond20) V0 load(1, XDATA, add(CFA_XSP16, literal(-12)))
        CFI (cfiCond20) V1 load(1, XDATA, add(CFA_XSP16, literal(-11)))
        CFI (cfiCond20) V2 load(1, XDATA, add(CFA_XSP16, literal(-10)))
        CFI (cfiCond20) V3 load(1, XDATA, add(CFA_XSP16, literal(-9)))
        CFI (cfiCond20) V4 load(1, XDATA, add(CFA_XSP16, literal(-8)))
        CFI (cfiCond20) V5 load(1, XDATA, add(CFA_XSP16, literal(-7)))
        CFI (cfiCond20) R7 load(1, XDATA, add(CFA_XSP16, literal(-6)))
        CFI (cfiCond20) ?RET_LOW load(1, XDATA, add(CFA_XSP16, literal(-5)))
        CFI (cfiCond20) ?RET_HIGH load(1, XDATA, add(CFA_XSP16, literal(-4)))
        CFI (cfiCond20) ?BRET_EXT load(1, XDATA, add(CFA_XSP16, literal(-3)))
        CFI (cfiCond20) DPL0 load(1, XDATA, add(CFA_XSP16, literal(-2)))
        CFI (cfiCond20) DPH0 load(1, XDATA, add(CFA_XSP16, literal(-1)))
        CFI (cfiCond20) CFA_SP SP+0
        CFI (cfiCond20) CFA_XSP16 add(XSP16, 14)
        CFI Block cfiCond21 Using cfiCommon0
        CFI (cfiCond21) NoFunction
        CFI (cfiCond21) Conditional ??CrossCallReturnLabel_115, ??CrossCallReturnLabel_2
        CFI (cfiCond21) R6 load(1, XDATA, add(CFA_XSP16, literal(-14)))
        CFI (cfiCond21) VB load(1, XDATA, add(CFA_XSP16, literal(-13)))
        CFI (cfiCond21) V0 load(1, XDATA, add(CFA_XSP16, literal(-12)))
        CFI (cfiCond21) V1 load(1, XDATA, add(CFA_XSP16, literal(-11)))
        CFI (cfiCond21) V2 load(1, XDATA, add(CFA_XSP16, literal(-10)))
        CFI (cfiCond21) V3 load(1, XDATA, add(CFA_XSP16, literal(-9)))
        CFI (cfiCond21) V4 load(1, XDATA, add(CFA_XSP16, literal(-8)))
        CFI (cfiCond21) V5 load(1, XDATA, add(CFA_XSP16, literal(-7)))
        CFI (cfiCond21) R7 load(1, XDATA, add(CFA_XSP16, literal(-6)))
        CFI (cfiCond21) ?RET_LOW load(1, XDATA, add(CFA_XSP16, literal(-5)))
        CFI (cfiCond21) ?RET_HIGH load(1, XDATA, add(CFA_XSP16, literal(-4)))
        CFI (cfiCond21) ?BRET_EXT load(1, XDATA, add(CFA_XSP16, literal(-3)))
        CFI (cfiCond21) DPL0 load(1, XDATA, add(CFA_XSP16, literal(-2)))
        CFI (cfiCond21) DPH0 load(1, XDATA, add(CFA_XSP16, literal(-1)))
        CFI (cfiCond21) CFA_SP SP+0
        CFI (cfiCond21) CFA_XSP16 add(XSP16, 14)
        CFI Block cfiCond22 Using cfiCommon0
        CFI (cfiCond22) NoFunction
        CFI (cfiCond22) Conditional ??CrossCallReturnLabel_115, ??CrossCallReturnLabel_3
        CFI (cfiCond22) R6 load(1, XDATA, add(CFA_XSP16, literal(-14)))
        CFI (cfiCond22) VB load(1, XDATA, add(CFA_XSP16, literal(-13)))
        CFI (cfiCond22) V0 load(1, XDATA, add(CFA_XSP16, literal(-12)))
        CFI (cfiCond22) V1 load(1, XDATA, add(CFA_XSP16, literal(-11)))
        CFI (cfiCond22) V2 load(1, XDATA, add(CFA_XSP16, literal(-10)))
        CFI (cfiCond22) V3 load(1, XDATA, add(CFA_XSP16, literal(-9)))
        CFI (cfiCond22) V4 load(1, XDATA, add(CFA_XSP16, literal(-8)))
        CFI (cfiCond22) V5 load(1, XDATA, add(CFA_XSP16, literal(-7)))
        CFI (cfiCond22) R7 load(1, XDATA, add(CFA_XSP16, literal(-6)))
        CFI (cfiCond22) ?RET_LOW load(1, XDATA, add(CFA_XSP16, literal(-5)))
        CFI (cfiCond22) ?RET_HIGH load(1, XDATA, add(CFA_XSP16, literal(-4)))
        CFI (cfiCond22) ?BRET_EXT load(1, XDATA, add(CFA_XSP16, literal(-3)))
        CFI (cfiCond22) DPL0 load(1, XDATA, add(CFA_XSP16, literal(-2)))
        CFI (cfiCond22) DPH0 load(1, XDATA, add(CFA_XSP16, literal(-1)))
        CFI (cfiCond22) CFA_SP SP+0
        CFI (cfiCond22) CFA_XSP16 add(XSP16, 14)
        CFI Block cfiCond23 Using cfiCommon0
        CFI (cfiCond23) NoFunction
        CFI (cfiCond23) Conditional ??CrossCallReturnLabel_116
        CFI (cfiCond23) R6 load(1, XDATA, add(CFA_XSP16, literal(-10)))
        CFI (cfiCond23) VB load(1, XDATA, add(CFA_XSP16, literal(-9)))
        CFI (cfiCond23) V0 load(1, XDATA, add(CFA_XSP16, literal(-8)))
        CFI (cfiCond23) V1 load(1, XDATA, add(CFA_XSP16, literal(-7)))
        CFI (cfiCond23) R7 load(1, XDATA, add(CFA_XSP16, literal(-6)))
        CFI (cfiCond23) ?RET_LOW load(1, XDATA, add(CFA_XSP16, literal(-5)))
        CFI (cfiCond23) ?RET_HIGH load(1, XDATA, add(CFA_XSP16, literal(-4)))
        CFI (cfiCond23) ?BRET_EXT load(1, XDATA, add(CFA_XSP16, literal(-3)))
        CFI (cfiCond23) DPL0 load(1, XDATA, add(CFA_XSP16, literal(-2)))
        CFI (cfiCond23) DPH0 load(1, XDATA, add(CFA_XSP16, literal(-1)))
        CFI (cfiCond23) CFA_SP SP+0
        CFI (cfiCond23) CFA_XSP16 add(XSP16, 10)
        CFI Block cfiCond24 Using cfiCommon0
        CFI (cfiCond24) NoFunction
        CFI (cfiCond24) Conditional ??CrossCallReturnLabel_119, ??CrossCallReturnLabel_44
        CFI (cfiCond24) R6 load(1, XDATA, add(CFA_XSP16, literal(-14)))
        CFI (cfiCond24) VB load(1, XDATA, add(CFA_XSP16, literal(-13)))
        CFI (cfiCond24) V0 load(1, XDATA, add(CFA_XSP16, literal(-12)))
        CFI (cfiCond24) V1 load(1, XDATA, add(CFA_XSP16, literal(-11)))
        CFI (cfiCond24) V2 load(1, XDATA, add(CFA_XSP16, literal(-10)))
        CFI (cfiCond24) V3 load(1, XDATA, add(CFA_XSP16, literal(-9)))
        CFI (cfiCond24) V4 load(1, XDATA, add(CFA_XSP16, literal(-8)))
        CFI (cfiCond24) V5 load(1, XDATA, add(CFA_XSP16, literal(-7)))
        CFI (cfiCond24) R7 load(1, XDATA, add(CFA_XSP16, literal(-6)))
        CFI (cfiCond24) ?RET_LOW load(1, XDATA, add(CFA_XSP16, literal(-5)))
        CFI (cfiCond24) ?RET_HIGH load(1, XDATA, add(CFA_XSP16, literal(-4)))
        CFI (cfiCond24) ?BRET_EXT load(1, XDATA, add(CFA_XSP16, literal(-3)))
        CFI (cfiCond24) DPL0 load(1, XDATA, add(CFA_XSP16, literal(-2)))
        CFI (cfiCond24) DPH0 load(1, XDATA, add(CFA_XSP16, literal(-1)))
        CFI (cfiCond24) CFA_SP SP+0
        CFI (cfiCond24) CFA_XSP16 add(XSP16, 14)
        CFI Block cfiCond25 Using cfiCommon0
        CFI (cfiCond25) NoFunction
        CFI (cfiCond25) Conditional ??CrossCallReturnLabel_119, ??CrossCallReturnLabel_45
        CFI (cfiCond25) R6 load(1, XDATA, add(CFA_XSP16, literal(-14)))
        CFI (cfiCond25) VB load(1, XDATA, add(CFA_XSP16, literal(-13)))
        CFI (cfiCond25) V0 load(1, XDATA, add(CFA_XSP16, literal(-12)))
        CFI (cfiCond25) V1 load(1, XDATA, add(CFA_XSP16, literal(-11)))
        CFI (cfiCond25) V2 load(1, XDATA, add(CFA_XSP16, literal(-10)))
        CFI (cfiCond25) V3 load(1, XDATA, add(CFA_XSP16, literal(-9)))
        CFI (cfiCond25) V4 load(1, XDATA, add(CFA_XSP16, literal(-8)))
        CFI (cfiCond25) V5 load(1, XDATA, add(CFA_XSP16, literal(-7)))
        CFI (cfiCond25) R7 load(1, XDATA, add(CFA_XSP16, literal(-6)))
        CFI (cfiCond25) ?RET_LOW load(1, XDATA, add(CFA_XSP16, literal(-5)))
        CFI (cfiCond25) ?RET_HIGH load(1, XDATA, add(CFA_XSP16, literal(-4)))
        CFI (cfiCond25) ?BRET_EXT load(1, XDATA, add(CFA_XSP16, literal(-3)))
        CFI (cfiCond25) DPL0 load(1, XDATA, add(CFA_XSP16, literal(-2)))
        CFI (cfiCond25) DPH0 load(1, XDATA, add(CFA_XSP16, literal(-1)))
        CFI (cfiCond25) CFA_SP SP+0
        CFI (cfiCond25) CFA_XSP16 add(XSP16, 14)
        CFI Block cfiCond26 Using cfiCommon0
        CFI (cfiCond26) NoFunction
        CFI (cfiCond26) Conditional ??CrossCallReturnLabel_119, ??CrossCallReturnLabel_46
        CFI (cfiCond26) R6 load(1, XDATA, add(CFA_XSP16, literal(-12)))
        CFI (cfiCond26) VB load(1, XDATA, add(CFA_XSP16, literal(-11)))
        CFI (cfiCond26) V0 load(1, XDATA, add(CFA_XSP16, literal(-10)))
        CFI (cfiCond26) V1 load(1, XDATA, add(CFA_XSP16, literal(-9)))
        CFI (cfiCond26) V2 load(1, XDATA, add(CFA_XSP16, literal(-8)))
        CFI (cfiCond26) V3 load(1, XDATA, add(CFA_XSP16, literal(-7)))
        CFI (cfiCond26) R7 load(1, XDATA, add(CFA_XSP16, literal(-6)))
        CFI (cfiCond26) ?RET_LOW load(1, XDATA, add(CFA_XSP16, literal(-5)))
        CFI (cfiCond26) ?RET_HIGH load(1, XDATA, add(CFA_XSP16, literal(-4)))
        CFI (cfiCond26) ?BRET_EXT load(1, XDATA, add(CFA_XSP16, literal(-3)))
        CFI (cfiCond26) DPL0 load(1, XDATA, add(CFA_XSP16, literal(-2)))
        CFI (cfiCond26) DPH0 load(1, XDATA, add(CFA_XSP16, literal(-1)))
        CFI (cfiCond26) CFA_SP SP+0
        CFI (cfiCond26) CFA_XSP16 add(XSP16, 12)
        CFI Block cfiPicker27 Using cfiCommon1
        CFI (cfiPicker27) NoFunction
        CFI (cfiPicker27) Picker
        MOV     DPL,R6
        MOV     DPH,R7
        RET
        CFI EndBlock cfiCond17
        CFI EndBlock cfiCond18
        CFI EndBlock cfiCond19
        CFI EndBlock cfiCond20
        CFI EndBlock cfiCond21
        CFI EndBlock cfiCond22
        CFI EndBlock cfiCond23
        CFI EndBlock cfiCond24
        CFI EndBlock cfiCond25
        CFI EndBlock cfiCond26
        CFI EndBlock cfiPicker27
//  703 
//  704 /******************************************************************************
//  705  * @fn      HalUARTClose
//  706  *
//  707  * @brief   Close the UART
//  708  *
//  709  * @param   port - UART port
//  710  *
//  711  * @return  none
//  712  *****************************************************************************/

        RSEG BANKED_CODE:CODE:NOROOT(0)
//  713 void HalUARTClose( uint8 port )
HalUARTClose:
        CFI Block cfiBlock28 Using cfiCommon0
        CFI Function HalUARTClose
//  714 {
        ; Saved register size: 0
        ; Auto size: 0
//  715 #if HAL_UART_CLOSE
//  716   uartCfg_t *cfg;
//  717 
//  718 #if HAL_UART_0_ENABLE
//  719   if ( port == HAL_UART_PORT_0 )
//  720   {
//  721     U0CSR &= ~CSR_RE;
//  722 #if HAL_UART_DMA == 1
//  723     HAL_DMA_ABORT_CH( HAL_DMA_CH_RX );
//  724     HAL_DMA_ABORT_CH( HAL_DMA_CH_TX );
//  725 #else
//  726     URX0IE = 0;
//  727 #endif
//  728     cfg = cfg0;
//  729     cfg0 = NULL;
//  730   }
//  731 #endif
//  732 #if HAL_UART_1_ENABLE
//  733   if ( port == HAL_UART_PORT_1 )
//  734   {
//  735     U1CSR &= ~CSR_RE;
//  736 #if HAL_UART_DMA == 2
//  737     HAL_DMA_ABORT_CH( HAL_DMA_CH_RX );
//  738     HAL_DMA_ABORT_CH( HAL_DMA_CH_TX );
//  739 #else
//  740     URX1IE = 0;
//  741 #endif
//  742     cfg = cfg1;
//  743     cfg1 = NULL;
//  744   }
//  745 #endif
//  746 
//  747   if ( cfg )
//  748   {
//  749     if ( cfg->rxBuf )
//  750     {
//  751       osal_mem_free( cfg->rxBuf );
//  752     }
//  753     if ( cfg->txBuf )
//  754     {
//  755       osal_mem_free( cfg->txBuf );
//  756     }
//  757     osal_mem_free( cfg );
//  758   }
//  759 #endif
//  760 }
        LJMP    ?BRET
        CFI EndBlock cfiBlock28
//  761 
//  762 /******************************************************************************
//  763  * @fn      HalUARTPoll
//  764  *
//  765  * @brief   Poll the UART.
//  766  *
//  767  * @param   none
//  768  *
//  769  * @return  none
//  770  *****************************************************************************/

        RSEG BANKED_CODE:CODE:NOROOT(0)
//  771 void HalUARTPoll( void )
HalUARTPoll:
        CFI Block cfiBlock29 Using cfiCommon0
        CFI Function HalUARTPoll
//  772 {
        FUNCALL HalUARTPoll, pollISR
        LOCFRAME ISTACK, 0, STACK
        LOCFRAME PSTACK, 0, STACK
        LOCFRAME XSTACK, 10, STACK
        LOCFRAME IOVERLAY, 0, STATIC
        LOCFRAME DOVERLAY, 0, STATIC
        ARGFRAME ISTACK, 0, STACK
        ARGFRAME PSTACK, 0, STACK
        ARGFRAME XSTACK, 10, STACK
        ARGFRAME IOVERLAY, 0, STATIC
        ARGFRAME DOVERLAY, 0, STATIC
        FUNCALL HalUARTPoll, pollISR
        LOCFRAME ISTACK, 0, STACK
        LOCFRAME PSTACK, 0, STACK
        LOCFRAME XSTACK, 10, STACK
        LOCFRAME IOVERLAY, 0, STATIC
        LOCFRAME DOVERLAY, 0, STATIC
        ARGFRAME ISTACK, 0, STACK
        ARGFRAME PSTACK, 0, STACK
        ARGFRAME XSTACK, 10, STACK
        ARGFRAME IOVERLAY, 0, STATIC
        ARGFRAME DOVERLAY, 0, STATIC
        MOV     A,#-0xa
        LCALL   ?BANKED_ENTER_XDATA
        CFI DPH0 load(1, XDATA, add(CFA_XSP16, literal(-1)))
        CFI DPL0 load(1, XDATA, add(CFA_XSP16, literal(-2)))
        CFI ?BRET_EXT load(1, XDATA, add(CFA_XSP16, literal(-3)))
        CFI ?RET_HIGH load(1, XDATA, add(CFA_XSP16, literal(-4)))
        CFI ?RET_LOW load(1, XDATA, add(CFA_XSP16, literal(-5)))
        CFI R7 load(1, XDATA, add(CFA_XSP16, literal(-6)))
        CFI V1 load(1, XDATA, add(CFA_XSP16, literal(-7)))
        CFI V0 load(1, XDATA, add(CFA_XSP16, literal(-8)))
        CFI VB load(1, XDATA, add(CFA_XSP16, literal(-9)))
        CFI R6 load(1, XDATA, add(CFA_XSP16, literal(-10)))
        CFI CFA_SP SP+0
        CFI CFA_XSP16 add(XSP16, 10)
        ; Saved register size: 10
        ; Auto size: 0
//  773 #if ( HAL_UART_0_ENABLE | HAL_UART_1_ENABLE )
//  774   static uint8 tickShdw;
//  775   uartCfg_t *mycfg0,*mycfg1;
//  776   uint8 tick;
//  777 
//  778 #if HAL_UART_0_ENABLE
//  779   if ( cfg0 )
        MOV     DPTR,#cfg0
        MOVX    A,@DPTR
        JNZ     ??HalUARTPoll_0
        INC     DPTR
        MOVX    A,@DPTR
??HalUARTPoll_0:
        JZ      ??HalUARTPoll_1
//  780   {
//  781     mycfg0 = cfg0;
        MOV     DPTR,#cfg0
        MOVX    A,@DPTR
        MOV     ?V0 + 0,A
        INC     DPTR
        MOVX    A,@DPTR
        MOV     ?V0 + 1,A
//  782   }
//  783 #endif
//  784 #if HAL_UART_1_ENABLE
//  785   if ( cfg1 )
??HalUARTPoll_1:
        MOV     DPTR,#cfg1
        MOVX    A,@DPTR
        JNZ     ??HalUARTPoll_2
        INC     DPTR
        MOVX    A,@DPTR
??HalUARTPoll_2:
        JZ      ??HalUARTPoll_3
//  786   {
//  787     mycfg1 = cfg1;
        MOV     DPTR,#cfg1
        MOVX    A,@DPTR
        MOV     R6,A
        INC     DPTR
        MOVX    A,@DPTR
        MOV     R7,A
//  788   }
//  789 #endif
//  790 
//  791   // Use the LSB of the sleep timer (ST0 must be read first anyway).
//  792   tick = ST0 - tickShdw;
??HalUARTPoll_3:
        MOV     DPTR,#??tickShdw
        MOVX    A,@DPTR
        MOV     R2,A
        MOV     A,0x95
        CLR     C
        SUBB    A,R2
        MOV     R2,A
//  793   tickShdw = ST0;
        MOV     A,0x95
        MOVX    @DPTR,A
//  794 
//  795   do
//  796   {/************************uart0********************/
//  797     
//  798 #if HAL_UART_0_ENABLE
//  799     if ( mycfg0->txTick > tick )
        MOV     A,?V0 + 0
        ADD     A,#0xe
        MOV     DPL,A
        MOV     A,?V0 + 1
        LCALL   ??Subroutine21_0 & 0xFFFF
??CrossCallReturnLabel_60:
        LCALL   ??Subroutine6_0 & 0xFFFF
??CrossCallReturnLabel_14:
        JNC     ??HalUARTPoll_4
//  800     {
//  801       mycfg0->txTick -= tick;
        MOVX    A,@DPTR
        CLR     C
        SUBB    A,R2
        SJMP    ??HalUARTPoll_5
//  802     }
//  803     else
//  804     {
//  805       mycfg0->txTick = 0;
??HalUARTPoll_4:
        CLR     A
??HalUARTPoll_5:
        MOVX    @DPTR,A
//  806     }
//  807 
//  808     if ( mycfg0->rxTick > tick )
        MOV     DPL,?V0 + 0
        MOV     DPH,?V0 + 1
        LCALL   ?Subroutine6 & 0xFFFF
??CrossCallReturnLabel_15:
        JNC     ??HalUARTPoll_6
//  809     {
//  810       mycfg0->rxTick -= tick;
        MOV     DPL,?V0 + 0
        MOV     DPH,?V0 + 1
        INC     DPTR
        INC     DPTR
        INC     DPTR
        INC     DPTR
        INC     DPTR
        INC     DPTR
        MOVX    A,@DPTR
        CLR     C
        SUBB    A,R2
        SJMP    ??HalUARTPoll_7
//  811     }
//  812     else
//  813     {
//  814       mycfg0->rxTick = 0;
??HalUARTPoll_6:
        CLR     A
        MOV     DPL,?V0 + 0
        MOV     DPH,?V0 + 1
        INC     DPTR
        INC     DPTR
        INC     DPTR
        INC     DPTR
        INC     DPTR
        INC     DPTR
??HalUARTPoll_7:
        MOVX    @DPTR,A
//  815     }
//  816 #endif
//  817 /**************************uart1***********************************/ 
//  818 #if HAL_UART_1_ENABLE   
//  819     if ( mycfg1->txTick > tick )
        MOV     A,R6
        ADD     A,#0xe
        LCALL   ?Subroutine21 & 0xFFFF
??CrossCallReturnLabel_61:
        LCALL   ??Subroutine6_0 & 0xFFFF
??CrossCallReturnLabel_16:
        JNC     ??HalUARTPoll_8
//  820     {
//  821       mycfg1->txTick -= tick;
        MOVX    A,@DPTR
        CLR     C
        SUBB    A,R2
        SJMP    ??HalUARTPoll_9
//  822     }
//  823     else
//  824     {
//  825       mycfg1->txTick = 0;
??HalUARTPoll_8:
        CLR     A
??HalUARTPoll_9:
        LCALL   ?Subroutine20 & 0xFFFF
//  826     }
//  827 
//  828     if ( mycfg1->rxTick > tick )
??CrossCallReturnLabel_116:
        LCALL   ?Subroutine6 & 0xFFFF
??CrossCallReturnLabel_17:
        JNC     ??HalUARTPoll_10
//  829     {
//  830       mycfg1->rxTick -= tick;
        MOV     DPL,R6
        MOV     DPH,R7
        INC     DPTR
        INC     DPTR
        INC     DPTR
        INC     DPTR
        INC     DPTR
        INC     DPTR
        MOVX    A,@DPTR
        CLR     C
        SUBB    A,R2
        SJMP    ??HalUARTPoll_11
//  831     }
//  832     else
//  833     {
//  834       mycfg1->rxTick = 0;
??HalUARTPoll_10:
        CLR     A
        MOV     DPL,R6
        MOV     DPH,R7
        INC     DPTR
        INC     DPTR
        INC     DPTR
        INC     DPTR
        INC     DPTR
        INC     DPTR
??HalUARTPoll_11:
        MOVX    @DPTR,A
//  835     }
//  836 #endif
//  837     
//  838 #if HAL_UART_ISR
//  839     /*
//  840 #if HAL_UART_DMA
//  841     if ( cfg->flag & UART_CFG_DMA )
//  842     {
//  843       pollDMA( cfg );
//  844     }
//  845     else
//  846 #endif
//  847     */
//  848       {
//  849       pollISR( mycfg0 );
        ; Setup parameters for call to function pollISR
        MOV     R2,?V0 + 0
        MOV     R3,?V0 + 1
        LCALL   ??pollISR?relay
//  850       pollISR( mycfg1 );
        ; Setup parameters for call to function pollISR
        MOV     A,R6
        MOV     R2,A
        MOV     A,R7
        MOV     R3,A
        LCALL   ??pollISR?relay
//  851       }
//  852 #elif HAL_UART_DMA
//  853    // pollDMA( cfg );
//  854 #endif
//  855 
//  856     /* The following logic makes continuous callbacks on any eligible flag
//  857      * until the condition corresponding to the flag is rectified.
//  858      * So even if new data is not received, continuous callbacks are made.
//  859      */
//  860     /************************uart0********************/
//  861       if ( mycfg0->rxHead != mycfg0->rxTail )
        MOV     DPL,?V0 + 0
        MOV     DPH,?V0 + 1
        INC     DPTR
        INC     DPTR
        MOVX    A,@DPTR
        MOV     R2,A
        MOV     DPL,?V0 + 0
        MOV     DPH,?V0 + 1
        INC     DPTR
        INC     DPTR
        INC     DPTR
        MOVX    A,@DPTR
        XRL     A,R2
        JNZ     $+5
        LJMP    ??HalUARTPoll_12 & 0xFFFF
//  862       {
//  863       uint8 evt0;
//  864 
//  865       if ( mycfg0->rxHead >= (mycfg0->rxMax - SAFE_RX_MIN) )
        MOV     DPL,?V0 + 0
        MOV     DPH,?V0 + 1
        LCALL   ?Subroutine2 & 0xFFFF
??CrossCallReturnLabel_4:
        JC      ??HalUARTPoll_13
//  866       {
//  867         evt0 = HAL_UART_RX_FULL;
        MOV     R2,#0x1
        SJMP    ??HalUARTPoll_14
//  868       }
//  869       else if ( mycfg0->rxHigh && (mycfg0->rxHead >= mycfg0->rxHigh) )
??HalUARTPoll_13:
        MOV     DPL,?V0 + 0
        MOV     DPH,?V0 + 1
        INC     DPTR
        INC     DPTR
        INC     DPTR
        INC     DPTR
        INC     DPTR
        INC     DPTR
        INC     DPTR
        MOVX    A,@DPTR
        JZ      ??HalUARTPoll_15
        MOV     DPL,?V0 + 0
        MOV     DPH,?V0 + 1
        INC     DPTR
        INC     DPTR
        MOVX    A,@DPTR
        PUSH    A
        CFI CFA_SP SP+-1
        MOV     DPL,?V0 + 0
        MOV     DPH,?V0 + 1
        INC     DPTR
        INC     DPTR
        INC     DPTR
        INC     DPTR
        INC     DPTR
        INC     DPTR
        INC     DPTR
        MOVX    A,@DPTR
        MOV     R2,A
        POP     A
        CFI CFA_SP SP+0
        CLR     C
        SUBB    A,R2
        JC      ??HalUARTPoll_15
//  870       {
//  871         evt0 = HAL_UART_RX_ABOUT_FULL;
        MOV     R2,#0x2
        SJMP    ??HalUARTPoll_14
//  872       }
//  873       else if ( mycfg0->rxTick == 0 )
??HalUARTPoll_15:
        MOV     DPL,?V0 + 0
        MOV     DPH,?V0 + 1
        INC     DPTR
        INC     DPTR
        INC     DPTR
        INC     DPTR
        INC     DPTR
        INC     DPTR
        MOVX    A,@DPTR
        JNZ     ??HalUARTPoll_12
//  874       {
//  875         evt0 = HAL_UART_RX_TIMEOUT;
        MOV     R2,#0x4
??HalUARTPoll_14:
        MOV     A,?V0 + 0
        ADD     A,#0x10
        MOV     DPL,A
        MOV     A,?V0 + 1
        LCALL   ??Subroutine14_1 & 0xFFFF
??CrossCallReturnLabel_38:
        JNZ     ??HalUARTPoll_16
        INC     DPTR
        MOVX    A,@DPTR
??HalUARTPoll_16:
        JZ      ??HalUARTPoll_12
//  876       }
//  877       else
//  878       {
//  879         evt0 = 0;
//  880       }
//  881 
//  882       if ( evt0 && mycfg0->rxCB )
//  883       {
//  884           mycfg0->rxCB( ((mycfg0->flag & UART_CFG_U1F)!=0), evt0 );
        ; Setup parameters for indirect call
        MOV     A,?V0 + 0
        ADD     A,#0xf
        MOV     DPL,A
        MOV     A,?V0 + 1
        LCALL   ??Subroutine14_1 & 0xFFFF
??CrossCallReturnLabel_39:
        MOV     C,0xE0 /* A   */.7
        CLR     A
        MOV     0xE0 /* A   */.0,C
        MOV     R1,A
        MOV     A,?V0 + 0
        ADD     A,#0x10
        MOV     DPL,A
        MOV     A,?V0 + 1
        LCALL   ?Subroutine7 & 0xFFFF
??CrossCallReturnLabel_18:
        LCALL   ?CALL_IND
//  885       }
//  886      }
//  887      /************************uart1********************/
//  888       if ( mycfg1->rxHead != mycfg1->rxTail )
??HalUARTPoll_12:
        MOV     DPL,R6
        MOV     DPH,R7
        INC     DPTR
        INC     DPTR
        MOVX    A,@DPTR
        MOV     R2,A
        MOV     DPL,R6
        MOV     DPH,R7
        INC     DPTR
        INC     DPTR
        INC     DPTR
        MOVX    A,@DPTR
        XRL     A,R2
        JZ      ??HalUARTPoll_17
//  889       {
//  890       uint8 evt1;
//  891 
//  892       if ( mycfg1->rxHead >= (mycfg1->rxMax - SAFE_RX_MIN) )
        MOV     DPL,R6
        MOV     DPH,R7
        LCALL   ?Subroutine2 & 0xFFFF
??CrossCallReturnLabel_5:
        JC      ??HalUARTPoll_18
//  893       {
//  894         evt1 = HAL_UART_RX_FULL;
        MOV     R2,#0x1
        SJMP    ??HalUARTPoll_19
//  895       }
//  896       else if ( mycfg1->rxHigh && (mycfg1->rxHead >= mycfg1->rxHigh) )
??HalUARTPoll_18:
        MOV     DPL,R6
        MOV     DPH,R7
        INC     DPTR
        INC     DPTR
        INC     DPTR
        INC     DPTR
        INC     DPTR
        INC     DPTR
        INC     DPTR
        MOVX    A,@DPTR
        JZ      ??HalUARTPoll_20
        MOV     DPL,R6
        MOV     DPH,R7
        INC     DPTR
        INC     DPTR
        MOVX    A,@DPTR
        PUSH    A
        CFI CFA_SP SP+-1
        MOV     DPL,R6
        MOV     DPH,R7
        INC     DPTR
        INC     DPTR
        INC     DPTR
        INC     DPTR
        INC     DPTR
        INC     DPTR
        INC     DPTR
        MOVX    A,@DPTR
        MOV     R2,A
        POP     A
        CFI CFA_SP SP+0
        CLR     C
        SUBB    A,R2
        JC      ??HalUARTPoll_20
//  897       {
//  898         evt1 = HAL_UART_RX_ABOUT_FULL;
        MOV     R2,#0x2
        SJMP    ??HalUARTPoll_19
//  899       }
//  900       else if ( mycfg1->rxTick == 0 )
??HalUARTPoll_20:
        MOV     DPL,R6
        MOV     DPH,R7
        INC     DPTR
        INC     DPTR
        INC     DPTR
        INC     DPTR
        INC     DPTR
        INC     DPTR
        MOVX    A,@DPTR
        JNZ     ??HalUARTPoll_17
//  901       {
//  902         evt1 = HAL_UART_RX_TIMEOUT;
        MOV     R2,#0x4
??HalUARTPoll_19:
        MOV     A,R6
        ADD     A,#0x10
        MOV     DPL,A
        MOV     A,R7
        LCALL   ??Subroutine14_1 & 0xFFFF
??CrossCallReturnLabel_40:
        JNZ     ??HalUARTPoll_21
        INC     DPTR
        MOVX    A,@DPTR
??HalUARTPoll_21:
        JZ      ??HalUARTPoll_17
//  903       }
//  904       else
//  905       {
//  906         evt1 = 0;
//  907       }
//  908 
//  909       if ( evt1 && mycfg1->rxCB )
//  910       {
//  911           mycfg1->rxCB( ((mycfg1->flag & UART_CFG_U1F)!=0), evt1 );
        ; Setup parameters for indirect call
        LCALL   ?Subroutine12 & 0xFFFF
??CrossCallReturnLabel_33:
        MOVX    A,@DPTR
        MOV     C,0xE0 /* A   */.7
        CLR     A
        MOV     0xE0 /* A   */.0,C
        MOV     R1,A
        MOV     A,R6
        ADD     A,#0x10
        MOV     DPL,A
        MOV     A,R7
        LCALL   ?Subroutine7 & 0xFFFF
??CrossCallReturnLabel_19:
        LCALL   ?CALL_IND
//  912       }
//  913      } 
//  914 /*
//  915 #if HAL_UART_0_ENABLE
//  916     if ( cfg == cfg0 )
//  917     {
//  918 #if HAL_UART_1_ENABLE
//  919       if ( cfg1 )
//  920       {
//  921         cfg = cfg1;
//  922       }
//  923       else
//  924 #endif
//  925         break;
//  926     }
//  927     else
//  928 #endif
//  929     */
//  930       break;
//  931 
//  932   } while ( TRUE );
//  933 #else
//  934   return;
//  935 #endif
//  936 }
??HalUARTPoll_17:
        MOV     R7,#0x2
        LJMP    ?BANKED_LEAVE_XDATA
        CFI EndBlock cfiBlock29
        REQUIRE ST0

        RSEG BANKED_CODE:CODE:NOROOT(0)
?Subroutine20:
        CFI Block cfiCond30 Using cfiCommon0
        CFI NoFunction
        CFI Conditional ??CrossCallReturnLabel_114
        CFI R6 load(1, XDATA, add(CFA_XSP16, literal(-14)))
        CFI VB load(1, XDATA, add(CFA_XSP16, literal(-13)))
        CFI V0 load(1, XDATA, add(CFA_XSP16, literal(-12)))
        CFI V1 load(1, XDATA, add(CFA_XSP16, literal(-11)))
        CFI V2 load(1, XDATA, add(CFA_XSP16, literal(-10)))
        CFI V3 load(1, XDATA, add(CFA_XSP16, literal(-9)))
        CFI V4 load(1, XDATA, add(CFA_XSP16, literal(-8)))
        CFI V5 load(1, XDATA, add(CFA_XSP16, literal(-7)))
        CFI R7 load(1, XDATA, add(CFA_XSP16, literal(-6)))
        CFI ?RET_LOW load(1, XDATA, add(CFA_XSP16, literal(-5)))
        CFI ?RET_HIGH load(1, XDATA, add(CFA_XSP16, literal(-4)))
        CFI ?BRET_EXT load(1, XDATA, add(CFA_XSP16, literal(-3)))
        CFI DPL0 load(1, XDATA, add(CFA_XSP16, literal(-2)))
        CFI DPH0 load(1, XDATA, add(CFA_XSP16, literal(-1)))
        CFI CFA_SP SP+0
        CFI CFA_XSP16 add(XSP16, 14)
        CFI Block cfiCond31 Using cfiCommon0
        CFI (cfiCond31) NoFunction
        CFI (cfiCond31) Conditional ??CrossCallReturnLabel_115, ??CrossCallReturnLabel_2
        CFI (cfiCond31) R6 load(1, XDATA, add(CFA_XSP16, literal(-14)))
        CFI (cfiCond31) VB load(1, XDATA, add(CFA_XSP16, literal(-13)))
        CFI (cfiCond31) V0 load(1, XDATA, add(CFA_XSP16, literal(-12)))
        CFI (cfiCond31) V1 load(1, XDATA, add(CFA_XSP16, literal(-11)))
        CFI (cfiCond31) V2 load(1, XDATA, add(CFA_XSP16, literal(-10)))
        CFI (cfiCond31) V3 load(1, XDATA, add(CFA_XSP16, literal(-9)))
        CFI (cfiCond31) V4 load(1, XDATA, add(CFA_XSP16, literal(-8)))
        CFI (cfiCond31) V5 load(1, XDATA, add(CFA_XSP16, literal(-7)))
        CFI (cfiCond31) R7 load(1, XDATA, add(CFA_XSP16, literal(-6)))
        CFI (cfiCond31) ?RET_LOW load(1, XDATA, add(CFA_XSP16, literal(-5)))
        CFI (cfiCond31) ?RET_HIGH load(1, XDATA, add(CFA_XSP16, literal(-4)))
        CFI (cfiCond31) ?BRET_EXT load(1, XDATA, add(CFA_XSP16, literal(-3)))
        CFI (cfiCond31) DPL0 load(1, XDATA, add(CFA_XSP16, literal(-2)))
        CFI (cfiCond31) DPH0 load(1, XDATA, add(CFA_XSP16, literal(-1)))
        CFI (cfiCond31) CFA_SP SP+0
        CFI (cfiCond31) CFA_XSP16 add(XSP16, 14)
        CFI Block cfiCond32 Using cfiCommon0
        CFI (cfiCond32) NoFunction
        CFI (cfiCond32) Conditional ??CrossCallReturnLabel_115, ??CrossCallReturnLabel_3
        CFI (cfiCond32) R6 load(1, XDATA, add(CFA_XSP16, literal(-14)))
        CFI (cfiCond32) VB load(1, XDATA, add(CFA_XSP16, literal(-13)))
        CFI (cfiCond32) V0 load(1, XDATA, add(CFA_XSP16, literal(-12)))
        CFI (cfiCond32) V1 load(1, XDATA, add(CFA_XSP16, literal(-11)))
        CFI (cfiCond32) V2 load(1, XDATA, add(CFA_XSP16, literal(-10)))
        CFI (cfiCond32) V3 load(1, XDATA, add(CFA_XSP16, literal(-9)))
        CFI (cfiCond32) V4 load(1, XDATA, add(CFA_XSP16, literal(-8)))
        CFI (cfiCond32) V5 load(1, XDATA, add(CFA_XSP16, literal(-7)))
        CFI (cfiCond32) R7 load(1, XDATA, add(CFA_XSP16, literal(-6)))
        CFI (cfiCond32) ?RET_LOW load(1, XDATA, add(CFA_XSP16, literal(-5)))
        CFI (cfiCond32) ?RET_HIGH load(1, XDATA, add(CFA_XSP16, literal(-4)))
        CFI (cfiCond32) ?BRET_EXT load(1, XDATA, add(CFA_XSP16, literal(-3)))
        CFI (cfiCond32) DPL0 load(1, XDATA, add(CFA_XSP16, literal(-2)))
        CFI (cfiCond32) DPH0 load(1, XDATA, add(CFA_XSP16, literal(-1)))
        CFI (cfiCond32) CFA_SP SP+0
        CFI (cfiCond32) CFA_XSP16 add(XSP16, 14)
        CFI Block cfiCond33 Using cfiCommon0
        CFI (cfiCond33) NoFunction
        CFI (cfiCond33) Conditional ??CrossCallReturnLabel_116
        CFI (cfiCond33) R6 load(1, XDATA, add(CFA_XSP16, literal(-10)))
        CFI (cfiCond33) VB load(1, XDATA, add(CFA_XSP16, literal(-9)))
        CFI (cfiCond33) V0 load(1, XDATA, add(CFA_XSP16, literal(-8)))
        CFI (cfiCond33) V1 load(1, XDATA, add(CFA_XSP16, literal(-7)))
        CFI (cfiCond33) R7 load(1, XDATA, add(CFA_XSP16, literal(-6)))
        CFI (cfiCond33) ?RET_LOW load(1, XDATA, add(CFA_XSP16, literal(-5)))
        CFI (cfiCond33) ?RET_HIGH load(1, XDATA, add(CFA_XSP16, literal(-4)))
        CFI (cfiCond33) ?BRET_EXT load(1, XDATA, add(CFA_XSP16, literal(-3)))
        CFI (cfiCond33) DPL0 load(1, XDATA, add(CFA_XSP16, literal(-2)))
        CFI (cfiCond33) DPH0 load(1, XDATA, add(CFA_XSP16, literal(-1)))
        CFI (cfiCond33) CFA_SP SP+0
        CFI (cfiCond33) CFA_XSP16 add(XSP16, 10)
        CFI Block cfiCond34 Using cfiCommon0
        CFI (cfiCond34) NoFunction
        CFI (cfiCond34) Conditional ??CrossCallReturnLabel_119, ??CrossCallReturnLabel_44
        CFI (cfiCond34) R6 load(1, XDATA, add(CFA_XSP16, literal(-14)))
        CFI (cfiCond34) VB load(1, XDATA, add(CFA_XSP16, literal(-13)))
        CFI (cfiCond34) V0 load(1, XDATA, add(CFA_XSP16, literal(-12)))
        CFI (cfiCond34) V1 load(1, XDATA, add(CFA_XSP16, literal(-11)))
        CFI (cfiCond34) V2 load(1, XDATA, add(CFA_XSP16, literal(-10)))
        CFI (cfiCond34) V3 load(1, XDATA, add(CFA_XSP16, literal(-9)))
        CFI (cfiCond34) V4 load(1, XDATA, add(CFA_XSP16, literal(-8)))
        CFI (cfiCond34) V5 load(1, XDATA, add(CFA_XSP16, literal(-7)))
        CFI (cfiCond34) R7 load(1, XDATA, add(CFA_XSP16, literal(-6)))
        CFI (cfiCond34) ?RET_LOW load(1, XDATA, add(CFA_XSP16, literal(-5)))
        CFI (cfiCond34) ?RET_HIGH load(1, XDATA, add(CFA_XSP16, literal(-4)))
        CFI (cfiCond34) ?BRET_EXT load(1, XDATA, add(CFA_XSP16, literal(-3)))
        CFI (cfiCond34) DPL0 load(1, XDATA, add(CFA_XSP16, literal(-2)))
        CFI (cfiCond34) DPH0 load(1, XDATA, add(CFA_XSP16, literal(-1)))
        CFI (cfiCond34) CFA_SP SP+0
        CFI (cfiCond34) CFA_XSP16 add(XSP16, 14)
        CFI Block cfiCond35 Using cfiCommon0
        CFI (cfiCond35) NoFunction
        CFI (cfiCond35) Conditional ??CrossCallReturnLabel_119, ??CrossCallReturnLabel_45
        CFI (cfiCond35) R6 load(1, XDATA, add(CFA_XSP16, literal(-14)))
        CFI (cfiCond35) VB load(1, XDATA, add(CFA_XSP16, literal(-13)))
        CFI (cfiCond35) V0 load(1, XDATA, add(CFA_XSP16, literal(-12)))
        CFI (cfiCond35) V1 load(1, XDATA, add(CFA_XSP16, literal(-11)))
        CFI (cfiCond35) V2 load(1, XDATA, add(CFA_XSP16, literal(-10)))
        CFI (cfiCond35) V3 load(1, XDATA, add(CFA_XSP16, literal(-9)))
        CFI (cfiCond35) V4 load(1, XDATA, add(CFA_XSP16, literal(-8)))
        CFI (cfiCond35) V5 load(1, XDATA, add(CFA_XSP16, literal(-7)))
        CFI (cfiCond35) R7 load(1, XDATA, add(CFA_XSP16, literal(-6)))
        CFI (cfiCond35) ?RET_LOW load(1, XDATA, add(CFA_XSP16, literal(-5)))
        CFI (cfiCond35) ?RET_HIGH load(1, XDATA, add(CFA_XSP16, literal(-4)))
        CFI (cfiCond35) ?BRET_EXT load(1, XDATA, add(CFA_XSP16, literal(-3)))
        CFI (cfiCond35) DPL0 load(1, XDATA, add(CFA_XSP16, literal(-2)))
        CFI (cfiCond35) DPH0 load(1, XDATA, add(CFA_XSP16, literal(-1)))
        CFI (cfiCond35) CFA_SP SP+0
        CFI (cfiCond35) CFA_XSP16 add(XSP16, 14)
        CFI Block cfiCond36 Using cfiCommon0
        CFI (cfiCond36) NoFunction
        CFI (cfiCond36) Conditional ??CrossCallReturnLabel_119, ??CrossCallReturnLabel_46
        CFI (cfiCond36) R6 load(1, XDATA, add(CFA_XSP16, literal(-12)))
        CFI (cfiCond36) VB load(1, XDATA, add(CFA_XSP16, literal(-11)))
        CFI (cfiCond36) V0 load(1, XDATA, add(CFA_XSP16, literal(-10)))
        CFI (cfiCond36) V1 load(1, XDATA, add(CFA_XSP16, literal(-9)))
        CFI (cfiCond36) V2 load(1, XDATA, add(CFA_XSP16, literal(-8)))
        CFI (cfiCond36) V3 load(1, XDATA, add(CFA_XSP16, literal(-7)))
        CFI (cfiCond36) R7 load(1, XDATA, add(CFA_XSP16, literal(-6)))
        CFI (cfiCond36) ?RET_LOW load(1, XDATA, add(CFA_XSP16, literal(-5)))
        CFI (cfiCond36) ?RET_HIGH load(1, XDATA, add(CFA_XSP16, literal(-4)))
        CFI (cfiCond36) ?BRET_EXT load(1, XDATA, add(CFA_XSP16, literal(-3)))
        CFI (cfiCond36) DPL0 load(1, XDATA, add(CFA_XSP16, literal(-2)))
        CFI (cfiCond36) DPH0 load(1, XDATA, add(CFA_XSP16, literal(-1)))
        CFI (cfiCond36) CFA_SP SP+0
        CFI (cfiCond36) CFA_XSP16 add(XSP16, 12)
        CFI Block cfiPicker37 Using cfiCommon1
        CFI (cfiPicker37) NoFunction
        CFI (cfiPicker37) Picker
        MOVX    @DPTR,A
        ; Setup parameters for call to function osal_mem_alloc
        ; Setup parameters for call to function osal_mem_alloc
        LJMP    ?Subroutine46 & 0xFFFF
        CFI EndBlock cfiCond30
        CFI EndBlock cfiCond31
        CFI EndBlock cfiCond32
        CFI EndBlock cfiCond33
        CFI EndBlock cfiCond34
        CFI EndBlock cfiCond35
        CFI EndBlock cfiCond36
        CFI EndBlock cfiPicker37

        RSEG BANKED_CODE:CODE:NOROOT(0)
?Subroutine14:
        CFI Block cfiCond38 Using cfiCommon0
        CFI NoFunction
        CFI Conditional ??CrossCallReturnLabel_41
        CFI R6 load(1, XDATA, add(CFA_XSP16, literal(-12)))
        CFI VB load(1, XDATA, add(CFA_XSP16, literal(-11)))
        CFI V0 load(1, XDATA, add(CFA_XSP16, literal(-10)))
        CFI V1 load(1, XDATA, add(CFA_XSP16, literal(-9)))
        CFI V2 load(1, XDATA, add(CFA_XSP16, literal(-8)))
        CFI V3 load(1, XDATA, add(CFA_XSP16, literal(-7)))
        CFI R7 load(1, XDATA, add(CFA_XSP16, literal(-6)))
        CFI ?RET_LOW load(1, XDATA, add(CFA_XSP16, literal(-5)))
        CFI ?RET_HIGH load(1, XDATA, add(CFA_XSP16, literal(-4)))
        CFI ?BRET_EXT load(1, XDATA, add(CFA_XSP16, literal(-3)))
        CFI DPL0 load(1, XDATA, add(CFA_XSP16, literal(-2)))
        CFI DPH0 load(1, XDATA, add(CFA_XSP16, literal(-1)))
        CFI CFA_SP SP+0
        CFI CFA_XSP16 add(XSP16, 12)
        CFI Block cfiCond39 Using cfiCommon0
        CFI (cfiCond39) NoFunction
        CFI (cfiCond39) Conditional ??CrossCallReturnLabel_42
        CFI (cfiCond39) R6 load(1, XDATA, add(CFA_XSP16, literal(-12)))
        CFI (cfiCond39) VB load(1, XDATA, add(CFA_XSP16, literal(-11)))
        CFI (cfiCond39) V0 load(1, XDATA, add(CFA_XSP16, literal(-10)))
        CFI (cfiCond39) V1 load(1, XDATA, add(CFA_XSP16, literal(-9)))
        CFI (cfiCond39) V2 load(1, XDATA, add(CFA_XSP16, literal(-8)))
        CFI (cfiCond39) V3 load(1, XDATA, add(CFA_XSP16, literal(-7)))
        CFI (cfiCond39) R7 load(1, XDATA, add(CFA_XSP16, literal(-6)))
        CFI (cfiCond39) ?RET_LOW load(1, XDATA, add(CFA_XSP16, literal(-5)))
        CFI (cfiCond39) ?RET_HIGH load(1, XDATA, add(CFA_XSP16, literal(-4)))
        CFI (cfiCond39) ?BRET_EXT load(1, XDATA, add(CFA_XSP16, literal(-3)))
        CFI (cfiCond39) DPL0 load(1, XDATA, add(CFA_XSP16, literal(-2)))
        CFI (cfiCond39) DPH0 load(1, XDATA, add(CFA_XSP16, literal(-1)))
        CFI (cfiCond39) CFA_SP SP+0
        CFI (cfiCond39) CFA_XSP16 add(XSP16, 12)
        CFI Block cfiPicker40 Using cfiCommon1
        CFI (cfiPicker40) NoFunction
        CFI (cfiPicker40) Picker
        MOV     A,R0
        ADD     A,#0xb
        CFI Block cfiCond41 Using cfiCommon0
        CFI (cfiCond41) NoFunction
        CFI (cfiCond41) Conditional ??CrossCallReturnLabel_43
        CFI (cfiCond41) R6 load(1, XDATA, add(CFA_XSP16, literal(-12)))
        CFI (cfiCond41) VB load(1, XDATA, add(CFA_XSP16, literal(-11)))
        CFI (cfiCond41) V0 load(1, XDATA, add(CFA_XSP16, literal(-10)))
        CFI (cfiCond41) V1 load(1, XDATA, add(CFA_XSP16, literal(-9)))
        CFI (cfiCond41) V2 load(1, XDATA, add(CFA_XSP16, literal(-8)))
        CFI (cfiCond41) V3 load(1, XDATA, add(CFA_XSP16, literal(-7)))
        CFI (cfiCond41) R7 load(1, XDATA, add(CFA_XSP16, literal(-6)))
        CFI (cfiCond41) ?RET_LOW load(1, XDATA, add(CFA_XSP16, literal(-5)))
        CFI (cfiCond41) ?RET_HIGH load(1, XDATA, add(CFA_XSP16, literal(-4)))
        CFI (cfiCond41) ?BRET_EXT load(1, XDATA, add(CFA_XSP16, literal(-3)))
        CFI (cfiCond41) DPL0 load(1, XDATA, add(CFA_XSP16, literal(-2)))
        CFI (cfiCond41) DPH0 load(1, XDATA, add(CFA_XSP16, literal(-1)))
        CFI (cfiCond41) CFA_SP SP+0
        CFI (cfiCond41) CFA_XSP16 add(XSP16, 12)
??Subroutine14_0:
        MOV     DPL,A
        MOV     A,R1
        CFI Block cfiCond42 Using cfiCommon0
        CFI (cfiCond42) NoFunction
        CFI (cfiCond42) Conditional ??CrossCallReturnLabel_37
        CFI (cfiCond42) R6 load(1, XDATA, add(CFA_XSP16, literal(-14)))
        CFI (cfiCond42) VB load(1, XDATA, add(CFA_XSP16, literal(-13)))
        CFI (cfiCond42) V0 load(1, XDATA, add(CFA_XSP16, literal(-12)))
        CFI (cfiCond42) V1 load(1, XDATA, add(CFA_XSP16, literal(-11)))
        CFI (cfiCond42) V2 load(1, XDATA, add(CFA_XSP16, literal(-10)))
        CFI (cfiCond42) V3 load(1, XDATA, add(CFA_XSP16, literal(-9)))
        CFI (cfiCond42) V4 load(1, XDATA, add(CFA_XSP16, literal(-8)))
        CFI (cfiCond42) V5 load(1, XDATA, add(CFA_XSP16, literal(-7)))
        CFI (cfiCond42) R7 load(1, XDATA, add(CFA_XSP16, literal(-6)))
        CFI (cfiCond42) ?RET_LOW load(1, XDATA, add(CFA_XSP16, literal(-5)))
        CFI (cfiCond42) ?RET_HIGH load(1, XDATA, add(CFA_XSP16, literal(-4)))
        CFI (cfiCond42) ?BRET_EXT load(1, XDATA, add(CFA_XSP16, literal(-3)))
        CFI (cfiCond42) DPL0 load(1, XDATA, add(CFA_XSP16, literal(-2)))
        CFI (cfiCond42) DPH0 load(1, XDATA, add(CFA_XSP16, literal(-1)))
        CFI (cfiCond42) CFA_SP SP+0
        CFI (cfiCond42) CFA_XSP16 add(XSP16, 14)
        CFI Block cfiCond43 Using cfiCommon0
        CFI (cfiCond43) NoFunction
        CFI (cfiCond43) Conditional ??CrossCallReturnLabel_38
        CFI (cfiCond43) R6 load(1, XDATA, add(CFA_XSP16, literal(-10)))
        CFI (cfiCond43) VB load(1, XDATA, add(CFA_XSP16, literal(-9)))
        CFI (cfiCond43) V0 load(1, XDATA, add(CFA_XSP16, literal(-8)))
        CFI (cfiCond43) V1 load(1, XDATA, add(CFA_XSP16, literal(-7)))
        CFI (cfiCond43) R7 load(1, XDATA, add(CFA_XSP16, literal(-6)))
        CFI (cfiCond43) ?RET_LOW load(1, XDATA, add(CFA_XSP16, literal(-5)))
        CFI (cfiCond43) ?RET_HIGH load(1, XDATA, add(CFA_XSP16, literal(-4)))
        CFI (cfiCond43) ?BRET_EXT load(1, XDATA, add(CFA_XSP16, literal(-3)))
        CFI (cfiCond43) DPL0 load(1, XDATA, add(CFA_XSP16, literal(-2)))
        CFI (cfiCond43) DPH0 load(1, XDATA, add(CFA_XSP16, literal(-1)))
        CFI (cfiCond43) CFA_SP SP+0
        CFI (cfiCond43) CFA_XSP16 add(XSP16, 10)
        CFI Block cfiCond44 Using cfiCommon0
        CFI (cfiCond44) NoFunction
        CFI (cfiCond44) Conditional ??CrossCallReturnLabel_39
        CFI (cfiCond44) R6 load(1, XDATA, add(CFA_XSP16, literal(-10)))
        CFI (cfiCond44) VB load(1, XDATA, add(CFA_XSP16, literal(-9)))
        CFI (cfiCond44) V0 load(1, XDATA, add(CFA_XSP16, literal(-8)))
        CFI (cfiCond44) V1 load(1, XDATA, add(CFA_XSP16, literal(-7)))
        CFI (cfiCond44) R7 load(1, XDATA, add(CFA_XSP16, literal(-6)))
        CFI (cfiCond44) ?RET_LOW load(1, XDATA, add(CFA_XSP16, literal(-5)))
        CFI (cfiCond44) ?RET_HIGH load(1, XDATA, add(CFA_XSP16, literal(-4)))
        CFI (cfiCond44) ?BRET_EXT load(1, XDATA, add(CFA_XSP16, literal(-3)))
        CFI (cfiCond44) DPL0 load(1, XDATA, add(CFA_XSP16, literal(-2)))
        CFI (cfiCond44) DPH0 load(1, XDATA, add(CFA_XSP16, literal(-1)))
        CFI (cfiCond44) CFA_SP SP+0
        CFI (cfiCond44) CFA_XSP16 add(XSP16, 10)
        CFI Block cfiCond45 Using cfiCommon0
        CFI (cfiCond45) NoFunction
        CFI (cfiCond45) Conditional ??CrossCallReturnLabel_40
        CFI (cfiCond45) R6 load(1, XDATA, add(CFA_XSP16, literal(-10)))
        CFI (cfiCond45) VB load(1, XDATA, add(CFA_XSP16, literal(-9)))
        CFI (cfiCond45) V0 load(1, XDATA, add(CFA_XSP16, literal(-8)))
        CFI (cfiCond45) V1 load(1, XDATA, add(CFA_XSP16, literal(-7)))
        CFI (cfiCond45) R7 load(1, XDATA, add(CFA_XSP16, literal(-6)))
        CFI (cfiCond45) ?RET_LOW load(1, XDATA, add(CFA_XSP16, literal(-5)))
        CFI (cfiCond45) ?RET_HIGH load(1, XDATA, add(CFA_XSP16, literal(-4)))
        CFI (cfiCond45) ?BRET_EXT load(1, XDATA, add(CFA_XSP16, literal(-3)))
        CFI (cfiCond45) DPL0 load(1, XDATA, add(CFA_XSP16, literal(-2)))
        CFI (cfiCond45) DPH0 load(1, XDATA, add(CFA_XSP16, literal(-1)))
        CFI (cfiCond45) CFA_SP SP+0
        CFI (cfiCond45) CFA_XSP16 add(XSP16, 10)
??Subroutine14_1:
        LCALL   ??Subroutine19_0 & 0xFFFF
??CrossCallReturnLabel_56:
        RET
        CFI EndBlock cfiCond38
        CFI EndBlock cfiCond39
        CFI EndBlock cfiPicker40
        CFI EndBlock cfiCond41
        CFI EndBlock cfiCond42
        CFI EndBlock cfiCond43
        CFI EndBlock cfiCond44
        CFI EndBlock cfiCond45

        RSEG BANKED_CODE:CODE:NOROOT(0)
?Subroutine12:
        CFI Block cfiCond46 Using cfiCommon0
        CFI NoFunction
        CFI Conditional ??CrossCallReturnLabel_31
        CFI R6 load(1, XDATA, add(CFA_XSP16, literal(-14)))
        CFI VB load(1, XDATA, add(CFA_XSP16, literal(-13)))
        CFI V0 load(1, XDATA, add(CFA_XSP16, literal(-12)))
        CFI V1 load(1, XDATA, add(CFA_XSP16, literal(-11)))
        CFI V2 load(1, XDATA, add(CFA_XSP16, literal(-10)))
        CFI V3 load(1, XDATA, add(CFA_XSP16, literal(-9)))
        CFI V4 load(1, XDATA, add(CFA_XSP16, literal(-8)))
        CFI V5 load(1, XDATA, add(CFA_XSP16, literal(-7)))
        CFI R7 load(1, XDATA, add(CFA_XSP16, literal(-6)))
        CFI ?RET_LOW load(1, XDATA, add(CFA_XSP16, literal(-5)))
        CFI ?RET_HIGH load(1, XDATA, add(CFA_XSP16, literal(-4)))
        CFI ?BRET_EXT load(1, XDATA, add(CFA_XSP16, literal(-3)))
        CFI DPL0 load(1, XDATA, add(CFA_XSP16, literal(-2)))
        CFI DPH0 load(1, XDATA, add(CFA_XSP16, literal(-1)))
        CFI CFA_SP SP+0
        CFI CFA_XSP16 add(XSP16, 14)
        CFI Block cfiCond47 Using cfiCommon0
        CFI (cfiCond47) NoFunction
        CFI (cfiCond47) Conditional ??CrossCallReturnLabel_32
        CFI (cfiCond47) R6 load(1, XDATA, add(CFA_XSP16, literal(-14)))
        CFI (cfiCond47) VB load(1, XDATA, add(CFA_XSP16, literal(-13)))
        CFI (cfiCond47) V0 load(1, XDATA, add(CFA_XSP16, literal(-12)))
        CFI (cfiCond47) V1 load(1, XDATA, add(CFA_XSP16, literal(-11)))
        CFI (cfiCond47) V2 load(1, XDATA, add(CFA_XSP16, literal(-10)))
        CFI (cfiCond47) V3 load(1, XDATA, add(CFA_XSP16, literal(-9)))
        CFI (cfiCond47) V4 load(1, XDATA, add(CFA_XSP16, literal(-8)))
        CFI (cfiCond47) V5 load(1, XDATA, add(CFA_XSP16, literal(-7)))
        CFI (cfiCond47) R7 load(1, XDATA, add(CFA_XSP16, literal(-6)))
        CFI (cfiCond47) ?RET_LOW load(1, XDATA, add(CFA_XSP16, literal(-5)))
        CFI (cfiCond47) ?RET_HIGH load(1, XDATA, add(CFA_XSP16, literal(-4)))
        CFI (cfiCond47) ?BRET_EXT load(1, XDATA, add(CFA_XSP16, literal(-3)))
        CFI (cfiCond47) DPL0 load(1, XDATA, add(CFA_XSP16, literal(-2)))
        CFI (cfiCond47) DPH0 load(1, XDATA, add(CFA_XSP16, literal(-1)))
        CFI (cfiCond47) CFA_SP SP+0
        CFI (cfiCond47) CFA_XSP16 add(XSP16, 14)
        CFI Block cfiCond48 Using cfiCommon0
        CFI (cfiCond48) NoFunction
        CFI (cfiCond48) Conditional ??CrossCallReturnLabel_33
        CFI (cfiCond48) R6 load(1, XDATA, add(CFA_XSP16, literal(-10)))
        CFI (cfiCond48) VB load(1, XDATA, add(CFA_XSP16, literal(-9)))
        CFI (cfiCond48) V0 load(1, XDATA, add(CFA_XSP16, literal(-8)))
        CFI (cfiCond48) V1 load(1, XDATA, add(CFA_XSP16, literal(-7)))
        CFI (cfiCond48) R7 load(1, XDATA, add(CFA_XSP16, literal(-6)))
        CFI (cfiCond48) ?RET_LOW load(1, XDATA, add(CFA_XSP16, literal(-5)))
        CFI (cfiCond48) ?RET_HIGH load(1, XDATA, add(CFA_XSP16, literal(-4)))
        CFI (cfiCond48) ?BRET_EXT load(1, XDATA, add(CFA_XSP16, literal(-3)))
        CFI (cfiCond48) DPL0 load(1, XDATA, add(CFA_XSP16, literal(-2)))
        CFI (cfiCond48) DPH0 load(1, XDATA, add(CFA_XSP16, literal(-1)))
        CFI (cfiCond48) CFA_SP SP+0
        CFI (cfiCond48) CFA_XSP16 add(XSP16, 10)
        CFI Block cfiPicker49 Using cfiCommon1
        CFI (cfiPicker49) NoFunction
        CFI (cfiPicker49) Picker
        MOV     A,R6
        ADD     A,#0xf
        LCALL   ?Subroutine21 & 0xFFFF
??CrossCallReturnLabel_63:
        RET
        CFI EndBlock cfiCond46
        CFI EndBlock cfiCond47
        CFI EndBlock cfiCond48
        CFI EndBlock cfiPicker49

        RSEG BANKED_CODE:CODE:NOROOT(0)
?Subroutine21:
        CFI Block cfiCond50 Using cfiCommon0
        CFI NoFunction
        CFI Conditional ??CrossCallReturnLabel_57
        CFI R6 load(1, XDATA, add(CFA_XSP16, literal(-14)))
        CFI VB load(1, XDATA, add(CFA_XSP16, literal(-13)))
        CFI V0 load(1, XDATA, add(CFA_XSP16, literal(-12)))
        CFI V1 load(1, XDATA, add(CFA_XSP16, literal(-11)))
        CFI V2 load(1, XDATA, add(CFA_XSP16, literal(-10)))
        CFI V3 load(1, XDATA, add(CFA_XSP16, literal(-9)))
        CFI V4 load(1, XDATA, add(CFA_XSP16, literal(-8)))
        CFI V5 load(1, XDATA, add(CFA_XSP16, literal(-7)))
        CFI R7 load(1, XDATA, add(CFA_XSP16, literal(-6)))
        CFI ?RET_LOW load(1, XDATA, add(CFA_XSP16, literal(-5)))
        CFI ?RET_HIGH load(1, XDATA, add(CFA_XSP16, literal(-4)))
        CFI ?BRET_EXT load(1, XDATA, add(CFA_XSP16, literal(-3)))
        CFI DPL0 load(1, XDATA, add(CFA_XSP16, literal(-2)))
        CFI DPH0 load(1, XDATA, add(CFA_XSP16, literal(-1)))
        CFI CFA_SP SP+0
        CFI CFA_XSP16 add(XSP16, 14)
        CFI Block cfiCond51 Using cfiCommon0
        CFI (cfiCond51) NoFunction
        CFI (cfiCond51) Conditional ??CrossCallReturnLabel_59
        CFI (cfiCond51) R6 load(1, XDATA, add(CFA_XSP16, literal(-14)))
        CFI (cfiCond51) VB load(1, XDATA, add(CFA_XSP16, literal(-13)))
        CFI (cfiCond51) V0 load(1, XDATA, add(CFA_XSP16, literal(-12)))
        CFI (cfiCond51) V1 load(1, XDATA, add(CFA_XSP16, literal(-11)))
        CFI (cfiCond51) V2 load(1, XDATA, add(CFA_XSP16, literal(-10)))
        CFI (cfiCond51) V3 load(1, XDATA, add(CFA_XSP16, literal(-9)))
        CFI (cfiCond51) V4 load(1, XDATA, add(CFA_XSP16, literal(-8)))
        CFI (cfiCond51) V5 load(1, XDATA, add(CFA_XSP16, literal(-7)))
        CFI (cfiCond51) R7 load(1, XDATA, add(CFA_XSP16, literal(-6)))
        CFI (cfiCond51) ?RET_LOW load(1, XDATA, add(CFA_XSP16, literal(-5)))
        CFI (cfiCond51) ?RET_HIGH load(1, XDATA, add(CFA_XSP16, literal(-4)))
        CFI (cfiCond51) ?BRET_EXT load(1, XDATA, add(CFA_XSP16, literal(-3)))
        CFI (cfiCond51) DPL0 load(1, XDATA, add(CFA_XSP16, literal(-2)))
        CFI (cfiCond51) DPH0 load(1, XDATA, add(CFA_XSP16, literal(-1)))
        CFI (cfiCond51) CFA_SP SP+0
        CFI (cfiCond51) CFA_XSP16 add(XSP16, 14)
        CFI Block cfiCond52 Using cfiCommon0
        CFI (cfiCond52) NoFunction
        CFI (cfiCond52) Conditional ??CrossCallReturnLabel_61
        CFI (cfiCond52) R6 load(1, XDATA, add(CFA_XSP16, literal(-10)))
        CFI (cfiCond52) VB load(1, XDATA, add(CFA_XSP16, literal(-9)))
        CFI (cfiCond52) V0 load(1, XDATA, add(CFA_XSP16, literal(-8)))
        CFI (cfiCond52) V1 load(1, XDATA, add(CFA_XSP16, literal(-7)))
        CFI (cfiCond52) R7 load(1, XDATA, add(CFA_XSP16, literal(-6)))
        CFI (cfiCond52) ?RET_LOW load(1, XDATA, add(CFA_XSP16, literal(-5)))
        CFI (cfiCond52) ?RET_HIGH load(1, XDATA, add(CFA_XSP16, literal(-4)))
        CFI (cfiCond52) ?BRET_EXT load(1, XDATA, add(CFA_XSP16, literal(-3)))
        CFI (cfiCond52) DPL0 load(1, XDATA, add(CFA_XSP16, literal(-2)))
        CFI (cfiCond52) DPH0 load(1, XDATA, add(CFA_XSP16, literal(-1)))
        CFI (cfiCond52) CFA_SP SP+0
        CFI (cfiCond52) CFA_XSP16 add(XSP16, 10)
        CFI Block cfiCond53 Using cfiCommon0
        CFI (cfiCond53) NoFunction
        CFI (cfiCond53) Conditional ??CrossCallReturnLabel_63, ??CrossCallReturnLabel_31
        CFI (cfiCond53) R6 load(1, XDATA, add(CFA_XSP16, literal(-14)))
        CFI (cfiCond53) VB load(1, XDATA, add(CFA_XSP16, literal(-13)))
        CFI (cfiCond53) V0 load(1, XDATA, add(CFA_XSP16, literal(-12)))
        CFI (cfiCond53) V1 load(1, XDATA, add(CFA_XSP16, literal(-11)))
        CFI (cfiCond53) V2 load(1, XDATA, add(CFA_XSP16, literal(-10)))
        CFI (cfiCond53) V3 load(1, XDATA, add(CFA_XSP16, literal(-9)))
        CFI (cfiCond53) V4 load(1, XDATA, add(CFA_XSP16, literal(-8)))
        CFI (cfiCond53) V5 load(1, XDATA, add(CFA_XSP16, literal(-7)))
        CFI (cfiCond53) R7 load(1, XDATA, add(CFA_XSP16, literal(-6)))
        CFI (cfiCond53) ?RET_LOW load(1, XDATA, add(CFA_XSP16, literal(-5)))
        CFI (cfiCond53) ?RET_HIGH load(1, XDATA, add(CFA_XSP16, literal(-4)))
        CFI (cfiCond53) ?BRET_EXT load(1, XDATA, add(CFA_XSP16, literal(-3)))
        CFI (cfiCond53) DPL0 load(1, XDATA, add(CFA_XSP16, literal(-2)))
        CFI (cfiCond53) DPH0 load(1, XDATA, add(CFA_XSP16, literal(-1)))
        CFI (cfiCond53) CFA_SP SP+0
        CFI (cfiCond53) CFA_XSP16 add(XSP16, 14)
        CFI Block cfiCond54 Using cfiCommon0
        CFI (cfiCond54) NoFunction
        CFI (cfiCond54) Conditional ??CrossCallReturnLabel_63, ??CrossCallReturnLabel_32
        CFI (cfiCond54) R6 load(1, XDATA, add(CFA_XSP16, literal(-14)))
        CFI (cfiCond54) VB load(1, XDATA, add(CFA_XSP16, literal(-13)))
        CFI (cfiCond54) V0 load(1, XDATA, add(CFA_XSP16, literal(-12)))
        CFI (cfiCond54) V1 load(1, XDATA, add(CFA_XSP16, literal(-11)))
        CFI (cfiCond54) V2 load(1, XDATA, add(CFA_XSP16, literal(-10)))
        CFI (cfiCond54) V3 load(1, XDATA, add(CFA_XSP16, literal(-9)))
        CFI (cfiCond54) V4 load(1, XDATA, add(CFA_XSP16, literal(-8)))
        CFI (cfiCond54) V5 load(1, XDATA, add(CFA_XSP16, literal(-7)))
        CFI (cfiCond54) R7 load(1, XDATA, add(CFA_XSP16, literal(-6)))
        CFI (cfiCond54) ?RET_LOW load(1, XDATA, add(CFA_XSP16, literal(-5)))
        CFI (cfiCond54) ?RET_HIGH load(1, XDATA, add(CFA_XSP16, literal(-4)))
        CFI (cfiCond54) ?BRET_EXT load(1, XDATA, add(CFA_XSP16, literal(-3)))
        CFI (cfiCond54) DPL0 load(1, XDATA, add(CFA_XSP16, literal(-2)))
        CFI (cfiCond54) DPH0 load(1, XDATA, add(CFA_XSP16, literal(-1)))
        CFI (cfiCond54) CFA_SP SP+0
        CFI (cfiCond54) CFA_XSP16 add(XSP16, 14)
        CFI Block cfiCond55 Using cfiCommon0
        CFI (cfiCond55) NoFunction
        CFI (cfiCond55) Conditional ??CrossCallReturnLabel_63, ??CrossCallReturnLabel_33
        CFI (cfiCond55) R6 load(1, XDATA, add(CFA_XSP16, literal(-10)))
        CFI (cfiCond55) VB load(1, XDATA, add(CFA_XSP16, literal(-9)))
        CFI (cfiCond55) V0 load(1, XDATA, add(CFA_XSP16, literal(-8)))
        CFI (cfiCond55) V1 load(1, XDATA, add(CFA_XSP16, literal(-7)))
        CFI (cfiCond55) R7 load(1, XDATA, add(CFA_XSP16, literal(-6)))
        CFI (cfiCond55) ?RET_LOW load(1, XDATA, add(CFA_XSP16, literal(-5)))
        CFI (cfiCond55) ?RET_HIGH load(1, XDATA, add(CFA_XSP16, literal(-4)))
        CFI (cfiCond55) ?BRET_EXT load(1, XDATA, add(CFA_XSP16, literal(-3)))
        CFI (cfiCond55) DPL0 load(1, XDATA, add(CFA_XSP16, literal(-2)))
        CFI (cfiCond55) DPH0 load(1, XDATA, add(CFA_XSP16, literal(-1)))
        CFI (cfiCond55) CFA_SP SP+0
        CFI (cfiCond55) CFA_XSP16 add(XSP16, 10)
        CFI Block cfiPicker56 Using cfiCommon1
        CFI (cfiPicker56) NoFunction
        CFI (cfiPicker56) Picker
        MOV     DPL,A
        MOV     A,R7
        CFI Block cfiCond57 Using cfiCommon0
        CFI (cfiCond57) NoFunction
        CFI (cfiCond57) Conditional ??CrossCallReturnLabel_58
        CFI (cfiCond57) R6 load(1, XDATA, add(CFA_XSP16, literal(-14)))
        CFI (cfiCond57) VB load(1, XDATA, add(CFA_XSP16, literal(-13)))
        CFI (cfiCond57) V0 load(1, XDATA, add(CFA_XSP16, literal(-12)))
        CFI (cfiCond57) V1 load(1, XDATA, add(CFA_XSP16, literal(-11)))
        CFI (cfiCond57) V2 load(1, XDATA, add(CFA_XSP16, literal(-10)))
        CFI (cfiCond57) V3 load(1, XDATA, add(CFA_XSP16, literal(-9)))
        CFI (cfiCond57) V4 load(1, XDATA, add(CFA_XSP16, literal(-8)))
        CFI (cfiCond57) V5 load(1, XDATA, add(CFA_XSP16, literal(-7)))
        CFI (cfiCond57) R7 load(1, XDATA, add(CFA_XSP16, literal(-6)))
        CFI (cfiCond57) ?RET_LOW load(1, XDATA, add(CFA_XSP16, literal(-5)))
        CFI (cfiCond57) ?RET_HIGH load(1, XDATA, add(CFA_XSP16, literal(-4)))
        CFI (cfiCond57) ?BRET_EXT load(1, XDATA, add(CFA_XSP16, literal(-3)))
        CFI (cfiCond57) DPL0 load(1, XDATA, add(CFA_XSP16, literal(-2)))
        CFI (cfiCond57) DPH0 load(1, XDATA, add(CFA_XSP16, literal(-1)))
        CFI (cfiCond57) CFA_SP SP+0
        CFI (cfiCond57) CFA_XSP16 add(XSP16, 14)
        CFI Block cfiCond58 Using cfiCommon0
        CFI (cfiCond58) NoFunction
        CFI (cfiCond58) Conditional ??CrossCallReturnLabel_60
        CFI (cfiCond58) R6 load(1, XDATA, add(CFA_XSP16, literal(-10)))
        CFI (cfiCond58) VB load(1, XDATA, add(CFA_XSP16, literal(-9)))
        CFI (cfiCond58) V0 load(1, XDATA, add(CFA_XSP16, literal(-8)))
        CFI (cfiCond58) V1 load(1, XDATA, add(CFA_XSP16, literal(-7)))
        CFI (cfiCond58) R7 load(1, XDATA, add(CFA_XSP16, literal(-6)))
        CFI (cfiCond58) ?RET_LOW load(1, XDATA, add(CFA_XSP16, literal(-5)))
        CFI (cfiCond58) ?RET_HIGH load(1, XDATA, add(CFA_XSP16, literal(-4)))
        CFI (cfiCond58) ?BRET_EXT load(1, XDATA, add(CFA_XSP16, literal(-3)))
        CFI (cfiCond58) DPL0 load(1, XDATA, add(CFA_XSP16, literal(-2)))
        CFI (cfiCond58) DPH0 load(1, XDATA, add(CFA_XSP16, literal(-1)))
        CFI (cfiCond58) CFA_SP SP+0
        CFI (cfiCond58) CFA_XSP16 add(XSP16, 10)
        CFI Block cfiCond59 Using cfiCommon0
        CFI (cfiCond59) NoFunction
        CFI (cfiCond59) Conditional ??CrossCallReturnLabel_62, ??CrossCallReturnLabel_0
        CFI (cfiCond59) R6 load(1, XDATA, add(CFA_XSP16, literal(-12)))
        CFI (cfiCond59) VB load(1, XDATA, add(CFA_XSP16, literal(-11)))
        CFI (cfiCond59) V0 load(1, XDATA, add(CFA_XSP16, literal(-10)))
        CFI (cfiCond59) V1 load(1, XDATA, add(CFA_XSP16, literal(-9)))
        CFI (cfiCond59) V2 load(1, XDATA, add(CFA_XSP16, literal(-8)))
        CFI (cfiCond59) V3 load(1, XDATA, add(CFA_XSP16, literal(-7)))
        CFI (cfiCond59) R7 load(1, XDATA, add(CFA_XSP16, literal(-6)))
        CFI (cfiCond59) ?RET_LOW load(1, XDATA, add(CFA_XSP16, literal(-5)))
        CFI (cfiCond59) ?RET_HIGH load(1, XDATA, add(CFA_XSP16, literal(-4)))
        CFI (cfiCond59) ?BRET_EXT load(1, XDATA, add(CFA_XSP16, literal(-3)))
        CFI (cfiCond59) DPL0 load(1, XDATA, add(CFA_XSP16, literal(-2)))
        CFI (cfiCond59) DPH0 load(1, XDATA, add(CFA_XSP16, literal(-1)))
        CFI (cfiCond59) CFA_SP SP+0
        CFI (cfiCond59) CFA_XSP16 add(XSP16, 12)
        CFI Block cfiCond60 Using cfiCommon0
        CFI (cfiCond60) NoFunction
        CFI (cfiCond60) Conditional ??CrossCallReturnLabel_62, ??CrossCallReturnLabel_1
        CFI (cfiCond60) R6 load(1, XDATA, add(CFA_XSP16, literal(-12)))
        CFI (cfiCond60) VB load(1, XDATA, add(CFA_XSP16, literal(-11)))
        CFI (cfiCond60) V0 load(1, XDATA, add(CFA_XSP16, literal(-10)))
        CFI (cfiCond60) V1 load(1, XDATA, add(CFA_XSP16, literal(-9)))
        CFI (cfiCond60) V2 load(1, XDATA, add(CFA_XSP16, literal(-8)))
        CFI (cfiCond60) V3 load(1, XDATA, add(CFA_XSP16, literal(-7)))
        CFI (cfiCond60) R7 load(1, XDATA, add(CFA_XSP16, literal(-6)))
        CFI (cfiCond60) ?RET_LOW load(1, XDATA, add(CFA_XSP16, literal(-5)))
        CFI (cfiCond60) ?RET_HIGH load(1, XDATA, add(CFA_XSP16, literal(-4)))
        CFI (cfiCond60) ?BRET_EXT load(1, XDATA, add(CFA_XSP16, literal(-3)))
        CFI (cfiCond60) DPL0 load(1, XDATA, add(CFA_XSP16, literal(-2)))
        CFI (cfiCond60) DPH0 load(1, XDATA, add(CFA_XSP16, literal(-1)))
        CFI (cfiCond60) CFA_SP SP+0
        CFI (cfiCond60) CFA_XSP16 add(XSP16, 12)
??Subroutine21_0:
        ADDC    A,#0x0
        MOV     DPH,A
        RET
        CFI EndBlock cfiCond50
        CFI EndBlock cfiCond51
        CFI EndBlock cfiCond52
        CFI EndBlock cfiCond53
        CFI EndBlock cfiCond54
        CFI EndBlock cfiCond55
        CFI EndBlock cfiPicker56
        CFI EndBlock cfiCond57
        CFI EndBlock cfiCond58
        CFI EndBlock cfiCond59
        CFI EndBlock cfiCond60

        RSEG BANKED_CODE:CODE:NOROOT(0)
?Subroutine7:
        CFI Block cfiCond61 Using cfiCommon0
        CFI NoFunction
        CFI Conditional ??CrossCallReturnLabel_18
        CFI R6 load(1, XDATA, add(CFA_XSP16, literal(-10)))
        CFI VB load(1, XDATA, add(CFA_XSP16, literal(-9)))
        CFI V0 load(1, XDATA, add(CFA_XSP16, literal(-8)))
        CFI V1 load(1, XDATA, add(CFA_XSP16, literal(-7)))
        CFI R7 load(1, XDATA, add(CFA_XSP16, literal(-6)))
        CFI ?RET_LOW load(1, XDATA, add(CFA_XSP16, literal(-5)))
        CFI ?RET_HIGH load(1, XDATA, add(CFA_XSP16, literal(-4)))
        CFI ?BRET_EXT load(1, XDATA, add(CFA_XSP16, literal(-3)))
        CFI DPL0 load(1, XDATA, add(CFA_XSP16, literal(-2)))
        CFI DPH0 load(1, XDATA, add(CFA_XSP16, literal(-1)))
        CFI CFA_SP SP+0
        CFI CFA_XSP16 add(XSP16, 10)
        CFI Block cfiCond62 Using cfiCommon0
        CFI (cfiCond62) NoFunction
        CFI (cfiCond62) Conditional ??CrossCallReturnLabel_19
        CFI (cfiCond62) R6 load(1, XDATA, add(CFA_XSP16, literal(-10)))
        CFI (cfiCond62) VB load(1, XDATA, add(CFA_XSP16, literal(-9)))
        CFI (cfiCond62) V0 load(1, XDATA, add(CFA_XSP16, literal(-8)))
        CFI (cfiCond62) V1 load(1, XDATA, add(CFA_XSP16, literal(-7)))
        CFI (cfiCond62) R7 load(1, XDATA, add(CFA_XSP16, literal(-6)))
        CFI (cfiCond62) ?RET_LOW load(1, XDATA, add(CFA_XSP16, literal(-5)))
        CFI (cfiCond62) ?RET_HIGH load(1, XDATA, add(CFA_XSP16, literal(-4)))
        CFI (cfiCond62) ?BRET_EXT load(1, XDATA, add(CFA_XSP16, literal(-3)))
        CFI (cfiCond62) DPL0 load(1, XDATA, add(CFA_XSP16, literal(-2)))
        CFI (cfiCond62) DPH0 load(1, XDATA, add(CFA_XSP16, literal(-1)))
        CFI (cfiCond62) CFA_SP SP+0
        CFI (cfiCond62) CFA_XSP16 add(XSP16, 10)
        CFI Block cfiPicker63 Using cfiCommon1
        CFI (cfiPicker63) NoFunction
        CFI (cfiPicker63) Picker
        LCALL   ??Subroutine19_0 & 0xFFFF
??CrossCallReturnLabel_51:
        MOV     R0,A
        INC     DPTR
        MOVX    A,@DPTR
        MOV     DPH,A
        MOV     DPL,R0
        RET
        CFI EndBlock cfiCond61
        CFI EndBlock cfiCond62
        CFI EndBlock cfiPicker63

        RSEG BANKED_CODE:CODE:NOROOT(0)
?Subroutine6:
        CFI Block cfiCond64 Using cfiCommon0
        CFI NoFunction
        CFI Conditional ??CrossCallReturnLabel_15
        CFI R6 load(1, XDATA, add(CFA_XSP16, literal(-10)))
        CFI VB load(1, XDATA, add(CFA_XSP16, literal(-9)))
        CFI V0 load(1, XDATA, add(CFA_XSP16, literal(-8)))
        CFI V1 load(1, XDATA, add(CFA_XSP16, literal(-7)))
        CFI R7 load(1, XDATA, add(CFA_XSP16, literal(-6)))
        CFI ?RET_LOW load(1, XDATA, add(CFA_XSP16, literal(-5)))
        CFI ?RET_HIGH load(1, XDATA, add(CFA_XSP16, literal(-4)))
        CFI ?BRET_EXT load(1, XDATA, add(CFA_XSP16, literal(-3)))
        CFI DPL0 load(1, XDATA, add(CFA_XSP16, literal(-2)))
        CFI DPH0 load(1, XDATA, add(CFA_XSP16, literal(-1)))
        CFI CFA_SP SP+0
        CFI CFA_XSP16 add(XSP16, 10)
        CFI Block cfiCond65 Using cfiCommon0
        CFI (cfiCond65) NoFunction
        CFI (cfiCond65) Conditional ??CrossCallReturnLabel_17
        CFI (cfiCond65) R6 load(1, XDATA, add(CFA_XSP16, literal(-10)))
        CFI (cfiCond65) VB load(1, XDATA, add(CFA_XSP16, literal(-9)))
        CFI (cfiCond65) V0 load(1, XDATA, add(CFA_XSP16, literal(-8)))
        CFI (cfiCond65) V1 load(1, XDATA, add(CFA_XSP16, literal(-7)))
        CFI (cfiCond65) R7 load(1, XDATA, add(CFA_XSP16, literal(-6)))
        CFI (cfiCond65) ?RET_LOW load(1, XDATA, add(CFA_XSP16, literal(-5)))
        CFI (cfiCond65) ?RET_HIGH load(1, XDATA, add(CFA_XSP16, literal(-4)))
        CFI (cfiCond65) ?BRET_EXT load(1, XDATA, add(CFA_XSP16, literal(-3)))
        CFI (cfiCond65) DPL0 load(1, XDATA, add(CFA_XSP16, literal(-2)))
        CFI (cfiCond65) DPH0 load(1, XDATA, add(CFA_XSP16, literal(-1)))
        CFI (cfiCond65) CFA_SP SP+0
        CFI (cfiCond65) CFA_XSP16 add(XSP16, 10)
        CFI Block cfiPicker66 Using cfiCommon1
        CFI (cfiPicker66) NoFunction
        CFI (cfiPicker66) Picker
        INC     DPTR
        INC     DPTR
        INC     DPTR
        INC     DPTR
        INC     DPTR
        INC     DPTR
        CFI Block cfiCond67 Using cfiCommon0
        CFI (cfiCond67) NoFunction
        CFI (cfiCond67) Conditional ??CrossCallReturnLabel_14
        CFI (cfiCond67) R6 load(1, XDATA, add(CFA_XSP16, literal(-10)))
        CFI (cfiCond67) VB load(1, XDATA, add(CFA_XSP16, literal(-9)))
        CFI (cfiCond67) V0 load(1, XDATA, add(CFA_XSP16, literal(-8)))
        CFI (cfiCond67) V1 load(1, XDATA, add(CFA_XSP16, literal(-7)))
        CFI (cfiCond67) R7 load(1, XDATA, add(CFA_XSP16, literal(-6)))
        CFI (cfiCond67) ?RET_LOW load(1, XDATA, add(CFA_XSP16, literal(-5)))
        CFI (cfiCond67) ?RET_HIGH load(1, XDATA, add(CFA_XSP16, literal(-4)))
        CFI (cfiCond67) ?BRET_EXT load(1, XDATA, add(CFA_XSP16, literal(-3)))
        CFI (cfiCond67) DPL0 load(1, XDATA, add(CFA_XSP16, literal(-2)))
        CFI (cfiCond67) DPH0 load(1, XDATA, add(CFA_XSP16, literal(-1)))
        CFI (cfiCond67) CFA_SP SP+0
        CFI (cfiCond67) CFA_XSP16 add(XSP16, 10)
        CFI Block cfiCond68 Using cfiCommon0
        CFI (cfiCond68) NoFunction
        CFI (cfiCond68) Conditional ??CrossCallReturnLabel_16
        CFI (cfiCond68) R6 load(1, XDATA, add(CFA_XSP16, literal(-10)))
        CFI (cfiCond68) VB load(1, XDATA, add(CFA_XSP16, literal(-9)))
        CFI (cfiCond68) V0 load(1, XDATA, add(CFA_XSP16, literal(-8)))
        CFI (cfiCond68) V1 load(1, XDATA, add(CFA_XSP16, literal(-7)))
        CFI (cfiCond68) R7 load(1, XDATA, add(CFA_XSP16, literal(-6)))
        CFI (cfiCond68) ?RET_LOW load(1, XDATA, add(CFA_XSP16, literal(-5)))
        CFI (cfiCond68) ?RET_HIGH load(1, XDATA, add(CFA_XSP16, literal(-4)))
        CFI (cfiCond68) ?BRET_EXT load(1, XDATA, add(CFA_XSP16, literal(-3)))
        CFI (cfiCond68) DPL0 load(1, XDATA, add(CFA_XSP16, literal(-2)))
        CFI (cfiCond68) DPH0 load(1, XDATA, add(CFA_XSP16, literal(-1)))
        CFI (cfiCond68) CFA_SP SP+0
        CFI (cfiCond68) CFA_XSP16 add(XSP16, 10)
??Subroutine6_0:
        MOVX    A,@DPTR
        MOV     R3,A
        MOV     A,R2
        CLR     C
        SUBB    A,R3
        RET
        CFI EndBlock cfiCond64
        CFI EndBlock cfiCond65
        CFI EndBlock cfiPicker66
        CFI EndBlock cfiCond67
        CFI EndBlock cfiCond68

        RSEG BANKED_CODE:CODE:NOROOT(0)
?Subroutine2:
        CFI Block cfiCond69 Using cfiCommon0
        CFI NoFunction
        CFI Conditional ??CrossCallReturnLabel_4
        CFI R6 load(1, XDATA, add(CFA_XSP16, literal(-10)))
        CFI VB load(1, XDATA, add(CFA_XSP16, literal(-9)))
        CFI V0 load(1, XDATA, add(CFA_XSP16, literal(-8)))
        CFI V1 load(1, XDATA, add(CFA_XSP16, literal(-7)))
        CFI R7 load(1, XDATA, add(CFA_XSP16, literal(-6)))
        CFI ?RET_LOW load(1, XDATA, add(CFA_XSP16, literal(-5)))
        CFI ?RET_HIGH load(1, XDATA, add(CFA_XSP16, literal(-4)))
        CFI ?BRET_EXT load(1, XDATA, add(CFA_XSP16, literal(-3)))
        CFI DPL0 load(1, XDATA, add(CFA_XSP16, literal(-2)))
        CFI DPH0 load(1, XDATA, add(CFA_XSP16, literal(-1)))
        CFI CFA_SP SP+0
        CFI CFA_XSP16 add(XSP16, 10)
        CFI Block cfiCond70 Using cfiCommon0
        CFI (cfiCond70) NoFunction
        CFI (cfiCond70) Conditional ??CrossCallReturnLabel_5
        CFI (cfiCond70) R6 load(1, XDATA, add(CFA_XSP16, literal(-10)))
        CFI (cfiCond70) VB load(1, XDATA, add(CFA_XSP16, literal(-9)))
        CFI (cfiCond70) V0 load(1, XDATA, add(CFA_XSP16, literal(-8)))
        CFI (cfiCond70) V1 load(1, XDATA, add(CFA_XSP16, literal(-7)))
        CFI (cfiCond70) R7 load(1, XDATA, add(CFA_XSP16, literal(-6)))
        CFI (cfiCond70) ?RET_LOW load(1, XDATA, add(CFA_XSP16, literal(-5)))
        CFI (cfiCond70) ?RET_HIGH load(1, XDATA, add(CFA_XSP16, literal(-4)))
        CFI (cfiCond70) ?BRET_EXT load(1, XDATA, add(CFA_XSP16, literal(-3)))
        CFI (cfiCond70) DPL0 load(1, XDATA, add(CFA_XSP16, literal(-2)))
        CFI (cfiCond70) DPH0 load(1, XDATA, add(CFA_XSP16, literal(-1)))
        CFI (cfiCond70) CFA_SP SP+0
        CFI (cfiCond70) CFA_XSP16 add(XSP16, 10)
        CFI Block cfiPicker71 Using cfiCommon1
        CFI (cfiPicker71) NoFunction
        CFI (cfiPicker71) Picker
        LCALL   ?Subroutine16 & 0xFFFF
??CrossCallReturnLabel_48:
        MOV     A,R2
        LCALL   ?Subroutine22 & 0xFFFF
??CrossCallReturnLabel_65:
        RET
        CFI EndBlock cfiCond69
        CFI EndBlock cfiCond70
        CFI EndBlock cfiPicker71

        RSEG BANKED_CODE:CODE:NOROOT(0)
?Subroutine22:
        CFI Block cfiCond72 Using cfiCommon0
        CFI NoFunction
        CFI Conditional ??CrossCallReturnLabel_64
        CFI R6 load(1, XDATA, add(CFA_XSP16, literal(-9)))
        CFI VB load(1, XDATA, add(CFA_XSP16, literal(-8)))
        CFI V0 load(1, XDATA, add(CFA_XSP16, literal(-7)))
        CFI R7 load(1, XDATA, add(CFA_XSP16, literal(-6)))
        CFI ?RET_LOW load(1, XDATA, add(CFA_XSP16, literal(-5)))
        CFI ?RET_HIGH load(1, XDATA, add(CFA_XSP16, literal(-4)))
        CFI ?BRET_EXT load(1, XDATA, add(CFA_XSP16, literal(-3)))
        CFI DPL0 load(1, XDATA, add(CFA_XSP16, literal(-2)))
        CFI DPH0 load(1, XDATA, add(CFA_XSP16, literal(-1)))
        CFI CFA_SP SP+0
        CFI CFA_XSP16 add(XSP16, 9)
        CFI Block cfiCond73 Using cfiCommon0
        CFI (cfiCond73) NoFunction
        CFI (cfiCond73) Conditional ??CrossCallReturnLabel_65, ??CrossCallReturnLabel_4
        CFI (cfiCond73) R6 load(1, XDATA, add(CFA_XSP16, literal(-10)))
        CFI (cfiCond73) VB load(1, XDATA, add(CFA_XSP16, literal(-9)))
        CFI (cfiCond73) V0 load(1, XDATA, add(CFA_XSP16, literal(-8)))
        CFI (cfiCond73) V1 load(1, XDATA, add(CFA_XSP16, literal(-7)))
        CFI (cfiCond73) R7 load(1, XDATA, add(CFA_XSP16, literal(-6)))
        CFI (cfiCond73) ?RET_LOW load(1, XDATA, add(CFA_XSP16, literal(-5)))
        CFI (cfiCond73) ?RET_HIGH load(1, XDATA, add(CFA_XSP16, literal(-4)))
        CFI (cfiCond73) ?BRET_EXT load(1, XDATA, add(CFA_XSP16, literal(-3)))
        CFI (cfiCond73) DPL0 load(1, XDATA, add(CFA_XSP16, literal(-2)))
        CFI (cfiCond73) DPH0 load(1, XDATA, add(CFA_XSP16, literal(-1)))
        CFI (cfiCond73) CFA_SP SP+0
        CFI (cfiCond73) CFA_XSP16 add(XSP16, 10)
        CFI Block cfiCond74 Using cfiCommon0
        CFI (cfiCond74) NoFunction
        CFI (cfiCond74) Conditional ??CrossCallReturnLabel_65, ??CrossCallReturnLabel_5
        CFI (cfiCond74) R6 load(1, XDATA, add(CFA_XSP16, literal(-10)))
        CFI (cfiCond74) VB load(1, XDATA, add(CFA_XSP16, literal(-9)))
        CFI (cfiCond74) V0 load(1, XDATA, add(CFA_XSP16, literal(-8)))
        CFI (cfiCond74) V1 load(1, XDATA, add(CFA_XSP16, literal(-7)))
        CFI (cfiCond74) R7 load(1, XDATA, add(CFA_XSP16, literal(-6)))
        CFI (cfiCond74) ?RET_LOW load(1, XDATA, add(CFA_XSP16, literal(-5)))
        CFI (cfiCond74) ?RET_HIGH load(1, XDATA, add(CFA_XSP16, literal(-4)))
        CFI (cfiCond74) ?BRET_EXT load(1, XDATA, add(CFA_XSP16, literal(-3)))
        CFI (cfiCond74) DPL0 load(1, XDATA, add(CFA_XSP16, literal(-2)))
        CFI (cfiCond74) DPH0 load(1, XDATA, add(CFA_XSP16, literal(-1)))
        CFI (cfiCond74) CFA_SP SP+0
        CFI (cfiCond74) CFA_XSP16 add(XSP16, 10)
        CFI Block cfiPicker75 Using cfiCommon1
        CFI (cfiPicker75) NoFunction
        CFI (cfiPicker75) Picker
        SUBB    A,R0
        CLR     A
        SUBB    A,R1
        MOV     C,0xD0 /* PSW */.2
        XRL     A,PSW
        RLC     A
        RET
        CFI EndBlock cfiCond72
        CFI EndBlock cfiCond73
        CFI EndBlock cfiCond74
        CFI EndBlock cfiPicker75

        RSEG BANKED_CODE:CODE:NOROOT(0)
?Subroutine16:
        CFI Block cfiCond76 Using cfiCommon0
        CFI NoFunction
        CFI Conditional ??CrossCallReturnLabel_47
        CFI R6 load(1, XDATA, add(CFA_XSP16, literal(-9)))
        CFI VB load(1, XDATA, add(CFA_XSP16, literal(-8)))
        CFI V0 load(1, XDATA, add(CFA_XSP16, literal(-7)))
        CFI R7 load(1, XDATA, add(CFA_XSP16, literal(-6)))
        CFI ?RET_LOW load(1, XDATA, add(CFA_XSP16, literal(-5)))
        CFI ?RET_HIGH load(1, XDATA, add(CFA_XSP16, literal(-4)))
        CFI ?BRET_EXT load(1, XDATA, add(CFA_XSP16, literal(-3)))
        CFI DPL0 load(1, XDATA, add(CFA_XSP16, literal(-2)))
        CFI DPH0 load(1, XDATA, add(CFA_XSP16, literal(-1)))
        CFI CFA_SP SP+0
        CFI CFA_XSP16 add(XSP16, 9)
        CFI Block cfiCond77 Using cfiCommon0
        CFI (cfiCond77) NoFunction
        CFI (cfiCond77) Conditional ??CrossCallReturnLabel_48, ??CrossCallReturnLabel_4
        CFI (cfiCond77) R6 load(1, XDATA, add(CFA_XSP16, literal(-10)))
        CFI (cfiCond77) VB load(1, XDATA, add(CFA_XSP16, literal(-9)))
        CFI (cfiCond77) V0 load(1, XDATA, add(CFA_XSP16, literal(-8)))
        CFI (cfiCond77) V1 load(1, XDATA, add(CFA_XSP16, literal(-7)))
        CFI (cfiCond77) R7 load(1, XDATA, add(CFA_XSP16, literal(-6)))
        CFI (cfiCond77) ?RET_LOW load(1, XDATA, add(CFA_XSP16, literal(-5)))
        CFI (cfiCond77) ?RET_HIGH load(1, XDATA, add(CFA_XSP16, literal(-4)))
        CFI (cfiCond77) ?BRET_EXT load(1, XDATA, add(CFA_XSP16, literal(-3)))
        CFI (cfiCond77) DPL0 load(1, XDATA, add(CFA_XSP16, literal(-2)))
        CFI (cfiCond77) DPH0 load(1, XDATA, add(CFA_XSP16, literal(-1)))
        CFI (cfiCond77) CFA_SP SP+0
        CFI (cfiCond77) CFA_XSP16 add(XSP16, 10)
        CFI Block cfiCond78 Using cfiCommon0
        CFI (cfiCond78) NoFunction
        CFI (cfiCond78) Conditional ??CrossCallReturnLabel_48, ??CrossCallReturnLabel_5
        CFI (cfiCond78) R6 load(1, XDATA, add(CFA_XSP16, literal(-10)))
        CFI (cfiCond78) VB load(1, XDATA, add(CFA_XSP16, literal(-9)))
        CFI (cfiCond78) V0 load(1, XDATA, add(CFA_XSP16, literal(-8)))
        CFI (cfiCond78) V1 load(1, XDATA, add(CFA_XSP16, literal(-7)))
        CFI (cfiCond78) R7 load(1, XDATA, add(CFA_XSP16, literal(-6)))
        CFI (cfiCond78) ?RET_LOW load(1, XDATA, add(CFA_XSP16, literal(-5)))
        CFI (cfiCond78) ?RET_HIGH load(1, XDATA, add(CFA_XSP16, literal(-4)))
        CFI (cfiCond78) ?BRET_EXT load(1, XDATA, add(CFA_XSP16, literal(-3)))
        CFI (cfiCond78) DPL0 load(1, XDATA, add(CFA_XSP16, literal(-2)))
        CFI (cfiCond78) DPH0 load(1, XDATA, add(CFA_XSP16, literal(-1)))
        CFI (cfiCond78) CFA_SP SP+0
        CFI (cfiCond78) CFA_XSP16 add(XSP16, 10)
        CFI Block cfiPicker79 Using cfiCommon1
        CFI (cfiPicker79) NoFunction
        CFI (cfiPicker79) Picker
        INC     DPTR
        INC     DPTR
        INC     DPTR
        INC     DPTR
        MOVX    A,@DPTR
        MOV     R0,A
        MOV     A,#-0x30
        ADD     A,R0
        MOV     R0,A
        MOV     A,#-0x1
        ADDC    A,#0x0
        MOV     R1,A
        CLR     C
        RET
        CFI EndBlock cfiCond76
        CFI EndBlock cfiCond77
        CFI EndBlock cfiCond78
        CFI EndBlock cfiPicker79

        RSEG XDATA_Z:XDATA:NOROOT(0)
??tickShdw:
        DS 1
        REQUIRE __INIT_XDATA_Z
//  937 
//  938 /**************************************************************************************************
//  939  * @fn      Hal_UART_RxBufLen()
//  940  *
//  941  * @brief   Calculate Rx Buffer length - the number of bytes in the buffer.
//  942  *
//  943  * @param   port - UART port
//  944  *
//  945  * @return  length of current Rx Buffer
//  946  **************************************************************************************************/

        RSEG BANKED_CODE:CODE:NOROOT(0)
//  947 uint16 Hal_UART_RxBufLen( uint8 port )
Hal_UART_RxBufLen:
        CFI Block cfiBlock80 Using cfiCommon0
        CFI Function Hal_UART_RxBufLen
//  948 {
        PUSH    DPL
        CFI DPL0 Frame(CFA_SP, 4)
        CFI CFA_SP SP+-4
        PUSH    DPH
        CFI DPH0 Frame(CFA_SP, 5)
        CFI CFA_SP SP+-5
        ; Saved register size: 2
        ; Auto size: 0
        MOV     A,R1
        MOV     R2,A
//  949   uartCfg_t *cfg = NULL;
        MOV     R0,#0x0
        MOV     R1,#0x0
//  950 
//  951 #if HAL_UART_0_ENABLE
//  952   if ( port == HAL_UART_PORT_0 )
        JNZ     ??Hal_UART_RxBufLen_0
//  953   {
//  954     cfg = cfg0;
        MOV     DPTR,#cfg0
        SJMP    ??Hal_UART_RxBufLen_1
//  955   }
//  956 #endif
//  957 #if HAL_UART_1_ENABLE
//  958   if ( port == HAL_UART_PORT_1 )
??Hal_UART_RxBufLen_0:
        MOV     A,#0x1
        XRL     A,R2
        JNZ     ??CrossCallReturnLabel_11
//  959   {
//  960     cfg = cfg1;
        MOV     DPTR,#cfg1
??Hal_UART_RxBufLen_1:
        LCALL   ?Subroutine5 & 0xFFFF
//  961   }
//  962 #endif
//  963 
//  964   HAL_UART_ASSERT( cfg );
//  965 
//  966   return UART_RX_AVAIL( cfg );
??CrossCallReturnLabel_11:
        MOV     DPL,R0
        MOV     DPH,R1
        INC     DPTR
        INC     DPTR
        MOVX    A,@DPTR
        PUSH    A
        CFI CFA_SP SP+-6
        MOV     DPL,R0
        MOV     DPH,R1
        INC     DPTR
        INC     DPTR
        INC     DPTR
        MOVX    A,@DPTR
        MOV     R2,A
        POP     A
        CFI CFA_SP SP+-5
        CLR     C
        SUBB    A,R2
        MOV     DPL,R0
        MOV     DPH,R1
        INC     DPTR
        INC     DPTR
        JC      ??Hal_UART_RxBufLen_2
        LCALL   ?Subroutine4 & 0xFFFF
??CrossCallReturnLabel_8:
        MOV     R0,A
        MOV     A,R2
        CLR     C
        SUBB    A,R0
        MOV     R2,A
        CLR     A
        SUBB    A,#0x0
        SJMP    ??Hal_UART_RxBufLen_3
??Hal_UART_RxBufLen_2:
        INC     DPTR
        INC     DPTR
        LCALL   ?Subroutine4 & 0xFFFF
??CrossCallReturnLabel_9:
        MOV     R4,A
        MOV     A,R2
        CLR     C
        SUBB    A,R4
        MOV     R2,A
        CLR     A
        SUBB    A,#0x0
        MOV     R3,A
        MOV     DPL,R0
        MOV     DPH,R1
        INC     DPTR
        INC     DPTR
        MOVX    A,@DPTR
        ADD     A,R2
        MOV     R0,A
        CLR     A
        ADDC    A,R3
        MOV     R1,A
        MOV     A,#0x1
        ADD     A,R0
        MOV     R2,A
        CLR     A
        ADDC    A,R1
??Hal_UART_RxBufLen_3:
        MOV     R3,A
        POP     DPH
        CFI DPH0 SameValue
        CFI CFA_SP SP+-4
        POP     DPL
        CFI DPL0 SameValue
        CFI CFA_SP SP+-3
        LJMP    ?BRET
        CFI EndBlock cfiBlock80
//  967 }

        RSEG BANKED_CODE:CODE:NOROOT(0)
?Subroutine4:
        CFI Block cfiCond81 Using cfiCommon0
        CFI NoFunction
        CFI Conditional ??CrossCallReturnLabel_8
        CFI DPL0 Frame(CFA_SP, 4)
        CFI DPH0 Frame(CFA_SP, 5)
        CFI CFA_SP SP+-5
        CFI Block cfiCond82 Using cfiCommon0
        CFI (cfiCond82) NoFunction
        CFI (cfiCond82) Conditional ??CrossCallReturnLabel_9
        CFI (cfiCond82) DPL0 Frame(CFA_SP, 4)
        CFI (cfiCond82) DPH0 Frame(CFA_SP, 5)
        CFI (cfiCond82) CFA_SP SP+-5
        CFI Block cfiPicker83 Using cfiCommon1
        CFI (cfiPicker83) NoFunction
        CFI (cfiPicker83) Picker
        MOVX    A,@DPTR
        MOV     R2,A
        MOV     DPL,R0
        MOV     DPH,R1
        INC     DPTR
        INC     DPTR
        INC     DPTR
        MOVX    A,@DPTR
        RET
        CFI EndBlock cfiCond81
        CFI EndBlock cfiCond82
        CFI EndBlock cfiPicker83
//  968 
//  969 /*****************************************************************************
//  970  * @fn      HalUARTRead
//  971  *
//  972  * @brief   Read a buffer from the UART
//  973  *
//  974  * @param   port - USART module designation
//  975  *          buf  - valid data buffer at least 'len' bytes in size
//  976  *          len  - max length number of bytes to copy to 'buf'
//  977  *
//  978  * @return  length of buffer that was read
//  979  *****************************************************************************/

        RSEG BANKED_CODE:CODE:NOROOT(0)
//  980 uint16 HalUARTRead( uint8 port, uint8 *buf, uint16 len )
HalUARTRead:
        CFI Block cfiBlock84 Using cfiCommon0
        CFI Function HalUARTRead
//  981 {
        MOV     A,#-0xc
        LCALL   ?BANKED_ENTER_XDATA
        CFI DPH0 load(1, XDATA, add(CFA_XSP16, literal(-1)))
        CFI DPL0 load(1, XDATA, add(CFA_XSP16, literal(-2)))
        CFI ?BRET_EXT load(1, XDATA, add(CFA_XSP16, literal(-3)))
        CFI ?RET_HIGH load(1, XDATA, add(CFA_XSP16, literal(-4)))
        CFI ?RET_LOW load(1, XDATA, add(CFA_XSP16, literal(-5)))
        CFI R7 load(1, XDATA, add(CFA_XSP16, literal(-6)))
        CFI V3 load(1, XDATA, add(CFA_XSP16, literal(-7)))
        CFI V2 load(1, XDATA, add(CFA_XSP16, literal(-8)))
        CFI V1 load(1, XDATA, add(CFA_XSP16, literal(-9)))
        CFI V0 load(1, XDATA, add(CFA_XSP16, literal(-10)))
        CFI VB load(1, XDATA, add(CFA_XSP16, literal(-11)))
        CFI R6 load(1, XDATA, add(CFA_XSP16, literal(-12)))
        CFI CFA_SP SP+0
        CFI CFA_XSP16 add(XSP16, 12)
        ; Saved register size: 12
        ; Auto size: 0
        MOV     A,R1
        MOV     R6,A
//  982   uartCfg_t *cfg = NULL;
        MOV     R0,#0x0
        MOV     R1,#0x0
//  983   uint8 cnt = 0;
        MOV     ?V0 + 2,R0
//  984 
//  985 #if HAL_UART_0_ENABLE
//  986   if ( port == HAL_UART_PORT_0 )
        JNZ     ??HalUARTRead_0
//  987   {
//  988     cfg = cfg0;
        MOV     DPTR,#cfg0
??HalUARTRead_1:
        LCALL   ?Subroutine5 & 0xFFFF
??CrossCallReturnLabel_12:
        SJMP    ??HalUARTRead_2
//  989   }
//  990 #endif
//  991 #if HAL_UART_1_ENABLE
//  992   if ( port == HAL_UART_PORT_1 )
??HalUARTRead_0:
        MOV     A,#0x1
        XRL     A,R6
        JNZ     ??HalUARTRead_2
//  993   {
//  994     cfg = cfg1;
        MOV     DPTR,#cfg1
        SJMP    ??HalUARTRead_1
//  995   }
//  996 #endif
//  997 
//  998   HAL_UART_ASSERT( cfg );
//  999 
// 1000   while ( (cfg->rxTail != cfg->rxHead) && (cnt < len) )
// 1001   {
// 1002     *buf++ = cfg->rxBuf[cfg->rxTail];
// 1003     if ( cfg->rxTail == cfg->rxMax )
// 1004     {
// 1005       cfg->rxTail = 0;
// 1006     }
// 1007     else
// 1008     {
// 1009       cfg->rxTail++;
??HalUARTRead_3:
        MOV     DPL,R0
        MOV     DPH,R1
        INC     DPTR
        INC     DPTR
        INC     DPTR
        MOVX    A,@DPTR
        INC     A
??HalUARTRead_4:
        MOVX    @DPTR,A
// 1010     }
// 1011     cnt++;
        INC     ?V0 + 2
??HalUARTRead_2:
        MOV     DPL,R0
        MOV     DPH,R1
        INC     DPTR
        INC     DPTR
        INC     DPTR
        LCALL   ?Subroutine8 & 0xFFFF
??CrossCallReturnLabel_20:
        MOVX    A,@DPTR
        XRL     A,R6
        JZ      ??HalUARTRead_5
        MOV     ?V0 + 0,?V0 + 2
        CLR     C
        MOV     A,?V0 + 0
        SUBB    A,R4
        CLR     A
        SUBB    A,R5
        JNC     ??HalUARTRead_5
        MOV     A,R0
        ADD     A,#0x3
        MOV     R6,A
        MOV     A,R1
        ADDC    A,#0x0
        MOV     R7,A
        MOV     DPL,R6
        MOV     DPH,R7
        MOVX    A,@DPTR
        MOV     ?V0 + 0,A
        MOV     DPL,R0
        MOV     DPH,R1
        MOVX    A,@DPTR
        ADD     A,?V0 + 0
        MOV     ?V0 + 3,A
        INC     DPTR
        MOVX    A,@DPTR
        ADDC    A,#0x0
        MOV     DPL,?V0 + 3
        MOV     DPH,A
        MOVX    A,@DPTR
        MOV     DPL,R2
        MOV     DPH,R3
        MOVX    @DPTR,A
        INC     DPTR
        MOV     R2,DPL
        MOV     R3,DPH
        MOV     DPL,R6
        MOV     DPH,R7
        LCALL   ?Subroutine8 & 0xFFFF
??CrossCallReturnLabel_21:
        INC     DPTR
        INC     DPTR
        MOVX    A,@DPTR
        XRL     A,R6
        JNZ     ??HalUARTRead_3
        CLR     A
        MOV     DPL,R0
        MOV     DPH,R1
        INC     DPTR
        INC     DPTR
        INC     DPTR
        SJMP    ??HalUARTRead_4
// 1012   }
// 1013 
// 1014 #if HAL_UART_DMA
// 1015   #if HAL_UART_ISR
// 1016   if ( cfg->flag & UART_CFG_DMA )
// 1017   #endif
// 1018   {
// 1019     /* If there is no flow control on a DMA-driven UART, the Rx Head & Tail
// 1020      * pointers must be reset to zero after every read in order to preserve the
// 1021      * full length of the Rx buffer. This implies that every Read must read all
// 1022      * of the Rx bytes available, or the pointers will not be reset and the
// 1023      * next incoming packet may not fit in the Rx buffer space remaining - thus
// 1024      * the end portion of the incoming packet that does not fit would be lost.
// 1025      */
// 1026     if ( !(cfg->flag & UART_CFG_FLW) )
// 1027     {
// 1028       // This is a trick to trigger the DMA abort and restart logic in pollDMA.
// 1029       cfg->flag |= UART_CFG_RXF;
// 1030     }
// 1031   }
// 1032 #endif
// 1033 
// 1034 #if HAL_UART_ISR
// 1035   #if HAL_UART_DMA
// 1036   if ( !(cfg->flag & UART_CFG_DMA) )
// 1037   #endif
// 1038   {
// 1039     cfg->rxCnt = UART_RX_AVAIL( cfg );
??HalUARTRead_5:
        MOV     DPL,R0
        MOV     DPH,R1
        INC     DPTR
        INC     DPTR
        MOVX    A,@DPTR
        PUSH    A
        CFI CFA_SP SP+-1
        MOV     DPL,R0
        MOV     DPH,R1
        INC     DPTR
        INC     DPTR
        INC     DPTR
        MOVX    A,@DPTR
        MOV     R2,A
        POP     A
        CFI CFA_SP SP+0
        CLR     C
        SUBB    A,R2
        MOV     DPL,R0
        MOV     DPH,R1
        INC     DPTR
        INC     DPTR
        JC      ??HalUARTRead_6
        MOVX    A,@DPTR
        CLR     C
        SUBB    A,R2
        SJMP    ??HalUARTRead_7
??HalUARTRead_6:
        PUSH    DPL
        CFI CFA_SP SP+-1
        PUSH    DPH
        CFI CFA_SP SP+-2
        MOV     DPL,R0
        MOV     DPH,R1
        INC     DPTR
        INC     DPTR
        INC     DPTR
        INC     DPTR
        MOVX    A,@DPTR
        CLR     C
        SUBB    A,R2
        POP     DPH
        CFI CFA_SP SP+-1
        POP     DPL
        CFI CFA_SP SP+0
        MOV     R2,A
        MOVX    A,@DPTR
        ADD     A,R2
        INC     A
??HalUARTRead_7:
        MOV     R2,A
        MOV     A,R2
        MOV     DPL,R0
        MOV     DPH,R1
        INC     DPTR
        INC     DPTR
        INC     DPTR
        INC     DPTR
        INC     DPTR
        MOVX    @DPTR,A
// 1040 
// 1041     if ( cfg->flag & UART_CFG_RXF )
        LCALL   ?Subroutine9 & 0xFFFF
??CrossCallReturnLabel_22:
        MOV     C,0xE0 /* A   */.1
        JNC     ??HalUARTRead_8
// 1042     {
// 1043       if ( cfg->rxCnt < (cfg->rxMax - SAFE_RX_MIN) )
        MOV     DPL,R0
        MOV     DPH,R1
        INC     DPTR
        INC     DPTR
        INC     DPTR
        INC     DPTR
        INC     DPTR
        LCALL   ?Subroutine17 & 0xFFFF
??CrossCallReturnLabel_49:
        MOVX    A,@DPTR
        MOV     R2,A
        MOV     A,#-0x30
        ADD     A,R2
        MOV     R2,A
        MOV     A,#-0x1
        ADDC    A,#0x0
        MOV     R3,A
        CLR     C
        MOV     A,R4
        SUBB    A,R2
        CLR     A
        SUBB    A,R3
        MOV     C,0xD0 /* PSW */.2
        XRL     A,PSW
        RLC     A
        JNC     ??HalUARTRead_8
// 1044       {
// 1045         RX_STRT_FLOW( cfg );
        LCALL   ?Subroutine9 & 0xFFFF
??CrossCallReturnLabel_23:
        MOV     C,0xE0 /* A   */.7
        JC      ??HalUARTRead_9
        CLR     0x80.5
        SJMP    ??HalUARTRead_10
??HalUARTRead_9:
        CLR     0x90.5
??HalUARTRead_10:
        CLR     0xE0 /* A   */.1
        MOVX    @DPTR,A
// 1046       }
// 1047     }
// 1048   }
// 1049 #endif
// 1050 
// 1051   return cnt;
??HalUARTRead_8:
        MOV     R2,?V0 + 2
        MOV     R3,#0x0
        CFI EndBlock cfiBlock84
        REQUIRE ?Subroutine47
        REQUIRE _A_P0
        REQUIRE _A_P1
        ; // Fall through to label ?Subroutine47
// 1052 }

        RSEG BANKED_CODE:CODE:NOROOT(0)
?Subroutine47:
        CFI Block cfiBlock85 Using cfiCommon0
        CFI NoFunction
        CFI CFA_SP SP+0
        CFI CFA_XSP16 add(XSP16, 12)
        CFI VB load(1, XDATA, add(CFA_XSP16, literal(-11)))
        CFI DPL0 load(1, XDATA, add(CFA_XSP16, literal(-2)))
        CFI DPH0 load(1, XDATA, add(CFA_XSP16, literal(-1)))
        CFI R6 load(1, XDATA, add(CFA_XSP16, literal(-12)))
        CFI R7 load(1, XDATA, add(CFA_XSP16, literal(-6)))
        CFI V0 load(1, XDATA, add(CFA_XSP16, literal(-10)))
        CFI V1 load(1, XDATA, add(CFA_XSP16, literal(-9)))
        CFI V2 load(1, XDATA, add(CFA_XSP16, literal(-8)))
        CFI V3 load(1, XDATA, add(CFA_XSP16, literal(-7)))
        CFI ?BRET_EXT load(1, XDATA, add(CFA_XSP16, literal(-3)))
        CFI ?RET_HIGH load(1, XDATA, add(CFA_XSP16, literal(-4)))
        CFI ?RET_LOW load(1, XDATA, add(CFA_XSP16, literal(-5)))
        MOV     R7,#0x4
        LJMP    ?BANKED_LEAVE_XDATA
        CFI EndBlock cfiBlock85

        RSEG BANKED_CODE:CODE:NOROOT(0)
?Subroutine8:
        CFI Block cfiCond86 Using cfiCommon0
        CFI NoFunction
        CFI Conditional ??CrossCallReturnLabel_20
        CFI R6 load(1, XDATA, add(CFA_XSP16, literal(-12)))
        CFI VB load(1, XDATA, add(CFA_XSP16, literal(-11)))
        CFI V0 load(1, XDATA, add(CFA_XSP16, literal(-10)))
        CFI V1 load(1, XDATA, add(CFA_XSP16, literal(-9)))
        CFI V2 load(1, XDATA, add(CFA_XSP16, literal(-8)))
        CFI V3 load(1, XDATA, add(CFA_XSP16, literal(-7)))
        CFI R7 load(1, XDATA, add(CFA_XSP16, literal(-6)))
        CFI ?RET_LOW load(1, XDATA, add(CFA_XSP16, literal(-5)))
        CFI ?RET_HIGH load(1, XDATA, add(CFA_XSP16, literal(-4)))
        CFI ?BRET_EXT load(1, XDATA, add(CFA_XSP16, literal(-3)))
        CFI DPL0 load(1, XDATA, add(CFA_XSP16, literal(-2)))
        CFI DPH0 load(1, XDATA, add(CFA_XSP16, literal(-1)))
        CFI CFA_SP SP+0
        CFI CFA_XSP16 add(XSP16, 12)
        CFI Block cfiCond87 Using cfiCommon0
        CFI (cfiCond87) NoFunction
        CFI (cfiCond87) Conditional ??CrossCallReturnLabel_21
        CFI (cfiCond87) R6 load(1, XDATA, add(CFA_XSP16, literal(-12)))
        CFI (cfiCond87) VB load(1, XDATA, add(CFA_XSP16, literal(-11)))
        CFI (cfiCond87) V0 load(1, XDATA, add(CFA_XSP16, literal(-10)))
        CFI (cfiCond87) V1 load(1, XDATA, add(CFA_XSP16, literal(-9)))
        CFI (cfiCond87) V2 load(1, XDATA, add(CFA_XSP16, literal(-8)))
        CFI (cfiCond87) V3 load(1, XDATA, add(CFA_XSP16, literal(-7)))
        CFI (cfiCond87) R7 load(1, XDATA, add(CFA_XSP16, literal(-6)))
        CFI (cfiCond87) ?RET_LOW load(1, XDATA, add(CFA_XSP16, literal(-5)))
        CFI (cfiCond87) ?RET_HIGH load(1, XDATA, add(CFA_XSP16, literal(-4)))
        CFI (cfiCond87) ?BRET_EXT load(1, XDATA, add(CFA_XSP16, literal(-3)))
        CFI (cfiCond87) DPL0 load(1, XDATA, add(CFA_XSP16, literal(-2)))
        CFI (cfiCond87) DPH0 load(1, XDATA, add(CFA_XSP16, literal(-1)))
        CFI (cfiCond87) CFA_SP SP+0
        CFI (cfiCond87) CFA_XSP16 add(XSP16, 12)
        CFI Block cfiPicker88 Using cfiCommon1
        CFI (cfiPicker88) NoFunction
        CFI (cfiPicker88) Picker
        MOVX    A,@DPTR
        MOV     R6,A
        MOV     DPL,R0
        MOV     DPH,R1
        INC     DPTR
        INC     DPTR
        RET
        CFI EndBlock cfiCond86
        CFI EndBlock cfiCond87
        CFI EndBlock cfiPicker88

        RSEG BANKED_CODE:CODE:NOROOT(0)
?Subroutine5:
        CFI Block cfiCond89 Using cfiCommon0
        CFI NoFunction
        CFI Conditional ??CrossCallReturnLabel_10
        CFI R6 load(1, XDATA, add(CFA_XSP16, literal(-14)))
        CFI VB load(1, XDATA, add(CFA_XSP16, literal(-13)))
        CFI V0 load(1, XDATA, add(CFA_XSP16, literal(-12)))
        CFI V1 load(1, XDATA, add(CFA_XSP16, literal(-11)))
        CFI V2 load(1, XDATA, add(CFA_XSP16, literal(-10)))
        CFI V3 load(1, XDATA, add(CFA_XSP16, literal(-9)))
        CFI V4 load(1, XDATA, add(CFA_XSP16, literal(-8)))
        CFI V5 load(1, XDATA, add(CFA_XSP16, literal(-7)))
        CFI R7 load(1, XDATA, add(CFA_XSP16, literal(-6)))
        CFI ?RET_LOW load(1, XDATA, add(CFA_XSP16, literal(-5)))
        CFI ?RET_HIGH load(1, XDATA, add(CFA_XSP16, literal(-4)))
        CFI ?BRET_EXT load(1, XDATA, add(CFA_XSP16, literal(-3)))
        CFI DPL0 load(1, XDATA, add(CFA_XSP16, literal(-2)))
        CFI DPH0 load(1, XDATA, add(CFA_XSP16, literal(-1)))
        CFI CFA_SP SP+0
        CFI CFA_XSP16 add(XSP16, 14)
        CFI Block cfiCond90 Using cfiCommon0
        CFI (cfiCond90) NoFunction
        CFI (cfiCond90) Conditional ??CrossCallReturnLabel_11
        CFI (cfiCond90) DPL0 Frame(CFA_SP, 4)
        CFI (cfiCond90) DPH0 Frame(CFA_SP, 5)
        CFI (cfiCond90) CFA_SP SP+-5
        CFI Block cfiCond91 Using cfiCommon0
        CFI (cfiCond91) NoFunction
        CFI (cfiCond91) Conditional ??CrossCallReturnLabel_12
        CFI (cfiCond91) R6 load(1, XDATA, add(CFA_XSP16, literal(-12)))
        CFI (cfiCond91) VB load(1, XDATA, add(CFA_XSP16, literal(-11)))
        CFI (cfiCond91) V0 load(1, XDATA, add(CFA_XSP16, literal(-10)))
        CFI (cfiCond91) V1 load(1, XDATA, add(CFA_XSP16, literal(-9)))
        CFI (cfiCond91) V2 load(1, XDATA, add(CFA_XSP16, literal(-8)))
        CFI (cfiCond91) V3 load(1, XDATA, add(CFA_XSP16, literal(-7)))
        CFI (cfiCond91) R7 load(1, XDATA, add(CFA_XSP16, literal(-6)))
        CFI (cfiCond91) ?RET_LOW load(1, XDATA, add(CFA_XSP16, literal(-5)))
        CFI (cfiCond91) ?RET_HIGH load(1, XDATA, add(CFA_XSP16, literal(-4)))
        CFI (cfiCond91) ?BRET_EXT load(1, XDATA, add(CFA_XSP16, literal(-3)))
        CFI (cfiCond91) DPL0 load(1, XDATA, add(CFA_XSP16, literal(-2)))
        CFI (cfiCond91) DPH0 load(1, XDATA, add(CFA_XSP16, literal(-1)))
        CFI (cfiCond91) CFA_SP SP+0
        CFI (cfiCond91) CFA_XSP16 add(XSP16, 12)
        CFI Block cfiCond92 Using cfiCommon0
        CFI (cfiCond92) NoFunction
        CFI (cfiCond92) Conditional ??CrossCallReturnLabel_13
        CFI (cfiCond92) R6 load(1, XDATA, add(CFA_XSP16, literal(-12)))
        CFI (cfiCond92) VB load(1, XDATA, add(CFA_XSP16, literal(-11)))
        CFI (cfiCond92) V0 load(1, XDATA, add(CFA_XSP16, literal(-10)))
        CFI (cfiCond92) V1 load(1, XDATA, add(CFA_XSP16, literal(-9)))
        CFI (cfiCond92) V2 load(1, XDATA, add(CFA_XSP16, literal(-8)))
        CFI (cfiCond92) V3 load(1, XDATA, add(CFA_XSP16, literal(-7)))
        CFI (cfiCond92) R7 load(1, XDATA, add(CFA_XSP16, literal(-6)))
        CFI (cfiCond92) ?RET_LOW load(1, XDATA, add(CFA_XSP16, literal(-5)))
        CFI (cfiCond92) ?RET_HIGH load(1, XDATA, add(CFA_XSP16, literal(-4)))
        CFI (cfiCond92) ?BRET_EXT load(1, XDATA, add(CFA_XSP16, literal(-3)))
        CFI (cfiCond92) DPL0 load(1, XDATA, add(CFA_XSP16, literal(-2)))
        CFI (cfiCond92) DPH0 load(1, XDATA, add(CFA_XSP16, literal(-1)))
        CFI (cfiCond92) CFA_SP SP+0
        CFI (cfiCond92) CFA_XSP16 add(XSP16, 12)
        CFI Block cfiPicker93 Using cfiCommon1
        CFI (cfiPicker93) NoFunction
        CFI (cfiPicker93) Picker
        MOVX    A,@DPTR
        MOV     R0,A
        INC     DPTR
        MOVX    A,@DPTR
        MOV     R1,A
        RET
        CFI EndBlock cfiCond89
        CFI EndBlock cfiCond90
        CFI EndBlock cfiCond91
        CFI EndBlock cfiCond92
        CFI EndBlock cfiPicker93
// 1053 
// 1054 /******************************************************************************
// 1055  * @fn      HalUARTWrite
// 1056  *
// 1057  * @brief   Write a buffer to the UART.
// 1058  *
// 1059  * @param   port    - UART port
// 1060  *          pBuffer - pointer to the buffer that will be written, not freed
// 1061  *          length  - length of
// 1062  *
// 1063  * @return  length of the buffer that was sent
// 1064  *****************************************************************************/

        RSEG BANKED_CODE:CODE:NOROOT(0)
// 1065 uint16 HalUARTWrite( uint8 port, uint8 *buf, uint16 len )
HalUARTWrite:
        CFI Block cfiBlock94 Using cfiCommon0
        CFI Function HalUARTWrite
// 1066 {
        MOV     A,#-0xc
        LCALL   ?BANKED_ENTER_XDATA
        CFI DPH0 load(1, XDATA, add(CFA_XSP16, literal(-1)))
        CFI DPL0 load(1, XDATA, add(CFA_XSP16, literal(-2)))
        CFI ?BRET_EXT load(1, XDATA, add(CFA_XSP16, literal(-3)))
        CFI ?RET_HIGH load(1, XDATA, add(CFA_XSP16, literal(-4)))
        CFI ?RET_LOW load(1, XDATA, add(CFA_XSP16, literal(-5)))
        CFI R7 load(1, XDATA, add(CFA_XSP16, literal(-6)))
        CFI V3 load(1, XDATA, add(CFA_XSP16, literal(-7)))
        CFI V2 load(1, XDATA, add(CFA_XSP16, literal(-8)))
        CFI V1 load(1, XDATA, add(CFA_XSP16, literal(-9)))
        CFI V0 load(1, XDATA, add(CFA_XSP16, literal(-10)))
        CFI VB load(1, XDATA, add(CFA_XSP16, literal(-11)))
        CFI R6 load(1, XDATA, add(CFA_XSP16, literal(-12)))
        CFI CFA_SP SP+0
        CFI CFA_XSP16 add(XSP16, 12)
        ; Saved register size: 12
        ; Auto size: 0
        MOV     ?V0 + 0,R1
        MOV     A,R2
        MOV     R6,A
        MOV     A,R3
        MOV     R7,A
        MOV     A,R4
        MOV     R2,A
        MOV     A,R5
        MOV     R3,A
// 1067   uartCfg_t *cfg = NULL;
        MOV     R0,#0x0
        MOV     R1,#0x0
// 1068   uint8 cnt;
// 1069 
// 1070 #if HAL_UART_0_ENABLE
// 1071   if ( port == HAL_UART_PORT_0 )
        MOV     A,?V0 + 0
        JNZ     ??HalUARTWrite_0
// 1072   {
// 1073     cfg = cfg0;
        MOV     DPTR,#cfg0
        SJMP    ??HalUARTWrite_1
// 1074   }
// 1075 #endif
// 1076 #if HAL_UART_1_ENABLE
// 1077   if ( port == HAL_UART_PORT_1 )
??HalUARTWrite_0:
        MOV     A,#0x1
        XRL     A,?V0 + 0
        JNZ     ??CrossCallReturnLabel_13
// 1078   {
// 1079     cfg = cfg1;
        MOV     DPTR,#cfg1
??HalUARTWrite_1:
        LCALL   ?Subroutine5 & 0xFFFF
// 1080   }
// 1081 #endif
// 1082 
// 1083   HAL_UART_ASSERT( cfg );
// 1084 
// 1085   if ( cfg->txHead == cfg->txTail )
??CrossCallReturnLabel_13:
        MOV     DPL,R0
        MOV     DPH,R1
        INC     DPTR
        INC     DPTR
        INC     DPTR
        INC     DPTR
        INC     DPTR
        INC     DPTR
        INC     DPTR
        INC     DPTR
        INC     DPTR
        INC     DPTR
        MOVX    A,@DPTR
        MOV     R4,A
        LCALL   ?Subroutine14 & 0xFFFF
??CrossCallReturnLabel_41:
        XRL     A,R4
        JNZ     ??HalUARTWrite_2
// 1086   {
// 1087 #if HAL_UART_DMA
// 1088     // When pointers are equal, reset to zero to get max len w/out wrapping.
// 1089     cfg->txHead = cfg->txTail = 0;
// 1090 #endif
// 1091 #if HAL_UART_ISR
// 1092 #if HAL_UART_DMA
// 1093     if ( !(cfg->flag & UART_CFG_DMA) )
// 1094 #endif
// 1095     {
// 1096       cfg->flag &= ~UART_CFG_TXF;
        LCALL   ?Subroutine9 & 0xFFFF
??CrossCallReturnLabel_24:
        CLR     0xE0 /* A   */.0
        MOVX    @DPTR,A
        LCALL   ?Subroutine13 & 0xFFFF
??CrossCallReturnLabel_34:
        MOV     A,#-0x1
        ADD     A,R4
        MOV     ?V0 + 0,A
        MOV     A,#-0x1
        ADDC    A,#0x0
        MOV     ?V0 + 1,A
        SJMP    ??HalUARTWrite_3
// 1097     }
// 1098 #endif
// 1099   }
// 1100 
// 1101   // Accept "all-or-none" on write request.
// 1102   if ( TX_AVAIL( cfg ) < len )
??HalUARTWrite_2:
        MOV     DPL,R0
        MOV     DPH,R1
        INC     DPTR
        INC     DPTR
        INC     DPTR
        INC     DPTR
        INC     DPTR
        INC     DPTR
        INC     DPTR
        INC     DPTR
        INC     DPTR
        INC     DPTR
        MOVX    A,@DPTR
        PUSH    A
        CFI CFA_SP SP+-1
        MOV     A,R0
        ADD     A,#0xb
        LCALL   ??Subroutine13_0 & 0xFFFF
??CrossCallReturnLabel_35:
        POP     A
        CFI CFA_SP SP+0
        CLR     C
        SUBB    A,R4
        JNC     ??HalUARTWrite_4
        LCALL   ?Subroutine3 & 0xFFFF
??CrossCallReturnLabel_6:
        MOV     A,#-0x1
        ADD     A,R4
        DEC     R4
        MOV     A,#-0x1
        SJMP    ??HalUARTWrite_5
??HalUARTWrite_4:
        LCALL   ?Subroutine13 & 0xFFFF
??CrossCallReturnLabel_36:
        LCALL   ?Subroutine3 & 0xFFFF
??CrossCallReturnLabel_7:
        LCALL   ?Subroutine14 & 0xFFFF
??CrossCallReturnLabel_42:
        ADD     A,R4
        MOV     R4,A
        CLR     A
??HalUARTWrite_5:
        ADDC    A,R5
        MOV     R5,A
        MOV     ?V0 + 0,R4
        MOV     ?V0 + 1,R5
??HalUARTWrite_3:
        CLR     C
        MOV     A,?V0 + 0
        SUBB    A,R2
        MOV     A,?V0 + 1
        SUBB    A,R3
        JNC     ??HalUARTWrite_6
// 1103   {
// 1104     return 0;
        MOV     R2,#0x0
        MOV     R3,#0x0
        LJMP    ??HalUARTWrite_7 & 0xFFFF
// 1105   }
// 1106 
// 1107   for ( cnt = len; cnt; cnt-- )
??HalUARTWrite_6:
        MOV     A,R2
        MOV     ?V0 + 3,A
        SJMP    ??HalUARTWrite_8
// 1108   {
// 1109     cfg->txBuf[ cfg->txHead ] = *buf++;
// 1110 
// 1111     if ( cfg->txHead == cfg->txMax )
// 1112     {
// 1113       cfg->txHead = 0;
// 1114     }
// 1115     else
// 1116     {
// 1117       cfg->txHead++;
??HalUARTWrite_9:
        MOV     DPL,R0
        MOV     DPH,R1
        INC     DPTR
        INC     DPTR
        INC     DPTR
        INC     DPTR
        INC     DPTR
        INC     DPTR
        INC     DPTR
        INC     DPTR
        INC     DPTR
        INC     DPTR
        MOVX    A,@DPTR
        INC     A
??HalUARTWrite_10:
        MOVX    @DPTR,A
// 1118     }
        DEC     ?V0 + 3
??HalUARTWrite_8:
        MOV     A,?V0 + 3
        JZ      ??HalUARTWrite_11
        MOV     A,R0
        ADD     A,#0xa
        MOV     R4,A
        MOV     A,R1
        ADDC    A,#0x0
        MOV     R5,A
        MOV     DPL,R6
        MOV     DPH,R7
        MOVX    A,@DPTR
        PUSH    A
        CFI CFA_SP SP+-1
        MOV     DPL,R4
        MOV     DPH,R5
        MOVX    A,@DPTR
        MOV     ?V0 + 0,A
        MOV     DPL,R0
        MOV     DPH,R1
        INC     DPTR
        INC     DPTR
        INC     DPTR
        INC     DPTR
        INC     DPTR
        INC     DPTR
        INC     DPTR
        INC     DPTR
        MOVX    A,@DPTR
        ADD     A,?V0 + 0
        MOV     ?V0 + 2,A
        INC     DPTR
        MOVX    A,@DPTR
        ADDC    A,#0x0
        MOV     DPL,?V0 + 2
        MOV     DPH,A
        POP     A
        CFI CFA_SP SP+0
        LCALL   ?Subroutine15 & 0xFFFF
??CrossCallReturnLabel_46:
        MOV     R6,DPL
        MOV     R7,DPH
        MOV     DPL,R4
        MOV     DPH,R5
        MOVX    A,@DPTR
        MOV     R4,A
        MOV     A,R0
        ADD     A,#0xc
        LCALL   ??Subroutine14_0 & 0xFFFF
??CrossCallReturnLabel_43:
        XRL     A,R4
        JNZ     ??HalUARTWrite_9
        CLR     A
        MOV     DPL,R0
        MOV     DPH,R1
        INC     DPTR
        INC     DPTR
        INC     DPTR
        INC     DPTR
        INC     DPTR
        INC     DPTR
        INC     DPTR
        INC     DPTR
        INC     DPTR
        INC     DPTR
        SJMP    ??HalUARTWrite_10
// 1119   }
// 1120 
// 1121 #if HAL_UART_ISR
// 1122 #if HAL_UART_DMA
// 1123   if ( !(cfg->flag & UART_CFG_DMA) )
// 1124 #endif
// 1125   {
// 1126     if ( !(cfg->flag & UART_CFG_TXF) && len )
??HalUARTWrite_11:
        LCALL   ?Subroutine9 & 0xFFFF
??CrossCallReturnLabel_25:
        MOV     C,0xE0 /* A   */.0
        JC      ??HalUARTWrite_7
        MOV     A,R2
        JNZ     ??HalUARTWrite_12
        MOV     A,R3
??HalUARTWrite_12:
        JZ      ??HalUARTWrite_7
// 1127     {
// 1128       cfg->flag |= UART_CFG_TXF;
        MOVX    A,@DPTR
        SETB    0xE0 /* A   */.0
        MOVX    @DPTR,A
// 1129       if ( !(cfg->flag & UART_CFG_U1F) )
        MOV     C,0xE0 /* A   */.7
        MOV     A,R0
        JC      ??HalUARTWrite_13
// 1130       {
// 1131         U0DBUF = cfg->txBuf[cfg->txTail];
        LCALL   ?Subroutine0 & 0xFFFF
??CrossCallReturnLabel_0:
        MOV     0xc1,A
        SJMP    ??HalUARTWrite_7
// 1132       }
// 1133       else
// 1134       {
// 1135         U1DBUF = cfg->txBuf[cfg->txTail];
??HalUARTWrite_13:
        LCALL   ?Subroutine0 & 0xFFFF
??CrossCallReturnLabel_1:
        MOV     0xf9,A
// 1136       }
// 1137     }
// 1138   }
// 1139 #endif
// 1140 
// 1141   return len;
??HalUARTWrite_7:
        LJMP    ?Subroutine47 & 0xFFFF
        CFI EndBlock cfiBlock94
        REQUIRE U0DBUF
        REQUIRE U1DBUF
// 1142 }

        RSEG BANKED_CODE:CODE:NOROOT(0)
?Subroutine15:
        CFI Block cfiCond95 Using cfiCommon0
        CFI NoFunction
        CFI Conditional ??CrossCallReturnLabel_44
        CFI R6 load(1, XDATA, add(CFA_XSP16, literal(-14)))
        CFI VB load(1, XDATA, add(CFA_XSP16, literal(-13)))
        CFI V0 load(1, XDATA, add(CFA_XSP16, literal(-12)))
        CFI V1 load(1, XDATA, add(CFA_XSP16, literal(-11)))
        CFI V2 load(1, XDATA, add(CFA_XSP16, literal(-10)))
        CFI V3 load(1, XDATA, add(CFA_XSP16, literal(-9)))
        CFI V4 load(1, XDATA, add(CFA_XSP16, literal(-8)))
        CFI V5 load(1, XDATA, add(CFA_XSP16, literal(-7)))
        CFI R7 load(1, XDATA, add(CFA_XSP16, literal(-6)))
        CFI ?RET_LOW load(1, XDATA, add(CFA_XSP16, literal(-5)))
        CFI ?RET_HIGH load(1, XDATA, add(CFA_XSP16, literal(-4)))
        CFI ?BRET_EXT load(1, XDATA, add(CFA_XSP16, literal(-3)))
        CFI DPL0 load(1, XDATA, add(CFA_XSP16, literal(-2)))
        CFI DPH0 load(1, XDATA, add(CFA_XSP16, literal(-1)))
        CFI CFA_SP SP+0
        CFI CFA_XSP16 add(XSP16, 14)
        CFI Block cfiCond96 Using cfiCommon0
        CFI (cfiCond96) NoFunction
        CFI (cfiCond96) Conditional ??CrossCallReturnLabel_45
        CFI (cfiCond96) R6 load(1, XDATA, add(CFA_XSP16, literal(-14)))
        CFI (cfiCond96) VB load(1, XDATA, add(CFA_XSP16, literal(-13)))
        CFI (cfiCond96) V0 load(1, XDATA, add(CFA_XSP16, literal(-12)))
        CFI (cfiCond96) V1 load(1, XDATA, add(CFA_XSP16, literal(-11)))
        CFI (cfiCond96) V2 load(1, XDATA, add(CFA_XSP16, literal(-10)))
        CFI (cfiCond96) V3 load(1, XDATA, add(CFA_XSP16, literal(-9)))
        CFI (cfiCond96) V4 load(1, XDATA, add(CFA_XSP16, literal(-8)))
        CFI (cfiCond96) V5 load(1, XDATA, add(CFA_XSP16, literal(-7)))
        CFI (cfiCond96) R7 load(1, XDATA, add(CFA_XSP16, literal(-6)))
        CFI (cfiCond96) ?RET_LOW load(1, XDATA, add(CFA_XSP16, literal(-5)))
        CFI (cfiCond96) ?RET_HIGH load(1, XDATA, add(CFA_XSP16, literal(-4)))
        CFI (cfiCond96) ?BRET_EXT load(1, XDATA, add(CFA_XSP16, literal(-3)))
        CFI (cfiCond96) DPL0 load(1, XDATA, add(CFA_XSP16, literal(-2)))
        CFI (cfiCond96) DPH0 load(1, XDATA, add(CFA_XSP16, literal(-1)))
        CFI (cfiCond96) CFA_SP SP+0
        CFI (cfiCond96) CFA_XSP16 add(XSP16, 14)
        CFI Block cfiCond97 Using cfiCommon0
        CFI (cfiCond97) NoFunction
        CFI (cfiCond97) Conditional ??CrossCallReturnLabel_46
        CFI (cfiCond97) R6 load(1, XDATA, add(CFA_XSP16, literal(-12)))
        CFI (cfiCond97) VB load(1, XDATA, add(CFA_XSP16, literal(-11)))
        CFI (cfiCond97) V0 load(1, XDATA, add(CFA_XSP16, literal(-10)))
        CFI (cfiCond97) V1 load(1, XDATA, add(CFA_XSP16, literal(-9)))
        CFI (cfiCond97) V2 load(1, XDATA, add(CFA_XSP16, literal(-8)))
        CFI (cfiCond97) V3 load(1, XDATA, add(CFA_XSP16, literal(-7)))
        CFI (cfiCond97) R7 load(1, XDATA, add(CFA_XSP16, literal(-6)))
        CFI (cfiCond97) ?RET_LOW load(1, XDATA, add(CFA_XSP16, literal(-5)))
        CFI (cfiCond97) ?RET_HIGH load(1, XDATA, add(CFA_XSP16, literal(-4)))
        CFI (cfiCond97) ?BRET_EXT load(1, XDATA, add(CFA_XSP16, literal(-3)))
        CFI (cfiCond97) DPL0 load(1, XDATA, add(CFA_XSP16, literal(-2)))
        CFI (cfiCond97) DPH0 load(1, XDATA, add(CFA_XSP16, literal(-1)))
        CFI (cfiCond97) CFA_SP SP+0
        CFI (cfiCond97) CFA_XSP16 add(XSP16, 12)
        CFI Block cfiPicker98 Using cfiCommon1
        CFI (cfiPicker98) NoFunction
        CFI (cfiPicker98) Picker
        LCALL   ?Subroutine20 & 0xFFFF
??CrossCallReturnLabel_119:
        INC     DPTR
        RET
        CFI EndBlock cfiCond95
        CFI EndBlock cfiCond96
        CFI EndBlock cfiCond97
        CFI EndBlock cfiPicker98

        RSEG BANKED_CODE:CODE:NOROOT(0)
?Subroutine13:
        CFI Block cfiCond99 Using cfiCommon0
        CFI NoFunction
        CFI Conditional ??CrossCallReturnLabel_34
        CFI R6 load(1, XDATA, add(CFA_XSP16, literal(-12)))
        CFI VB load(1, XDATA, add(CFA_XSP16, literal(-11)))
        CFI V0 load(1, XDATA, add(CFA_XSP16, literal(-10)))
        CFI V1 load(1, XDATA, add(CFA_XSP16, literal(-9)))
        CFI V2 load(1, XDATA, add(CFA_XSP16, literal(-8)))
        CFI V3 load(1, XDATA, add(CFA_XSP16, literal(-7)))
        CFI R7 load(1, XDATA, add(CFA_XSP16, literal(-6)))
        CFI ?RET_LOW load(1, XDATA, add(CFA_XSP16, literal(-5)))
        CFI ?RET_HIGH load(1, XDATA, add(CFA_XSP16, literal(-4)))
        CFI ?BRET_EXT load(1, XDATA, add(CFA_XSP16, literal(-3)))
        CFI DPL0 load(1, XDATA, add(CFA_XSP16, literal(-2)))
        CFI DPH0 load(1, XDATA, add(CFA_XSP16, literal(-1)))
        CFI CFA_SP SP+0
        CFI CFA_XSP16 add(XSP16, 12)
        CFI Block cfiCond100 Using cfiCommon0
        CFI (cfiCond100) NoFunction
        CFI (cfiCond100) Conditional ??CrossCallReturnLabel_36
        CFI (cfiCond100) R6 load(1, XDATA, add(CFA_XSP16, literal(-12)))
        CFI (cfiCond100) VB load(1, XDATA, add(CFA_XSP16, literal(-11)))
        CFI (cfiCond100) V0 load(1, XDATA, add(CFA_XSP16, literal(-10)))
        CFI (cfiCond100) V1 load(1, XDATA, add(CFA_XSP16, literal(-9)))
        CFI (cfiCond100) V2 load(1, XDATA, add(CFA_XSP16, literal(-8)))
        CFI (cfiCond100) V3 load(1, XDATA, add(CFA_XSP16, literal(-7)))
        CFI (cfiCond100) R7 load(1, XDATA, add(CFA_XSP16, literal(-6)))
        CFI (cfiCond100) ?RET_LOW load(1, XDATA, add(CFA_XSP16, literal(-5)))
        CFI (cfiCond100) ?RET_HIGH load(1, XDATA, add(CFA_XSP16, literal(-4)))
        CFI (cfiCond100) ?BRET_EXT load(1, XDATA, add(CFA_XSP16, literal(-3)))
        CFI (cfiCond100) DPL0 load(1, XDATA, add(CFA_XSP16, literal(-2)))
        CFI (cfiCond100) DPH0 load(1, XDATA, add(CFA_XSP16, literal(-1)))
        CFI (cfiCond100) CFA_SP SP+0
        CFI (cfiCond100) CFA_XSP16 add(XSP16, 12)
        CFI Block cfiPicker101 Using cfiCommon1
        CFI (cfiPicker101) NoFunction
        CFI (cfiPicker101) Picker
        MOV     A,R0
        ADD     A,#0xc
        CFI Block cfiCond102 Using cfiCommon0
        CFI (cfiCond102) NoFunction
        CFI (cfiCond102) Conditional ??CrossCallReturnLabel_35
        CFI (cfiCond102) R6 load(1, XDATA, add(CFA_XSP16, literal(-12)))
        CFI (cfiCond102) VB load(1, XDATA, add(CFA_XSP16, literal(-11)))
        CFI (cfiCond102) V0 load(1, XDATA, add(CFA_XSP16, literal(-10)))
        CFI (cfiCond102) V1 load(1, XDATA, add(CFA_XSP16, literal(-9)))
        CFI (cfiCond102) V2 load(1, XDATA, add(CFA_XSP16, literal(-8)))
        CFI (cfiCond102) V3 load(1, XDATA, add(CFA_XSP16, literal(-7)))
        CFI (cfiCond102) R7 load(1, XDATA, add(CFA_XSP16, literal(-6)))
        CFI (cfiCond102) ?RET_LOW load(1, XDATA, add(CFA_XSP16, literal(-5)))
        CFI (cfiCond102) ?RET_HIGH load(1, XDATA, add(CFA_XSP16, literal(-4)))
        CFI (cfiCond102) ?BRET_EXT load(1, XDATA, add(CFA_XSP16, literal(-3)))
        CFI (cfiCond102) DPL0 load(1, XDATA, add(CFA_XSP16, literal(-2)))
        CFI (cfiCond102) DPH0 load(1, XDATA, add(CFA_XSP16, literal(-1)))
        CFI (cfiCond102) CFA_SP SP+-1
        CFI (cfiCond102) CFA_XSP16 add(XSP16, 12)
??Subroutine13_0:
        LCALL   ?Subroutine19 & 0xFFFF
??CrossCallReturnLabel_55:
        MOV     R4,A
        RET
        CFI EndBlock cfiCond99
        CFI EndBlock cfiCond100
        CFI EndBlock cfiPicker101
        CFI EndBlock cfiCond102

        RSEG BANKED_CODE:CODE:NOROOT(0)
?Subroutine9:
        CFI Block cfiCond103 Using cfiCommon0
        CFI NoFunction
        CFI Conditional ??CrossCallReturnLabel_22
        CFI R6 load(1, XDATA, add(CFA_XSP16, literal(-12)))
        CFI VB load(1, XDATA, add(CFA_XSP16, literal(-11)))
        CFI V0 load(1, XDATA, add(CFA_XSP16, literal(-10)))
        CFI V1 load(1, XDATA, add(CFA_XSP16, literal(-9)))
        CFI V2 load(1, XDATA, add(CFA_XSP16, literal(-8)))
        CFI V3 load(1, XDATA, add(CFA_XSP16, literal(-7)))
        CFI R7 load(1, XDATA, add(CFA_XSP16, literal(-6)))
        CFI ?RET_LOW load(1, XDATA, add(CFA_XSP16, literal(-5)))
        CFI ?RET_HIGH load(1, XDATA, add(CFA_XSP16, literal(-4)))
        CFI ?BRET_EXT load(1, XDATA, add(CFA_XSP16, literal(-3)))
        CFI DPL0 load(1, XDATA, add(CFA_XSP16, literal(-2)))
        CFI DPH0 load(1, XDATA, add(CFA_XSP16, literal(-1)))
        CFI CFA_SP SP+0
        CFI CFA_XSP16 add(XSP16, 12)
        CFI Block cfiCond104 Using cfiCommon0
        CFI (cfiCond104) NoFunction
        CFI (cfiCond104) Conditional ??CrossCallReturnLabel_23
        CFI (cfiCond104) R6 load(1, XDATA, add(CFA_XSP16, literal(-12)))
        CFI (cfiCond104) VB load(1, XDATA, add(CFA_XSP16, literal(-11)))
        CFI (cfiCond104) V0 load(1, XDATA, add(CFA_XSP16, literal(-10)))
        CFI (cfiCond104) V1 load(1, XDATA, add(CFA_XSP16, literal(-9)))
        CFI (cfiCond104) V2 load(1, XDATA, add(CFA_XSP16, literal(-8)))
        CFI (cfiCond104) V3 load(1, XDATA, add(CFA_XSP16, literal(-7)))
        CFI (cfiCond104) R7 load(1, XDATA, add(CFA_XSP16, literal(-6)))
        CFI (cfiCond104) ?RET_LOW load(1, XDATA, add(CFA_XSP16, literal(-5)))
        CFI (cfiCond104) ?RET_HIGH load(1, XDATA, add(CFA_XSP16, literal(-4)))
        CFI (cfiCond104) ?BRET_EXT load(1, XDATA, add(CFA_XSP16, literal(-3)))
        CFI (cfiCond104) DPL0 load(1, XDATA, add(CFA_XSP16, literal(-2)))
        CFI (cfiCond104) DPH0 load(1, XDATA, add(CFA_XSP16, literal(-1)))
        CFI (cfiCond104) CFA_SP SP+0
        CFI (cfiCond104) CFA_XSP16 add(XSP16, 12)
        CFI Block cfiCond105 Using cfiCommon0
        CFI (cfiCond105) NoFunction
        CFI (cfiCond105) Conditional ??CrossCallReturnLabel_24
        CFI (cfiCond105) R6 load(1, XDATA, add(CFA_XSP16, literal(-12)))
        CFI (cfiCond105) VB load(1, XDATA, add(CFA_XSP16, literal(-11)))
        CFI (cfiCond105) V0 load(1, XDATA, add(CFA_XSP16, literal(-10)))
        CFI (cfiCond105) V1 load(1, XDATA, add(CFA_XSP16, literal(-9)))
        CFI (cfiCond105) V2 load(1, XDATA, add(CFA_XSP16, literal(-8)))
        CFI (cfiCond105) V3 load(1, XDATA, add(CFA_XSP16, literal(-7)))
        CFI (cfiCond105) R7 load(1, XDATA, add(CFA_XSP16, literal(-6)))
        CFI (cfiCond105) ?RET_LOW load(1, XDATA, add(CFA_XSP16, literal(-5)))
        CFI (cfiCond105) ?RET_HIGH load(1, XDATA, add(CFA_XSP16, literal(-4)))
        CFI (cfiCond105) ?BRET_EXT load(1, XDATA, add(CFA_XSP16, literal(-3)))
        CFI (cfiCond105) DPL0 load(1, XDATA, add(CFA_XSP16, literal(-2)))
        CFI (cfiCond105) DPH0 load(1, XDATA, add(CFA_XSP16, literal(-1)))
        CFI (cfiCond105) CFA_SP SP+0
        CFI (cfiCond105) CFA_XSP16 add(XSP16, 12)
        CFI Block cfiCond106 Using cfiCommon0
        CFI (cfiCond106) NoFunction
        CFI (cfiCond106) Conditional ??CrossCallReturnLabel_25
        CFI (cfiCond106) R6 load(1, XDATA, add(CFA_XSP16, literal(-12)))
        CFI (cfiCond106) VB load(1, XDATA, add(CFA_XSP16, literal(-11)))
        CFI (cfiCond106) V0 load(1, XDATA, add(CFA_XSP16, literal(-10)))
        CFI (cfiCond106) V1 load(1, XDATA, add(CFA_XSP16, literal(-9)))
        CFI (cfiCond106) V2 load(1, XDATA, add(CFA_XSP16, literal(-8)))
        CFI (cfiCond106) V3 load(1, XDATA, add(CFA_XSP16, literal(-7)))
        CFI (cfiCond106) R7 load(1, XDATA, add(CFA_XSP16, literal(-6)))
        CFI (cfiCond106) ?RET_LOW load(1, XDATA, add(CFA_XSP16, literal(-5)))
        CFI (cfiCond106) ?RET_HIGH load(1, XDATA, add(CFA_XSP16, literal(-4)))
        CFI (cfiCond106) ?BRET_EXT load(1, XDATA, add(CFA_XSP16, literal(-3)))
        CFI (cfiCond106) DPL0 load(1, XDATA, add(CFA_XSP16, literal(-2)))
        CFI (cfiCond106) DPH0 load(1, XDATA, add(CFA_XSP16, literal(-1)))
        CFI (cfiCond106) CFA_SP SP+0
        CFI (cfiCond106) CFA_XSP16 add(XSP16, 12)
        CFI Block cfiPicker107 Using cfiCommon1
        CFI (cfiPicker107) NoFunction
        CFI (cfiPicker107) Picker
        MOV     A,R0
        ADD     A,#0xf
        LCALL   ?Subroutine19 & 0xFFFF
??CrossCallReturnLabel_52:
        RET
        CFI EndBlock cfiCond103
        CFI EndBlock cfiCond104
        CFI EndBlock cfiCond105
        CFI EndBlock cfiCond106
        CFI EndBlock cfiPicker107

        RSEG BANKED_CODE:CODE:NOROOT(0)
?Subroutine19:
        CFI Block cfiCond108 Using cfiCommon0
        CFI NoFunction
        CFI Conditional ??CrossCallReturnLabel_55, ??CrossCallReturnLabel_34
        CFI R6 load(1, XDATA, add(CFA_XSP16, literal(-12)))
        CFI VB load(1, XDATA, add(CFA_XSP16, literal(-11)))
        CFI V0 load(1, XDATA, add(CFA_XSP16, literal(-10)))
        CFI V1 load(1, XDATA, add(CFA_XSP16, literal(-9)))
        CFI V2 load(1, XDATA, add(CFA_XSP16, literal(-8)))
        CFI V3 load(1, XDATA, add(CFA_XSP16, literal(-7)))
        CFI R7 load(1, XDATA, add(CFA_XSP16, literal(-6)))
        CFI ?RET_LOW load(1, XDATA, add(CFA_XSP16, literal(-5)))
        CFI ?RET_HIGH load(1, XDATA, add(CFA_XSP16, literal(-4)))
        CFI ?BRET_EXT load(1, XDATA, add(CFA_XSP16, literal(-3)))
        CFI DPL0 load(1, XDATA, add(CFA_XSP16, literal(-2)))
        CFI DPH0 load(1, XDATA, add(CFA_XSP16, literal(-1)))
        CFI CFA_SP SP+0
        CFI CFA_XSP16 add(XSP16, 12)
        CFI Block cfiCond109 Using cfiCommon0
        CFI (cfiCond109) NoFunction
        CFI (cfiCond109) Conditional ??CrossCallReturnLabel_55, ??CrossCallReturnLabel_36
        CFI (cfiCond109) R6 load(1, XDATA, add(CFA_XSP16, literal(-12)))
        CFI (cfiCond109) VB load(1, XDATA, add(CFA_XSP16, literal(-11)))
        CFI (cfiCond109) V0 load(1, XDATA, add(CFA_XSP16, literal(-10)))
        CFI (cfiCond109) V1 load(1, XDATA, add(CFA_XSP16, literal(-9)))
        CFI (cfiCond109) V2 load(1, XDATA, add(CFA_XSP16, literal(-8)))
        CFI (cfiCond109) V3 load(1, XDATA, add(CFA_XSP16, literal(-7)))
        CFI (cfiCond109) R7 load(1, XDATA, add(CFA_XSP16, literal(-6)))
        CFI (cfiCond109) ?RET_LOW load(1, XDATA, add(CFA_XSP16, literal(-5)))
        CFI (cfiCond109) ?RET_HIGH load(1, XDATA, add(CFA_XSP16, literal(-4)))
        CFI (cfiCond109) ?BRET_EXT load(1, XDATA, add(CFA_XSP16, literal(-3)))
        CFI (cfiCond109) DPL0 load(1, XDATA, add(CFA_XSP16, literal(-2)))
        CFI (cfiCond109) DPH0 load(1, XDATA, add(CFA_XSP16, literal(-1)))
        CFI (cfiCond109) CFA_SP SP+0
        CFI (cfiCond109) CFA_XSP16 add(XSP16, 12)
        CFI Block cfiCond110 Using cfiCommon0
        CFI (cfiCond110) NoFunction
        CFI (cfiCond110) Conditional ??CrossCallReturnLabel_55, ??CrossCallReturnLabel_35
        CFI (cfiCond110) R6 load(1, XDATA, add(CFA_XSP16, literal(-12)))
        CFI (cfiCond110) VB load(1, XDATA, add(CFA_XSP16, literal(-11)))
        CFI (cfiCond110) V0 load(1, XDATA, add(CFA_XSP16, literal(-10)))
        CFI (cfiCond110) V1 load(1, XDATA, add(CFA_XSP16, literal(-9)))
        CFI (cfiCond110) V2 load(1, XDATA, add(CFA_XSP16, literal(-8)))
        CFI (cfiCond110) V3 load(1, XDATA, add(CFA_XSP16, literal(-7)))
        CFI (cfiCond110) R7 load(1, XDATA, add(CFA_XSP16, literal(-6)))
        CFI (cfiCond110) ?RET_LOW load(1, XDATA, add(CFA_XSP16, literal(-5)))
        CFI (cfiCond110) ?RET_HIGH load(1, XDATA, add(CFA_XSP16, literal(-4)))
        CFI (cfiCond110) ?BRET_EXT load(1, XDATA, add(CFA_XSP16, literal(-3)))
        CFI (cfiCond110) DPL0 load(1, XDATA, add(CFA_XSP16, literal(-2)))
        CFI (cfiCond110) DPH0 load(1, XDATA, add(CFA_XSP16, literal(-1)))
        CFI (cfiCond110) CFA_SP SP+-1
        CFI (cfiCond110) CFA_XSP16 add(XSP16, 12)
        CFI Block cfiCond111 Using cfiCommon0
        CFI (cfiCond111) NoFunction
        CFI (cfiCond111) Conditional ??CrossCallReturnLabel_52, ??CrossCallReturnLabel_22
        CFI (cfiCond111) R6 load(1, XDATA, add(CFA_XSP16, literal(-12)))
        CFI (cfiCond111) VB load(1, XDATA, add(CFA_XSP16, literal(-11)))
        CFI (cfiCond111) V0 load(1, XDATA, add(CFA_XSP16, literal(-10)))
        CFI (cfiCond111) V1 load(1, XDATA, add(CFA_XSP16, literal(-9)))
        CFI (cfiCond111) V2 load(1, XDATA, add(CFA_XSP16, literal(-8)))
        CFI (cfiCond111) V3 load(1, XDATA, add(CFA_XSP16, literal(-7)))
        CFI (cfiCond111) R7 load(1, XDATA, add(CFA_XSP16, literal(-6)))
        CFI (cfiCond111) ?RET_LOW load(1, XDATA, add(CFA_XSP16, literal(-5)))
        CFI (cfiCond111) ?RET_HIGH load(1, XDATA, add(CFA_XSP16, literal(-4)))
        CFI (cfiCond111) ?BRET_EXT load(1, XDATA, add(CFA_XSP16, literal(-3)))
        CFI (cfiCond111) DPL0 load(1, XDATA, add(CFA_XSP16, literal(-2)))
        CFI (cfiCond111) DPH0 load(1, XDATA, add(CFA_XSP16, literal(-1)))
        CFI (cfiCond111) CFA_SP SP+0
        CFI (cfiCond111) CFA_XSP16 add(XSP16, 12)
        CFI Block cfiCond112 Using cfiCommon0
        CFI (cfiCond112) NoFunction
        CFI (cfiCond112) Conditional ??CrossCallReturnLabel_52, ??CrossCallReturnLabel_23
        CFI (cfiCond112) R6 load(1, XDATA, add(CFA_XSP16, literal(-12)))
        CFI (cfiCond112) VB load(1, XDATA, add(CFA_XSP16, literal(-11)))
        CFI (cfiCond112) V0 load(1, XDATA, add(CFA_XSP16, literal(-10)))
        CFI (cfiCond112) V1 load(1, XDATA, add(CFA_XSP16, literal(-9)))
        CFI (cfiCond112) V2 load(1, XDATA, add(CFA_XSP16, literal(-8)))
        CFI (cfiCond112) V3 load(1, XDATA, add(CFA_XSP16, literal(-7)))
        CFI (cfiCond112) R7 load(1, XDATA, add(CFA_XSP16, literal(-6)))
        CFI (cfiCond112) ?RET_LOW load(1, XDATA, add(CFA_XSP16, literal(-5)))
        CFI (cfiCond112) ?RET_HIGH load(1, XDATA, add(CFA_XSP16, literal(-4)))
        CFI (cfiCond112) ?BRET_EXT load(1, XDATA, add(CFA_XSP16, literal(-3)))
        CFI (cfiCond112) DPL0 load(1, XDATA, add(CFA_XSP16, literal(-2)))
        CFI (cfiCond112) DPH0 load(1, XDATA, add(CFA_XSP16, literal(-1)))
        CFI (cfiCond112) CFA_SP SP+0
        CFI (cfiCond112) CFA_XSP16 add(XSP16, 12)
        CFI Block cfiCond113 Using cfiCommon0
        CFI (cfiCond113) NoFunction
        CFI (cfiCond113) Conditional ??CrossCallReturnLabel_52, ??CrossCallReturnLabel_24
        CFI (cfiCond113) R6 load(1, XDATA, add(CFA_XSP16, literal(-12)))
        CFI (cfiCond113) VB load(1, XDATA, add(CFA_XSP16, literal(-11)))
        CFI (cfiCond113) V0 load(1, XDATA, add(CFA_XSP16, literal(-10)))
        CFI (cfiCond113) V1 load(1, XDATA, add(CFA_XSP16, literal(-9)))
        CFI (cfiCond113) V2 load(1, XDATA, add(CFA_XSP16, literal(-8)))
        CFI (cfiCond113) V3 load(1, XDATA, add(CFA_XSP16, literal(-7)))
        CFI (cfiCond113) R7 load(1, XDATA, add(CFA_XSP16, literal(-6)))
        CFI (cfiCond113) ?RET_LOW load(1, XDATA, add(CFA_XSP16, literal(-5)))
        CFI (cfiCond113) ?RET_HIGH load(1, XDATA, add(CFA_XSP16, literal(-4)))
        CFI (cfiCond113) ?BRET_EXT load(1, XDATA, add(CFA_XSP16, literal(-3)))
        CFI (cfiCond113) DPL0 load(1, XDATA, add(CFA_XSP16, literal(-2)))
        CFI (cfiCond113) DPH0 load(1, XDATA, add(CFA_XSP16, literal(-1)))
        CFI (cfiCond113) CFA_SP SP+0
        CFI (cfiCond113) CFA_XSP16 add(XSP16, 12)
        CFI Block cfiCond114 Using cfiCommon0
        CFI (cfiCond114) NoFunction
        CFI (cfiCond114) Conditional ??CrossCallReturnLabel_52, ??CrossCallReturnLabel_25
        CFI (cfiCond114) R6 load(1, XDATA, add(CFA_XSP16, literal(-12)))
        CFI (cfiCond114) VB load(1, XDATA, add(CFA_XSP16, literal(-11)))
        CFI (cfiCond114) V0 load(1, XDATA, add(CFA_XSP16, literal(-10)))
        CFI (cfiCond114) V1 load(1, XDATA, add(CFA_XSP16, literal(-9)))
        CFI (cfiCond114) V2 load(1, XDATA, add(CFA_XSP16, literal(-8)))
        CFI (cfiCond114) V3 load(1, XDATA, add(CFA_XSP16, literal(-7)))
        CFI (cfiCond114) R7 load(1, XDATA, add(CFA_XSP16, literal(-6)))
        CFI (cfiCond114) ?RET_LOW load(1, XDATA, add(CFA_XSP16, literal(-5)))
        CFI (cfiCond114) ?RET_HIGH load(1, XDATA, add(CFA_XSP16, literal(-4)))
        CFI (cfiCond114) ?BRET_EXT load(1, XDATA, add(CFA_XSP16, literal(-3)))
        CFI (cfiCond114) DPL0 load(1, XDATA, add(CFA_XSP16, literal(-2)))
        CFI (cfiCond114) DPH0 load(1, XDATA, add(CFA_XSP16, literal(-1)))
        CFI (cfiCond114) CFA_SP SP+0
        CFI (cfiCond114) CFA_XSP16 add(XSP16, 12)
        CFI Block cfiPicker115 Using cfiCommon1
        CFI (cfiPicker115) NoFunction
        CFI (cfiPicker115) Picker
        MOV     DPL,A
        MOV     A,R1
        CFI Block cfiCond116 Using cfiCommon0
        CFI (cfiCond116) NoFunction
        CFI (cfiCond116) Conditional ??CrossCallReturnLabel_53, ??CrossCallReturnLabel_26
        CFI (cfiCond116) R6 load(1, XDATA, add(CFA_XSP16, literal(-9)))
        CFI (cfiCond116) VB load(1, XDATA, add(CFA_XSP16, literal(-8)))
        CFI (cfiCond116) V0 load(1, XDATA, add(CFA_XSP16, literal(-7)))
        CFI (cfiCond116) R7 load(1, XDATA, add(CFA_XSP16, literal(-6)))
        CFI (cfiCond116) ?RET_LOW load(1, XDATA, add(CFA_XSP16, literal(-5)))
        CFI (cfiCond116) ?RET_HIGH load(1, XDATA, add(CFA_XSP16, literal(-4)))
        CFI (cfiCond116) ?BRET_EXT load(1, XDATA, add(CFA_XSP16, literal(-3)))
        CFI (cfiCond116) DPL0 load(1, XDATA, add(CFA_XSP16, literal(-2)))
        CFI (cfiCond116) DPH0 load(1, XDATA, add(CFA_XSP16, literal(-1)))
        CFI (cfiCond116) CFA_SP SP+0
        CFI (cfiCond116) CFA_XSP16 add(XSP16, 9)
        CFI Block cfiCond117 Using cfiCommon0
        CFI (cfiCond117) NoFunction
        CFI (cfiCond117) Conditional ??CrossCallReturnLabel_53, ??CrossCallReturnLabel_27
        CFI (cfiCond117) R6 load(1, XDATA, add(CFA_XSP16, literal(-9)))
        CFI (cfiCond117) VB load(1, XDATA, add(CFA_XSP16, literal(-8)))
        CFI (cfiCond117) V0 load(1, XDATA, add(CFA_XSP16, literal(-7)))
        CFI (cfiCond117) R7 load(1, XDATA, add(CFA_XSP16, literal(-6)))
        CFI (cfiCond117) ?RET_LOW load(1, XDATA, add(CFA_XSP16, literal(-5)))
        CFI (cfiCond117) ?RET_HIGH load(1, XDATA, add(CFA_XSP16, literal(-4)))
        CFI (cfiCond117) ?BRET_EXT load(1, XDATA, add(CFA_XSP16, literal(-3)))
        CFI (cfiCond117) DPL0 load(1, XDATA, add(CFA_XSP16, literal(-2)))
        CFI (cfiCond117) DPH0 load(1, XDATA, add(CFA_XSP16, literal(-1)))
        CFI (cfiCond117) CFA_SP SP+0
        CFI (cfiCond117) CFA_XSP16 add(XSP16, 9)
        CFI Block cfiCond118 Using cfiCommon0
        CFI (cfiCond118) NoFunction
        CFI (cfiCond118) Conditional ??CrossCallReturnLabel_53, ??CrossCallReturnLabel_28
        CFI (cfiCond118) R6 load(1, XDATA, add(CFA_XSP16, literal(-9)))
        CFI (cfiCond118) VB load(1, XDATA, add(CFA_XSP16, literal(-8)))
        CFI (cfiCond118) V0 load(1, XDATA, add(CFA_XSP16, literal(-7)))
        CFI (cfiCond118) R7 load(1, XDATA, add(CFA_XSP16, literal(-6)))
        CFI (cfiCond118) ?RET_LOW load(1, XDATA, add(CFA_XSP16, literal(-5)))
        CFI (cfiCond118) ?RET_HIGH load(1, XDATA, add(CFA_XSP16, literal(-4)))
        CFI (cfiCond118) ?BRET_EXT load(1, XDATA, add(CFA_XSP16, literal(-3)))
        CFI (cfiCond118) DPL0 load(1, XDATA, add(CFA_XSP16, literal(-2)))
        CFI (cfiCond118) DPH0 load(1, XDATA, add(CFA_XSP16, literal(-1)))
        CFI (cfiCond118) CFA_SP SP+0
        CFI (cfiCond118) CFA_XSP16 add(XSP16, 9)
        CFI Block cfiCond119 Using cfiCommon0
        CFI (cfiCond119) NoFunction
        CFI (cfiCond119) Conditional ??CrossCallReturnLabel_54, ??CrossCallReturnLabel_29
        CFI (cfiCond119) R6 load(1, XDATA, add(CFA_XSP16, literal(-14)))
        CFI (cfiCond119) VB load(1, XDATA, add(CFA_XSP16, literal(-13)))
        CFI (cfiCond119) V0 load(1, XDATA, add(CFA_XSP16, literal(-12)))
        CFI (cfiCond119) V1 load(1, XDATA, add(CFA_XSP16, literal(-11)))
        CFI (cfiCond119) V2 load(1, XDATA, add(CFA_XSP16, literal(-10)))
        CFI (cfiCond119) V3 load(1, XDATA, add(CFA_XSP16, literal(-9)))
        CFI (cfiCond119) V4 load(1, XDATA, add(CFA_XSP16, literal(-8)))
        CFI (cfiCond119) V5 load(1, XDATA, add(CFA_XSP16, literal(-7)))
        CFI (cfiCond119) R7 load(1, XDATA, add(CFA_XSP16, literal(-6)))
        CFI (cfiCond119) ?RET_LOW load(1, XDATA, add(CFA_XSP16, literal(-5)))
        CFI (cfiCond119) ?RET_HIGH load(1, XDATA, add(CFA_XSP16, literal(-4)))
        CFI (cfiCond119) ?BRET_EXT load(1, XDATA, add(CFA_XSP16, literal(-3)))
        CFI (cfiCond119) DPL0 load(1, XDATA, add(CFA_XSP16, literal(-2)))
        CFI (cfiCond119) DPH0 load(1, XDATA, add(CFA_XSP16, literal(-1)))
        CFI (cfiCond119) CFA_SP SP+0
        CFI (cfiCond119) CFA_XSP16 add(XSP16, 14)
        CFI Block cfiCond120 Using cfiCommon0
        CFI (cfiCond120) NoFunction
        CFI (cfiCond120) Conditional ??CrossCallReturnLabel_54, ??CrossCallReturnLabel_30
        CFI (cfiCond120) R6 load(1, XDATA, add(CFA_XSP16, literal(-14)))
        CFI (cfiCond120) VB load(1, XDATA, add(CFA_XSP16, literal(-13)))
        CFI (cfiCond120) V0 load(1, XDATA, add(CFA_XSP16, literal(-12)))
        CFI (cfiCond120) V1 load(1, XDATA, add(CFA_XSP16, literal(-11)))
        CFI (cfiCond120) V2 load(1, XDATA, add(CFA_XSP16, literal(-10)))
        CFI (cfiCond120) V3 load(1, XDATA, add(CFA_XSP16, literal(-9)))
        CFI (cfiCond120) V4 load(1, XDATA, add(CFA_XSP16, literal(-8)))
        CFI (cfiCond120) V5 load(1, XDATA, add(CFA_XSP16, literal(-7)))
        CFI (cfiCond120) R7 load(1, XDATA, add(CFA_XSP16, literal(-6)))
        CFI (cfiCond120) ?RET_LOW load(1, XDATA, add(CFA_XSP16, literal(-5)))
        CFI (cfiCond120) ?RET_HIGH load(1, XDATA, add(CFA_XSP16, literal(-4)))
        CFI (cfiCond120) ?BRET_EXT load(1, XDATA, add(CFA_XSP16, literal(-3)))
        CFI (cfiCond120) DPL0 load(1, XDATA, add(CFA_XSP16, literal(-2)))
        CFI (cfiCond120) DPH0 load(1, XDATA, add(CFA_XSP16, literal(-1)))
        CFI (cfiCond120) CFA_SP SP+0
        CFI (cfiCond120) CFA_XSP16 add(XSP16, 14)
        CFI Block cfiCond121 Using cfiCommon0
        CFI (cfiCond121) NoFunction
        CFI (cfiCond121) Conditional ??CrossCallReturnLabel_56, ??CrossCallReturnLabel_41
        CFI (cfiCond121) R6 load(1, XDATA, add(CFA_XSP16, literal(-12)))
        CFI (cfiCond121) VB load(1, XDATA, add(CFA_XSP16, literal(-11)))
        CFI (cfiCond121) V0 load(1, XDATA, add(CFA_XSP16, literal(-10)))
        CFI (cfiCond121) V1 load(1, XDATA, add(CFA_XSP16, literal(-9)))
        CFI (cfiCond121) V2 load(1, XDATA, add(CFA_XSP16, literal(-8)))
        CFI (cfiCond121) V3 load(1, XDATA, add(CFA_XSP16, literal(-7)))
        CFI (cfiCond121) R7 load(1, XDATA, add(CFA_XSP16, literal(-6)))
        CFI (cfiCond121) ?RET_LOW load(1, XDATA, add(CFA_XSP16, literal(-5)))
        CFI (cfiCond121) ?RET_HIGH load(1, XDATA, add(CFA_XSP16, literal(-4)))
        CFI (cfiCond121) ?BRET_EXT load(1, XDATA, add(CFA_XSP16, literal(-3)))
        CFI (cfiCond121) DPL0 load(1, XDATA, add(CFA_XSP16, literal(-2)))
        CFI (cfiCond121) DPH0 load(1, XDATA, add(CFA_XSP16, literal(-1)))
        CFI (cfiCond121) CFA_SP SP+0
        CFI (cfiCond121) CFA_XSP16 add(XSP16, 12)
        CFI Block cfiCond122 Using cfiCommon0
        CFI (cfiCond122) NoFunction
        CFI (cfiCond122) Conditional ??CrossCallReturnLabel_56, ??CrossCallReturnLabel_42
        CFI (cfiCond122) R6 load(1, XDATA, add(CFA_XSP16, literal(-12)))
        CFI (cfiCond122) VB load(1, XDATA, add(CFA_XSP16, literal(-11)))
        CFI (cfiCond122) V0 load(1, XDATA, add(CFA_XSP16, literal(-10)))
        CFI (cfiCond122) V1 load(1, XDATA, add(CFA_XSP16, literal(-9)))
        CFI (cfiCond122) V2 load(1, XDATA, add(CFA_XSP16, literal(-8)))
        CFI (cfiCond122) V3 load(1, XDATA, add(CFA_XSP16, literal(-7)))
        CFI (cfiCond122) R7 load(1, XDATA, add(CFA_XSP16, literal(-6)))
        CFI (cfiCond122) ?RET_LOW load(1, XDATA, add(CFA_XSP16, literal(-5)))
        CFI (cfiCond122) ?RET_HIGH load(1, XDATA, add(CFA_XSP16, literal(-4)))
        CFI (cfiCond122) ?BRET_EXT load(1, XDATA, add(CFA_XSP16, literal(-3)))
        CFI (cfiCond122) DPL0 load(1, XDATA, add(CFA_XSP16, literal(-2)))
        CFI (cfiCond122) DPH0 load(1, XDATA, add(CFA_XSP16, literal(-1)))
        CFI (cfiCond122) CFA_SP SP+0
        CFI (cfiCond122) CFA_XSP16 add(XSP16, 12)
        CFI Block cfiCond123 Using cfiCommon0
        CFI (cfiCond123) NoFunction
        CFI (cfiCond123) Conditional ??CrossCallReturnLabel_56, ??CrossCallReturnLabel_43
        CFI (cfiCond123) R6 load(1, XDATA, add(CFA_XSP16, literal(-12)))
        CFI (cfiCond123) VB load(1, XDATA, add(CFA_XSP16, literal(-11)))
        CFI (cfiCond123) V0 load(1, XDATA, add(CFA_XSP16, literal(-10)))
        CFI (cfiCond123) V1 load(1, XDATA, add(CFA_XSP16, literal(-9)))
        CFI (cfiCond123) V2 load(1, XDATA, add(CFA_XSP16, literal(-8)))
        CFI (cfiCond123) V3 load(1, XDATA, add(CFA_XSP16, literal(-7)))
        CFI (cfiCond123) R7 load(1, XDATA, add(CFA_XSP16, literal(-6)))
        CFI (cfiCond123) ?RET_LOW load(1, XDATA, add(CFA_XSP16, literal(-5)))
        CFI (cfiCond123) ?RET_HIGH load(1, XDATA, add(CFA_XSP16, literal(-4)))
        CFI (cfiCond123) ?BRET_EXT load(1, XDATA, add(CFA_XSP16, literal(-3)))
        CFI (cfiCond123) DPL0 load(1, XDATA, add(CFA_XSP16, literal(-2)))
        CFI (cfiCond123) DPH0 load(1, XDATA, add(CFA_XSP16, literal(-1)))
        CFI (cfiCond123) CFA_SP SP+0
        CFI (cfiCond123) CFA_XSP16 add(XSP16, 12)
        CFI Block cfiCond124 Using cfiCommon0
        CFI (cfiCond124) NoFunction
        CFI (cfiCond124) Conditional ??CrossCallReturnLabel_56, ??CrossCallReturnLabel_37
        CFI (cfiCond124) R6 load(1, XDATA, add(CFA_XSP16, literal(-14)))
        CFI (cfiCond124) VB load(1, XDATA, add(CFA_XSP16, literal(-13)))
        CFI (cfiCond124) V0 load(1, XDATA, add(CFA_XSP16, literal(-12)))
        CFI (cfiCond124) V1 load(1, XDATA, add(CFA_XSP16, literal(-11)))
        CFI (cfiCond124) V2 load(1, XDATA, add(CFA_XSP16, literal(-10)))
        CFI (cfiCond124) V3 load(1, XDATA, add(CFA_XSP16, literal(-9)))
        CFI (cfiCond124) V4 load(1, XDATA, add(CFA_XSP16, literal(-8)))
        CFI (cfiCond124) V5 load(1, XDATA, add(CFA_XSP16, literal(-7)))
        CFI (cfiCond124) R7 load(1, XDATA, add(CFA_XSP16, literal(-6)))
        CFI (cfiCond124) ?RET_LOW load(1, XDATA, add(CFA_XSP16, literal(-5)))
        CFI (cfiCond124) ?RET_HIGH load(1, XDATA, add(CFA_XSP16, literal(-4)))
        CFI (cfiCond124) ?BRET_EXT load(1, XDATA, add(CFA_XSP16, literal(-3)))
        CFI (cfiCond124) DPL0 load(1, XDATA, add(CFA_XSP16, literal(-2)))
        CFI (cfiCond124) DPH0 load(1, XDATA, add(CFA_XSP16, literal(-1)))
        CFI (cfiCond124) CFA_SP SP+0
        CFI (cfiCond124) CFA_XSP16 add(XSP16, 14)
        CFI Block cfiCond125 Using cfiCommon0
        CFI (cfiCond125) NoFunction
        CFI (cfiCond125) Conditional ??CrossCallReturnLabel_56, ??CrossCallReturnLabel_38
        CFI (cfiCond125) R6 load(1, XDATA, add(CFA_XSP16, literal(-10)))
        CFI (cfiCond125) VB load(1, XDATA, add(CFA_XSP16, literal(-9)))
        CFI (cfiCond125) V0 load(1, XDATA, add(CFA_XSP16, literal(-8)))
        CFI (cfiCond125) V1 load(1, XDATA, add(CFA_XSP16, literal(-7)))
        CFI (cfiCond125) R7 load(1, XDATA, add(CFA_XSP16, literal(-6)))
        CFI (cfiCond125) ?RET_LOW load(1, XDATA, add(CFA_XSP16, literal(-5)))
        CFI (cfiCond125) ?RET_HIGH load(1, XDATA, add(CFA_XSP16, literal(-4)))
        CFI (cfiCond125) ?BRET_EXT load(1, XDATA, add(CFA_XSP16, literal(-3)))
        CFI (cfiCond125) DPL0 load(1, XDATA, add(CFA_XSP16, literal(-2)))
        CFI (cfiCond125) DPH0 load(1, XDATA, add(CFA_XSP16, literal(-1)))
        CFI (cfiCond125) CFA_SP SP+0
        CFI (cfiCond125) CFA_XSP16 add(XSP16, 10)
        CFI Block cfiCond126 Using cfiCommon0
        CFI (cfiCond126) NoFunction
        CFI (cfiCond126) Conditional ??CrossCallReturnLabel_56, ??CrossCallReturnLabel_39
        CFI (cfiCond126) R6 load(1, XDATA, add(CFA_XSP16, literal(-10)))
        CFI (cfiCond126) VB load(1, XDATA, add(CFA_XSP16, literal(-9)))
        CFI (cfiCond126) V0 load(1, XDATA, add(CFA_XSP16, literal(-8)))
        CFI (cfiCond126) V1 load(1, XDATA, add(CFA_XSP16, literal(-7)))
        CFI (cfiCond126) R7 load(1, XDATA, add(CFA_XSP16, literal(-6)))
        CFI (cfiCond126) ?RET_LOW load(1, XDATA, add(CFA_XSP16, literal(-5)))
        CFI (cfiCond126) ?RET_HIGH load(1, XDATA, add(CFA_XSP16, literal(-4)))
        CFI (cfiCond126) ?BRET_EXT load(1, XDATA, add(CFA_XSP16, literal(-3)))
        CFI (cfiCond126) DPL0 load(1, XDATA, add(CFA_XSP16, literal(-2)))
        CFI (cfiCond126) DPH0 load(1, XDATA, add(CFA_XSP16, literal(-1)))
        CFI (cfiCond126) CFA_SP SP+0
        CFI (cfiCond126) CFA_XSP16 add(XSP16, 10)
        CFI Block cfiCond127 Using cfiCommon0
        CFI (cfiCond127) NoFunction
        CFI (cfiCond127) Conditional ??CrossCallReturnLabel_56, ??CrossCallReturnLabel_40
        CFI (cfiCond127) R6 load(1, XDATA, add(CFA_XSP16, literal(-10)))
        CFI (cfiCond127) VB load(1, XDATA, add(CFA_XSP16, literal(-9)))
        CFI (cfiCond127) V0 load(1, XDATA, add(CFA_XSP16, literal(-8)))
        CFI (cfiCond127) V1 load(1, XDATA, add(CFA_XSP16, literal(-7)))
        CFI (cfiCond127) R7 load(1, XDATA, add(CFA_XSP16, literal(-6)))
        CFI (cfiCond127) ?RET_LOW load(1, XDATA, add(CFA_XSP16, literal(-5)))
        CFI (cfiCond127) ?RET_HIGH load(1, XDATA, add(CFA_XSP16, literal(-4)))
        CFI (cfiCond127) ?BRET_EXT load(1, XDATA, add(CFA_XSP16, literal(-3)))
        CFI (cfiCond127) DPL0 load(1, XDATA, add(CFA_XSP16, literal(-2)))
        CFI (cfiCond127) DPH0 load(1, XDATA, add(CFA_XSP16, literal(-1)))
        CFI (cfiCond127) CFA_SP SP+0
        CFI (cfiCond127) CFA_XSP16 add(XSP16, 10)
        CFI Block cfiCond128 Using cfiCommon0
        CFI (cfiCond128) NoFunction
        CFI (cfiCond128) Conditional ??CrossCallReturnLabel_51, ??CrossCallReturnLabel_18
        CFI (cfiCond128) R6 load(1, XDATA, add(CFA_XSP16, literal(-10)))
        CFI (cfiCond128) VB load(1, XDATA, add(CFA_XSP16, literal(-9)))
        CFI (cfiCond128) V0 load(1, XDATA, add(CFA_XSP16, literal(-8)))
        CFI (cfiCond128) V1 load(1, XDATA, add(CFA_XSP16, literal(-7)))
        CFI (cfiCond128) R7 load(1, XDATA, add(CFA_XSP16, literal(-6)))
        CFI (cfiCond128) ?RET_LOW load(1, XDATA, add(CFA_XSP16, literal(-5)))
        CFI (cfiCond128) ?RET_HIGH load(1, XDATA, add(CFA_XSP16, literal(-4)))
        CFI (cfiCond128) ?BRET_EXT load(1, XDATA, add(CFA_XSP16, literal(-3)))
        CFI (cfiCond128) DPL0 load(1, XDATA, add(CFA_XSP16, literal(-2)))
        CFI (cfiCond128) DPH0 load(1, XDATA, add(CFA_XSP16, literal(-1)))
        CFI (cfiCond128) CFA_SP SP+0
        CFI (cfiCond128) CFA_XSP16 add(XSP16, 10)
        CFI Block cfiCond129 Using cfiCommon0
        CFI (cfiCond129) NoFunction
        CFI (cfiCond129) Conditional ??CrossCallReturnLabel_51, ??CrossCallReturnLabel_19
        CFI (cfiCond129) R6 load(1, XDATA, add(CFA_XSP16, literal(-10)))
        CFI (cfiCond129) VB load(1, XDATA, add(CFA_XSP16, literal(-9)))
        CFI (cfiCond129) V0 load(1, XDATA, add(CFA_XSP16, literal(-8)))
        CFI (cfiCond129) V1 load(1, XDATA, add(CFA_XSP16, literal(-7)))
        CFI (cfiCond129) R7 load(1, XDATA, add(CFA_XSP16, literal(-6)))
        CFI (cfiCond129) ?RET_LOW load(1, XDATA, add(CFA_XSP16, literal(-5)))
        CFI (cfiCond129) ?RET_HIGH load(1, XDATA, add(CFA_XSP16, literal(-4)))
        CFI (cfiCond129) ?BRET_EXT load(1, XDATA, add(CFA_XSP16, literal(-3)))
        CFI (cfiCond129) DPL0 load(1, XDATA, add(CFA_XSP16, literal(-2)))
        CFI (cfiCond129) DPH0 load(1, XDATA, add(CFA_XSP16, literal(-1)))
        CFI (cfiCond129) CFA_SP SP+0
        CFI (cfiCond129) CFA_XSP16 add(XSP16, 10)
??Subroutine19_0:
        ADDC    A,#0x0
        MOV     DPH,A
        MOVX    A,@DPTR
        RET
        CFI EndBlock cfiCond108
        CFI EndBlock cfiCond109
        CFI EndBlock cfiCond110
        CFI EndBlock cfiCond111
        CFI EndBlock cfiCond112
        CFI EndBlock cfiCond113
        CFI EndBlock cfiCond114
        CFI EndBlock cfiPicker115
        CFI EndBlock cfiCond116
        CFI EndBlock cfiCond117
        CFI EndBlock cfiCond118
        CFI EndBlock cfiCond119
        CFI EndBlock cfiCond120
        CFI EndBlock cfiCond121
        CFI EndBlock cfiCond122
        CFI EndBlock cfiCond123
        CFI EndBlock cfiCond124
        CFI EndBlock cfiCond125
        CFI EndBlock cfiCond126
        CFI EndBlock cfiCond127
        CFI EndBlock cfiCond128
        CFI EndBlock cfiCond129

        RSEG BANKED_CODE:CODE:NOROOT(0)
?Subroutine3:
        CFI Block cfiCond130 Using cfiCommon0
        CFI NoFunction
        CFI Conditional ??CrossCallReturnLabel_6
        CFI R6 load(1, XDATA, add(CFA_XSP16, literal(-12)))
        CFI VB load(1, XDATA, add(CFA_XSP16, literal(-11)))
        CFI V0 load(1, XDATA, add(CFA_XSP16, literal(-10)))
        CFI V1 load(1, XDATA, add(CFA_XSP16, literal(-9)))
        CFI V2 load(1, XDATA, add(CFA_XSP16, literal(-8)))
        CFI V3 load(1, XDATA, add(CFA_XSP16, literal(-7)))
        CFI R7 load(1, XDATA, add(CFA_XSP16, literal(-6)))
        CFI ?RET_LOW load(1, XDATA, add(CFA_XSP16, literal(-5)))
        CFI ?RET_HIGH load(1, XDATA, add(CFA_XSP16, literal(-4)))
        CFI ?BRET_EXT load(1, XDATA, add(CFA_XSP16, literal(-3)))
        CFI DPL0 load(1, XDATA, add(CFA_XSP16, literal(-2)))
        CFI DPH0 load(1, XDATA, add(CFA_XSP16, literal(-1)))
        CFI CFA_SP SP+0
        CFI CFA_XSP16 add(XSP16, 12)
        CFI Block cfiCond131 Using cfiCommon0
        CFI (cfiCond131) NoFunction
        CFI (cfiCond131) Conditional ??CrossCallReturnLabel_7
        CFI (cfiCond131) R6 load(1, XDATA, add(CFA_XSP16, literal(-12)))
        CFI (cfiCond131) VB load(1, XDATA, add(CFA_XSP16, literal(-11)))
        CFI (cfiCond131) V0 load(1, XDATA, add(CFA_XSP16, literal(-10)))
        CFI (cfiCond131) V1 load(1, XDATA, add(CFA_XSP16, literal(-9)))
        CFI (cfiCond131) V2 load(1, XDATA, add(CFA_XSP16, literal(-8)))
        CFI (cfiCond131) V3 load(1, XDATA, add(CFA_XSP16, literal(-7)))
        CFI (cfiCond131) R7 load(1, XDATA, add(CFA_XSP16, literal(-6)))
        CFI (cfiCond131) ?RET_LOW load(1, XDATA, add(CFA_XSP16, literal(-5)))
        CFI (cfiCond131) ?RET_HIGH load(1, XDATA, add(CFA_XSP16, literal(-4)))
        CFI (cfiCond131) ?BRET_EXT load(1, XDATA, add(CFA_XSP16, literal(-3)))
        CFI (cfiCond131) DPL0 load(1, XDATA, add(CFA_XSP16, literal(-2)))
        CFI (cfiCond131) DPH0 load(1, XDATA, add(CFA_XSP16, literal(-1)))
        CFI (cfiCond131) CFA_SP SP+0
        CFI (cfiCond131) CFA_XSP16 add(XSP16, 12)
        CFI Block cfiPicker132 Using cfiCommon1
        CFI (cfiPicker132) NoFunction
        CFI (cfiPicker132) Picker
        MOV     DPL,R0
        MOV     DPH,R1
        INC     DPTR
        INC     DPTR
        INC     DPTR
        INC     DPTR
        INC     DPTR
        INC     DPTR
        INC     DPTR
        INC     DPTR
        INC     DPTR
        INC     DPTR
        MOVX    A,@DPTR
        MOV     ?V0 + 0,A
        MOV     A,R4
        CLR     C
        SUBB    A,?V0 + 0
        MOV     R4,A
        CLR     A
        SUBB    A,#0x0
        MOV     R5,A
        RET
        CFI EndBlock cfiCond130
        CFI EndBlock cfiCond131
        CFI EndBlock cfiPicker132

        RSEG BANKED_CODE:CODE:NOROOT(0)
?Subroutine0:
        CFI Block cfiCond133 Using cfiCommon0
        CFI NoFunction
        CFI Conditional ??CrossCallReturnLabel_0
        CFI R6 load(1, XDATA, add(CFA_XSP16, literal(-12)))
        CFI VB load(1, XDATA, add(CFA_XSP16, literal(-11)))
        CFI V0 load(1, XDATA, add(CFA_XSP16, literal(-10)))
        CFI V1 load(1, XDATA, add(CFA_XSP16, literal(-9)))
        CFI V2 load(1, XDATA, add(CFA_XSP16, literal(-8)))
        CFI V3 load(1, XDATA, add(CFA_XSP16, literal(-7)))
        CFI R7 load(1, XDATA, add(CFA_XSP16, literal(-6)))
        CFI ?RET_LOW load(1, XDATA, add(CFA_XSP16, literal(-5)))
        CFI ?RET_HIGH load(1, XDATA, add(CFA_XSP16, literal(-4)))
        CFI ?BRET_EXT load(1, XDATA, add(CFA_XSP16, literal(-3)))
        CFI DPL0 load(1, XDATA, add(CFA_XSP16, literal(-2)))
        CFI DPH0 load(1, XDATA, add(CFA_XSP16, literal(-1)))
        CFI CFA_SP SP+0
        CFI CFA_XSP16 add(XSP16, 12)
        CFI Block cfiCond134 Using cfiCommon0
        CFI (cfiCond134) NoFunction
        CFI (cfiCond134) Conditional ??CrossCallReturnLabel_1
        CFI (cfiCond134) R6 load(1, XDATA, add(CFA_XSP16, literal(-12)))
        CFI (cfiCond134) VB load(1, XDATA, add(CFA_XSP16, literal(-11)))
        CFI (cfiCond134) V0 load(1, XDATA, add(CFA_XSP16, literal(-10)))
        CFI (cfiCond134) V1 load(1, XDATA, add(CFA_XSP16, literal(-9)))
        CFI (cfiCond134) V2 load(1, XDATA, add(CFA_XSP16, literal(-8)))
        CFI (cfiCond134) V3 load(1, XDATA, add(CFA_XSP16, literal(-7)))
        CFI (cfiCond134) R7 load(1, XDATA, add(CFA_XSP16, literal(-6)))
        CFI (cfiCond134) ?RET_LOW load(1, XDATA, add(CFA_XSP16, literal(-5)))
        CFI (cfiCond134) ?RET_HIGH load(1, XDATA, add(CFA_XSP16, literal(-4)))
        CFI (cfiCond134) ?BRET_EXT load(1, XDATA, add(CFA_XSP16, literal(-3)))
        CFI (cfiCond134) DPL0 load(1, XDATA, add(CFA_XSP16, literal(-2)))
        CFI (cfiCond134) DPH0 load(1, XDATA, add(CFA_XSP16, literal(-1)))
        CFI (cfiCond134) CFA_SP SP+0
        CFI (cfiCond134) CFA_XSP16 add(XSP16, 12)
        CFI Block cfiPicker135 Using cfiCommon1
        CFI (cfiPicker135) NoFunction
        CFI (cfiPicker135) Picker
        ADD     A,#0xb
        MOV     DPL,A
        MOV     A,R1
        LCALL   ??Subroutine21_0 & 0xFFFF
??CrossCallReturnLabel_62:
        LCALL   ?Subroutine17 & 0xFFFF
??CrossCallReturnLabel_50:
        INC     DPTR
        INC     DPTR
        INC     DPTR
        INC     DPTR
        MOVX    A,@DPTR
        ADD     A,R4
        MOV     R6,A
        INC     DPTR
        MOVX    A,@DPTR
        ADDC    A,#0x0
        MOV     DPL,R6
        MOV     DPH,A
        MOVX    A,@DPTR
        RET
        CFI EndBlock cfiCond133
        CFI EndBlock cfiCond134
        CFI EndBlock cfiPicker135

        RSEG BANKED_CODE:CODE:NOROOT(0)
?Subroutine17:
        CFI Block cfiCond136 Using cfiCommon0
        CFI NoFunction
        CFI Conditional ??CrossCallReturnLabel_49
        CFI R6 load(1, XDATA, add(CFA_XSP16, literal(-12)))
        CFI VB load(1, XDATA, add(CFA_XSP16, literal(-11)))
        CFI V0 load(1, XDATA, add(CFA_XSP16, literal(-10)))
        CFI V1 load(1, XDATA, add(CFA_XSP16, literal(-9)))
        CFI V2 load(1, XDATA, add(CFA_XSP16, literal(-8)))
        CFI V3 load(1, XDATA, add(CFA_XSP16, literal(-7)))
        CFI R7 load(1, XDATA, add(CFA_XSP16, literal(-6)))
        CFI ?RET_LOW load(1, XDATA, add(CFA_XSP16, literal(-5)))
        CFI ?RET_HIGH load(1, XDATA, add(CFA_XSP16, literal(-4)))
        CFI ?BRET_EXT load(1, XDATA, add(CFA_XSP16, literal(-3)))
        CFI DPL0 load(1, XDATA, add(CFA_XSP16, literal(-2)))
        CFI DPH0 load(1, XDATA, add(CFA_XSP16, literal(-1)))
        CFI CFA_SP SP+0
        CFI CFA_XSP16 add(XSP16, 12)
        CFI Block cfiCond137 Using cfiCommon0
        CFI (cfiCond137) NoFunction
        CFI (cfiCond137) Conditional ??CrossCallReturnLabel_50, ??CrossCallReturnLabel_0
        CFI (cfiCond137) R6 load(1, XDATA, add(CFA_XSP16, literal(-12)))
        CFI (cfiCond137) VB load(1, XDATA, add(CFA_XSP16, literal(-11)))
        CFI (cfiCond137) V0 load(1, XDATA, add(CFA_XSP16, literal(-10)))
        CFI (cfiCond137) V1 load(1, XDATA, add(CFA_XSP16, literal(-9)))
        CFI (cfiCond137) V2 load(1, XDATA, add(CFA_XSP16, literal(-8)))
        CFI (cfiCond137) V3 load(1, XDATA, add(CFA_XSP16, literal(-7)))
        CFI (cfiCond137) R7 load(1, XDATA, add(CFA_XSP16, literal(-6)))
        CFI (cfiCond137) ?RET_LOW load(1, XDATA, add(CFA_XSP16, literal(-5)))
        CFI (cfiCond137) ?RET_HIGH load(1, XDATA, add(CFA_XSP16, literal(-4)))
        CFI (cfiCond137) ?BRET_EXT load(1, XDATA, add(CFA_XSP16, literal(-3)))
        CFI (cfiCond137) DPL0 load(1, XDATA, add(CFA_XSP16, literal(-2)))
        CFI (cfiCond137) DPH0 load(1, XDATA, add(CFA_XSP16, literal(-1)))
        CFI (cfiCond137) CFA_SP SP+0
        CFI (cfiCond137) CFA_XSP16 add(XSP16, 12)
        CFI Block cfiCond138 Using cfiCommon0
        CFI (cfiCond138) NoFunction
        CFI (cfiCond138) Conditional ??CrossCallReturnLabel_50, ??CrossCallReturnLabel_1
        CFI (cfiCond138) R6 load(1, XDATA, add(CFA_XSP16, literal(-12)))
        CFI (cfiCond138) VB load(1, XDATA, add(CFA_XSP16, literal(-11)))
        CFI (cfiCond138) V0 load(1, XDATA, add(CFA_XSP16, literal(-10)))
        CFI (cfiCond138) V1 load(1, XDATA, add(CFA_XSP16, literal(-9)))
        CFI (cfiCond138) V2 load(1, XDATA, add(CFA_XSP16, literal(-8)))
        CFI (cfiCond138) V3 load(1, XDATA, add(CFA_XSP16, literal(-7)))
        CFI (cfiCond138) R7 load(1, XDATA, add(CFA_XSP16, literal(-6)))
        CFI (cfiCond138) ?RET_LOW load(1, XDATA, add(CFA_XSP16, literal(-5)))
        CFI (cfiCond138) ?RET_HIGH load(1, XDATA, add(CFA_XSP16, literal(-4)))
        CFI (cfiCond138) ?BRET_EXT load(1, XDATA, add(CFA_XSP16, literal(-3)))
        CFI (cfiCond138) DPL0 load(1, XDATA, add(CFA_XSP16, literal(-2)))
        CFI (cfiCond138) DPH0 load(1, XDATA, add(CFA_XSP16, literal(-1)))
        CFI (cfiCond138) CFA_SP SP+0
        CFI (cfiCond138) CFA_XSP16 add(XSP16, 12)
        CFI Block cfiPicker139 Using cfiCommon1
        CFI (cfiPicker139) NoFunction
        CFI (cfiPicker139) Picker
        MOVX    A,@DPTR
        MOV     R4,A
        MOV     DPL,R0
        MOV     DPH,R1
        INC     DPTR
        INC     DPTR
        INC     DPTR
        INC     DPTR
        RET
        CFI EndBlock cfiCond136
        CFI EndBlock cfiCond137
        CFI EndBlock cfiCond138
        CFI EndBlock cfiPicker139
// 1143 
// 1144 #if HAL_UART_ISR
// 1145 /***************************************************************************************************
// 1146  * @fn      halUart0RxIsr
// 1147  *
// 1148  * @brief   UART0 Receive Interrupt
// 1149  *
// 1150  * @param   None
// 1151  *
// 1152  * @return  None
// 1153  ***************************************************************************************************/
// 1154 #if HAL_UART_0_ENABLE

        RSEG NEAR_CODE:CODE:NOROOT(0)
// 1155 HAL_ISR_FUNCTION( halUart0RxIsr, URX0_VECTOR )
halUart0RxIsr:
        CFI Block cfiBlock140 Using cfiCommon1
        CFI Function halUart0RxIsr
// 1156 {
        PUSH    A
        CFI A Frame(CFA_SP, 3)
        CFI CFA_SP SP+-3
        PUSH    PSW
        CFI PSW Frame(CFA_SP, 4)
        CFI CFA_SP SP+-4
        MOV     A,R0
        CFI R0 A
        PUSH    A
        CFI R0 Frame(CFA_SP, 5)
        CFI CFA_SP SP+-5
        MOV     A,R1
        CFI R1 A
        PUSH    A
        CFI R1 Frame(CFA_SP, 6)
        CFI CFA_SP SP+-6
        MOV     A,R2
        CFI R2 A
        PUSH    A
        CFI R2 Frame(CFA_SP, 7)
        CFI CFA_SP SP+-7
        PUSH    DPL
        CFI DPL0 Frame(CFA_SP, 8)
        CFI CFA_SP SP+-8
        PUSH    DPH
        CFI DPH0 Frame(CFA_SP, 9)
        CFI CFA_SP SP+-9
        ; Saved register size: 7
        ; Auto size: 0
// 1157   cfg0->rxBuf[cfg0->rxHead] = U0DBUF;
        MOV     A,0xc1
        PUSH    A
        CFI CFA_SP SP+-10
        MOV     DPTR,#cfg0
        LCALL   ?Subroutine31
??CrossCallReturnLabel_82:
        MOV     DPTR,#cfg0
        LCALL   ?Subroutine25
??CrossCallReturnLabel_70:
        POP     A
        CFI CFA_SP SP+-9
        MOVX    @DPTR,A
// 1158 
// 1159   if ( cfg0->rxHead == cfg0->rxMax )
        MOV     DPTR,#cfg0
        LCALL   ?Subroutine32
??CrossCallReturnLabel_84:
        MOV     DPTR,#(cfg0 + 1)
        LCALL   ?Subroutine33
??CrossCallReturnLabel_86:
        MOV     DPTR,#(cfg0 + 1)
        JNZ     ??halUart0RxIsr_0
// 1160   {
// 1161     cfg0->rxHead = 0;
        LCALL   ?Subroutine36
??CrossCallReturnLabel_92:
        SJMP    ??CrossCallReturnLabel_90
// 1162   }
// 1163   else
// 1164   {
// 1165     cfg0->rxHead++;
??halUart0RxIsr_0:
        LCALL   ?Subroutine35
??CrossCallReturnLabel_90:
        LJMP    ?Subroutine48
        CFI EndBlock cfiBlock140
        REQUIRE U0DBUF
// 1166   }
// 1167 }
// 1168 #endif
// 1169 
// 1170 /***************************************************************************************************
// 1171  * @fn      halUart1RxIsr
// 1172  *
// 1173  * @brief   UART1 Receive Interrupt
// 1174  *
// 1175  * @param   None
// 1176  *
// 1177  * @return  None
// 1178  ***************************************************************************************************/
// 1179 #if HAL_UART_1_ENABLE

        RSEG NEAR_CODE:CODE:NOROOT(0)
// 1180 HAL_ISR_FUNCTION( halUart1RxIsr, URX1_VECTOR )
halUart1RxIsr:
        CFI Block cfiBlock141 Using cfiCommon1
        CFI Function halUart1RxIsr
// 1181 {
        PUSH    A
        CFI A Frame(CFA_SP, 3)
        CFI CFA_SP SP+-3
        PUSH    PSW
        CFI PSW Frame(CFA_SP, 4)
        CFI CFA_SP SP+-4
        MOV     A,R0
        CFI R0 A
        PUSH    A
        CFI R0 Frame(CFA_SP, 5)
        CFI CFA_SP SP+-5
        MOV     A,R1
        CFI R1 A
        PUSH    A
        CFI R1 Frame(CFA_SP, 6)
        CFI CFA_SP SP+-6
        MOV     A,R2
        CFI R2 A
        PUSH    A
        CFI R2 Frame(CFA_SP, 7)
        CFI CFA_SP SP+-7
        PUSH    DPL
        CFI DPL0 Frame(CFA_SP, 8)
        CFI CFA_SP SP+-8
        PUSH    DPH
        CFI DPH0 Frame(CFA_SP, 9)
        CFI CFA_SP SP+-9
        ; Saved register size: 7
        ; Auto size: 0
// 1182   cfg1->rxBuf[cfg1->rxHead] = U1DBUF;
        MOV     A,0xf9
        PUSH    A
        CFI CFA_SP SP+-10
        MOV     DPTR,#cfg1
        LCALL   ?Subroutine31
??CrossCallReturnLabel_83:
        MOV     DPTR,#cfg1
        LCALL   ?Subroutine25
??CrossCallReturnLabel_71:
        POP     A
        CFI CFA_SP SP+-9
        MOVX    @DPTR,A
// 1183 
// 1184   if ( cfg1->rxHead == cfg1->rxMax )
        MOV     DPTR,#cfg1
        LCALL   ?Subroutine32
??CrossCallReturnLabel_85:
        MOV     DPTR,#(cfg1 + 1)
        LCALL   ?Subroutine33
??CrossCallReturnLabel_87:
        MOV     DPTR,#(cfg1 + 1)
        JNZ     ??halUart1RxIsr_0
// 1185   {
// 1186     cfg1->rxHead = 0;
        LCALL   ?Subroutine36
??CrossCallReturnLabel_93:
        SJMP    ??CrossCallReturnLabel_91
// 1187   }
// 1188   else
// 1189   {
// 1190     cfg1->rxHead++;
??halUart1RxIsr_0:
        LCALL   ?Subroutine35
??CrossCallReturnLabel_91:
        LJMP    ?Subroutine48
        CFI EndBlock cfiBlock141
        REQUIRE U1DBUF
// 1191   }
// 1192 }

        RSEG NEAR_CODE:CODE:NOROOT(0)
?Subroutine36:
        CFI Block cfiCond142 Using cfiCommon1
        CFI NoFunction
        CFI Conditional ??CrossCallReturnLabel_92
        CFI A Frame(CFA_SP, 3)
        CFI PSW Frame(CFA_SP, 4)
        CFI R0 Frame(CFA_SP, 5)
        CFI R1 Frame(CFA_SP, 6)
        CFI R2 Frame(CFA_SP, 7)
        CFI DPL0 Frame(CFA_SP, 8)
        CFI DPH0 Frame(CFA_SP, 9)
        CFI CFA_SP SP+-9
        CFI Block cfiCond143 Using cfiCommon1
        CFI (cfiCond143) NoFunction
        CFI (cfiCond143) Conditional ??CrossCallReturnLabel_93
        CFI (cfiCond143) A Frame(CFA_SP, 3)
        CFI (cfiCond143) PSW Frame(CFA_SP, 4)
        CFI (cfiCond143) R0 Frame(CFA_SP, 5)
        CFI (cfiCond143) R1 Frame(CFA_SP, 6)
        CFI (cfiCond143) R2 Frame(CFA_SP, 7)
        CFI (cfiCond143) DPL0 Frame(CFA_SP, 8)
        CFI (cfiCond143) DPH0 Frame(CFA_SP, 9)
        CFI (cfiCond143) CFA_SP SP+-9
        CFI Block cfiPicker144 Using cfiCommon1
        CFI (cfiPicker144) NoFunction
        CFI (cfiPicker144) Picker
        LCALL   ?Subroutine43
??CrossCallReturnLabel_107:
        CLR     A
        RET
        CFI EndBlock cfiCond142
        CFI EndBlock cfiCond143
        CFI EndBlock cfiPicker144

        RSEG NEAR_CODE:CODE:NOROOT(0)
?Subroutine35:
        CFI Block cfiCond145 Using cfiCommon1
        CFI NoFunction
        CFI Conditional ??CrossCallReturnLabel_90
        CFI A Frame(CFA_SP, 3)
        CFI PSW Frame(CFA_SP, 4)
        CFI R0 Frame(CFA_SP, 5)
        CFI R1 Frame(CFA_SP, 6)
        CFI R2 Frame(CFA_SP, 7)
        CFI DPL0 Frame(CFA_SP, 8)
        CFI DPH0 Frame(CFA_SP, 9)
        CFI CFA_SP SP+-9
        CFI Block cfiCond146 Using cfiCommon1
        CFI (cfiCond146) NoFunction
        CFI (cfiCond146) Conditional ??CrossCallReturnLabel_91
        CFI (cfiCond146) A Frame(CFA_SP, 3)
        CFI (cfiCond146) PSW Frame(CFA_SP, 4)
        CFI (cfiCond146) R0 Frame(CFA_SP, 5)
        CFI (cfiCond146) R1 Frame(CFA_SP, 6)
        CFI (cfiCond146) R2 Frame(CFA_SP, 7)
        CFI (cfiCond146) DPL0 Frame(CFA_SP, 8)
        CFI (cfiCond146) DPH0 Frame(CFA_SP, 9)
        CFI (cfiCond146) CFA_SP SP+-9
        CFI Block cfiPicker147 Using cfiCommon1
        CFI (cfiPicker147) NoFunction
        CFI (cfiPicker147) Picker
        LCALL   ??Subroutine38_0
??CrossCallReturnLabel_98:
        INC     A
        RET
        CFI EndBlock cfiCond145
        CFI EndBlock cfiCond146
        CFI EndBlock cfiPicker147

        RSEG NEAR_CODE:CODE:NOROOT(0)
?Subroutine33:
        CFI Block cfiCond148 Using cfiCommon1
        CFI NoFunction
        CFI Conditional ??CrossCallReturnLabel_86
        CFI A Frame(CFA_SP, 3)
        CFI PSW Frame(CFA_SP, 4)
        CFI R0 Frame(CFA_SP, 5)
        CFI R1 Frame(CFA_SP, 6)
        CFI R2 Frame(CFA_SP, 7)
        CFI DPL0 Frame(CFA_SP, 8)
        CFI DPH0 Frame(CFA_SP, 9)
        CFI CFA_SP SP+-9
        CFI Block cfiCond149 Using cfiCommon1
        CFI (cfiCond149) NoFunction
        CFI (cfiCond149) Conditional ??CrossCallReturnLabel_87
        CFI (cfiCond149) A Frame(CFA_SP, 3)
        CFI (cfiCond149) PSW Frame(CFA_SP, 4)
        CFI (cfiCond149) R0 Frame(CFA_SP, 5)
        CFI (cfiCond149) R1 Frame(CFA_SP, 6)
        CFI (cfiCond149) R2 Frame(CFA_SP, 7)
        CFI (cfiCond149) DPL0 Frame(CFA_SP, 8)
        CFI (cfiCond149) DPH0 Frame(CFA_SP, 9)
        CFI (cfiCond149) CFA_SP SP+-9
        CFI Block cfiPicker150 Using cfiCommon1
        CFI (cfiPicker150) NoFunction
        CFI (cfiPicker150) Picker
        LCALL   ?Subroutine41
??CrossCallReturnLabel_104:
        MOVX    A,@DPTR
        XRL     A,R2
        RET
        CFI EndBlock cfiCond148
        CFI EndBlock cfiCond149
        CFI EndBlock cfiPicker150

        RSEG NEAR_CODE:CODE:NOROOT(0)
?Subroutine32:
        CFI Block cfiCond151 Using cfiCommon1
        CFI NoFunction
        CFI Conditional ??CrossCallReturnLabel_84
        CFI A Frame(CFA_SP, 3)
        CFI PSW Frame(CFA_SP, 4)
        CFI R0 Frame(CFA_SP, 5)
        CFI R1 Frame(CFA_SP, 6)
        CFI R2 Frame(CFA_SP, 7)
        CFI DPL0 Frame(CFA_SP, 8)
        CFI DPH0 Frame(CFA_SP, 9)
        CFI CFA_SP SP+-9
        CFI Block cfiCond152 Using cfiCommon1
        CFI (cfiCond152) NoFunction
        CFI (cfiCond152) Conditional ??CrossCallReturnLabel_85
        CFI (cfiCond152) A Frame(CFA_SP, 3)
        CFI (cfiCond152) PSW Frame(CFA_SP, 4)
        CFI (cfiCond152) R0 Frame(CFA_SP, 5)
        CFI (cfiCond152) R1 Frame(CFA_SP, 6)
        CFI (cfiCond152) R2 Frame(CFA_SP, 7)
        CFI (cfiCond152) DPL0 Frame(CFA_SP, 8)
        CFI (cfiCond152) DPH0 Frame(CFA_SP, 9)
        CFI (cfiCond152) CFA_SP SP+-9
        CFI Block cfiPicker153 Using cfiCommon1
        CFI (cfiPicker153) NoFunction
        CFI (cfiPicker153) Picker
        LCALL   ?Subroutine38
??CrossCallReturnLabel_97:
        MOV     R2,A
        RET
        CFI EndBlock cfiCond151
        CFI EndBlock cfiCond152
        CFI EndBlock cfiPicker153

        RSEG NEAR_CODE:CODE:NOROOT(0)
?Subroutine38:
        CFI Block cfiCond154 Using cfiCommon1
        CFI NoFunction
        CFI Conditional ??CrossCallReturnLabel_97, ??CrossCallReturnLabel_84
        CFI A Frame(CFA_SP, 3)
        CFI PSW Frame(CFA_SP, 4)
        CFI R0 Frame(CFA_SP, 5)
        CFI R1 Frame(CFA_SP, 6)
        CFI R2 Frame(CFA_SP, 7)
        CFI DPL0 Frame(CFA_SP, 8)
        CFI DPH0 Frame(CFA_SP, 9)
        CFI CFA_SP SP+-9
        CFI Block cfiCond155 Using cfiCommon1
        CFI (cfiCond155) NoFunction
        CFI (cfiCond155) Conditional ??CrossCallReturnLabel_97, ??CrossCallReturnLabel_85
        CFI (cfiCond155) A Frame(CFA_SP, 3)
        CFI (cfiCond155) PSW Frame(CFA_SP, 4)
        CFI (cfiCond155) R0 Frame(CFA_SP, 5)
        CFI (cfiCond155) R1 Frame(CFA_SP, 6)
        CFI (cfiCond155) R2 Frame(CFA_SP, 7)
        CFI (cfiCond155) DPL0 Frame(CFA_SP, 8)
        CFI (cfiCond155) DPH0 Frame(CFA_SP, 9)
        CFI (cfiCond155) CFA_SP SP+-9
        CFI Block cfiCond156 Using cfiCommon1
        CFI (cfiCond156) NoFunction
        CFI (cfiCond156) Conditional ??CrossCallReturnLabel_96, ??CrossCallReturnLabel_82
        CFI (cfiCond156) A Frame(CFA_SP, 3)
        CFI (cfiCond156) PSW Frame(CFA_SP, 4)
        CFI (cfiCond156) R0 Frame(CFA_SP, 5)
        CFI (cfiCond156) R1 Frame(CFA_SP, 6)
        CFI (cfiCond156) R2 Frame(CFA_SP, 7)
        CFI (cfiCond156) DPL0 Frame(CFA_SP, 8)
        CFI (cfiCond156) DPH0 Frame(CFA_SP, 9)
        CFI (cfiCond156) CFA_SP SP+-10
        CFI Block cfiCond157 Using cfiCommon1
        CFI (cfiCond157) NoFunction
        CFI (cfiCond157) Conditional ??CrossCallReturnLabel_96, ??CrossCallReturnLabel_83
        CFI (cfiCond157) A Frame(CFA_SP, 3)
        CFI (cfiCond157) PSW Frame(CFA_SP, 4)
        CFI (cfiCond157) R0 Frame(CFA_SP, 5)
        CFI (cfiCond157) R1 Frame(CFA_SP, 6)
        CFI (cfiCond157) R2 Frame(CFA_SP, 7)
        CFI (cfiCond157) DPL0 Frame(CFA_SP, 8)
        CFI (cfiCond157) DPH0 Frame(CFA_SP, 9)
        CFI (cfiCond157) CFA_SP SP+-10
        CFI Block cfiPicker158 Using cfiCommon1
        CFI (cfiPicker158) NoFunction
        CFI (cfiPicker158) Picker
        MOVX    A,@DPTR
        MOV     R0,A
        INC     DPTR
        CFI Block cfiCond159 Using cfiCommon1
        CFI (cfiCond159) NoFunction
        CFI (cfiCond159) Conditional ??CrossCallReturnLabel_98, ??CrossCallReturnLabel_90
        CFI (cfiCond159) A Frame(CFA_SP, 3)
        CFI (cfiCond159) PSW Frame(CFA_SP, 4)
        CFI (cfiCond159) R0 Frame(CFA_SP, 5)
        CFI (cfiCond159) R1 Frame(CFA_SP, 6)
        CFI (cfiCond159) R2 Frame(CFA_SP, 7)
        CFI (cfiCond159) DPL0 Frame(CFA_SP, 8)
        CFI (cfiCond159) DPH0 Frame(CFA_SP, 9)
        CFI (cfiCond159) CFA_SP SP+-9
        CFI Block cfiCond160 Using cfiCommon1
        CFI (cfiCond160) NoFunction
        CFI (cfiCond160) Conditional ??CrossCallReturnLabel_98, ??CrossCallReturnLabel_91
        CFI (cfiCond160) A Frame(CFA_SP, 3)
        CFI (cfiCond160) PSW Frame(CFA_SP, 4)
        CFI (cfiCond160) R0 Frame(CFA_SP, 5)
        CFI (cfiCond160) R1 Frame(CFA_SP, 6)
        CFI (cfiCond160) R2 Frame(CFA_SP, 7)
        CFI (cfiCond160) DPL0 Frame(CFA_SP, 8)
        CFI (cfiCond160) DPH0 Frame(CFA_SP, 9)
        CFI (cfiCond160) CFA_SP SP+-9
??Subroutine38_0:
        LCALL   ?Subroutine43
??CrossCallReturnLabel_108:
        MOVX    A,@DPTR
        RET
        CFI EndBlock cfiCond154
        CFI EndBlock cfiCond155
        CFI EndBlock cfiCond156
        CFI EndBlock cfiCond157
        CFI EndBlock cfiPicker158
        CFI EndBlock cfiCond159
        CFI EndBlock cfiCond160

        RSEG NEAR_CODE:CODE:NOROOT(0)
?Subroutine43:
        CFI Block cfiCond161 Using cfiCommon1
        CFI NoFunction
        CFI Conditional ??CrossCallReturnLabel_107, ??CrossCallReturnLabel_92
        CFI A Frame(CFA_SP, 3)
        CFI PSW Frame(CFA_SP, 4)
        CFI R0 Frame(CFA_SP, 5)
        CFI R1 Frame(CFA_SP, 6)
        CFI R2 Frame(CFA_SP, 7)
        CFI DPL0 Frame(CFA_SP, 8)
        CFI DPH0 Frame(CFA_SP, 9)
        CFI CFA_SP SP+-9
        CFI Block cfiCond162 Using cfiCommon1
        CFI (cfiCond162) NoFunction
        CFI (cfiCond162) Conditional ??CrossCallReturnLabel_107, ??CrossCallReturnLabel_93
        CFI (cfiCond162) A Frame(CFA_SP, 3)
        CFI (cfiCond162) PSW Frame(CFA_SP, 4)
        CFI (cfiCond162) R0 Frame(CFA_SP, 5)
        CFI (cfiCond162) R1 Frame(CFA_SP, 6)
        CFI (cfiCond162) R2 Frame(CFA_SP, 7)
        CFI (cfiCond162) DPL0 Frame(CFA_SP, 8)
        CFI (cfiCond162) DPH0 Frame(CFA_SP, 9)
        CFI (cfiCond162) CFA_SP SP+-9
        CFI Block cfiCond163 Using cfiCommon1
        CFI (cfiCond163) NoFunction
        CFI (cfiCond163) Conditional ??CrossCallReturnLabel_108, ??CrossCallReturnLabel_97, ??CrossCallReturnLabel_84
        CFI (cfiCond163) A Frame(CFA_SP, 3)
        CFI (cfiCond163) PSW Frame(CFA_SP, 4)
        CFI (cfiCond163) R0 Frame(CFA_SP, 5)
        CFI (cfiCond163) R1 Frame(CFA_SP, 6)
        CFI (cfiCond163) R2 Frame(CFA_SP, 7)
        CFI (cfiCond163) DPL0 Frame(CFA_SP, 8)
        CFI (cfiCond163) DPH0 Frame(CFA_SP, 9)
        CFI (cfiCond163) CFA_SP SP+-9
        CFI Block cfiCond164 Using cfiCommon1
        CFI (cfiCond164) NoFunction
        CFI (cfiCond164) Conditional ??CrossCallReturnLabel_108, ??CrossCallReturnLabel_97, ??CrossCallReturnLabel_85
        CFI (cfiCond164) A Frame(CFA_SP, 3)
        CFI (cfiCond164) PSW Frame(CFA_SP, 4)
        CFI (cfiCond164) R0 Frame(CFA_SP, 5)
        CFI (cfiCond164) R1 Frame(CFA_SP, 6)
        CFI (cfiCond164) R2 Frame(CFA_SP, 7)
        CFI (cfiCond164) DPL0 Frame(CFA_SP, 8)
        CFI (cfiCond164) DPH0 Frame(CFA_SP, 9)
        CFI (cfiCond164) CFA_SP SP+-9
        CFI Block cfiCond165 Using cfiCommon1
        CFI (cfiCond165) NoFunction
        CFI (cfiCond165) Conditional ??CrossCallReturnLabel_108, ??CrossCallReturnLabel_96, ??CrossCallReturnLabel_82
        CFI (cfiCond165) A Frame(CFA_SP, 3)
        CFI (cfiCond165) PSW Frame(CFA_SP, 4)
        CFI (cfiCond165) R0 Frame(CFA_SP, 5)
        CFI (cfiCond165) R1 Frame(CFA_SP, 6)
        CFI (cfiCond165) R2 Frame(CFA_SP, 7)
        CFI (cfiCond165) DPL0 Frame(CFA_SP, 8)
        CFI (cfiCond165) DPH0 Frame(CFA_SP, 9)
        CFI (cfiCond165) CFA_SP SP+-10
        CFI Block cfiCond166 Using cfiCommon1
        CFI (cfiCond166) NoFunction
        CFI (cfiCond166) Conditional ??CrossCallReturnLabel_108, ??CrossCallReturnLabel_96, ??CrossCallReturnLabel_83
        CFI (cfiCond166) A Frame(CFA_SP, 3)
        CFI (cfiCond166) PSW Frame(CFA_SP, 4)
        CFI (cfiCond166) R0 Frame(CFA_SP, 5)
        CFI (cfiCond166) R1 Frame(CFA_SP, 6)
        CFI (cfiCond166) R2 Frame(CFA_SP, 7)
        CFI (cfiCond166) DPL0 Frame(CFA_SP, 8)
        CFI (cfiCond166) DPH0 Frame(CFA_SP, 9)
        CFI (cfiCond166) CFA_SP SP+-10
        CFI Block cfiCond167 Using cfiCommon1
        CFI (cfiCond167) NoFunction
        CFI (cfiCond167) Conditional ??CrossCallReturnLabel_108, ??CrossCallReturnLabel_98, ??CrossCallReturnLabel_90
        CFI (cfiCond167) A Frame(CFA_SP, 3)
        CFI (cfiCond167) PSW Frame(CFA_SP, 4)
        CFI (cfiCond167) R0 Frame(CFA_SP, 5)
        CFI (cfiCond167) R1 Frame(CFA_SP, 6)
        CFI (cfiCond167) R2 Frame(CFA_SP, 7)
        CFI (cfiCond167) DPL0 Frame(CFA_SP, 8)
        CFI (cfiCond167) DPH0 Frame(CFA_SP, 9)
        CFI (cfiCond167) CFA_SP SP+-9
        CFI Block cfiCond168 Using cfiCommon1
        CFI (cfiCond168) NoFunction
        CFI (cfiCond168) Conditional ??CrossCallReturnLabel_108, ??CrossCallReturnLabel_98, ??CrossCallReturnLabel_91
        CFI (cfiCond168) A Frame(CFA_SP, 3)
        CFI (cfiCond168) PSW Frame(CFA_SP, 4)
        CFI (cfiCond168) R0 Frame(CFA_SP, 5)
        CFI (cfiCond168) R1 Frame(CFA_SP, 6)
        CFI (cfiCond168) R2 Frame(CFA_SP, 7)
        CFI (cfiCond168) DPL0 Frame(CFA_SP, 8)
        CFI (cfiCond168) DPH0 Frame(CFA_SP, 9)
        CFI (cfiCond168) CFA_SP SP+-9
        CFI Block cfiCond169 Using cfiCommon1
        CFI (cfiCond169) NoFunction
        CFI (cfiCond169) Conditional ??CrossCallReturnLabel_109, ??CrossCallReturnLabel_104, ??CrossCallReturnLabel_86
        CFI (cfiCond169) A Frame(CFA_SP, 3)
        CFI (cfiCond169) PSW Frame(CFA_SP, 4)
        CFI (cfiCond169) R0 Frame(CFA_SP, 5)
        CFI (cfiCond169) R1 Frame(CFA_SP, 6)
        CFI (cfiCond169) R2 Frame(CFA_SP, 7)
        CFI (cfiCond169) DPL0 Frame(CFA_SP, 8)
        CFI (cfiCond169) DPH0 Frame(CFA_SP, 9)
        CFI (cfiCond169) CFA_SP SP+-9
        CFI Block cfiCond170 Using cfiCommon1
        CFI (cfiCond170) NoFunction
        CFI (cfiCond170) Conditional ??CrossCallReturnLabel_109, ??CrossCallReturnLabel_104, ??CrossCallReturnLabel_87
        CFI (cfiCond170) A Frame(CFA_SP, 3)
        CFI (cfiCond170) PSW Frame(CFA_SP, 4)
        CFI (cfiCond170) R0 Frame(CFA_SP, 5)
        CFI (cfiCond170) R1 Frame(CFA_SP, 6)
        CFI (cfiCond170) R2 Frame(CFA_SP, 7)
        CFI (cfiCond170) DPL0 Frame(CFA_SP, 8)
        CFI (cfiCond170) DPH0 Frame(CFA_SP, 9)
        CFI (cfiCond170) CFA_SP SP+-9
        CFI Block cfiCond171 Using cfiCommon1
        CFI (cfiCond171) NoFunction
        CFI (cfiCond171) Conditional ??CrossCallReturnLabel_109, ??CrossCallReturnLabel_103, ??CrossCallReturnLabel_68
        CFI (cfiCond171) A Frame(CFA_SP, 3)
        CFI (cfiCond171) PSW Frame(CFA_SP, 4)
        CFI (cfiCond171) R0 Frame(CFA_SP, 5)
        CFI (cfiCond171) R1 Frame(CFA_SP, 6)
        CFI (cfiCond171) R2 Frame(CFA_SP, 7)
        CFI (cfiCond171) DPL0 Frame(CFA_SP, 8)
        CFI (cfiCond171) DPH0 Frame(CFA_SP, 9)
        CFI (cfiCond171) CFA_SP SP+-9
        CFI Block cfiCond172 Using cfiCommon1
        CFI (cfiCond172) NoFunction
        CFI (cfiCond172) Conditional ??CrossCallReturnLabel_109, ??CrossCallReturnLabel_103, ??CrossCallReturnLabel_69
        CFI (cfiCond172) A Frame(CFA_SP, 3)
        CFI (cfiCond172) PSW Frame(CFA_SP, 4)
        CFI (cfiCond172) R0 Frame(CFA_SP, 5)
        CFI (cfiCond172) R1 Frame(CFA_SP, 6)
        CFI (cfiCond172) R2 Frame(CFA_SP, 7)
        CFI (cfiCond172) DPL0 Frame(CFA_SP, 8)
        CFI (cfiCond172) DPH0 Frame(CFA_SP, 9)
        CFI (cfiCond172) CFA_SP SP+-9
        CFI Block cfiPicker173 Using cfiCommon1
        CFI (cfiPicker173) NoFunction
        CFI (cfiPicker173) Picker
        MOVX    A,@DPTR
        MOV     DPH,A
        MOV     DPL,R0
        INC     DPTR
        INC     DPTR
        RET
        CFI EndBlock cfiCond161
        CFI EndBlock cfiCond162
        CFI EndBlock cfiCond163
        CFI EndBlock cfiCond164
        CFI EndBlock cfiCond165
        CFI EndBlock cfiCond166
        CFI EndBlock cfiCond167
        CFI EndBlock cfiCond168
        CFI EndBlock cfiCond169
        CFI EndBlock cfiCond170
        CFI EndBlock cfiCond171
        CFI EndBlock cfiCond172
        CFI EndBlock cfiPicker173

        RSEG NEAR_CODE:CODE:NOROOT(0)
?Subroutine31:
        CFI Block cfiCond174 Using cfiCommon1
        CFI NoFunction
        CFI Conditional ??CrossCallReturnLabel_82
        CFI A Frame(CFA_SP, 3)
        CFI PSW Frame(CFA_SP, 4)
        CFI R0 Frame(CFA_SP, 5)
        CFI R1 Frame(CFA_SP, 6)
        CFI R2 Frame(CFA_SP, 7)
        CFI DPL0 Frame(CFA_SP, 8)
        CFI DPH0 Frame(CFA_SP, 9)
        CFI CFA_SP SP+-10
        CFI Block cfiCond175 Using cfiCommon1
        CFI (cfiCond175) NoFunction
        CFI (cfiCond175) Conditional ??CrossCallReturnLabel_83
        CFI (cfiCond175) A Frame(CFA_SP, 3)
        CFI (cfiCond175) PSW Frame(CFA_SP, 4)
        CFI (cfiCond175) R0 Frame(CFA_SP, 5)
        CFI (cfiCond175) R1 Frame(CFA_SP, 6)
        CFI (cfiCond175) R2 Frame(CFA_SP, 7)
        CFI (cfiCond175) DPL0 Frame(CFA_SP, 8)
        CFI (cfiCond175) DPH0 Frame(CFA_SP, 9)
        CFI (cfiCond175) CFA_SP SP+-10
        CFI Block cfiPicker176 Using cfiCommon1
        CFI (cfiPicker176) NoFunction
        CFI (cfiPicker176) Picker
        LCALL   ?Subroutine38
??CrossCallReturnLabel_96:
        MOV     R0,A
        RET
        CFI EndBlock cfiCond174
        CFI EndBlock cfiCond175
        CFI EndBlock cfiPicker176

        RSEG NEAR_CODE:CODE:NOROOT(0)
?Subroutine25:
        CFI Block cfiCond177 Using cfiCommon1
        CFI NoFunction
        CFI Conditional ??CrossCallReturnLabel_70
        CFI A Frame(CFA_SP, 3)
        CFI PSW Frame(CFA_SP, 4)
        CFI R0 Frame(CFA_SP, 5)
        CFI R1 Frame(CFA_SP, 6)
        CFI R2 Frame(CFA_SP, 7)
        CFI DPL0 Frame(CFA_SP, 8)
        CFI DPH0 Frame(CFA_SP, 9)
        CFI CFA_SP SP+-10
        CFI Block cfiCond178 Using cfiCommon1
        CFI (cfiCond178) NoFunction
        CFI (cfiCond178) Conditional ??CrossCallReturnLabel_71
        CFI (cfiCond178) A Frame(CFA_SP, 3)
        CFI (cfiCond178) PSW Frame(CFA_SP, 4)
        CFI (cfiCond178) R0 Frame(CFA_SP, 5)
        CFI (cfiCond178) R1 Frame(CFA_SP, 6)
        CFI (cfiCond178) R2 Frame(CFA_SP, 7)
        CFI (cfiCond178) DPL0 Frame(CFA_SP, 8)
        CFI (cfiCond178) DPH0 Frame(CFA_SP, 9)
        CFI (cfiCond178) CFA_SP SP+-10
        CFI Block cfiPicker179 Using cfiCommon1
        CFI (cfiPicker179) NoFunction
        CFI (cfiPicker179) Picker
        LCALL   ?Subroutine42
??CrossCallReturnLabel_106:
        LCALL   ?Subroutine40
??CrossCallReturnLabel_102:
        RET
        CFI EndBlock cfiCond177
        CFI EndBlock cfiCond178
        CFI EndBlock cfiPicker179

        RSEG NEAR_CODE:CODE:NOROOT(0)
?Subroutine40:
        CFI Block cfiCond180 Using cfiCommon1
        CFI NoFunction
        CFI Conditional ??CrossCallReturnLabel_102, ??CrossCallReturnLabel_70
        CFI A Frame(CFA_SP, 3)
        CFI PSW Frame(CFA_SP, 4)
        CFI R0 Frame(CFA_SP, 5)
        CFI R1 Frame(CFA_SP, 6)
        CFI R2 Frame(CFA_SP, 7)
        CFI DPL0 Frame(CFA_SP, 8)
        CFI DPH0 Frame(CFA_SP, 9)
        CFI CFA_SP SP+-10
        CFI Block cfiCond181 Using cfiCommon1
        CFI (cfiCond181) NoFunction
        CFI (cfiCond181) Conditional ??CrossCallReturnLabel_102, ??CrossCallReturnLabel_71
        CFI (cfiCond181) A Frame(CFA_SP, 3)
        CFI (cfiCond181) PSW Frame(CFA_SP, 4)
        CFI (cfiCond181) R0 Frame(CFA_SP, 5)
        CFI (cfiCond181) R1 Frame(CFA_SP, 6)
        CFI (cfiCond181) R2 Frame(CFA_SP, 7)
        CFI (cfiCond181) DPL0 Frame(CFA_SP, 8)
        CFI (cfiCond181) DPH0 Frame(CFA_SP, 9)
        CFI (cfiCond181) CFA_SP SP+-10
        CFI Block cfiCond182 Using cfiCommon1
        CFI (cfiCond182) NoFunction
        CFI (cfiCond182) Conditional ??CrossCallReturnLabel_101, ??CrossCallReturnLabel_66
        CFI (cfiCond182) A Frame(CFA_SP, 3)
        CFI (cfiCond182) PSW Frame(CFA_SP, 4)
        CFI (cfiCond182) R0 Frame(CFA_SP, 5)
        CFI (cfiCond182) R1 Frame(CFA_SP, 6)
        CFI (cfiCond182) R2 Frame(CFA_SP, 7)
        CFI (cfiCond182) DPL0 Frame(CFA_SP, 8)
        CFI (cfiCond182) DPH0 Frame(CFA_SP, 9)
        CFI (cfiCond182) CFA_SP SP+-9
        CFI Block cfiCond183 Using cfiCommon1
        CFI (cfiCond183) NoFunction
        CFI (cfiCond183) Conditional ??CrossCallReturnLabel_101, ??CrossCallReturnLabel_67
        CFI (cfiCond183) A Frame(CFA_SP, 3)
        CFI (cfiCond183) PSW Frame(CFA_SP, 4)
        CFI (cfiCond183) R0 Frame(CFA_SP, 5)
        CFI (cfiCond183) R1 Frame(CFA_SP, 6)
        CFI (cfiCond183) R2 Frame(CFA_SP, 7)
        CFI (cfiCond183) DPL0 Frame(CFA_SP, 8)
        CFI (cfiCond183) DPH0 Frame(CFA_SP, 9)
        CFI (cfiCond183) CFA_SP SP+-9
        CFI Block cfiPicker184 Using cfiCommon1
        CFI (cfiPicker184) NoFunction
        CFI (cfiPicker184) Picker
        MOVX    A,@DPTR
        ADD     A,R0
        MOV     R2,A
        INC     DPTR
        MOVX    A,@DPTR
        ADDC    A,#0x0
        MOV     DPL,R2
        MOV     DPH,A
        RET
        CFI EndBlock cfiCond180
        CFI EndBlock cfiCond181
        CFI EndBlock cfiCond182
        CFI EndBlock cfiCond183
        CFI EndBlock cfiPicker184
// 1193 #endif
// 1194 
// 1195 /***************************************************************************************************
// 1196  * @fn      halUart0TxIsr
// 1197  *
// 1198  * @brief   UART0 Transmit Interrupt
// 1199  *
// 1200  * @param   None
// 1201  *
// 1202  * @return  None
// 1203  ***************************************************************************************************/
// 1204 #if HAL_UART_0_ENABLE

        RSEG NEAR_CODE:CODE:NOROOT(0)
// 1205 HAL_ISR_FUNCTION( halUart0TxIsr, UTX0_VECTOR )
halUart0TxIsr:
        CFI Block cfiBlock185 Using cfiCommon1
        CFI Function halUart0TxIsr
// 1206 {
        PUSH    A
        CFI A Frame(CFA_SP, 3)
        CFI CFA_SP SP+-3
        PUSH    PSW
        CFI PSW Frame(CFA_SP, 4)
        CFI CFA_SP SP+-4
        MOV     A,R0
        CFI R0 A
        PUSH    A
        CFI R0 Frame(CFA_SP, 5)
        CFI CFA_SP SP+-5
        MOV     A,R1
        CFI R1 A
        PUSH    A
        CFI R1 Frame(CFA_SP, 6)
        CFI CFA_SP SP+-6
        MOV     A,R2
        CFI R2 A
        PUSH    A
        CFI R2 Frame(CFA_SP, 7)
        CFI CFA_SP SP+-7
        PUSH    DPL
        CFI DPL0 Frame(CFA_SP, 8)
        CFI CFA_SP SP+-8
        PUSH    DPH
        CFI DPH0 Frame(CFA_SP, 9)
        CFI CFA_SP SP+-9
        ; Saved register size: 7
        ; Auto size: 0
// 1207   UTX0IF = 0;
        CLR     0xe8.1
// 1208 
// 1209   if ( cfg0->txTail == cfg0->txMax )
        LCALL   ?Subroutine26
??CrossCallReturnLabel_72:
        LCALL   ?Subroutine28
??CrossCallReturnLabel_76:
        MOV     DPTR,#cfg0
        JNZ     ??halUart0TxIsr_0
// 1210   {
// 1211     cfg0->txTail = 0;
        LCALL   ?Subroutine30
??CrossCallReturnLabel_80:
        SJMP    ??CrossCallReturnLabel_78
// 1212   }
// 1213   else
// 1214   {
// 1215     cfg0->txTail++;
??halUart0TxIsr_0:
        LCALL   ?Subroutine29
??CrossCallReturnLabel_78:
        MOVX    @DPTR,A
// 1216   }
// 1217 
// 1218   if ( cfg0->txTail != cfg0->txHead )
        LCALL   ?Subroutine26
??CrossCallReturnLabel_73:
        LCALL   ?Subroutine24
??CrossCallReturnLabel_68:
        JZ      ??halUart0TxIsr_1
// 1219   {
// 1220     U0DBUF = cfg0->txBuf[cfg0->txTail];
        MOV     DPTR,#cfg0
        LCALL   ?Subroutine34
??CrossCallReturnLabel_88:
        MOV     DPTR,#cfg0
        LCALL   ?Subroutine23
??CrossCallReturnLabel_66:
        MOV     0xc1,A
        CFI EndBlock cfiBlock185
// 1221   }
// 1222 }
??halUart0TxIsr_1:
        REQUIRE ?Subroutine49
        REQUIRE U0DBUF
        REQUIRE _A_IRCON2
        ; // Fall through to label ?Subroutine49

        RSEG NEAR_CODE:CODE:NOROOT(0)
?Subroutine49:
        CFI Block cfiBlock186 Using cfiCommon1
        CFI NoFunction
        CFI CFA_SP SP+-9
        CFI A Frame(CFA_SP, 3)
        CFI PSW Frame(CFA_SP, 4)
        CFI DPL0 Frame(CFA_SP, 8)
        CFI DPH0 Frame(CFA_SP, 9)
        CFI R0 Frame(CFA_SP, 5)
        CFI R1 Frame(CFA_SP, 6)
        CFI R2 Frame(CFA_SP, 7)
        POP     DPH
        CFI CFA_SP SP+-8
        CFI DPH0 SameValue
        POP     DPL
        CFI CFA_SP SP+-7
        CFI DPL0 SameValue
        POP     A
        CFI CFA_SP SP+-6
        CFI R2 A
        MOV     R2,A
        CFI R2 SameValue
        POP     A
        CFI CFA_SP SP+-5
        CFI R1 A
        MOV     R1,A
        CFI R1 SameValue
        SJMP    ??Subroutine48_0
        CFI EndBlock cfiBlock186

        RSEG NEAR_CODE:CODE:NOROOT(0)
?Subroutine48:
        CFI Block cfiBlock187 Using cfiCommon1
        CFI NoFunction
        CFI CFA_SP SP+-9
        CFI A Frame(CFA_SP, 3)
        CFI PSW Frame(CFA_SP, 4)
        CFI DPL0 Frame(CFA_SP, 8)
        CFI DPH0 Frame(CFA_SP, 9)
        CFI R0 Frame(CFA_SP, 5)
        CFI R1 Frame(CFA_SP, 6)
        CFI R2 Frame(CFA_SP, 7)
        MOVX    @DPTR,A
        POP     DPH
        CFI CFA_SP SP+-8
        CFI DPH0 SameValue
        POP     DPL
        CFI CFA_SP SP+-7
        CFI DPL0 SameValue
        POP     A
        CFI CFA_SP SP+-6
        CFI R2 A
        MOV     R2,A
        CFI R2 SameValue
        POP     A
        CFI CFA_SP SP+-5
        CFI R1 A
        CFI Invalid
??Subroutine48_0:
        POP     A
        CFI CFA_SP SP+-4
        CFI R0 A
        MOV     R0,A
        CFI R0 SameValue
        POP     PSW
        CFI CFA_SP SP+-3
        CFI PSW SameValue
        POP     A
        CFI CFA_SP SP+-2
        CFI A SameValue
        RETI
        CFI EndBlock cfiBlock187

        RSEG NEAR_CODE:CODE:NOROOT(0)
?Subroutine26:
        CFI Block cfiCond188 Using cfiCommon1
        CFI NoFunction
        CFI Conditional ??CrossCallReturnLabel_72
        CFI A Frame(CFA_SP, 3)
        CFI PSW Frame(CFA_SP, 4)
        CFI R0 Frame(CFA_SP, 5)
        CFI R1 Frame(CFA_SP, 6)
        CFI R2 Frame(CFA_SP, 7)
        CFI DPL0 Frame(CFA_SP, 8)
        CFI DPH0 Frame(CFA_SP, 9)
        CFI CFA_SP SP+-9
        CFI Block cfiCond189 Using cfiCommon1
        CFI (cfiCond189) NoFunction
        CFI (cfiCond189) Conditional ??CrossCallReturnLabel_73
        CFI (cfiCond189) A Frame(CFA_SP, 3)
        CFI (cfiCond189) PSW Frame(CFA_SP, 4)
        CFI (cfiCond189) R0 Frame(CFA_SP, 5)
        CFI (cfiCond189) R1 Frame(CFA_SP, 6)
        CFI (cfiCond189) R2 Frame(CFA_SP, 7)
        CFI (cfiCond189) DPL0 Frame(CFA_SP, 8)
        CFI (cfiCond189) DPH0 Frame(CFA_SP, 9)
        CFI (cfiCond189) CFA_SP SP+-9
        CFI Block cfiPicker190 Using cfiCommon1
        CFI (cfiPicker190) NoFunction
        CFI (cfiPicker190) Picker
        MOV     DPTR,#cfg0
        LCALL   ?Subroutine37
??CrossCallReturnLabel_94:
        MOV     DPTR,#cfg0
        RET
        CFI EndBlock cfiCond188
        CFI EndBlock cfiCond189
        CFI EndBlock cfiPicker190
// 1223 #endif
// 1224 
// 1225 /***************************************************************************************************
// 1226  * @fn      halUart1TxIsr
// 1227  *
// 1228  * @brief   UART1 Transmit Interrupt
// 1229  *
// 1230  * @param   None
// 1231  *
// 1232  * @return  None
// 1233  ***************************************************************************************************/
// 1234 #if HAL_UART_1_ENABLE

        RSEG NEAR_CODE:CODE:NOROOT(0)
// 1235 HAL_ISR_FUNCTION( halUart1TxIsr, UTX1_VECTOR )
halUart1TxIsr:
        CFI Block cfiBlock191 Using cfiCommon1
        CFI Function halUart1TxIsr
// 1236 {
        PUSH    A
        CFI A Frame(CFA_SP, 3)
        CFI CFA_SP SP+-3
        PUSH    PSW
        CFI PSW Frame(CFA_SP, 4)
        CFI CFA_SP SP+-4
        MOV     A,R0
        CFI R0 A
        PUSH    A
        CFI R0 Frame(CFA_SP, 5)
        CFI CFA_SP SP+-5
        MOV     A,R1
        CFI R1 A
        PUSH    A
        CFI R1 Frame(CFA_SP, 6)
        CFI CFA_SP SP+-6
        MOV     A,R2
        CFI R2 A
        PUSH    A
        CFI R2 Frame(CFA_SP, 7)
        CFI CFA_SP SP+-7
        PUSH    DPL
        CFI DPL0 Frame(CFA_SP, 8)
        CFI CFA_SP SP+-8
        PUSH    DPH
        CFI DPH0 Frame(CFA_SP, 9)
        CFI CFA_SP SP+-9
        ; Saved register size: 7
        ; Auto size: 0
// 1237   UTX1IF = 0;
        CLR     0xe8.2
// 1238   U1CSR &= ~CSR_TX_BYTE;  // Rev-D does not require, older does.
        CLR     0xf8.1
// 1239 
// 1240   if ( cfg1->txTail == cfg1->txMax )
        LCALL   ?Subroutine27
??CrossCallReturnLabel_74:
        LCALL   ?Subroutine28
??CrossCallReturnLabel_77:
        MOV     DPTR,#cfg1
        JNZ     ??halUart1TxIsr_0
// 1241   {
// 1242     cfg1->txTail = 0;
        LCALL   ?Subroutine30
??CrossCallReturnLabel_81:
        SJMP    ??CrossCallReturnLabel_79
// 1243   }
// 1244   else
// 1245   {
// 1246     cfg1->txTail++;
??halUart1TxIsr_0:
        LCALL   ?Subroutine29
??CrossCallReturnLabel_79:
        MOVX    @DPTR,A
// 1247   }
// 1248 
// 1249   if ( cfg1->txTail != cfg1->txHead )
        LCALL   ?Subroutine27
??CrossCallReturnLabel_75:
        LCALL   ?Subroutine24
??CrossCallReturnLabel_69:
        JZ      ??halUart1TxIsr_1
// 1250   {
// 1251     U1DBUF = cfg1->txBuf[cfg1->txTail];
        MOV     DPTR,#cfg1
        LCALL   ?Subroutine34
??CrossCallReturnLabel_89:
        MOV     DPTR,#cfg1
        LCALL   ?Subroutine23
??CrossCallReturnLabel_67:
        MOV     0xf9,A
// 1252   }
// 1253 }
??halUart1TxIsr_1:
        SJMP    ?Subroutine49
        CFI EndBlock cfiBlock191
        REQUIRE _A_IRCON2
        REQUIRE _A_U1CSR
        REQUIRE U1DBUF

        RSEG NEAR_CODE:CODE:NOROOT(0)
?Subroutine34:
        CFI Block cfiCond192 Using cfiCommon1
        CFI NoFunction
        CFI Conditional ??CrossCallReturnLabel_88
        CFI A Frame(CFA_SP, 3)
        CFI PSW Frame(CFA_SP, 4)
        CFI R0 Frame(CFA_SP, 5)
        CFI R1 Frame(CFA_SP, 6)
        CFI R2 Frame(CFA_SP, 7)
        CFI DPL0 Frame(CFA_SP, 8)
        CFI DPH0 Frame(CFA_SP, 9)
        CFI CFA_SP SP+-9
        CFI Block cfiCond193 Using cfiCommon1
        CFI (cfiCond193) NoFunction
        CFI (cfiCond193) Conditional ??CrossCallReturnLabel_89
        CFI (cfiCond193) A Frame(CFA_SP, 3)
        CFI (cfiCond193) PSW Frame(CFA_SP, 4)
        CFI (cfiCond193) R0 Frame(CFA_SP, 5)
        CFI (cfiCond193) R1 Frame(CFA_SP, 6)
        CFI (cfiCond193) R2 Frame(CFA_SP, 7)
        CFI (cfiCond193) DPL0 Frame(CFA_SP, 8)
        CFI (cfiCond193) DPH0 Frame(CFA_SP, 9)
        CFI (cfiCond193) CFA_SP SP+-9
        CFI Block cfiPicker194 Using cfiCommon1
        CFI (cfiPicker194) NoFunction
        CFI (cfiPicker194) Picker
        MOVX    A,@DPTR
        ADD     A,#0xb
        MOV     R0,A
        MOV     DPL,R0
        MOV     DPH,R1
        MOVX    A,@DPTR
        MOV     R0,A
        RET
        CFI EndBlock cfiCond192
        CFI EndBlock cfiCond193
        CFI EndBlock cfiPicker194

        RSEG NEAR_CODE:CODE:NOROOT(0)
?Subroutine30:
        CFI Block cfiCond195 Using cfiCommon1
        CFI NoFunction
        CFI Conditional ??CrossCallReturnLabel_80
        CFI A Frame(CFA_SP, 3)
        CFI PSW Frame(CFA_SP, 4)
        CFI R0 Frame(CFA_SP, 5)
        CFI R1 Frame(CFA_SP, 6)
        CFI R2 Frame(CFA_SP, 7)
        CFI DPL0 Frame(CFA_SP, 8)
        CFI DPH0 Frame(CFA_SP, 9)
        CFI CFA_SP SP+-9
        CFI Block cfiCond196 Using cfiCommon1
        CFI (cfiCond196) NoFunction
        CFI (cfiCond196) Conditional ??CrossCallReturnLabel_81
        CFI (cfiCond196) A Frame(CFA_SP, 3)
        CFI (cfiCond196) PSW Frame(CFA_SP, 4)
        CFI (cfiCond196) R0 Frame(CFA_SP, 5)
        CFI (cfiCond196) R1 Frame(CFA_SP, 6)
        CFI (cfiCond196) R2 Frame(CFA_SP, 7)
        CFI (cfiCond196) DPL0 Frame(CFA_SP, 8)
        CFI (cfiCond196) DPH0 Frame(CFA_SP, 9)
        CFI (cfiCond196) CFA_SP SP+-9
        CFI Block cfiPicker197 Using cfiCommon1
        CFI (cfiPicker197) NoFunction
        CFI (cfiPicker197) Picker
        LCALL   ?Subroutine39
??CrossCallReturnLabel_100:
        CLR     A
        RET
        CFI EndBlock cfiCond195
        CFI EndBlock cfiCond196
        CFI EndBlock cfiPicker197

        RSEG NEAR_CODE:CODE:NOROOT(0)
?Subroutine29:
        CFI Block cfiCond198 Using cfiCommon1
        CFI NoFunction
        CFI Conditional ??CrossCallReturnLabel_78
        CFI A Frame(CFA_SP, 3)
        CFI PSW Frame(CFA_SP, 4)
        CFI R0 Frame(CFA_SP, 5)
        CFI R1 Frame(CFA_SP, 6)
        CFI R2 Frame(CFA_SP, 7)
        CFI DPL0 Frame(CFA_SP, 8)
        CFI DPH0 Frame(CFA_SP, 9)
        CFI CFA_SP SP+-9
        CFI Block cfiCond199 Using cfiCommon1
        CFI (cfiCond199) NoFunction
        CFI (cfiCond199) Conditional ??CrossCallReturnLabel_79
        CFI (cfiCond199) A Frame(CFA_SP, 3)
        CFI (cfiCond199) PSW Frame(CFA_SP, 4)
        CFI (cfiCond199) R0 Frame(CFA_SP, 5)
        CFI (cfiCond199) R1 Frame(CFA_SP, 6)
        CFI (cfiCond199) R2 Frame(CFA_SP, 7)
        CFI (cfiCond199) DPL0 Frame(CFA_SP, 8)
        CFI (cfiCond199) DPH0 Frame(CFA_SP, 9)
        CFI (cfiCond199) CFA_SP SP+-9
        CFI Block cfiPicker200 Using cfiCommon1
        CFI (cfiPicker200) NoFunction
        CFI (cfiPicker200) Picker
        LCALL   ?Subroutine39
??CrossCallReturnLabel_99:
        MOVX    A,@DPTR
        INC     A
        RET
        CFI EndBlock cfiCond198
        CFI EndBlock cfiCond199
        CFI EndBlock cfiPicker200

        RSEG NEAR_CODE:CODE:NOROOT(0)
?Subroutine39:
        CFI Block cfiCond201 Using cfiCommon1
        CFI NoFunction
        CFI Conditional ??CrossCallReturnLabel_100, ??CrossCallReturnLabel_80
        CFI A Frame(CFA_SP, 3)
        CFI PSW Frame(CFA_SP, 4)
        CFI R0 Frame(CFA_SP, 5)
        CFI R1 Frame(CFA_SP, 6)
        CFI R2 Frame(CFA_SP, 7)
        CFI DPL0 Frame(CFA_SP, 8)
        CFI DPH0 Frame(CFA_SP, 9)
        CFI CFA_SP SP+-9
        CFI Block cfiCond202 Using cfiCommon1
        CFI (cfiCond202) NoFunction
        CFI (cfiCond202) Conditional ??CrossCallReturnLabel_100, ??CrossCallReturnLabel_81
        CFI (cfiCond202) A Frame(CFA_SP, 3)
        CFI (cfiCond202) PSW Frame(CFA_SP, 4)
        CFI (cfiCond202) R0 Frame(CFA_SP, 5)
        CFI (cfiCond202) R1 Frame(CFA_SP, 6)
        CFI (cfiCond202) R2 Frame(CFA_SP, 7)
        CFI (cfiCond202) DPL0 Frame(CFA_SP, 8)
        CFI (cfiCond202) DPH0 Frame(CFA_SP, 9)
        CFI (cfiCond202) CFA_SP SP+-9
        CFI Block cfiCond203 Using cfiCommon1
        CFI (cfiCond203) NoFunction
        CFI (cfiCond203) Conditional ??CrossCallReturnLabel_99, ??CrossCallReturnLabel_78
        CFI (cfiCond203) A Frame(CFA_SP, 3)
        CFI (cfiCond203) PSW Frame(CFA_SP, 4)
        CFI (cfiCond203) R0 Frame(CFA_SP, 5)
        CFI (cfiCond203) R1 Frame(CFA_SP, 6)
        CFI (cfiCond203) R2 Frame(CFA_SP, 7)
        CFI (cfiCond203) DPL0 Frame(CFA_SP, 8)
        CFI (cfiCond203) DPH0 Frame(CFA_SP, 9)
        CFI (cfiCond203) CFA_SP SP+-9
        CFI Block cfiCond204 Using cfiCommon1
        CFI (cfiCond204) NoFunction
        CFI (cfiCond204) Conditional ??CrossCallReturnLabel_99, ??CrossCallReturnLabel_79
        CFI (cfiCond204) A Frame(CFA_SP, 3)
        CFI (cfiCond204) PSW Frame(CFA_SP, 4)
        CFI (cfiCond204) R0 Frame(CFA_SP, 5)
        CFI (cfiCond204) R1 Frame(CFA_SP, 6)
        CFI (cfiCond204) R2 Frame(CFA_SP, 7)
        CFI (cfiCond204) DPL0 Frame(CFA_SP, 8)
        CFI (cfiCond204) DPH0 Frame(CFA_SP, 9)
        CFI (cfiCond204) CFA_SP SP+-9
        CFI Block cfiPicker205 Using cfiCommon1
        CFI (cfiPicker205) NoFunction
        CFI (cfiPicker205) Picker
        MOVX    A,@DPTR
        ADD     A,#0xb
        DEC     R0
        LCALL   ?Subroutine45
??CrossCallReturnLabel_112:
        RET
        CFI EndBlock cfiCond201
        CFI EndBlock cfiCond202
        CFI EndBlock cfiCond203
        CFI EndBlock cfiCond204
        CFI EndBlock cfiPicker205

        RSEG NEAR_CODE:CODE:NOROOT(0)
?Subroutine45:
        CFI Block cfiCond206 Using cfiCommon1
        CFI NoFunction
        CFI Conditional ??CrossCallReturnLabel_112, ??CrossCallReturnLabel_100, ??CrossCallReturnLabel_80
        CFI A Frame(CFA_SP, 3)
        CFI PSW Frame(CFA_SP, 4)
        CFI R0 Frame(CFA_SP, 5)
        CFI R1 Frame(CFA_SP, 6)
        CFI R2 Frame(CFA_SP, 7)
        CFI DPL0 Frame(CFA_SP, 8)
        CFI DPH0 Frame(CFA_SP, 9)
        CFI CFA_SP SP+-9
        CFI Block cfiCond207 Using cfiCommon1
        CFI (cfiCond207) NoFunction
        CFI (cfiCond207) Conditional ??CrossCallReturnLabel_112, ??CrossCallReturnLabel_100, ??CrossCallReturnLabel_81
        CFI (cfiCond207) A Frame(CFA_SP, 3)
        CFI (cfiCond207) PSW Frame(CFA_SP, 4)
        CFI (cfiCond207) R0 Frame(CFA_SP, 5)
        CFI (cfiCond207) R1 Frame(CFA_SP, 6)
        CFI (cfiCond207) R2 Frame(CFA_SP, 7)
        CFI (cfiCond207) DPL0 Frame(CFA_SP, 8)
        CFI (cfiCond207) DPH0 Frame(CFA_SP, 9)
        CFI (cfiCond207) CFA_SP SP+-9
        CFI Block cfiCond208 Using cfiCommon1
        CFI (cfiCond208) NoFunction
        CFI (cfiCond208) Conditional ??CrossCallReturnLabel_112, ??CrossCallReturnLabel_99, ??CrossCallReturnLabel_78
        CFI (cfiCond208) A Frame(CFA_SP, 3)
        CFI (cfiCond208) PSW Frame(CFA_SP, 4)
        CFI (cfiCond208) R0 Frame(CFA_SP, 5)
        CFI (cfiCond208) R1 Frame(CFA_SP, 6)
        CFI (cfiCond208) R2 Frame(CFA_SP, 7)
        CFI (cfiCond208) DPL0 Frame(CFA_SP, 8)
        CFI (cfiCond208) DPH0 Frame(CFA_SP, 9)
        CFI (cfiCond208) CFA_SP SP+-9
        CFI Block cfiCond209 Using cfiCommon1
        CFI (cfiCond209) NoFunction
        CFI (cfiCond209) Conditional ??CrossCallReturnLabel_112, ??CrossCallReturnLabel_99, ??CrossCallReturnLabel_79
        CFI (cfiCond209) A Frame(CFA_SP, 3)
        CFI (cfiCond209) PSW Frame(CFA_SP, 4)
        CFI (cfiCond209) R0 Frame(CFA_SP, 5)
        CFI (cfiCond209) R1 Frame(CFA_SP, 6)
        CFI (cfiCond209) R2 Frame(CFA_SP, 7)
        CFI (cfiCond209) DPL0 Frame(CFA_SP, 8)
        CFI (cfiCond209) DPH0 Frame(CFA_SP, 9)
        CFI (cfiCond209) CFA_SP SP+-9
        CFI Block cfiCond210 Using cfiCommon1
        CFI (cfiCond210) NoFunction
        CFI (cfiCond210) Conditional ??CrossCallReturnLabel_113, ??CrossCallReturnLabel_110, ??CrossCallReturnLabel_76
        CFI (cfiCond210) A Frame(CFA_SP, 3)
        CFI (cfiCond210) PSW Frame(CFA_SP, 4)
        CFI (cfiCond210) R0 Frame(CFA_SP, 5)
        CFI (cfiCond210) R1 Frame(CFA_SP, 6)
        CFI (cfiCond210) R2 Frame(CFA_SP, 7)
        CFI (cfiCond210) DPL0 Frame(CFA_SP, 8)
        CFI (cfiCond210) DPH0 Frame(CFA_SP, 9)
        CFI (cfiCond210) CFA_SP SP+-9
        CFI Block cfiCond211 Using cfiCommon1
        CFI (cfiCond211) NoFunction
        CFI (cfiCond211) Conditional ??CrossCallReturnLabel_113, ??CrossCallReturnLabel_110, ??CrossCallReturnLabel_77
        CFI (cfiCond211) A Frame(CFA_SP, 3)
        CFI (cfiCond211) PSW Frame(CFA_SP, 4)
        CFI (cfiCond211) R0 Frame(CFA_SP, 5)
        CFI (cfiCond211) R1 Frame(CFA_SP, 6)
        CFI (cfiCond211) R2 Frame(CFA_SP, 7)
        CFI (cfiCond211) DPL0 Frame(CFA_SP, 8)
        CFI (cfiCond211) DPH0 Frame(CFA_SP, 9)
        CFI (cfiCond211) CFA_SP SP+-9
        CFI Block cfiCond212 Using cfiCommon1
        CFI (cfiCond212) NoFunction
        CFI (cfiCond212) Conditional ??CrossCallReturnLabel_113, ??CrossCallReturnLabel_111, ??CrossCallReturnLabel_94, ??CrossCallReturnLabel_72
        CFI (cfiCond212) A Frame(CFA_SP, 3)
        CFI (cfiCond212) PSW Frame(CFA_SP, 4)
        CFI (cfiCond212) R0 Frame(CFA_SP, 5)
        CFI (cfiCond212) R1 Frame(CFA_SP, 6)
        CFI (cfiCond212) R2 Frame(CFA_SP, 7)
        CFI (cfiCond212) DPL0 Frame(CFA_SP, 8)
        CFI (cfiCond212) DPH0 Frame(CFA_SP, 9)
        CFI (cfiCond212) CFA_SP SP+-9
        CFI Block cfiCond213 Using cfiCommon1
        CFI (cfiCond213) NoFunction
        CFI (cfiCond213) Conditional ??CrossCallReturnLabel_113, ??CrossCallReturnLabel_111, ??CrossCallReturnLabel_94, ??CrossCallReturnLabel_73
        CFI (cfiCond213) A Frame(CFA_SP, 3)
        CFI (cfiCond213) PSW Frame(CFA_SP, 4)
        CFI (cfiCond213) R0 Frame(CFA_SP, 5)
        CFI (cfiCond213) R1 Frame(CFA_SP, 6)
        CFI (cfiCond213) R2 Frame(CFA_SP, 7)
        CFI (cfiCond213) DPL0 Frame(CFA_SP, 8)
        CFI (cfiCond213) DPH0 Frame(CFA_SP, 9)
        CFI (cfiCond213) CFA_SP SP+-9
        CFI Block cfiCond214 Using cfiCommon1
        CFI (cfiCond214) NoFunction
        CFI (cfiCond214) Conditional ??CrossCallReturnLabel_113, ??CrossCallReturnLabel_111, ??CrossCallReturnLabel_95, ??CrossCallReturnLabel_74
        CFI (cfiCond214) A Frame(CFA_SP, 3)
        CFI (cfiCond214) PSW Frame(CFA_SP, 4)
        CFI (cfiCond214) R0 Frame(CFA_SP, 5)
        CFI (cfiCond214) R1 Frame(CFA_SP, 6)
        CFI (cfiCond214) R2 Frame(CFA_SP, 7)
        CFI (cfiCond214) DPL0 Frame(CFA_SP, 8)
        CFI (cfiCond214) DPH0 Frame(CFA_SP, 9)
        CFI (cfiCond214) CFA_SP SP+-9
        CFI Block cfiCond215 Using cfiCommon1
        CFI (cfiCond215) NoFunction
        CFI (cfiCond215) Conditional ??CrossCallReturnLabel_113, ??CrossCallReturnLabel_111, ??CrossCallReturnLabel_95, ??CrossCallReturnLabel_75
        CFI (cfiCond215) A Frame(CFA_SP, 3)
        CFI (cfiCond215) PSW Frame(CFA_SP, 4)
        CFI (cfiCond215) R0 Frame(CFA_SP, 5)
        CFI (cfiCond215) R1 Frame(CFA_SP, 6)
        CFI (cfiCond215) R2 Frame(CFA_SP, 7)
        CFI (cfiCond215) DPL0 Frame(CFA_SP, 8)
        CFI (cfiCond215) DPH0 Frame(CFA_SP, 9)
        CFI (cfiCond215) CFA_SP SP+-9
        CFI Block cfiPicker216 Using cfiCommon1
        CFI (cfiPicker216) NoFunction
        CFI (cfiPicker216) Picker
        INC     DPTR
        MOVX    A,@DPTR
        ADDC    A,#0x0
        MOV     R1,A
        MOV     DPL,R0
        MOV     DPH,R1
        RET
        CFI EndBlock cfiCond206
        CFI EndBlock cfiCond207
        CFI EndBlock cfiCond208
        CFI EndBlock cfiCond209
        CFI EndBlock cfiCond210
        CFI EndBlock cfiCond211
        CFI EndBlock cfiCond212
        CFI EndBlock cfiCond213
        CFI EndBlock cfiCond214
        CFI EndBlock cfiCond215
        CFI EndBlock cfiPicker216

        RSEG NEAR_CODE:CODE:NOROOT(0)
?Subroutine28:
        CFI Block cfiCond217 Using cfiCommon1
        CFI NoFunction
        CFI Conditional ??CrossCallReturnLabel_76
        CFI A Frame(CFA_SP, 3)
        CFI PSW Frame(CFA_SP, 4)
        CFI R0 Frame(CFA_SP, 5)
        CFI R1 Frame(CFA_SP, 6)
        CFI R2 Frame(CFA_SP, 7)
        CFI DPL0 Frame(CFA_SP, 8)
        CFI DPH0 Frame(CFA_SP, 9)
        CFI CFA_SP SP+-9
        CFI Block cfiCond218 Using cfiCommon1
        CFI (cfiCond218) NoFunction
        CFI (cfiCond218) Conditional ??CrossCallReturnLabel_77
        CFI (cfiCond218) A Frame(CFA_SP, 3)
        CFI (cfiCond218) PSW Frame(CFA_SP, 4)
        CFI (cfiCond218) R0 Frame(CFA_SP, 5)
        CFI (cfiCond218) R1 Frame(CFA_SP, 6)
        CFI (cfiCond218) R2 Frame(CFA_SP, 7)
        CFI (cfiCond218) DPL0 Frame(CFA_SP, 8)
        CFI (cfiCond218) DPH0 Frame(CFA_SP, 9)
        CFI (cfiCond218) CFA_SP SP+-9
        CFI Block cfiPicker219 Using cfiCommon1
        CFI (cfiPicker219) NoFunction
        CFI (cfiPicker219) Picker
        MOVX    A,@DPTR
        ADD     A,#0xc
        INC     R0
        LCALL   ?Subroutine44
??CrossCallReturnLabel_110:
        XRL     A,R2
        RET
        CFI EndBlock cfiCond217
        CFI EndBlock cfiCond218
        CFI EndBlock cfiPicker219

        RSEG NEAR_CODE:CODE:NOROOT(0)
?Subroutine27:
        CFI Block cfiCond220 Using cfiCommon1
        CFI NoFunction
        CFI Conditional ??CrossCallReturnLabel_74
        CFI A Frame(CFA_SP, 3)
        CFI PSW Frame(CFA_SP, 4)
        CFI R0 Frame(CFA_SP, 5)
        CFI R1 Frame(CFA_SP, 6)
        CFI R2 Frame(CFA_SP, 7)
        CFI DPL0 Frame(CFA_SP, 8)
        CFI DPH0 Frame(CFA_SP, 9)
        CFI CFA_SP SP+-9
        CFI Block cfiCond221 Using cfiCommon1
        CFI (cfiCond221) NoFunction
        CFI (cfiCond221) Conditional ??CrossCallReturnLabel_75
        CFI (cfiCond221) A Frame(CFA_SP, 3)
        CFI (cfiCond221) PSW Frame(CFA_SP, 4)
        CFI (cfiCond221) R0 Frame(CFA_SP, 5)
        CFI (cfiCond221) R1 Frame(CFA_SP, 6)
        CFI (cfiCond221) R2 Frame(CFA_SP, 7)
        CFI (cfiCond221) DPL0 Frame(CFA_SP, 8)
        CFI (cfiCond221) DPH0 Frame(CFA_SP, 9)
        CFI (cfiCond221) CFA_SP SP+-9
        CFI Block cfiPicker222 Using cfiCommon1
        CFI (cfiPicker222) NoFunction
        CFI (cfiPicker222) Picker
        MOV     DPTR,#cfg1
        LCALL   ?Subroutine37
??CrossCallReturnLabel_95:
        MOV     DPTR,#cfg1
        RET
        CFI EndBlock cfiCond220
        CFI EndBlock cfiCond221
        CFI EndBlock cfiPicker222

        RSEG NEAR_CODE:CODE:NOROOT(0)
?Subroutine37:
        CFI Block cfiCond223 Using cfiCommon1
        CFI NoFunction
        CFI Conditional ??CrossCallReturnLabel_94, ??CrossCallReturnLabel_72
        CFI A Frame(CFA_SP, 3)
        CFI PSW Frame(CFA_SP, 4)
        CFI R0 Frame(CFA_SP, 5)
        CFI R1 Frame(CFA_SP, 6)
        CFI R2 Frame(CFA_SP, 7)
        CFI DPL0 Frame(CFA_SP, 8)
        CFI DPH0 Frame(CFA_SP, 9)
        CFI CFA_SP SP+-9
        CFI Block cfiCond224 Using cfiCommon1
        CFI (cfiCond224) NoFunction
        CFI (cfiCond224) Conditional ??CrossCallReturnLabel_94, ??CrossCallReturnLabel_73
        CFI (cfiCond224) A Frame(CFA_SP, 3)
        CFI (cfiCond224) PSW Frame(CFA_SP, 4)
        CFI (cfiCond224) R0 Frame(CFA_SP, 5)
        CFI (cfiCond224) R1 Frame(CFA_SP, 6)
        CFI (cfiCond224) R2 Frame(CFA_SP, 7)
        CFI (cfiCond224) DPL0 Frame(CFA_SP, 8)
        CFI (cfiCond224) DPH0 Frame(CFA_SP, 9)
        CFI (cfiCond224) CFA_SP SP+-9
        CFI Block cfiCond225 Using cfiCommon1
        CFI (cfiCond225) NoFunction
        CFI (cfiCond225) Conditional ??CrossCallReturnLabel_95, ??CrossCallReturnLabel_74
        CFI (cfiCond225) A Frame(CFA_SP, 3)
        CFI (cfiCond225) PSW Frame(CFA_SP, 4)
        CFI (cfiCond225) R0 Frame(CFA_SP, 5)
        CFI (cfiCond225) R1 Frame(CFA_SP, 6)
        CFI (cfiCond225) R2 Frame(CFA_SP, 7)
        CFI (cfiCond225) DPL0 Frame(CFA_SP, 8)
        CFI (cfiCond225) DPH0 Frame(CFA_SP, 9)
        CFI (cfiCond225) CFA_SP SP+-9
        CFI Block cfiCond226 Using cfiCommon1
        CFI (cfiCond226) NoFunction
        CFI (cfiCond226) Conditional ??CrossCallReturnLabel_95, ??CrossCallReturnLabel_75
        CFI (cfiCond226) A Frame(CFA_SP, 3)
        CFI (cfiCond226) PSW Frame(CFA_SP, 4)
        CFI (cfiCond226) R0 Frame(CFA_SP, 5)
        CFI (cfiCond226) R1 Frame(CFA_SP, 6)
        CFI (cfiCond226) R2 Frame(CFA_SP, 7)
        CFI (cfiCond226) DPL0 Frame(CFA_SP, 8)
        CFI (cfiCond226) DPH0 Frame(CFA_SP, 9)
        CFI (cfiCond226) CFA_SP SP+-9
        CFI Block cfiPicker227 Using cfiCommon1
        CFI (cfiPicker227) NoFunction
        CFI (cfiPicker227) Picker
        MOVX    A,@DPTR
        ADD     A,#0xb
        MOV     R0,A
        LCALL   ?Subroutine44
??CrossCallReturnLabel_111:
        MOV     R2,A
        RET
        CFI EndBlock cfiCond223
        CFI EndBlock cfiCond224
        CFI EndBlock cfiCond225
        CFI EndBlock cfiCond226
        CFI EndBlock cfiPicker227

        RSEG NEAR_CODE:CODE:NOROOT(0)
?Subroutine44:
        CFI Block cfiCond228 Using cfiCommon1
        CFI NoFunction
        CFI Conditional ??CrossCallReturnLabel_110, ??CrossCallReturnLabel_76
        CFI A Frame(CFA_SP, 3)
        CFI PSW Frame(CFA_SP, 4)
        CFI R0 Frame(CFA_SP, 5)
        CFI R1 Frame(CFA_SP, 6)
        CFI R2 Frame(CFA_SP, 7)
        CFI DPL0 Frame(CFA_SP, 8)
        CFI DPH0 Frame(CFA_SP, 9)
        CFI CFA_SP SP+-9
        CFI Block cfiCond229 Using cfiCommon1
        CFI (cfiCond229) NoFunction
        CFI (cfiCond229) Conditional ??CrossCallReturnLabel_110, ??CrossCallReturnLabel_77
        CFI (cfiCond229) A Frame(CFA_SP, 3)
        CFI (cfiCond229) PSW Frame(CFA_SP, 4)
        CFI (cfiCond229) R0 Frame(CFA_SP, 5)
        CFI (cfiCond229) R1 Frame(CFA_SP, 6)
        CFI (cfiCond229) R2 Frame(CFA_SP, 7)
        CFI (cfiCond229) DPL0 Frame(CFA_SP, 8)
        CFI (cfiCond229) DPH0 Frame(CFA_SP, 9)
        CFI (cfiCond229) CFA_SP SP+-9
        CFI Block cfiCond230 Using cfiCommon1
        CFI (cfiCond230) NoFunction
        CFI (cfiCond230) Conditional ??CrossCallReturnLabel_111, ??CrossCallReturnLabel_94, ??CrossCallReturnLabel_72
        CFI (cfiCond230) A Frame(CFA_SP, 3)
        CFI (cfiCond230) PSW Frame(CFA_SP, 4)
        CFI (cfiCond230) R0 Frame(CFA_SP, 5)
        CFI (cfiCond230) R1 Frame(CFA_SP, 6)
        CFI (cfiCond230) R2 Frame(CFA_SP, 7)
        CFI (cfiCond230) DPL0 Frame(CFA_SP, 8)
        CFI (cfiCond230) DPH0 Frame(CFA_SP, 9)
        CFI (cfiCond230) CFA_SP SP+-9
        CFI Block cfiCond231 Using cfiCommon1
        CFI (cfiCond231) NoFunction
        CFI (cfiCond231) Conditional ??CrossCallReturnLabel_111, ??CrossCallReturnLabel_94, ??CrossCallReturnLabel_73
        CFI (cfiCond231) A Frame(CFA_SP, 3)
        CFI (cfiCond231) PSW Frame(CFA_SP, 4)
        CFI (cfiCond231) R0 Frame(CFA_SP, 5)
        CFI (cfiCond231) R1 Frame(CFA_SP, 6)
        CFI (cfiCond231) R2 Frame(CFA_SP, 7)
        CFI (cfiCond231) DPL0 Frame(CFA_SP, 8)
        CFI (cfiCond231) DPH0 Frame(CFA_SP, 9)
        CFI (cfiCond231) CFA_SP SP+-9
        CFI Block cfiCond232 Using cfiCommon1
        CFI (cfiCond232) NoFunction
        CFI (cfiCond232) Conditional ??CrossCallReturnLabel_111, ??CrossCallReturnLabel_95, ??CrossCallReturnLabel_74
        CFI (cfiCond232) A Frame(CFA_SP, 3)
        CFI (cfiCond232) PSW Frame(CFA_SP, 4)
        CFI (cfiCond232) R0 Frame(CFA_SP, 5)
        CFI (cfiCond232) R1 Frame(CFA_SP, 6)
        CFI (cfiCond232) R2 Frame(CFA_SP, 7)
        CFI (cfiCond232) DPL0 Frame(CFA_SP, 8)
        CFI (cfiCond232) DPH0 Frame(CFA_SP, 9)
        CFI (cfiCond232) CFA_SP SP+-9
        CFI Block cfiCond233 Using cfiCommon1
        CFI (cfiCond233) NoFunction
        CFI (cfiCond233) Conditional ??CrossCallReturnLabel_111, ??CrossCallReturnLabel_95, ??CrossCallReturnLabel_75
        CFI (cfiCond233) A Frame(CFA_SP, 3)
        CFI (cfiCond233) PSW Frame(CFA_SP, 4)
        CFI (cfiCond233) R0 Frame(CFA_SP, 5)
        CFI (cfiCond233) R1 Frame(CFA_SP, 6)
        CFI (cfiCond233) R2 Frame(CFA_SP, 7)
        CFI (cfiCond233) DPL0 Frame(CFA_SP, 8)
        CFI (cfiCond233) DPH0 Frame(CFA_SP, 9)
        CFI (cfiCond233) CFA_SP SP+-9
        CFI Block cfiPicker234 Using cfiCommon1
        CFI (cfiPicker234) NoFunction
        CFI (cfiPicker234) Picker
        LCALL   ?Subroutine45
??CrossCallReturnLabel_113:
        MOVX    A,@DPTR
        RET
        CFI EndBlock cfiCond228
        CFI EndBlock cfiCond229
        CFI EndBlock cfiCond230
        CFI EndBlock cfiCond231
        CFI EndBlock cfiCond232
        CFI EndBlock cfiCond233
        CFI EndBlock cfiPicker234

        RSEG NEAR_CODE:CODE:NOROOT(0)
?Subroutine24:
        CFI Block cfiCond235 Using cfiCommon1
        CFI NoFunction
        CFI Conditional ??CrossCallReturnLabel_68
        CFI A Frame(CFA_SP, 3)
        CFI PSW Frame(CFA_SP, 4)
        CFI R0 Frame(CFA_SP, 5)
        CFI R1 Frame(CFA_SP, 6)
        CFI R2 Frame(CFA_SP, 7)
        CFI DPL0 Frame(CFA_SP, 8)
        CFI DPH0 Frame(CFA_SP, 9)
        CFI CFA_SP SP+-9
        CFI Block cfiCond236 Using cfiCommon1
        CFI (cfiCond236) NoFunction
        CFI (cfiCond236) Conditional ??CrossCallReturnLabel_69
        CFI (cfiCond236) A Frame(CFA_SP, 3)
        CFI (cfiCond236) PSW Frame(CFA_SP, 4)
        CFI (cfiCond236) R0 Frame(CFA_SP, 5)
        CFI (cfiCond236) R1 Frame(CFA_SP, 6)
        CFI (cfiCond236) R2 Frame(CFA_SP, 7)
        CFI (cfiCond236) DPL0 Frame(CFA_SP, 8)
        CFI (cfiCond236) DPH0 Frame(CFA_SP, 9)
        CFI (cfiCond236) CFA_SP SP+-9
        CFI Block cfiPicker237 Using cfiCommon1
        CFI (cfiPicker237) NoFunction
        CFI (cfiPicker237) Picker
        MOVX    A,@DPTR
        MOV     R0,A
        INC     DPTR
        LCALL   ?Subroutine41
??CrossCallReturnLabel_103:
        INC     DPTR
        INC     DPTR
        INC     DPTR
        INC     DPTR
        INC     DPTR
        INC     DPTR
        MOVX    A,@DPTR
        XRL     A,R2
        RET
        CFI EndBlock cfiCond235
        CFI EndBlock cfiCond236
        CFI EndBlock cfiPicker237

        RSEG NEAR_CODE:CODE:NOROOT(0)
?Subroutine41:
        CFI Block cfiCond238 Using cfiCommon1
        CFI NoFunction
        CFI Conditional ??CrossCallReturnLabel_104, ??CrossCallReturnLabel_86
        CFI A Frame(CFA_SP, 3)
        CFI PSW Frame(CFA_SP, 4)
        CFI R0 Frame(CFA_SP, 5)
        CFI R1 Frame(CFA_SP, 6)
        CFI R2 Frame(CFA_SP, 7)
        CFI DPL0 Frame(CFA_SP, 8)
        CFI DPH0 Frame(CFA_SP, 9)
        CFI CFA_SP SP+-9
        CFI Block cfiCond239 Using cfiCommon1
        CFI (cfiCond239) NoFunction
        CFI (cfiCond239) Conditional ??CrossCallReturnLabel_104, ??CrossCallReturnLabel_87
        CFI (cfiCond239) A Frame(CFA_SP, 3)
        CFI (cfiCond239) PSW Frame(CFA_SP, 4)
        CFI (cfiCond239) R0 Frame(CFA_SP, 5)
        CFI (cfiCond239) R1 Frame(CFA_SP, 6)
        CFI (cfiCond239) R2 Frame(CFA_SP, 7)
        CFI (cfiCond239) DPL0 Frame(CFA_SP, 8)
        CFI (cfiCond239) DPH0 Frame(CFA_SP, 9)
        CFI (cfiCond239) CFA_SP SP+-9
        CFI Block cfiCond240 Using cfiCommon1
        CFI (cfiCond240) NoFunction
        CFI (cfiCond240) Conditional ??CrossCallReturnLabel_103, ??CrossCallReturnLabel_68
        CFI (cfiCond240) A Frame(CFA_SP, 3)
        CFI (cfiCond240) PSW Frame(CFA_SP, 4)
        CFI (cfiCond240) R0 Frame(CFA_SP, 5)
        CFI (cfiCond240) R1 Frame(CFA_SP, 6)
        CFI (cfiCond240) R2 Frame(CFA_SP, 7)
        CFI (cfiCond240) DPL0 Frame(CFA_SP, 8)
        CFI (cfiCond240) DPH0 Frame(CFA_SP, 9)
        CFI (cfiCond240) CFA_SP SP+-9
        CFI Block cfiCond241 Using cfiCommon1
        CFI (cfiCond241) NoFunction
        CFI (cfiCond241) Conditional ??CrossCallReturnLabel_103, ??CrossCallReturnLabel_69
        CFI (cfiCond241) A Frame(CFA_SP, 3)
        CFI (cfiCond241) PSW Frame(CFA_SP, 4)
        CFI (cfiCond241) R0 Frame(CFA_SP, 5)
        CFI (cfiCond241) R1 Frame(CFA_SP, 6)
        CFI (cfiCond241) R2 Frame(CFA_SP, 7)
        CFI (cfiCond241) DPL0 Frame(CFA_SP, 8)
        CFI (cfiCond241) DPH0 Frame(CFA_SP, 9)
        CFI (cfiCond241) CFA_SP SP+-9
        CFI Block cfiPicker242 Using cfiCommon1
        CFI (cfiPicker242) NoFunction
        CFI (cfiPicker242) Picker
        LCALL   ?Subroutine43
??CrossCallReturnLabel_109:
        INC     DPTR
        INC     DPTR
        RET
        CFI EndBlock cfiCond238
        CFI EndBlock cfiCond239
        CFI EndBlock cfiCond240
        CFI EndBlock cfiCond241
        CFI EndBlock cfiPicker242

        RSEG NEAR_CODE:CODE:NOROOT(0)
?Subroutine23:
        CFI Block cfiCond243 Using cfiCommon1
        CFI NoFunction
        CFI Conditional ??CrossCallReturnLabel_66
        CFI A Frame(CFA_SP, 3)
        CFI PSW Frame(CFA_SP, 4)
        CFI R0 Frame(CFA_SP, 5)
        CFI R1 Frame(CFA_SP, 6)
        CFI R2 Frame(CFA_SP, 7)
        CFI DPL0 Frame(CFA_SP, 8)
        CFI DPH0 Frame(CFA_SP, 9)
        CFI CFA_SP SP+-9
        CFI Block cfiCond244 Using cfiCommon1
        CFI (cfiCond244) NoFunction
        CFI (cfiCond244) Conditional ??CrossCallReturnLabel_67
        CFI (cfiCond244) A Frame(CFA_SP, 3)
        CFI (cfiCond244) PSW Frame(CFA_SP, 4)
        CFI (cfiCond244) R0 Frame(CFA_SP, 5)
        CFI (cfiCond244) R1 Frame(CFA_SP, 6)
        CFI (cfiCond244) R2 Frame(CFA_SP, 7)
        CFI (cfiCond244) DPL0 Frame(CFA_SP, 8)
        CFI (cfiCond244) DPH0 Frame(CFA_SP, 9)
        CFI (cfiCond244) CFA_SP SP+-9
        CFI Block cfiPicker245 Using cfiCommon1
        CFI (cfiPicker245) NoFunction
        CFI (cfiPicker245) Picker
        LCALL   ?Subroutine42
??CrossCallReturnLabel_105:
        INC     DPTR
        INC     DPTR
        INC     DPTR
        INC     DPTR
        INC     DPTR
        INC     DPTR
        INC     DPTR
        INC     DPTR
        LCALL   ?Subroutine40
??CrossCallReturnLabel_101:
        MOVX    A,@DPTR
        RET
        CFI EndBlock cfiCond243
        CFI EndBlock cfiCond244
        CFI EndBlock cfiPicker245

        RSEG NEAR_CODE:CODE:NOROOT(0)
?Subroutine42:
        CFI Block cfiCond246 Using cfiCommon1
        CFI NoFunction
        CFI Conditional ??CrossCallReturnLabel_106, ??CrossCallReturnLabel_70
        CFI A Frame(CFA_SP, 3)
        CFI PSW Frame(CFA_SP, 4)
        CFI R0 Frame(CFA_SP, 5)
        CFI R1 Frame(CFA_SP, 6)
        CFI R2 Frame(CFA_SP, 7)
        CFI DPL0 Frame(CFA_SP, 8)
        CFI DPH0 Frame(CFA_SP, 9)
        CFI CFA_SP SP+-10
        CFI Block cfiCond247 Using cfiCommon1
        CFI (cfiCond247) NoFunction
        CFI (cfiCond247) Conditional ??CrossCallReturnLabel_106, ??CrossCallReturnLabel_71
        CFI (cfiCond247) A Frame(CFA_SP, 3)
        CFI (cfiCond247) PSW Frame(CFA_SP, 4)
        CFI (cfiCond247) R0 Frame(CFA_SP, 5)
        CFI (cfiCond247) R1 Frame(CFA_SP, 6)
        CFI (cfiCond247) R2 Frame(CFA_SP, 7)
        CFI (cfiCond247) DPL0 Frame(CFA_SP, 8)
        CFI (cfiCond247) DPH0 Frame(CFA_SP, 9)
        CFI (cfiCond247) CFA_SP SP+-10
        CFI Block cfiCond248 Using cfiCommon1
        CFI (cfiCond248) NoFunction
        CFI (cfiCond248) Conditional ??CrossCallReturnLabel_105, ??CrossCallReturnLabel_66
        CFI (cfiCond248) A Frame(CFA_SP, 3)
        CFI (cfiCond248) PSW Frame(CFA_SP, 4)
        CFI (cfiCond248) R0 Frame(CFA_SP, 5)
        CFI (cfiCond248) R1 Frame(CFA_SP, 6)
        CFI (cfiCond248) R2 Frame(CFA_SP, 7)
        CFI (cfiCond248) DPL0 Frame(CFA_SP, 8)
        CFI (cfiCond248) DPH0 Frame(CFA_SP, 9)
        CFI (cfiCond248) CFA_SP SP+-9
        CFI Block cfiCond249 Using cfiCommon1
        CFI (cfiCond249) NoFunction
        CFI (cfiCond249) Conditional ??CrossCallReturnLabel_105, ??CrossCallReturnLabel_67
        CFI (cfiCond249) A Frame(CFA_SP, 3)
        CFI (cfiCond249) PSW Frame(CFA_SP, 4)
        CFI (cfiCond249) R0 Frame(CFA_SP, 5)
        CFI (cfiCond249) R1 Frame(CFA_SP, 6)
        CFI (cfiCond249) R2 Frame(CFA_SP, 7)
        CFI (cfiCond249) DPL0 Frame(CFA_SP, 8)
        CFI (cfiCond249) DPH0 Frame(CFA_SP, 9)
        CFI (cfiCond249) CFA_SP SP+-9
        CFI Block cfiPicker250 Using cfiCommon1
        CFI (cfiPicker250) NoFunction
        CFI (cfiPicker250) Picker
        MOVX    A,@DPTR
        MOV     R2,A
        INC     DPTR
        MOVX    A,@DPTR
        MOV     DPH,A
        MOV     DPL,R2
        RET
        CFI EndBlock cfiCond246
        CFI EndBlock cfiCond247
        CFI EndBlock cfiCond248
        CFI EndBlock cfiCond249
        CFI EndBlock cfiPicker250

        COMMON INTVEC:CODE:ROOT(0)
        ORG 19
`??halUart0RxIsr??INTVEC 19`:
        LJMP       (halUart0RxIsr)

        COMMON INTVEC:CODE:ROOT(0)
        ORG 27
`??halUart1RxIsr??INTVEC 27`:
        LJMP       (halUart1RxIsr)

        COMMON INTVEC:CODE:ROOT(0)
        ORG 59
`??halUart0TxIsr??INTVEC 59`:
        LJMP       (halUart0TxIsr)

        COMMON INTVEC:CODE:ROOT(0)
        ORG 115
`??halUart1TxIsr??INTVEC 115`:
        LJMP       (halUart1TxIsr)

        RSEG BANK_RELAYS:CODE:REORDER:NOROOT(0)
??pollISR?relay:
        LCALL   ?BDISPATCH
        DATA
        DC24    pollISR

        RSEG BANK_RELAYS:CODE:REORDER:NOROOT(0)
??HalUARTInit?relay:
        LCALL   ?BDISPATCH
        DATA
        DC24    HalUARTInit

        RSEG BANK_RELAYS:CODE:REORDER:NOROOT(0)
??HalUARTOpen?relay:
        LCALL   ?BDISPATCH
        DATA
        DC24    HalUARTOpen

        RSEG BANK_RELAYS:CODE:REORDER:NOROOT(0)
??HalUARTClose?relay:
        LCALL   ?BDISPATCH
        DATA
        DC24    HalUARTClose

        RSEG BANK_RELAYS:CODE:REORDER:NOROOT(0)
??HalUARTPoll?relay:
        LCALL   ?BDISPATCH
        DATA
        DC24    HalUARTPoll

        RSEG BANK_RELAYS:CODE:REORDER:NOROOT(0)
??Hal_UART_RxBufLen?relay:
        LCALL   ?BDISPATCH
        DATA
        DC24    Hal_UART_RxBufLen

        RSEG BANK_RELAYS:CODE:REORDER:NOROOT(0)
??HalUARTRead?relay:
        LCALL   ?BDISPATCH
        DATA
        DC24    HalUARTRead

        RSEG BANK_RELAYS:CODE:REORDER:NOROOT(0)
??HalUARTWrite?relay:
        LCALL   ?BDISPATCH
        DATA
        DC24    HalUARTWrite

        END
// 1254 #endif
// 1255 #endif
// 1256 
// 1257 /******************************************************************************
// 1258 ******************************************************************************/
// 
// 2 037 bytes in segment BANKED_CODE
//    48 bytes in segment BANK_RELAYS
//    12 bytes in segment INTVEC
//   474 bytes in segment NEAR_CODE
//    23 bytes in segment SFR_AN
//     5 bytes in segment XDATA_Z
// 
// 2 559 bytes of CODE  memory (+ 12 bytes shared)
//     0 bytes of DATA  memory (+ 23 bytes shared)
//     5 bytes of XDATA memory
//
//Errors: none
//Warnings: none
