///////////////////////////////////////////////////////////////////////////////
//                                                                            /
// IAR 8051 C/C++ Compiler V7.30B/W32                   20/Oct/2014  18:36:27 /
// Copyright 2004-2007 IAR Systems. All rights reserved.                      /
//                                                                            /
//    Core               =  plain                                             /
//    Code model         =  banked                                            /
//    Data model         =  large                                             /
//    Calling convention =  xdata reentrant                                   /
//    Constant location  =  data                                              /
//    Dptr setup         =  1,16                                              /
//    Source file        =  C:\8-22\0最新有用\修改中2013.8.12Texas            /
//                          Instruments longmenshan\ZStack-1.4.3-1.2.1\Projec /
//                          ts\zstack\Samples\network                         /
//                          formaton\Source\p2p_test.c                        /
//    Command line       =  -f "C:\8-22\0最新有用\修改中2013.8.12Texas        /
//                          Instruments longmenshan\ZStack-1.4.3-1.2.1\Projec /
//                          ts\zstack\Samples\network                         /
//                          formaton\CC2430DB\..\..\..\Tools\CC2430DB\f8wCoor /
//                          d.cfg" (-DCPU32MHZ -DFORCE_MAC_NEAR               /
//                          -DROOT=__near_func -DMAC_CFG_APP_PENDING_QUEUE=TR /
//                          UE -DZDO_COORDINATOR -DRTR_NWK -DBLINK_LEDS       /
//                          "-DCONST=const __code" -DGENERIC=__generic) -f    /
//                          "C:\8-22\0最新有用\修改中2013.8.12Texas           /
//                          Instruments longmenshan\ZStack-1.4.3-1.2.1\Projec /
//                          ts\zstack\Samples\network                         /
//                          formaton\CC2430DB\..\..\..\Tools\CC2430DB\f8wConf /
//                          ig.cfg" (-DSECURE=0 -DDEFAULT_CHANLIST=0x00000800 /
//                           -DZDAPP_CONFIG_PAN_ID=0x1234                     /
//                          -DNWK_START_DELAY=100 -DEXTENDED_JOINING_RANDOM_M /
//                          ASK=0x007F -DBEACON_REQUEST_DELAY=100             /
//                          -DBEACON_REQ_DELAY_MASK=0x00FF                    /
//                          -DROUTE_EXPIRY_TIME=30 -DAPSC_ACK_WAIT_DURATION_P /
//                          OLLED=3000 -DNWK_INDIRECT_MSG_TIMEOUT=30          /
//                          -DMAX_RREQ_ENTRIES=10 -DAPSC_MAX_FRAME_RETRIES=3  /
//                          -DNWK_MAX_DATA_RETRIES=2                          /
//                          -DMAX_POLL_FAILURE_RETRIES=2 -DMAX_BCAST=9        /
//                          -DAPS_MAX_GROUPS=16 -DMAX_RTG_ENTRIES=20          /
//                          -DNWK_MAX_BINDING_ENTRIES=10                      /
//                          -DMAX_BINDING_CLUSTER_IDS=5                       /
//                          "-DDEFAULT_KEY={0x01, 0x03, 0x05, 0x07, 0x09,     /
//                          0x0B, 0x0D, 0x0F, 0x00, 0x02, 0x04, 0x06, 0x08,   /
//                          0x0A, 0x0C, 0x0D}" -DRFD_RCVC_ALWAYS_ON=FALSE     /
//                          -DPOLL_RATE=10000 -DQUEUED_POLL_RATE=100          /
//                          -DRESPONSE_POLL_RATE=100) -DREJOIN_POLL_RATE=440  /
//                          "C:\8-22\0最新有用\修改中2013.8.12Texas           /
//                          Instruments longmenshan\ZStack-1.4.3-1.2.1\Projec /
//                          ts\zstack\Samples\network                         /
//                          formaton\Source\p2p_test.c" -D CC2430EB -D        /
//                          xREFLECTOR -D ZTOOL_P1 -D MT_TASK -D MT_ZDO_FUNC  /
//                          -D xLCD_SUPPORTED=DEBUG -D NV_RESTORE -lC         /
//                          "C:\8-22\0最新有用\修改中2013.8.12Texas           /
//                          Instruments longmenshan\ZStack-1.4.3-1.2.1\Projec /
//                          ts\zstack\Samples\network                         /
//                          formaton\CC2430DB\CoordinatorEB\List\" -lA        /
//                          "C:\8-22\0最新有用\修改中2013.8.12Texas           /
//                          Instruments longmenshan\ZStack-1.4.3-1.2.1\Projec /
//                          ts\zstack\Samples\network                         /
//                          formaton\CC2430DB\CoordinatorEB\List\"            /
//                          --diag_suppress Pe001,Pa010 --diag_remark pe550   /
//                          -o "C:\8-22\0最新有用\修改中2013.8.12Texas        /
//                          Instruments longmenshan\ZStack-1.4.3-1.2.1\Projec /
//                          ts\zstack\Samples\network                         /
//                          formaton\CC2430DB\CoordinatorEB\Obj\" -e          /
//                          --require_prototypes -z9 --no_code_motion         /
//                          --debug --core=plain --dptr=16,1                  /
//                          --data_model=large --code_model=banked            /
//                          --calling_convention=xdata_reentrant              /
//                          --place_constants=data --nr_virtual_regs 8 -I     /
//                          "C:\8-22\0最新有用\修改中2013.8.12Texas           /
//                          Instruments longmenshan\ZStack-1.4.3-1.2.1\Projec /
//                          ts\zstack\Samples\network formaton\CC2430DB\" -I  /
//                          "C:\8-22\0最新有用\修改中2013.8.12Texas           /
//                          Instruments longmenshan\ZStack-1.4.3-1.2.1\Projec /
//                          ts\zstack\Samples\network                         /
//                          formaton\CC2430DB\..\SOURCE\" -I                  /
//                          "C:\8-22\0最新有用\修改中2013.8.12Texas           /
//                          Instruments longmenshan\ZStack-1.4.3-1.2.1\Projec /
//                          ts\zstack\Samples\network                         /
//                          formaton\CC2430DB\..\..\..\ZMAIN\TI2430DB\" -I    /
//                          "C:\8-22\0最新有用\修改中2013.8.12Texas           /
//                          Instruments longmenshan\ZStack-1.4.3-1.2.1\Projec /
//                          ts\zstack\Samples\network                         /
//                          formaton\CC2430DB\..\..\..\..\..\COMPONENTS\MT\"  /
//                          -I "C:\8-22\0最新有用\修改中2013.8.12Texas        /
//                          Instruments longmenshan\ZStack-1.4.3-1.2.1\Projec /
//                          ts\zstack\Samples\network                         /
//                          formaton\CC2430DB\..\..\..\..\..\COMPONENTS\HAL\I /
//                          NCLUDE\" -I "C:\8-22\0最新有用\修改中2013.8.12Tex /
//                          as Instruments longmenshan\ZStack-1.4.3-1.2.1\Pro /
//                          jects\zstack\Samples\network                      /
//                          formaton\CC2430DB\..\..\..\..\..\COMPONENTS\HAL\T /
//                          ARGET\CC2430EB\" -I "C:\8-22\0最新有用\修改中2013 /
//                          .8.12Texas Instruments longmenshan\ZStack-1.4.3-1 /
//                          .2.1\Projects\zstack\Samples\network              /
//                          formaton\CC2430DB\..\..\..\..\..\COMPONENTS\OSAL\ /
//                          MCU\CCSOC\" -I "C:\8-22\0最新有用\修改中2013.8.12 /
//                          Texas Instruments longmenshan\ZStack-1.4.3-1.2.1\ /
//                          Projects\zstack\Samples\network                   /
//                          formaton\CC2430DB\..\..\..\..\..\COMPONENTS\OSAL\ /
//                          INCLUDE\" -I "C:\8-22\0最新有用\修改中2013.8.12Te /
//                          xas Instruments longmenshan\ZStack-1.4.3-1.2.1\Pr /
//                          ojects\zstack\Samples\network                     /
//                          formaton\CC2430DB\..\..\..\..\..\COMPONENTS\STACK /
//                          \AF\" -I "C:\8-22\0最新有用\修改中2013.8.12Texas  /
//                          Instruments longmenshan\ZStack-1.4.3-1.2.1\Projec /
//                          ts\zstack\Samples\network                         /
//                          formaton\CC2430DB\..\..\..\..\..\COMPONENTS\STACK /
//                          \NWK\" -I "C:\8-22\0最新有用\修改中2013.8.12Texas /
//                           Instruments longmenshan\ZStack-1.4.3-1.2.1\Proje /
//                          cts\zstack\Samples\network                        /
//                          formaton\CC2430DB\..\..\..\..\..\COMPONENTS\STACK /
//                          \SEC\" -I "C:\8-22\0最新有用\修改中2013.8.12Texas /
//                           Instruments longmenshan\ZStack-1.4.3-1.2.1\Proje /
//                          cts\zstack\Samples\network                        /
//                          formaton\CC2430DB\..\..\..\..\..\COMPONENTS\STACK /
//                          \SYS\" -I "C:\8-22\0最新有用\修改中2013.8.12Texas /
//                           Instruments longmenshan\ZStack-1.4.3-1.2.1\Proje /
//                          cts\zstack\Samples\network                        /
//                          formaton\CC2430DB\..\..\..\..\..\COMPONENTS\STACK /
//                          \ZDO\" -I "C:\8-22\0最新有用\修改中2013.8.12Texas /
//                           Instruments longmenshan\ZStack-1.4.3-1.2.1\Proje /
//                          cts\zstack\Samples\network                        /
//                          formaton\CC2430DB\..\..\..\..\..\COMPONENTS\ZMAC\ /
//                          F8W\" -I "C:\8-22\0最新有用\修改中2013.8.12Texas  /
//                          Instruments longmenshan\ZStack-1.4.3-1.2.1\Projec /
//                          ts\zstack\Samples\network                         /
//                          formaton\CC2430DB\..\..\..\..\..\COMPONENTS\ZMAC\ /
//                          " -I "C:\8-22\0最新有用\修改中2013.8.12Texas      /
//                          Instruments longmenshan\ZStack-1.4.3-1.2.1\Projec /
//                          ts\zstack\Samples\network                         /
//                          formaton\CC2430DB\..\..\..\..\..\COMPONENTS\SERVI /
//                          CES\SADDR\" -I "C:\8-22\0最新有用\修改中2013.8.12 /
//                          Texas Instruments longmenshan\ZStack-1.4.3-1.2.1\ /
//                          Projects\zstack\Samples\network                   /
//                          formaton\CC2430DB\..\..\..\..\..\COMPONENTS\SERVI /
//                          CES\SDATA\" -I "C:\8-22\0最新有用\修改中2013.8.12 /
//                          Texas Instruments longmenshan\ZStack-1.4.3-1.2.1\ /
//                          Projects\zstack\Samples\network                   /
//                          formaton\CC2430DB\..\..\..\..\..\COMPONENTS\MAC\I /
//                          NCLUDE\" -I "C:\8-22\0最新有用\修改中2013.8.12Tex /
//                          as Instruments longmenshan\ZStack-1.4.3-1.2.1\Pro /
//                          jects\zstack\Samples\network                      /
//                          formaton\CC2430DB\..\..\..\..\..\COMPONENTS\MAC\H /
//                          IGH_LEVEL\" -I "C:\8-22\0最新有用\修改中2013.8.12 /
//                          Texas Instruments longmenshan\ZStack-1.4.3-1.2.1\ /
//                          Projects\zstack\Samples\network                   /
//                          formaton\CC2430DB\..\..\..\..\..\COMPONENTS\MAC\L /
//                          OW_LEVEL\SRF03\" -I "C:\8-22\0最新有用\修改中2013 /
//                          .8.12Texas Instruments longmenshan\ZStack-1.4.3-1 /
//                          .2.1\Projects\zstack\Samples\network              /
//                          formaton\CC2430DB\..\..\..\..\..\COMPONENTS\MAC\L /
//                          OW_LEVEL\SRF03\SINGLE_CHIP\" -I                   /
//                          "D:\XP的D\Program file\IAR\8051\INC\" -I          /
//                          "D:\XP的D\Program file\IAR\8051\INC\CLIB\"        /
//    List file          =  C:\8-22\0最新有用\修改中2013.8.12Texas            /
//                          Instruments longmenshan\ZStack-1.4.3-1.2.1\Projec /
//                          ts\zstack\Samples\network                         /
//                          formaton\CC2430DB\CoordinatorEB\List\p2p_test.s51 /
//                                                                            /
//                                                                            /
///////////////////////////////////////////////////////////////////////////////

        NAME p2p_test

        RTMODEL "__calling_convention", "xdata_reentrant"
        RTMODEL "__code_model", "banked"
        RTMODEL "__core", "plain"
        RTMODEL "__data_model", "large"
        RTMODEL "__dptr_size", "16"
        RTMODEL "__extended_stack", "disabled"
        RTMODEL "__location_for_constants", "data"
        RTMODEL "__number_of_dptrs", "1"
        RTMODEL "__rt_version", "1"

        RSEG DOVERLAY:DATA:NOROOT(0)
        RSEG IOVERLAY:IDATA:NOROOT(0)
        RSEG ISTACK:IDATA:NOROOT(0)
        RSEG PSTACK:XDATA:NOROOT(0)
        RSEG XSTACK:XDATA:NOROOT(0)

        EXTERN ??HalUARTWrite_uint16?relay
        EXTERN ??SendMsg?relay
        EXTERN ??Water_gage_forecastValue?relay
        EXTERN ??check_water_gage_charge?relay
        EXTERN ??crc_water_gage?relay
        EXTERN ??fill_AppHead?relay
        EXTERN ??fill_AppHead_sn?relay
        EXTERN ??fill_NodeId_time?relay
        EXTERN ??halWait?relay
        EXTERN ??insert_RelationMap?relay
        EXTERN ??p2p_test_MessageMSGCB?relay
        EXTERN ??p2p_test_ProcessZDOMsgs?relay
        EXTERN ??p2p_test_RecvFromUart?relay
        EXTERN ??p2p_test_SendRelationPkt?relay
        EXTERN ??p2p_test_SendToUart?relay
        EXTERN ??p2p_test_Send_Water_Gage?relay
        EXTERN ??p2p_test_recv_108clusterId?relay
        EXTERN ??p2p_test_recv_RelationMsgclusterId?relay
        EXTERN ??print_AssociatedDevList?relay
        EXTERN ??search_RelationMap?relay
        EXTERN ??start_Water_gage_timer?relay
        EXTERN ?ALLOC_XSTACK8
        EXTERN ?BANKED_ENTER_XDATA
        EXTERN ?BANKED_LEAVE_XDATA
        EXTERN ?BDISPATCH
        EXTERN ?BRET
        EXTERN ?DEALLOC_XSTACK8
        EXTERN ?FLT_ADD
        EXTERN ?FLT_DIV
        EXTERN ?FLT_MUL
        EXTERN ?FLT_SUB
        EXTERN ?FLT_TO_L
        EXTERN ?L_ADD
        EXTERN ?L_ADD_X
        EXTERN ?L_EQ_X
        EXTERN ?L_MOV_TO_X
        EXTERN ?L_MOV_X
        EXTERN ?PUSH_XSTACK8_X
        EXTERN ?PUSH_XSTACK_I_ONE
        EXTERN ?PUSH_XSTACK_I_TWO
        EXTERN ?S_SHL
        EXTERN ?UC_SWITCH_SPARSE
        EXTERN ?UL_GT_X
        EXTERN ?UL_SHR
        EXTERN ?UL_TO_FLT
        EXTERN ?US_DIV_MOD
        EXTERN ?US_SHR
        EXTERN ?US_SWITCH_SPARSE
        EXTERN ?V0
        EXTERN ?XSP
        EXTERN ?XSTACK_DISP0_8
        EXTERN __INIT_XDATA_I
        EXTERN __INIT_XDATA_Z

        PUBLIC ??HalUARTWrite_uint16?relay
        FUNCTION ??HalUARTWrite_uint16?relay,0203H
        PUBLIC ??SendMsg?relay
        FUNCTION ??SendMsg?relay,0203H
        PUBLIC ??Water_gage_forecastValue?relay
        FUNCTION ??Water_gage_forecastValue?relay,0203H
        PUBLIC ??check_water_gage_charge?relay
        FUNCTION ??check_water_gage_charge?relay,0203H
        PUBLIC ??crc_water_gage?relay
        FUNCTION ??crc_water_gage?relay,0203H
        PUBLIC ??fill_AppHead?relay
        FUNCTION ??fill_AppHead?relay,0203H
        PUBLIC ??fill_AppHead_sn?relay
        FUNCTION ??fill_AppHead_sn?relay,0203H
        PUBLIC ??fill_NodeId_time?relay
        FUNCTION ??fill_NodeId_time?relay,0203H
        PUBLIC ??halWait?relay
        FUNCTION ??halWait?relay,0203H
        PUBLIC ??insert_RelationMap?relay
        FUNCTION ??insert_RelationMap?relay,0203H
        PUBLIC ??p2p_test_Init?relay
        FUNCTION ??p2p_test_Init?relay,0203H
        PUBLIC ??p2p_test_MessageMSGCB?relay
        FUNCTION ??p2p_test_MessageMSGCB?relay,0203H
        PUBLIC ??p2p_test_ProcessEvent?relay
        FUNCTION ??p2p_test_ProcessEvent?relay,0203H
        PUBLIC ??p2p_test_ProcessZDOMsgs?relay
        FUNCTION ??p2p_test_ProcessZDOMsgs?relay,0203H
        PUBLIC ??p2p_test_RecvFromUart?relay
        FUNCTION ??p2p_test_RecvFromUart?relay,0203H
        PUBLIC ??p2p_test_SendRelationPkt?relay
        FUNCTION ??p2p_test_SendRelationPkt?relay,0203H
        PUBLIC ??p2p_test_SendToUart?relay
        FUNCTION ??p2p_test_SendToUart?relay,0203H
        PUBLIC ??p2p_test_Send_Water_Gage?relay
        FUNCTION ??p2p_test_Send_Water_Gage?relay,0203H
        PUBLIC ??p2p_test_StartDataSensorTimer?relay
        FUNCTION ??p2p_test_StartDataSensorTimer?relay,0203H
        PUBLIC ??p2p_test_recv_108clusterId?relay
        FUNCTION ??p2p_test_recv_108clusterId?relay,0203H
        PUBLIC ??p2p_test_recv_RelationMsgclusterId?relay
        FUNCTION ??p2p_test_recv_RelationMsgclusterId?relay,0203H
        PUBLIC ??print_AssociatedDevList?relay
        FUNCTION ??print_AssociatedDevList?relay,0203H
        PUBLIC ??search_RelationMap?relay
        FUNCTION ??search_RelationMap?relay,0203H
        PUBLIC ??start_Water_gage_timer?relay
        FUNCTION ??start_Water_gage_timer?relay,0203H
        PUBWEAK CLKCON
        PUBLIC CheckWaterGageChargeTimeFreq
        PUBLIC HalUARTWrite_uint16
        FUNCTION HalUARTWrite_uint16,021203H
        ARGFRAME XSTACK, 37, STACK
        ARGFRAME IOVERLAY, 0, STATIC
        ARGFRAME DOVERLAY, 0, STATIC
        LOCFRAME ISTACK, 3, STACK
        LOCFRAME XSTACK, 2, STACK
        PUBWEAK P1DIR
        PUBWEAK P1SEL
        PUBWEAK P2DIR
        PUBWEAK P2SEL
        PUBLIC SendMsg
        FUNCTION SendMsg,021203H
        ARGFRAME XSTACK, 43, STACK
        ARGFRAME IOVERLAY, 0, STATIC
        ARGFRAME DOVERLAY, 0, STATIC
        LOCFRAME XSTACK, 21, STACK
        PUBWEAK WDCTL
        PUBLIC Water_Gage_data_and_time
        PUBLIC Water_gage_forecastValue
        FUNCTION Water_gage_forecastValue,0203H
        ARGFRAME XSTACK, 55, STACK
        ARGFRAME IOVERLAY, 0, STATIC
        ARGFRAME DOVERLAY, 0, STATIC
        LOCFRAME ISTACK, 8, STACK
        LOCFRAME XSTACK, 52, STACK
        PUBLIC Water_gage_time
        PUBWEAK _A_IEN0
        PUBWEAK _A_P1
        PUBWEAK _A_P2
        PUBWEAK __Constant_0
        PUBWEAK __Constant_40400000
        PUBWEAK __Constant_ffffffff
        PUBLIC check_water_gage_charge
        FUNCTION check_water_gage_charge,021203H
        ARGFRAME XSTACK, 23, STACK
        ARGFRAME IOVERLAY, 0, STATIC
        ARGFRAME DOVERLAY, 0, STATIC
        LOCFRAME ISTACK, 3, STACK
        LOCFRAME XSTACK, 1, STACK
        PUBLIC crc_water_gage
        FUNCTION crc_water_gage,0203H
        ARGFRAME XSTACK, 13, STACK
        ARGFRAME IOVERLAY, 0, STATIC
        ARGFRAME DOVERLAY, 0, STATIC
        LOCFRAME ISTACK, 1, STACK
        LOCFRAME XSTACK, 17, STACK
        PUBLIC fatheraddr
        PUBLIC fill_AppHead
        FUNCTION fill_AppHead,0203H
        ARGFRAME XSTACK, 39, STACK
        ARGFRAME IOVERLAY, 0, STATIC
        ARGFRAME DOVERLAY, 0, STATIC
        LOCFRAME ISTACK, 3, STACK
        LOCFRAME XSTACK, 9, STACK
        PUBLIC fill_AppHead_sn
        FUNCTION fill_AppHead_sn,0203H
        ARGFRAME XSTACK, 21, STACK
        ARGFRAME IOVERLAY, 0, STATIC
        ARGFRAME DOVERLAY, 0, STATIC
        LOCFRAME ISTACK, 3, STACK
        LOCFRAME XSTACK, 10, STACK
        PUBLIC fill_NodeId_time
        FUNCTION fill_NodeId_time,021203H
        ARGFRAME XSTACK, 37, STACK
        ARGFRAME IOVERLAY, 0, STATIC
        ARGFRAME DOVERLAY, 0, STATIC
        LOCFRAME ISTACK, 1, STACK
        LOCFRAME XSTACK, 15, STACK
        PUBLIC halWait
        FUNCTION halWait,0203H
        ARGFRAME XSTACK, 17, STACK
        ARGFRAME IOVERLAY, 0, STATIC
        ARGFRAME DOVERLAY, 0, STATIC
        LOCFRAME XSTACK, 16, STACK
        PUBLIC insert_RelationMap
        FUNCTION insert_RelationMap,021203H
        ARGFRAME XSTACK, 22, STACK
        ARGFRAME IOVERLAY, 0, STATIC
        ARGFRAME DOVERLAY, 0, STATIC
        LOCFRAME ISTACK, 1, STACK
        LOCFRAME XSTACK, 14, STACK
        PUBLIC p2p_test_ClusterList
        PUBLIC p2p_test_DstAddr
        PUBLIC p2p_test_EnddeviceAddr
        PUBLIC p2p_test_Init
        FUNCTION p2p_test_Init,021203H
        ARGFRAME XSTACK, 0, STACK
        LOCFRAME ISTACK, 3, STACK
        PUBLIC p2p_test_MessageMSGCB
        FUNCTION p2p_test_MessageMSGCB,0a1203H
        ARGFRAME XSTACK, 23, STACK
        ARGFRAME IOVERLAY, 0, STATIC
        ARGFRAME DOVERLAY, 0, STATIC
        LOCFRAME XSTACK, 10, STACK
        PUBLIC p2p_test_NwkState
        PUBLIC p2p_test_ProcessEvent
        FUNCTION p2p_test_ProcessEvent,0a1203H
        ARGFRAME XSTACK, 0, STACK
        LOCFRAME ISTACK, 1, STACK
        LOCFRAME XSTACK, 23, STACK
        PUBLIC p2p_test_ProcessZDOMsgs
        FUNCTION p2p_test_ProcessZDOMsgs,0a1203H
        ARGFRAME XSTACK, 23, STACK
        ARGFRAME IOVERLAY, 0, STATIC
        ARGFRAME DOVERLAY, 0, STATIC
        LOCFRAME XSTACK, 10, STACK
        PUBLIC p2p_test_RecvFromUart
        FUNCTION p2p_test_RecvFromUart,021203H
        ARGFRAME XSTACK, 23, STACK
        ARGFRAME IOVERLAY, 0, STATIC
        ARGFRAME DOVERLAY, 0, STATIC
        LOCFRAME ISTACK, 2, STACK
        LOCFRAME XSTACK, 55, STACK
        PUBLIC p2p_test_SendRelationPkt
        FUNCTION p2p_test_SendRelationPkt,021203H
        ARGFRAME XSTACK, 23, STACK
        ARGFRAME IOVERLAY, 0, STATIC
        ARGFRAME DOVERLAY, 0, STATIC
        LOCFRAME ISTACK, 1, STACK
        LOCFRAME XSTACK, 38, STACK
        PUBLIC p2p_test_SendToUart
        FUNCTION p2p_test_SendToUart,021203H
        ARGFRAME XSTACK, 17, STACK
        ARGFRAME IOVERLAY, 0, STATIC
        ARGFRAME DOVERLAY, 0, STATIC
        LOCFRAME ISTACK, 1, STACK
        LOCFRAME XSTACK, 17, STACK
        PUBLIC p2p_test_Send_Water_Gage
        FUNCTION p2p_test_Send_Water_Gage,021203H
        ARGFRAME XSTACK, 23, STACK
        ARGFRAME IOVERLAY, 0, STATIC
        ARGFRAME DOVERLAY, 0, STATIC
        LOCFRAME ISTACK, 1, STACK
        LOCFRAME XSTACK, 13, STACK
        PUBLIC p2p_test_SimpleDesc
        PUBLIC p2p_test_StartDataSensorTimer
        FUNCTION p2p_test_StartDataSensorTimer,0203H
        ARGFRAME XSTACK, 0, STACK
        PUBLIC p2p_test_TaskID
        PUBLIC p2p_test_TransID
        PUBLIC p2p_test_epDesc
        PUBLIC p2p_test_recv_108clusterId
        FUNCTION p2p_test_recv_108clusterId,0a1203H
        ARGFRAME XSTACK, 37, STACK
        ARGFRAME IOVERLAY, 0, STATIC
        ARGFRAME DOVERLAY, 0, STATIC
        LOCFRAME ISTACK, 1, STACK
        LOCFRAME XSTACK, 23, STACK
        PUBLIC p2p_test_recv_RelationMsgclusterId
        FUNCTION p2p_test_recv_RelationMsgclusterId,021203H
        ARGFRAME XSTACK, 10, STACK
        ARGFRAME IOVERLAY, 0, STATIC
        ARGFRAME DOVERLAY, 0, STATIC
        LOCFRAME ISTACK, 1, STACK
        LOCFRAME XSTACK, 31, STACK
        PUBLIC print_AssociatedDevList
        FUNCTION print_AssociatedDevList,021203H
        ARGFRAME XSTACK, 22, STACK
        ARGFRAME IOVERLAY, 0, STATIC
        ARGFRAME DOVERLAY, 0, STATIC
        LOCFRAME ISTACK, 1, STACK
        LOCFRAME XSTACK, 11, STACK
        PUBLIC search_RelationMap
        FUNCTION search_RelationMap,0203H
        ARGFRAME XSTACK, 22, STACK
        ARGFRAME IOVERLAY, 0, STATIC
        ARGFRAME DOVERLAY, 0, STATIC
        LOCFRAME ISTACK, 2, STACK
        PUBLIC shortaddr
        PUBLIC start_Water_gage_timer
        FUNCTION start_Water_gage_timer,021203H
        ARGFRAME XSTACK, 37, STACK
        ARGFRAME IOVERLAY, 0, STATIC
        ARGFRAME DOVERLAY, 0, STATIC
        LOCFRAME ISTACK, 2, STACK
        
        CFI Names cfiNames0
        CFI StackFrame CFA_SP SP DATA
        CFI StackFrame CFA_PSP16 PSP16 XDATA
        CFI StackFrame CFA_XSP16 XSP16 XDATA
        CFI StaticOverlayFrame CFA_IOVERLAY IOVERLAY
        CFI StaticOverlayFrame CFA_DOVERLAY DOVERLAY
        CFI Resource `PSW.CY`:1, `B.BR0`:1, `B.BR1`:1, `B.BR2`:1, `B.BR3`:1
        CFI Resource `B.BR4`:1, `B.BR5`:1, `B.BR6`:1, `B.BR7`:1, `VB.BR8`:1
        CFI Resource `VB.BR9`:1, `VB.BR10`:1, `VB.BR11`:1, `VB.BR12`:1
        CFI Resource `VB.BR13`:1, `VB.BR14`:1, `VB.BR15`:1, VB:8, B:8, A:8
        CFI Resource PSW:8, DPL0:8, DPH0:8, R0:8, R1:8, R2:8, R3:8, R4:8, R5:8
        CFI Resource R6:8, R7:8, V0:8, V1:8, V2:8, V3:8, V4:8, V5:8, V6:8, V7:8
        CFI Resource SP:8, PSPH:8, PSPL:8, PSP16:16, XSPH:8, XSPL:8, XSP16:16
        CFI VirtualResource ?RET:24
        CFI Resource ?BRET_EXT:8
        CFI VirtualResource ?RET_HIGH:8, ?RET_LOW:8
        CFI ResourceParts PSP16 PSPH, PSPL
        CFI ResourceParts XSP16 XSPH, XSPL
        CFI ResourceParts ?RET ?BRET_EXT, ?RET_HIGH, ?RET_LOW
        CFI EndNames cfiNames0
        
        CFI Common cfiCommon0 Using cfiNames0
        CFI CodeAlign 1
        CFI DataAlign -1
        CFI ReturnAddress ?RET CODE
        CFI CFA_DOVERLAY Used
        CFI CFA_IOVERLAY Used
        CFI CFA_SP SP+-3
        CFI CFA_PSP16 PSP16+0
        CFI CFA_XSP16 XSP16+0
        CFI `PSW.CY` SameValue
        CFI `B.BR0` SameValue
        CFI `B.BR1` SameValue
        CFI `B.BR2` SameValue
        CFI `B.BR3` SameValue
        CFI `B.BR4` SameValue
        CFI `B.BR5` SameValue
        CFI `B.BR6` SameValue
        CFI `B.BR7` SameValue
        CFI `VB.BR8` SameValue
        CFI `VB.BR9` SameValue
        CFI `VB.BR10` SameValue
        CFI `VB.BR11` SameValue
        CFI `VB.BR12` SameValue
        CFI `VB.BR13` SameValue
        CFI `VB.BR14` SameValue
        CFI `VB.BR15` SameValue
        CFI VB SameValue
        CFI B Undefined
        CFI A Undefined
        CFI PSW SameValue
        CFI DPL0 SameValue
        CFI DPH0 SameValue
        CFI R0 Undefined
        CFI R1 Undefined
        CFI R2 Undefined
        CFI R3 Undefined
        CFI R4 Undefined
        CFI R5 Undefined
        CFI R6 SameValue
        CFI R7 SameValue
        CFI V0 SameValue
        CFI V1 SameValue
        CFI V2 SameValue
        CFI V3 SameValue
        CFI V4 SameValue
        CFI V5 SameValue
        CFI V6 SameValue
        CFI V7 SameValue
        CFI PSPH Undefined
        CFI PSPL Undefined
        CFI XSPH Undefined
        CFI XSPL Undefined
        CFI ?RET Concat
        CFI ?BRET_EXT Frame(CFA_SP, 3)
        CFI ?RET_HIGH Frame(CFA_SP, 2)
        CFI ?RET_LOW Frame(CFA_SP, 1)
        CFI EndCommon cfiCommon0
        
        
        CFI Common cfiCommon1 Using cfiNames0
        CFI CodeAlign 1
        CFI DataAlign -1
        CFI ReturnAddress ?RET CODE
        CFI CFA_DOVERLAY Used
        CFI CFA_IOVERLAY Used
        CFI CFA_SP SP+-2
        CFI CFA_PSP16 PSP16+0
        CFI CFA_XSP16 XSP16+0
        CFI `PSW.CY` SameValue
        CFI `B.BR0` SameValue
        CFI `B.BR1` SameValue
        CFI `B.BR2` SameValue
        CFI `B.BR3` SameValue
        CFI `B.BR4` SameValue
        CFI `B.BR5` SameValue
        CFI `B.BR6` SameValue
        CFI `B.BR7` SameValue
        CFI `VB.BR8` SameValue
        CFI `VB.BR9` SameValue
        CFI `VB.BR10` SameValue
        CFI `VB.BR11` SameValue
        CFI `VB.BR12` SameValue
        CFI `VB.BR13` SameValue
        CFI `VB.BR14` SameValue
        CFI `VB.BR15` SameValue
        CFI VB SameValue
        CFI B SameValue
        CFI A SameValue
        CFI PSW SameValue
        CFI DPL0 SameValue
        CFI DPH0 SameValue
        CFI R0 SameValue
        CFI R1 SameValue
        CFI R2 SameValue
        CFI R3 SameValue
        CFI R4 SameValue
        CFI R5 SameValue
        CFI R6 SameValue
        CFI R7 SameValue
        CFI V0 SameValue
        CFI V1 SameValue
        CFI V2 SameValue
        CFI V3 SameValue
        CFI V4 SameValue
        CFI V5 SameValue
        CFI V6 SameValue
        CFI V7 SameValue
        CFI PSPH Undefined
        CFI PSPL Undefined
        CFI XSPH Undefined
        CFI XSPL Undefined
        CFI ?RET Concat
        CFI ?BRET_EXT SameValue
        CFI ?RET_HIGH Frame(CFA_SP, 2)
        CFI ?RET_LOW Frame(CFA_SP, 1)
        CFI EndCommon cfiCommon1
        
HalUARTWrite        SYMBOL "HalUARTWrite"
osal_start_timerEx  SYMBOL "osal_start_timerEx"
osal_msg_allocate   SYMBOL "osal_msg_allocate"
afRegister          SYMBOL "afRegister"
OpenP1Interrupt     SYMBOL "OpenP1Interrupt"
RegisterP1Interrupt SYMBOL "RegisterP1Interrupt"
StartP1Interrupt    SYMBOL "StartP1Interrupt"
SPIMgr_RegisterTaskID SYMBOL "SPIMgr_RegisterTaskID"
ZDO_RegisterForZDOMsg SYMBOL "ZDO_RegisterForZDOMsg"
osal_msg_receive    SYMBOL "osal_msg_receive"
osal_msg_deallocate SYMBOL "osal_msg_deallocate"
osal_stop_timerEx   SYMBOL "osal_stop_timerEx"
HalLedSet           SYMBOL "HalLedSet"
ZDO_ParseEPListRsp  SYMBOL "ZDO_ParseEPListRsp"
osal_mem_free       SYMBOL "osal_mem_free"
AF_DataRequest      SYMBOL "AF_DataRequest"
SPIMgr_CalcFCS      SYMBOL "SPIMgr_CalcFCS"
osal_GetSystemClock SYMBOL "osal_GetSystemClock"
??AF_DataRequest?relay SYMBOL "?relay", AF_DataRequest
??HalLedSet?relay   SYMBOL "?relay", HalLedSet
??HalUARTWrite?relay SYMBOL "?relay", HalUARTWrite
??OpenP1Interrupt?relay SYMBOL "?relay", OpenP1Interrupt
??RegisterP1Interrupt?relay SYMBOL "?relay", RegisterP1Interrupt
??SPIMgr_CalcFCS?relay SYMBOL "?relay", SPIMgr_CalcFCS
??SPIMgr_RegisterTaskID?relay SYMBOL "?relay", SPIMgr_RegisterTaskID
??StartP1Interrupt?relay SYMBOL "?relay", StartP1Interrupt
??ZDO_ParseEPListRsp?relay SYMBOL "?relay", ZDO_ParseEPListRsp
??ZDO_RegisterForZDOMsg?relay SYMBOL "?relay", ZDO_RegisterForZDOMsg
??afRegister?relay  SYMBOL "?relay", afRegister
??osal_GetSystemClock?relay SYMBOL "?relay", osal_GetSystemClock
??osal_mem_free?relay SYMBOL "?relay", osal_mem_free
??osal_msg_allocate?relay SYMBOL "?relay", osal_msg_allocate
??osal_msg_deallocate?relay SYMBOL "?relay", osal_msg_deallocate
??osal_msg_receive?relay SYMBOL "?relay", osal_msg_receive
??osal_start_timerEx?relay SYMBOL "?relay", osal_start_timerEx
??osal_stop_timerEx?relay SYMBOL "?relay", osal_stop_timerEx
HalUARTWrite_uint16 SYMBOL "HalUARTWrite_uint16"
??HalUARTWrite_uint16?relay SYMBOL "?relay", HalUARTWrite_uint16
SendMsg             SYMBOL "SendMsg"
??SendMsg?relay     SYMBOL "?relay", SendMsg
Water_gage_forecastValue SYMBOL "Water_gage_forecastValue"
??Water_gage_forecastValue?relay SYMBOL "?relay", Water_gage_forecastValue
check_water_gage_charge SYMBOL "check_water_gage_charge"
??check_water_gage_charge?relay SYMBOL "?relay", check_water_gage_charge
crc_water_gage      SYMBOL "crc_water_gage"
??crc_water_gage?relay SYMBOL "?relay", crc_water_gage
fill_AppHead        SYMBOL "fill_AppHead"
??fill_AppHead?relay SYMBOL "?relay", fill_AppHead
fill_AppHead_sn     SYMBOL "fill_AppHead_sn"
??fill_AppHead_sn?relay SYMBOL "?relay", fill_AppHead_sn
fill_NodeId_time    SYMBOL "fill_NodeId_time"
??fill_NodeId_time?relay SYMBOL "?relay", fill_NodeId_time
halWait             SYMBOL "halWait"
??halWait?relay     SYMBOL "?relay", halWait
insert_RelationMap  SYMBOL "insert_RelationMap"
??insert_RelationMap?relay SYMBOL "?relay", insert_RelationMap
p2p_test_Init       SYMBOL "p2p_test_Init"
??p2p_test_Init?relay SYMBOL "?relay", p2p_test_Init
p2p_test_MessageMSGCB SYMBOL "p2p_test_MessageMSGCB"
??p2p_test_MessageMSGCB?relay SYMBOL "?relay", p2p_test_MessageMSGCB
p2p_test_ProcessEvent SYMBOL "p2p_test_ProcessEvent"
??p2p_test_ProcessEvent?relay SYMBOL "?relay", p2p_test_ProcessEvent
p2p_test_ProcessZDOMsgs SYMBOL "p2p_test_ProcessZDOMsgs"
??p2p_test_ProcessZDOMsgs?relay SYMBOL "?relay", p2p_test_ProcessZDOMsgs
p2p_test_RecvFromUart SYMBOL "p2p_test_RecvFromUart"
??p2p_test_RecvFromUart?relay SYMBOL "?relay", p2p_test_RecvFromUart
p2p_test_SendRelationPkt SYMBOL "p2p_test_SendRelationPkt"
??p2p_test_SendRelationPkt?relay SYMBOL "?relay", p2p_test_SendRelationPkt
p2p_test_SendToUart SYMBOL "p2p_test_SendToUart"
??p2p_test_SendToUart?relay SYMBOL "?relay", p2p_test_SendToUart
p2p_test_Send_Water_Gage SYMBOL "p2p_test_Send_Water_Gage"
??p2p_test_Send_Water_Gage?relay SYMBOL "?relay", p2p_test_Send_Water_Gage
p2p_test_StartDataSensorTimer SYMBOL "p2p_test_StartDataSensorTimer"
??p2p_test_StartDataSensorTimer?relay SYMBOL "?relay", p2p_test_StartDataSensorTimer
p2p_test_recv_108clusterId SYMBOL "p2p_test_recv_108clusterId"
??p2p_test_recv_108clusterId?relay SYMBOL "?relay", p2p_test_recv_108clusterId
p2p_test_recv_RelationMsgclusterId SYMBOL "p2p_test_recv_RelationMsgclusterId"
??p2p_test_recv_RelationMsgclusterId?relay SYMBOL "?relay", p2p_test_recv_RelationMsgclusterId
print_AssociatedDevList SYMBOL "print_AssociatedDevList"
??print_AssociatedDevList?relay SYMBOL "?relay", print_AssociatedDevList
search_RelationMap  SYMBOL "search_RelationMap"
??search_RelationMap?relay SYMBOL "?relay", search_RelationMap
start_Water_gage_timer SYMBOL "start_Water_gage_timer"
??start_Water_gage_timer?relay SYMBOL "?relay", start_Water_gage_timer

        EXTERN HalUARTWrite
        FUNCTION HalUARTWrite,0202H
        ARGFRAME ISTACK, 2, STACK
        ARGFRAME PSTACK, 0, STACK
        ARGFRAME XSTACK, 37, STACK
        ARGFRAME IOVERLAY, 0, STATIC
        ARGFRAME DOVERLAY, 0, STATIC
        EXTERN osal_start_timerEx
        FUNCTION osal_start_timerEx,0202H
        ARGFRAME ISTACK, 2, STACK
        ARGFRAME PSTACK, 0, STACK
        ARGFRAME XSTACK, 32, STACK
        ARGFRAME IOVERLAY, 0, STATIC
        ARGFRAME DOVERLAY, 0, STATIC
        EXTERN osal_msg_allocate
        FUNCTION osal_msg_allocate,0202H
        ARGFRAME ISTACK, 2, STACK
        ARGFRAME PSTACK, 0, STACK
        ARGFRAME XSTACK, 22, STACK
        ARGFRAME IOVERLAY, 0, STATIC
        ARGFRAME DOVERLAY, 0, STATIC
        EXTERN afRegister
        FUNCTION afRegister,0202H
        ARGFRAME ISTACK, 2, STACK
        ARGFRAME PSTACK, 0, STACK
        ARGFRAME XSTACK, 0, STACK
        ARGFRAME IOVERLAY, 0, STATIC
        ARGFRAME DOVERLAY, 0, STATIC
        EXTERN OpenP1Interrupt
        FUNCTION OpenP1Interrupt,0202H
        ARGFRAME ISTACK, 2, STACK
        ARGFRAME PSTACK, 0, STACK
        ARGFRAME XSTACK, 0, STACK
        ARGFRAME IOVERLAY, 0, STATIC
        ARGFRAME DOVERLAY, 0, STATIC
        EXTERN RegisterP1Interrupt
        FUNCTION RegisterP1Interrupt,0202H
        ARGFRAME ISTACK, 2, STACK
        ARGFRAME PSTACK, 0, STACK
        ARGFRAME XSTACK, 0, STACK
        ARGFRAME IOVERLAY, 0, STATIC
        ARGFRAME DOVERLAY, 0, STATIC
        EXTERN StartP1Interrupt
        FUNCTION StartP1Interrupt,0202H
        ARGFRAME ISTACK, 2, STACK
        ARGFRAME PSTACK, 0, STACK
        ARGFRAME XSTACK, 0, STACK
        ARGFRAME IOVERLAY, 0, STATIC
        ARGFRAME DOVERLAY, 0, STATIC
        EXTERN SPIMgr_RegisterTaskID
        FUNCTION SPIMgr_RegisterTaskID,0202H
        ARGFRAME ISTACK, 2, STACK
        ARGFRAME PSTACK, 0, STACK
        ARGFRAME XSTACK, 0, STACK
        ARGFRAME IOVERLAY, 0, STATIC
        ARGFRAME DOVERLAY, 0, STATIC
        EXTERN ZDO_RegisterForZDOMsg
        FUNCTION ZDO_RegisterForZDOMsg,0202H
        ARGFRAME ISTACK, 2, STACK
        ARGFRAME PSTACK, 0, STACK
        ARGFRAME XSTACK, 0, STACK
        ARGFRAME IOVERLAY, 0, STATIC
        ARGFRAME DOVERLAY, 0, STATIC
        EXTERN osal_msg_receive
        FUNCTION osal_msg_receive,0202H
        ARGFRAME ISTACK, 0, STACK
        ARGFRAME PSTACK, 0, STACK
        ARGFRAME XSTACK, 23, STACK
        ARGFRAME IOVERLAY, 0, STATIC
        ARGFRAME DOVERLAY, 0, STATIC
        EXTERN osal_msg_deallocate
        FUNCTION osal_msg_deallocate,0202H
        ARGFRAME ISTACK, 0, STACK
        ARGFRAME PSTACK, 0, STACK
        ARGFRAME XSTACK, 23, STACK
        ARGFRAME IOVERLAY, 0, STATIC
        ARGFRAME DOVERLAY, 0, STATIC
        EXTERN osal_stop_timerEx
        FUNCTION osal_stop_timerEx,0202H
        ARGFRAME ISTACK, 0, STACK
        ARGFRAME PSTACK, 0, STACK
        ARGFRAME XSTACK, 37, STACK
        ARGFRAME IOVERLAY, 0, STATIC
        ARGFRAME DOVERLAY, 0, STATIC
        EXTERN HalLedSet
        FUNCTION HalLedSet,0202H
        ARGFRAME ISTACK, 0, STACK
        ARGFRAME PSTACK, 0, STACK
        ARGFRAME XSTACK, 10, STACK
        ARGFRAME IOVERLAY, 0, STATIC
        ARGFRAME DOVERLAY, 0, STATIC
        EXTERN ZDO_ParseEPListRsp
        FUNCTION ZDO_ParseEPListRsp,0202H
        ARGFRAME ISTACK, 0, STACK
        ARGFRAME PSTACK, 0, STACK
        ARGFRAME XSTACK, 10, STACK
        ARGFRAME IOVERLAY, 0, STATIC
        ARGFRAME DOVERLAY, 0, STATIC
        EXTERN osal_mem_free
        FUNCTION osal_mem_free,0202H
        ARGFRAME ISTACK, 0, STACK
        ARGFRAME PSTACK, 0, STACK
        ARGFRAME XSTACK, 10, STACK
        ARGFRAME IOVERLAY, 0, STATIC
        ARGFRAME DOVERLAY, 0, STATIC
        EXTERN AF_DataRequest
        FUNCTION AF_DataRequest,0202H
        ARGFRAME ISTACK, 0, STACK
        ARGFRAME PSTACK, 0, STACK
        ARGFRAME XSTACK, 46, STACK
        ARGFRAME IOVERLAY, 0, STATIC
        ARGFRAME DOVERLAY, 0, STATIC
        EXTERN SPIMgr_CalcFCS
        FUNCTION SPIMgr_CalcFCS,0202H
        ARGFRAME ISTACK, 0, STACK
        ARGFRAME PSTACK, 0, STACK
        ARGFRAME XSTACK, 17, STACK
        ARGFRAME IOVERLAY, 0, STATIC
        ARGFRAME DOVERLAY, 0, STATIC
        EXTERN osal_GetSystemClock
        FUNCTION osal_GetSystemClock,0202H
        ARGFRAME ISTACK, 0, STACK
        ARGFRAME PSTACK, 0, STACK
        ARGFRAME XSTACK, 15, STACK
        ARGFRAME IOVERLAY, 0, STATIC
        ARGFRAME DOVERLAY, 0, STATIC
        EXTERN ??AF_DataRequest?relay
        FUNCTION ??AF_DataRequest?relay,00H
        EXTERN ??HalLedSet?relay
        FUNCTION ??HalLedSet?relay,00H
        EXTERN ??HalUARTWrite?relay
        FUNCTION ??HalUARTWrite?relay,00H
        EXTERN ??OpenP1Interrupt?relay
        FUNCTION ??OpenP1Interrupt?relay,00H
        EXTERN ??RegisterP1Interrupt?relay
        FUNCTION ??RegisterP1Interrupt?relay,00H
        EXTERN ??SPIMgr_CalcFCS?relay
        FUNCTION ??SPIMgr_CalcFCS?relay,00H
        EXTERN ??SPIMgr_RegisterTaskID?relay
        FUNCTION ??SPIMgr_RegisterTaskID?relay,00H
        EXTERN ??StartP1Interrupt?relay
        FUNCTION ??StartP1Interrupt?relay,00H
        EXTERN ??ZDO_ParseEPListRsp?relay
        FUNCTION ??ZDO_ParseEPListRsp?relay,00H
        EXTERN ??ZDO_RegisterForZDOMsg?relay
        FUNCTION ??ZDO_RegisterForZDOMsg?relay,00H
        EXTERN ??afRegister?relay
        FUNCTION ??afRegister?relay,00H
        EXTERN ??osal_GetSystemClock?relay
        FUNCTION ??osal_GetSystemClock?relay,00H
        EXTERN ??osal_mem_free?relay
        FUNCTION ??osal_mem_free?relay,00H
        EXTERN ??osal_msg_allocate?relay
        FUNCTION ??osal_msg_allocate?relay,00H
        EXTERN ??osal_msg_deallocate?relay
        FUNCTION ??osal_msg_deallocate?relay,00H
        EXTERN ??osal_msg_receive?relay
        FUNCTION ??osal_msg_receive?relay,00H
        EXTERN ??osal_start_timerEx?relay
        FUNCTION ??osal_start_timerEx?relay,00H
        EXTERN ??osal_stop_timerEx?relay
        FUNCTION ??osal_stop_timerEx?relay,00H
        EXTERN AssociatedDevList

// C:\8-22\0最新有用\修改中2013.8.12Texas Instruments longmenshan\ZStack-1.4.3-1.2.1\Projects\zstack\Samples\network formaton\Source\p2p_test.c
//    1 //本版本在已有的功能上添加了水位计和土壤湿度传感器的终端节点自适应周期调整定时休眠机制 2013.7.15
//    2 //且添加了不同水位计数据类型的获取情形（2013.7.17）
//    3 //且添加了水位计临时断电的情形（2013.7.17）
//    4 //将水位计默认类型改为3，接近实际应用，将区间间隔改为变量，可作为设置报文参数（2013.7.23）
//    5 //解决多次收到关联ack影响数据采集时间的bug(2013.7.24)
//    6 //p1_1作为水位计的电源控制开关（2013.7.28）
//    7 //修改NWK_INDIRECT_MSG_TIMEOUT = 30   和POLL_RATE=10000（2013.7.28） 
//    8 //增加zigbee节点重启后的设置报文和水位计关闭门限（2013.7.31） 
//    9 //添加 项目验收关闭水位计，平时不关闭水位计（2013.8.13）
//   10 //稳定测试（100h），已不存在/*长时间可能不稳定，一段时间后普通节点等待重新关联*/问题（2013.8.25）
//   11 //按项目实际需求精简代码（2013.9.4）
//   12 //添加看门狗自动启动（2013.9.4） 最后修改于2013.10.8
//   13 //原来的看门狗不对，已经改正，正常运行（2013.10.28）
//   14 //修改服务器下行设置报文和关联报文ACK，由广播改为单播。（2013.11.10）
//   15 //添加普通节点和PAN节点的重启设置命令（2014.1.15）
//   16 //修改PAN收到关联报文后释放动态内存的位置（2014.4.3）
//   17 //将设置报文PAN转发时改为广播，以便适合多终端节点（2014.7.3）
//   18 /**************************************************************************************************
//   19   Filename:       p2p_test.c
//   20   Revised:        $Date: 2007-10-27 17:16:54 -0700 (Sat, 27 Oct 2007) $
//   21   Revision:       $Revision: 15793 $
//   22 
//   23   Description:    Generic Application (no Profile).
//   24 
//   25 
//   26   Copyright 2004-2007 Texas Instruments Incorporated. All rights reserved.
//   27 
//   28   IMPORTANT: Your use of this Software is limited to those specific rights
//   29   granted under the terms of a software license agreement between the user
//   30   who downloaded the software, his/her employer (which must be your employer)
//   31   and Texas Instruments Incorporated (the "License").  You may not use this
//   32   Software unless you agree to abide by the terms of the License. The License
//   33   limits your use, and you acknowledge, that the Software may not be modified,
//   34   copied or distributed unless embedded on a Texas Instruments microcontroller
//   35   or used solely and exclusively in conjunction with a Texas Instruments radio
//   36   frequency transceiver, which is integrated into your product.  Other than for
//   37   the foregoing purpose, you may not use, reproduce, copy, prepare derivative
//   38   works of, modify, distribute, perform, display or sell this Software and/or
//   39   its documentation for any purpose.
//   40 
//   41   YOU FURTHER ACKNOWLEDGE AND AGREE THAT THE SOFTWARE AND DOCUMENTATION ARE
//   42   PROVIDED AS IS?WITHOUT WARRANTY OF ANY KIND, EITHER EXPRESS OR IMPLIED,
//   43   INCLUDING WITHOUT LIMITATION, ANY WARRANTY OF MERCHANTABILITY, TITLE,
//   44   NON-INFRINGEMENT AND FITNESS FOR A PARTICULAR PURPOSE. IN NO EVENT SHALL
//   45   TEXAS INSTRUMENTS OR ITS LICENSORS BE LIABLE OR OBLIGATED UNDER CONTRACT,
//   46   NEGLIGENCE, STRICT LIABILITY, CONTRIBUTION, BREACH OF WARRANTY, OR OTHER
//   47   LEGAL EQUITABLE THEORY ANY DIRECT OR INDIRECT DAMAGES OR EXPENSES
//   48   INCLUDING BUT NOT LIMITED TO ANY INCIDENTAL, SPECIAL, INDIRECT, PUNITIVE
//   49   OR CONSEQUENTIAL DAMAGES, LOST PROFITS OR LOST DATA, COST OF PROCUREMENT
//   50   OF SUBSTITUTE GOODS, TECHNOLOGY, SERVICES, OR ANY CLAIMS BY THIRD PARTIES
//   51   (INCLUDING BUT NOT LIMITED TO ANY DEFENSE THEREOF), OR OTHER SIMILAR COSTS.
//   52 
//   53   Should you have any questions regarding your right to use this Software,
//   54   contact Texas Instruments Incorporated at www.TI.com.
//   55 **************************************************************************************************/
//   56 
//   57 /*********************************************************************
//   58   This application isn't intended to do anything useful, it is
//   59   intended to be a simple example of an application's structure.
//   60 
//   61   This application sends "Hello World" to another "Generic"
//   62   application every 15 seconds.  The application will also
//   63   receive "Hello World" packets.
//   64 
//   65   The "Hello World" messages are sent/received as MSG type message.
//   66 
//   67   This applications doesn't have a profile, so it handles everything
//   68   directly - itself.
//   69 
//   70   Key control:
//   71     SW1:
//   72     SW2:  initiates end device binding
//   73     SW3:
//   74     SW4:  initiates a match description request
//   75 *********************************************************************/
//   76 
//   77 /*********************************************************************
//   78  * INCLUDES
//   79  */
//   80 
//   81 #include "OSAL.h"
//   82 #include "AF.h"
//   83 #include "ZDApp.h"
//   84 #include "ZDObject.h"
//   85 #include "ZDProfile.h"
//   86 
//   87 #include "p2p_test.h"
//   88 #include "DebugTrace.h"
//   89 
//   90 #include "SPIMgr.h"

        ASEGN SFR_AN:DATA:NOROOT,090H
// union <unnamed> volatile __sfr _A_P1
_A_P1:
        DS 1

        ASEGN SFR_AN:DATA:NOROOT,0a0H
// union <unnamed> volatile __sfr _A_P2
_A_P2:
        DS 1

        ASEGN SFR_AN:DATA:NOROOT,0a8H
// union <unnamed> volatile __sfr _A_IEN0
_A_IEN0:
        DS 1

        ASEGN SFR_AN:DATA:NOROOT,0c6H
// unsigned char volatile __sfr CLKCON
CLKCON:
        DS 1

        ASEGN SFR_AN:DATA:NOROOT,0c9H
// unsigned char volatile __sfr WDCTL
WDCTL:
        DS 1

        ASEGN SFR_AN:DATA:NOROOT,0f4H
// unsigned char volatile __sfr P1SEL
P1SEL:
        DS 1

        ASEGN SFR_AN:DATA:NOROOT,0f5H
// unsigned char volatile __sfr P2SEL
P2SEL:
        DS 1

        ASEGN SFR_AN:DATA:NOROOT,0feH
// unsigned char volatile __sfr P1DIR
P1DIR:
        DS 1

        ASEGN SFR_AN:DATA:NOROOT,0ffH
// unsigned char volatile __sfr P2DIR
P2DIR:
        DS 1
//   91 #include <string.h>
//   92 
//   93 #if !defined( WIN32 )
//   94   #include "OnBoard.h"
//   95 #endif
//   96 
//   97 /* HAL */
//   98 #include "hal_lcd.h"
//   99 #include "hal_led.h"
//  100 #include "hal_key.h"
//  101 #include "hal_uart.h"
//  102 //#include "Hal_Sensor.h"  
//  103 #include "Hal_defs.h"
//  104 #include "hal_adc.h"
//  105 
//  106 /*********************************************************************
//  107  * MACROS
//  108  */
//  109 //zyq add
//  110 #define ADDFLAG16(a,Byte) ((uint16)(a|(0x0001<<(Byte-1))))
//  111 #define TYPE_SENSOR 0x00
//  112 #define TYPE_COMMAND 0x08
//  113 #define TYPE_MAINTAIN 0x01
//  114 #define TYPE_ACK 0x0f
//  115 
//  116 
//  117 #define TYPE_REPORT 0x02
//  118 #define TYPE_QUARY 0x09
//  119 #define TYPE_ACK_UP 0x00
//  120 
//  121 //RelationMsg up or down link typecode
//  122 #define RELATION_MSG_UP 0x01
//  123 #define RELATION_MSG_DOWN 0x01
//  124 //#define TYPE_CODE_SENSOR_ILLUMINATION 0X01
//  125 //#define TYPE_CODE_SENSOR_TEMPERATURE 0X02
//  126 #define TYPE_CODE_SENSOR_RAIN 0x01
//  127 #define TYPE_CODE_SENSOR_SOIL_HUMIDITY 0X02
//  128 #define TYPE_CODE_SENSOR_WATER_GAGE 0x03
//  129 #define TYPE_CODE_SENSOR_ACCELEROMETER 0x04
//  130 #define TYPE_CODE_SENSOR_PORE_PRESSURE 0x05
//  131 #define TYPE_CODE_SENSOR_READ_VCC 0X07
//  132 
//  133 //define sensor's ID
//  134 #define RAIN_ID 0x01
//  135 #define SOIL_ID 0x02
//  136 #define WATER_GAGE_ID 0x03
//  137 #define EARTHQUAKE_ID 0x04
//  138 #define PORE_ID 0x05
//  139 
//  140 //define that zigbee have the sensor or not
//  141 #define RAIN_FLAG 0x00
//  142 #define SOIL_FLAG 0x00
//  143 #define WATER_GAGE_FLAG 0x00
//  144 #define EARTHQUAKE_FLAG 0x00
//  145 #define PORE_FLAG 0x00
//  146 #define MAX_ID 8
//  147 
//  148 #define COMMAND_TYPE_RAIN 1    //雨量K值
//  149 #define COMMAND_TYPE_SOIL_HUMIDITY 2  //土壤湿度K值
//  150 #define COMMAND_TYPE_WATER_GAGE 3   //水位K值
//  151 #define COMMAND_TYPE_VIBRATIO 4   //振动K值
//  152 #define COMMAND_TYPE_PORE_PRESS 5  //孔压K值
//  153 #define COMMAND_TYPE_RAIN_KVALUE 6   //雨量N值
//  154 #define COMMAND_TYPE_WATER_HIGHTYPE 7  //水位空高类型
//  155 #define COMMAND_TYPE_HELLO 8//Hello频率
//  156 #define COMMAND_TYPE_WATER_T 9 //水位计自适应采集周期增加间隔T取值
//  157 #define COMMAND_TYPE_WATER_EDGE_A 10 //水位计自适应边界取值A
//  158 #define COMMAND_TYPE_WATER_EDGE_B 11 //水位计自适应边界取值B
//  159 #define COMMAND_TYPE_WATER_EDGE_C 12 //水位计自适应边界取值C
//  160 #define COMMAND_TYPE_ZIGBEE_RESTART 13 //zigbee重启的设置
//  161 #define COMMAND_TYPE_ACCEPTANCE 14     //项目验收
//  162 #define COMMAND_TYPE_ZIGBEE_RESTART_COMMAND 0x11     //zigbee重启命令
//  163 
//  164 //全部未用到
//  165 /*
//  166 #define TYPE_CODE_COMMAND_MODIFY_K 0x00
//  167 #define TYPE_CODE_COMMAND_MODIFY_N 0x01
//  168 #define TYPE_CODE_COMMAND_REQUIRE 0x02
//  169 #define TYPE_CODE_COMMAND_SENSOR_STOP_EVT 0x03
//  170 #define TYPE_CODE_MAINTAIN_RELATION 0x01
//  171 #define TYPE_CODE_MAINTAIN_RESET_TIME 0x06
//  172 */
//  173 
//  174 //define wate gage information type
//  175 #define Station_Num 0x01
//  176 #define Water_Func_Code 0x03
//  177 #define First_Addr0 0x0000
//  178 #define First_Addr1 0x0001
//  179 #define First_Addr2 0x0002
//  180 #define First_Addr3 0x0003
//  181 #define Water_num 0x0002
//  182 #define Default_Water_Gage First_Addr3
//  183 
//  184 //define soil type for select formula(未使用)  
//  185 /*
//  186 #define  Clay_Soil  0x00
//  187 #define  Loam_Soil  0x01
//  188 #define  Sand_Soil  0x02
//  189 */
//  190 
//  191 #define MAIN_VERSION 0x00
//  192 #define SUB_VERSION 0x01
//  193 
//  194 #define FREQ 0x00
//  195 #define REQUIRE 0x01
//  196 
//  197 #define ACK_YES 0x01
//  198 #define ACK_NO 0x00
//  199 
//  200 
//  201 #define DEBUG 1
//  202 
//  203 //static uint16 SerialNumber;

        RSEG XDATA_Z:XDATA:NOROOT(0)
//  204 static uint8 RES;
RES:
        DS 1
        REQUIRE __INIT_XDATA_Z

        RSEG XDATA_Z:XDATA:NOROOT(0)
//  205 static uint8 ARM_ID;
ARM_ID:
        DS 1
        REQUIRE __INIT_XDATA_Z

        RSEG XDATA_Z:XDATA:NOROOT(0)
//  206 static uint8 Zigbee_ID;
Zigbee_ID:
        DS 1
        REQUIRE __INIT_XDATA_Z
//  207 typedef struct
//  208 {
//  209   uint8 type : 4;
//  210   uint8 SubVersion : 1;
//  211   uint8 MainVersion : 2;
//  212   uint8 AckRequire : 1;
//  213   uint8 TypeCode;
//  214   uint8 sn[2];    //serial number
//  215 } AppHead_t;
//  216 
//  217 typedef struct
//  218 {
//  219   uint8 ARM_id :4;
//  220   uint8 r : 4;
//  221   uint8 sensor_type:4;
//  222   uint8 Zigbee_id :4;
//  223 } NodeId_t;
//  224 
//  225 typedef struct
//  226 {
//  227   uint8 time[4]; 
//  228   NodeId_t NodeId;  
//  229 } NodeIdAndTime_t;
//  230 
//  231 typedef struct
//  232 {
//  233   AppHead_t AppHead;
//  234   NodeIdAndTime_t NodeIdAndTime;
//  235   uint8 count[2];
//  236 } RainMsg_t;
//  237 
//  238 typedef struct
//  239 {
//  240   AppHead_t AppHead;
//  241   NodeIdAndTime_t NodeIdAndTime;
//  242   uint8 AdcVcc[2];
//  243   uint8 AdcValue[2];
//  244  // float SoilValue;
//  245 } Soil_Humidity_t;
//  246 
//  247 typedef struct
//  248 {
//  249   AppHead_t AppHead;
//  250   NodeIdAndTime_t NodeIdAndTime;
//  251   uint8 AdcVcc[2];
//  252   uint8 AdcValue[2];
//  253  // float Accelevalue;
//  254 } Accelerometer_t;
//  255 
//  256 typedef struct
//  257 {
//  258   AppHead_t AppHead;
//  259   NodeIdAndTime_t NodeIdAndTime;
//  260   uint8 AdcVcc[2];
//  261 } Vccvalue_t;
//  262 
//  263 typedef struct
//  264 {
//  265   AppHead_t AppHead;
//  266   NodeIdAndTime_t NodeIdAndTime;
//  267 } ResetTimeMsg_t;
//  268 
//  269 typedef struct
//  270 {
//  271   AppHead_t AppHead;
//  272   uint8 Num[2];
//  273   NodeId_t NodeId[MAX_ID];
//  274 } RelationMsg_t;  
//  275 
//  276 typedef struct
//  277 {
//  278   AppHead_t AppHead;
//  279   NodeId_t NodeId;
//  280 } AppHeadNodeId_t;
//  281 
//  282 typedef struct
//  283 {
//  284   uint8 head[2];
//  285   uint8 len;
//  286 } UartHeadMsg_t;
//  287 
//  288 //water gage information
//  289 typedef struct
//  290 {
//  291   AppHead_t AppHead;
//  292   NodeIdAndTime_t NodeIdAndTime;
//  293   // uint8 water_gage_type[2];
//  294   uint8 water_gage_value[2];  
//  295 }Water_Gage_t;
//  296 
//  297 typedef struct
//  298 {
//  299    uint8 station_number;
//  300    uint8 func_code;
//  301    uint8 first_addr[2];
//  302    uint8 read_num[2];
//  303    uint8 crc[2];
//  304 }Water_Send_Infor_t;
//  305 
//  306 typedef struct
//  307 {
//  308    uint8 station_number;
//  309    uint8 func_code;
//  310    uint8 read_byte_num;
//  311    uint8 data[8];
//  312    uint8 crc[8];
//  313 }Water_read_Infor_t;
//  314 
//  315  struct RelationMap_t 
//  316 {
//  317   uint16 addr16;
//  318   uint8 Zigbee_id;
//  319   struct RelationMap_t *next;
//  320 } ;
//  321 
//  322 typedef struct
//  323 {
//  324    AppHead_t AppHead;
//  325    NodeId_t Src_NodeId;
//  326 } AckUP_t;
//  327 
//  328 //自己编写
//  329 
//  330 
//  331 //保存最近三次数据
//  332 typedef struct
//  333 { 
//  334   uint16 data[3];
//  335   uint32 time[3];
//  336 }Watergage_data_and_time;
//  337 
//  338 
//  339 typedef struct
//  340 { 
//  341   float data[3];
//  342   uint32 time[3];
//  343 }Soilhumidity_data_and_time;
//  344 
//  345 
//  346 typedef struct
//  347 {
//  348   AppHead_t AppHead;
//  349   NodeId_t NodeId;
//  350   uint8 command_type;
//  351   uint16 water_gage_type;      //COMMAND_TYPE_WATER_HIGHTYPE
//  352   uint16 water_gage_freq;      //COMMAND_TYPE_WATER_GAGE
//  353   uint16 water_gage_T;         //COMMAND_TYPE_WATER_T
//  354   uint8  water_gage_A;         //COMMAND_TYPE_WATER_EDGE_A
//  355   uint8  water_gage_B;         //COMMAND_TYPE_WATER_EDGE_B  
//  356   uint8  water_gage_C;         //COMMAND_TYPE_WATER_EDGE_C  
//  357 }Zigbee_Restart_Command_t;
//  358 
//  359 //上次预测值和本次数据实际值的差值

        RSEG XDATA_Z:XDATA:NOROOT(0)
//  360 static uint16 Water_gage_err;
Water_gage_err:
        DS 2
        REQUIRE __INIT_XDATA_Z
//  361 //static float Soil_humidity_err;
//  362 
//  363 //传感器自己的序列号

        RSEG XDATA_Z:XDATA:NOROOT(0)
//  364 static uint16 Water_gage_SerialNumber;
Water_gage_SerialNumber:
        DS 2
        REQUIRE __INIT_XDATA_Z
//  365 //static uint16 Soil_humidity_SerialNumber;
//  366 
//  367 //自适应休眠周期的调整间隔（专利中的T）

        RSEG XDATA_Z:XDATA:NOROOT(0)
//  368 uint16 Water_gage_time ;   
Water_gage_time:
        DS 2
        REQUIRE __INIT_XDATA_Z
//  369 //uint16 Soil_humidity_time ; 
//  370 
//  371 //将时间改为静态的

        RSEG XDATA_Z:XDATA:NOROOT(0)
//  372 static uint32 now;
now:
        DS 4
        REQUIRE __INIT_XDATA_Z
//  373 
//  374 //传感器的预测值

        RSEG XDATA_Z:XDATA:NOROOT(0)
//  375 static uint16 Water_gage_forValue;
Water_gage_forValue:
        DS 2
        REQUIRE __INIT_XDATA_Z
//  376 //static float Soil_humidity_forValue;
//  377 
//  378 //定义一个具体的data_and_time变量

        RSEG XDATA_Z:XDATA:NOROOT(0)
//  379 Watergage_data_and_time  Water_Gage_data_and_time;
Water_Gage_data_and_time:
        DS 18
        REQUIRE __INIT_XDATA_Z
//  380 //Soilhumidity_data_and_time  Soil_humidity_data_and_time;
//  381 

        RSEG XDATA_Z:XDATA:NOROOT(0)
//  382 static uint8 no_charge_flag; 
no_charge_flag:
        DS 1
        REQUIRE __INIT_XDATA_Z

        RSEG XDATA_Z:XDATA:NOROOT(0)
//  383 static uint8 water_gage_on;
water_gage_on:
        DS 1
        REQUIRE __INIT_XDATA_Z

        RSEG XDATA_Z:XDATA:NOROOT(0)
//  384 uint16 CheckWaterGageChargeTimeFreq;
CheckWaterGageChargeTimeFreq:
        DS 2
        REQUIRE __INIT_XDATA_Z
//  385 
//  386 //区间边界值(水位计起始地址为0003，水位值，mm)

        RSEG XDATA_Z:XDATA:NOROOT(0)
//  387 static uint8 Water_gage_err_a  ;
Water_gage_err_a:
        DS 1
        REQUIRE __INIT_XDATA_Z

        RSEG XDATA_Z:XDATA:NOROOT(0)
//  388 static uint8 Water_gage_err_b  ;
Water_gage_err_b:
        DS 1
        REQUIRE __INIT_XDATA_Z

        RSEG XDATA_Z:XDATA:NOROOT(0)
//  389 static uint8 Water_gage_err_c  ;
Water_gage_err_c:
        DS 1
        REQUIRE __INIT_XDATA_Z
//  390 
//  391 /*
//  392 #define Soil_humidity_err_a  0.1  //0.1V
//  393 #define Soil_humidity_err_b  0.5  //0.5V
//  394 #define Soil_humidity_err_c  1.0  //1.0V
//  395 */
//  396 
//  397 //水位计量程
//  398 #define Water_gage_data_span 30000
//  399 

        RSEG XDATA_Z:XDATA:NOROOT(0)
//  400 static uint8 relation_done ;
relation_done:
        DS 1
        REQUIRE __INIT_XDATA_Z
//  401 
//  402 //项目验收  （非验收不关闭水位计，减少继电器拨片损耗）

        RSEG XDATA_Z:XDATA:NOROOT(0)
//  403 static uint8 acceptance;
acceptance:
        DS 1
        REQUIRE __INIT_XDATA_Z
//  404 /*********************************************************************
//  405  * CONSTANTS
//  406  */
//  407 #define CLKSPD  ( CLKCON & 0x01 )
//  408 #define DATA P1_1
//  409 #define SCK P1_0
//  410 
//  411 // This list should be filled with Application specific Cluster IDs.
//  412 /*********************************************************************
//  413  * TYPEDEFS
//  414  */
//  415 
//  416 /*********************************************************************
//  417  * GLOBAL VARIABLES
//  418  */
//  419 
//  420 // This list should be filled with Application specific Cluster IDs.

        RSEG XDATA_I:XDATA:NOROOT(0)
        DATA
//  421 const cId_t p2p_test_ClusterList[p2p_test_MAX_CLUSTERS] =
p2p_test_ClusterList:
        DS 6
        REQUIRE `?<Initializer for p2p_test_ClusterList>`
        REQUIRE __INIT_XDATA_I
//  422 {
//  423   p2p_test_CLUSTERID,
//  424   p2p_test_108ID,
//  425   p2p_test_RelationMsg,
//  426   //fire_extinguisher_clusterId
//  427 };
//  428 

        RSEG XDATA_I:XDATA:NOROOT(0)
        DATA
//  429 const SimpleDescriptionFormat_t p2p_test_SimpleDesc =
p2p_test_SimpleDesc:
        DS 12
        REQUIRE `?<Initializer for p2p_test_SimpleDesc>`
        REQUIRE __INIT_XDATA_I

        RSEG XDATA_I:XDATA:NOROOT(0)
        DATA
__Constant_40400000:
        DS 4
        REQUIRE `?<Initializer for __Constant_40400000>`
        REQUIRE __INIT_XDATA_I

        RSEG XDATA_I:XDATA:NOROOT(0)
        DATA
__Constant_ffffffff:
        DS 4
        REQUIRE `?<Initializer for __Constant_ffffffff>`
        REQUIRE __INIT_XDATA_I

        RSEG XDATA_I:XDATA:NOROOT(0)
        DATA
__Constant_0:
        DS 4
        REQUIRE `?<Initializer for __Constant_0>`
        REQUIRE __INIT_XDATA_I
//  430 {
//  431   p2p_test_ENDPOINT,              //  int Endpoint;
//  432   p2p_test_PROFID,                //  uint16 AppProfId[2];
//  433   p2p_test_DEVICEID,              //  uint16 AppDeviceId[2];
//  434   p2p_test_DEVICE_VERSION,        //  int   AppDevVer:4;
//  435   p2p_test_FLAGS,                 //  int   AppFlags:4;
//  436   p2p_test_MAX_CLUSTERS,          //  byte  AppNumInClusters;
//  437   (cId_t *)p2p_test_ClusterList,  //  byte *pAppInClusterList;
//  438   p2p_test_MAX_CLUSTERS,          //  byte  AppNumInClusters;
//  439   (cId_t *)p2p_test_ClusterList   //  byte *pAppInClusterList;
//  440 };
//  441 
//  442 // This is the Endpoint/Interface description.  It is defined here, but
//  443 // filled-in in p2p_test_Init().  Another way to go would be to fill
//  444 // in the structure here and make it a "const" (in code space).  The
//  445 // way it's defined in this sample app it is define in RAM.

        RSEG XDATA_Z:XDATA:NOROOT(0)
//  446 endPointDesc_t p2p_test_epDesc;
p2p_test_epDesc:
        DS 6
        REQUIRE __INIT_XDATA_Z
//  447 
//  448 /*********************************************************************
//  449  * EXTERNAL VARIABLES
//  450  */
//  451 
//  452 /*********************************************************************
//  453  * EXTERNAL FUNCTIONS
//  454  */
//  455 
//  456 /*********************************************************************
//  457  * LOCAL VARIABLES
//  458  */

        RSEG XDATA_Z:XDATA:NOROOT(0)
//  459 byte p2p_test_TaskID;   // Task ID for internal task/event processing
p2p_test_TaskID:
        DS 1
        REQUIRE __INIT_XDATA_Z
//  460                           // This variable will be received when
//  461                           // p2p_test_Init() is called.

        RSEG XDATA_Z:XDATA:NOROOT(0)
//  462 devStates_t p2p_test_NwkState;
p2p_test_NwkState:
        DS 1
        REQUIRE __INIT_XDATA_Z
//  463 
//  464 
//  465 byte p2p_test_TransID;  // This is the unique message ID (counter)
//  466 
//  467 

        RSEG XDATA_Z:XDATA:NOROOT(0)
//  468 byte p2p_test_TransID;  // This is the unique message ID (counter)
p2p_test_TransID:
        DS 1
        REQUIRE __INIT_XDATA_Z
//  469 

        RSEG XDATA_Z:XDATA:NOROOT(0)
//  470 afAddrType_t p2p_test_DstAddr;
p2p_test_DstAddr:
        DS 4
        REQUIRE __INIT_XDATA_Z

        RSEG XDATA_Z:XDATA:NOROOT(0)
//  471 afAddrType_t p2p_test_EnddeviceAddr;//add by yd 终端节点的短地址
p2p_test_EnddeviceAddr:
        DS 4
        REQUIRE __INIT_XDATA_Z
//  472   //uint8 p2p_msg[6];//the collect message

        RSEG XDATA_Z:XDATA:NOROOT(0)
//  473  uint16 shortaddr;
shortaddr:
        DS 2
        REQUIRE __INIT_XDATA_Z

        RSEG XDATA_Z:XDATA:NOROOT(0)
//  474  uint16 fatheraddr;
fatheraddr:
        DS 2
        REQUIRE __INIT_XDATA_Z
//  475  
//  476 //zyq add
//  477 /*
//  478 static uint8 SendRainCountFreq; //wait SendRainCountFreq send to PAN
//  479 static uint16 SendRainTimeFreq; //every SendRainTimeFreq minute send rain msg
//  480 static uint32 SendRainRemainTime;//unit second
//  481 static uint8 RainCountNum;
//  482 
//  483 static uint16 SendSoilHumidityTimeFreq;
//  484 static uint32 SendSoilHumidityRemainTime;
//  485 
//  486 static uint16 SendAccelerometerTimeFreq;
//  487 static uint32 SendAccelerometerRemainTime;
//  488 
//  489  
//  490 static uint16 SendVccValueTimeFreq;
//  491 static uint32 SendVccValueRemainTime;
//  492 */
//  493  

        RSEG XDATA_Z:XDATA:NOROOT(0)
//  494 static uint16 SendWaterGageTimeFreq;
SendWaterGageTimeFreq:
        DS 2
        REQUIRE __INIT_XDATA_Z

        RSEG XDATA_Z:XDATA:NOROOT(0)
//  495 static uint16 SendWaterGageRemainTime;
SendWaterGageRemainTime:
        DS 2
        REQUIRE __INIT_XDATA_Z
//  496 

        RSEG XDATA_Z:XDATA:NOROOT(0)
//  497 static uint16 WaterGageUnit;
WaterGageUnit:
        DS 2
        REQUIRE __INIT_XDATA_Z
//  498 //static uint8 SOIL_TYPE ;
//  499 
//  500 //static uint8 SoilHumidityFlag ;
//  501 //static uint8 RainFlag ;

        RSEG XDATA_Z:XDATA:NOROOT(0)
//  502 static uint8 WaterGageFlag;
WaterGageFlag:
        DS 1
        REQUIRE __INIT_XDATA_Z

        RSEG XDATA_Z:XDATA:NOROOT(0)
//  503 static struct RelationMap_t *Head_Map=NULL;
Head_Map:
        DS 2
        REQUIRE __INIT_XDATA_Z

        RSEG XDATA_Z:XDATA:NOROOT(0)
//  504 static struct RelationMap_t *Tail_Map=NULL;
Tail_Map:
        DS 2
        REQUIRE __INIT_XDATA_Z

        RSEG XDATA_Z:XDATA:NOROOT(0)
//  505 static uint16 FlagMap;
FlagMap:
        DS 2
        REQUIRE __INIT_XDATA_Z
//  506 
//  507 
//  508 
//  509 
//  510 /*********************************************************************
//  511  * LOCAL FUNCTIONS
//  512  */
//  513 void p2p_test_ProcessZDOMsgs( zdoIncomingMsg_t *inMsg );
//  514 //void p2p_test_HandleKeys( byte shift, byte keys );
//  515 void p2p_test_MessageMSGCB( afIncomingMSGPacket_t *pckt );
//  516 //void p2p_test_SendTheMessage( void );
//  517 
//  518 //zyq add
//  519 void p2p_test_recv_108clusterId(uint8 *pkt, uint8 length);
//  520 void p2p_test_recv_RelationMsgclusterId(uint8 *pkt,uint8 length,uint16 srcaddr);
//  521 
//  522 void p2p_test_RecvFromUart(uint8 *Msg);
//  523 void p2p_test_SendToUart(uint8 *Data, uint8 DataLength);
//  524 
//  525 void fill_AppHead(AppHead_t *AppHead, uint8 AckRequire, uint8 MainVersion, uint8 SubVersion, uint8 type, uint8 TypeCode);
//  526 void fill_AppHead_sn(AppHead_t *AppHead, uint8 AckRequire, uint8 MainVersion, uint8 SubVersion, uint8 type, uint8 TypeCode,uint16 SerialNumber);
//  527 void fill_NodeId_time(NodeIdAndTime_t *NodeIdAndTime,uint8 ARM_Id,uint8 Zigbee_id,uint8 sensor_type);
//  528 void SendMsg(uint8 *msg, uint8 MsgSize, afAddrType_t Dst, uint8 options,uint16 cID);
//  529 
//  530 //void p2p_test_SendResetRelativeTime( void );//未用到
//  531 void p2p_test_SendRelationPkt( void );
//  532 
//  533 
//  534 void p2p_test_interrupt_rain(uint16 count);
//  535 void p2p_test_SendRainTimeFreqAndRequire( uint8 FreqOrRequire );
//  536 void p2p_test_SendSoilHumidityTimeFreqAndRequire( uint8 FreqOrRequire );
//  537 void p2p_test_SendAccelerometerTimeFreqAndRequire(uint8 FreqOrRequire);
//  538 
//  539 void p2p_test_Send_VCC_VALUE(uint8 FreqOrRequire);
//  540 void p2p_test_Send_Water_Gage(uint8 FreqOrRequire,uint16 watergagetype);
//  541 void crc_water_gage(Water_Send_Infor_t * temp);
//  542 //unsigned short Read_SHT_TEMP_digital_sensor(void);
//  543 //unsigned short Read_SHT_HUMI_digital_sensor(void);
//  544 
//  545 void p2p_test_StartDataSensorTimer(void);
//  546 extern uint8 halWait(unsigned char wait);
//  547 void insert_RelationMap(struct RelationMap_t *map,uint16 addr,uint8 zigbee_id);
//  548 uint8 search_RelationMap(uint16 addr);
//  549 
//  550 //void READ_TEST( afIncomingMSGPacket_t *MSGpkt );
//  551 
//  552 //自己编写
//  553 
//  554 //函数声明
//  555 uint16 Water_gage_forecastValue(Watergage_data_and_time);
//  556 float Soil_humidity_forecastValue(Soilhumidity_data_and_time);
//  557 void HalUARTWrite_uint16(uint16);
//  558 void start_Water_gage_timer(void);
//  559 void start_Soil_humidity_timer(void);
//  560 float Soil_humidity_DtoA(uint16,uint16);
//  561 void check_water_gage_charge(void);
//  562 #if defined(RTR_NWK)
//  563 void print_AssociatedDevList(void);
//  564 #endif
//  565 
//  566 #if defined(RTR_NWK)

        RSEG BANKED_CODE:CODE:NOROOT(0)
//  567 void print_AssociatedDevList()
print_AssociatedDevList:
        CFI Block cfiBlock0 Using cfiCommon0
        CFI Function print_AssociatedDevList
//  568 {
        FUNCALL print_AssociatedDevList, HalUARTWrite_uint16
        LOCFRAME ISTACK, 0, STACK
        LOCFRAME PSTACK, 0, STACK
        LOCFRAME XSTACK, 11, STACK
        LOCFRAME IOVERLAY, 0, STATIC
        LOCFRAME DOVERLAY, 0, STATIC
        ARGFRAME ISTACK, 0, STACK
        ARGFRAME PSTACK, 0, STACK
        ARGFRAME XSTACK, 11, STACK
        ARGFRAME IOVERLAY, 0, STATIC
        ARGFRAME DOVERLAY, 0, STATIC
        FUNCALL print_AssociatedDevList, HalUARTWrite_uint16
        LOCFRAME ISTACK, 0, STACK
        LOCFRAME PSTACK, 0, STACK
        LOCFRAME XSTACK, 11, STACK
        LOCFRAME IOVERLAY, 0, STATIC
        LOCFRAME DOVERLAY, 0, STATIC
        ARGFRAME ISTACK, 0, STACK
        ARGFRAME PSTACK, 0, STACK
        ARGFRAME XSTACK, 11, STACK
        ARGFRAME IOVERLAY, 0, STATIC
        ARGFRAME DOVERLAY, 0, STATIC
        FUNCALL print_AssociatedDevList, HalUARTWrite
        LOCFRAME ISTACK, 0, STACK
        LOCFRAME PSTACK, 0, STACK
        LOCFRAME XSTACK, 11, STACK
        LOCFRAME IOVERLAY, 0, STATIC
        LOCFRAME DOVERLAY, 0, STATIC
        ARGFRAME ISTACK, 0, STACK
        ARGFRAME PSTACK, 0, STACK
        ARGFRAME XSTACK, 11, STACK
        ARGFRAME IOVERLAY, 0, STATIC
        ARGFRAME DOVERLAY, 0, STATIC
        FUNCALL print_AssociatedDevList, HalUARTWrite
        LOCFRAME ISTACK, 0, STACK
        LOCFRAME PSTACK, 0, STACK
        LOCFRAME XSTACK, 11, STACK
        LOCFRAME IOVERLAY, 0, STATIC
        LOCFRAME DOVERLAY, 0, STATIC
        ARGFRAME ISTACK, 0, STACK
        ARGFRAME PSTACK, 0, STACK
        ARGFRAME XSTACK, 11, STACK
        ARGFRAME IOVERLAY, 0, STATIC
        ARGFRAME DOVERLAY, 0, STATIC
        FUNCALL print_AssociatedDevList, HalUARTWrite
        LOCFRAME ISTACK, 0, STACK
        LOCFRAME PSTACK, 0, STACK
        LOCFRAME XSTACK, 11, STACK
        LOCFRAME IOVERLAY, 0, STATIC
        LOCFRAME DOVERLAY, 0, STATIC
        ARGFRAME ISTACK, 0, STACK
        ARGFRAME PSTACK, 0, STACK
        ARGFRAME XSTACK, 11, STACK
        ARGFRAME IOVERLAY, 0, STATIC
        ARGFRAME DOVERLAY, 0, STATIC
        FUNCALL print_AssociatedDevList, HalUARTWrite
        LOCFRAME ISTACK, 0, STACK
        LOCFRAME PSTACK, 0, STACK
        LOCFRAME XSTACK, 11, STACK
        LOCFRAME IOVERLAY, 0, STATIC
        LOCFRAME DOVERLAY, 0, STATIC
        ARGFRAME ISTACK, 0, STACK
        ARGFRAME PSTACK, 0, STACK
        ARGFRAME XSTACK, 11, STACK
        ARGFRAME IOVERLAY, 0, STATIC
        ARGFRAME DOVERLAY, 0, STATIC
        FUNCALL print_AssociatedDevList, HalUARTWrite
        LOCFRAME ISTACK, 0, STACK
        LOCFRAME PSTACK, 0, STACK
        LOCFRAME XSTACK, 11, STACK
        LOCFRAME IOVERLAY, 0, STATIC
        LOCFRAME DOVERLAY, 0, STATIC
        ARGFRAME ISTACK, 0, STACK
        ARGFRAME PSTACK, 0, STACK
        ARGFRAME XSTACK, 11, STACK
        ARGFRAME IOVERLAY, 0, STATIC
        ARGFRAME DOVERLAY, 0, STATIC
        FUNCALL print_AssociatedDevList, HalUARTWrite
        LOCFRAME ISTACK, 0, STACK
        LOCFRAME PSTACK, 0, STACK
        LOCFRAME XSTACK, 11, STACK
        LOCFRAME IOVERLAY, 0, STATIC
        LOCFRAME DOVERLAY, 0, STATIC
        ARGFRAME ISTACK, 0, STACK
        ARGFRAME PSTACK, 0, STACK
        ARGFRAME XSTACK, 11, STACK
        ARGFRAME IOVERLAY, 0, STATIC
        ARGFRAME DOVERLAY, 0, STATIC
        FUNCALL print_AssociatedDevList, HalUARTWrite
        LOCFRAME ISTACK, 0, STACK
        LOCFRAME PSTACK, 0, STACK
        LOCFRAME XSTACK, 11, STACK
        LOCFRAME IOVERLAY, 0, STATIC
        LOCFRAME DOVERLAY, 0, STATIC
        ARGFRAME ISTACK, 0, STACK
        ARGFRAME PSTACK, 0, STACK
        ARGFRAME XSTACK, 11, STACK
        ARGFRAME IOVERLAY, 0, STATIC
        ARGFRAME DOVERLAY, 0, STATIC
        MOV     A,#-0xa
        LCALL   ?BANKED_ENTER_XDATA
        CFI DPH0 load(1, XDATA, add(CFA_XSP16, literal(-1)))
        CFI DPL0 load(1, XDATA, add(CFA_XSP16, literal(-2)))
        CFI ?BRET_EXT load(1, XDATA, add(CFA_XSP16, literal(-3)))
        CFI ?RET_HIGH load(1, XDATA, add(CFA_XSP16, literal(-4)))
        CFI ?RET_LOW load(1, XDATA, add(CFA_XSP16, literal(-5)))
        CFI R7 load(1, XDATA, add(CFA_XSP16, literal(-6)))
        CFI V1 load(1, XDATA, add(CFA_XSP16, literal(-7)))
        CFI V0 load(1, XDATA, add(CFA_XSP16, literal(-8)))
        CFI VB load(1, XDATA, add(CFA_XSP16, literal(-9)))
        CFI R6 load(1, XDATA, add(CFA_XSP16, literal(-10)))
        CFI CFA_SP SP+0
        CFI CFA_XSP16 add(XSP16, 10)
        ; Saved register size: 10
        ; Auto size: 1
        MOV     A,#-0x1
        LCALL   ?ALLOC_XSTACK8
        CFI CFA_XSP16 add(XSP16, 11)
//  569   uint8 one_end =0xAB;
        MOV     A,#-0x55
        MOV     DPL,?XSP + 0
        MOV     DPH,?XSP + 1
        MOVX    @DPTR,A
//  570   for(uint8 x=0;x<NWK_MAX_DEVICES;x++)
        MOV     R6,#0x0
//  571   {
//  572     if(AssociatedDevList[x].shortAddr !=0xFFFF)
??print_AssociatedDevList_0:
        MOV     A,R6
        MOV     B,#0xe
        MUL     AB
        MOV     R1,B
        ADD     A,#(AssociatedDevList & 0xff)
        MOV     DPL,A
        MOV     A,R1
        ADDC    A,#((AssociatedDevList >> 8) & 0xff)
        MOV     DPH,A
        MOVX    A,@DPTR
        XRL     A,#0xff
        JNZ     ??print_AssociatedDevList_1
        INC     DPTR
        MOVX    A,@DPTR
        XRL     A,#0xff
??print_AssociatedDevList_1:
        JZ      ??print_AssociatedDevList_2
//  573     {
//  574     HalUARTWrite_uint16(AssociatedDevList[x].shortAddr);
        MOV     A,R6
        MOV     B,#0xe
        MUL     AB
        ADD     A,#(AssociatedDevList & 0xff)
        MOV     ?V0 + 0,A
        MOV     A,R1
        ADDC    A,#((AssociatedDevList >> 8) & 0xff)
        MOV     ?V0 + 1,A
        ; Setup parameters for call to function HalUARTWrite_uint16
        MOV     DPL,?V0 + 0
        MOV     DPH,A
        LCALL   ??Subroutine23_0 & 0xFFFF
//  575     HalUARTWrite_uint16(AssociatedDevList[x].addrIdx);
??CrossCallReturnLabel_60:
        ; Setup parameters for call to function HalUARTWrite_uint16
        MOV     DPL,?V0 + 0
        MOV     DPH,?V0 + 1
        INC     DPTR
        INC     DPTR
        LCALL   ?Subroutine22 & 0xFFFF
//  576     HalUARTWrite(0,(uint8*)&(AssociatedDevList[x].nodeRelation), sizeof(uint8));
??CrossCallReturnLabel_192:
        MOV     A,?V0 + 0
        ADD     A,#0x4
        LCALL   ?Subroutine38 & 0xFFFF
//  577     HalUARTWrite(0,(uint8*)&(AssociatedDevList[x].devStatus), sizeof(uint8));
??CrossCallReturnLabel_99:
        ADD     A,#0x5
        LCALL   ?Subroutine38 & 0xFFFF
//  578     HalUARTWrite(0,(uint8*)&(AssociatedDevList[x].assocCnt), sizeof(uint8));
??CrossCallReturnLabel_100:
        ADD     A,#0x6
        LCALL   ?Subroutine38 & 0xFFFF
//  579     HalUARTWrite(0,(uint8*)&(AssociatedDevList[x].linkInfo.txCost), sizeof(uint8));
??CrossCallReturnLabel_101:
        ADD     A,#0x7
        LCALL   ?Subroutine38 & 0xFFFF
//  580     HalUARTWrite(0,(uint8*)&(AssociatedDevList[x].linkInfo.rxCost), sizeof(uint8));
??CrossCallReturnLabel_102:
        ADD     A,#0x8
        LCALL   ?Subroutine38 & 0xFFFF
//  581     HalUARTWrite(0,(uint8*)&(AssociatedDevList[x].linkInfo.inKeySeqNum), sizeof(uint8));
??CrossCallReturnLabel_103:
        ADD     A,#0x9
        MOV     R2,A
        MOV     A,?V0 + 1
        ADDC    A,#0x0
        MOV     R3,A
        LCALL   ?Subroutine39 & 0xFFFF
//  582     HalUARTWrite(0,(uint8*)&(one_end), sizeof(uint8));
//  583     }
//  584     else
//  585     {
//  586       return;
//  587     }
//  588   }
??CrossCallReturnLabel_161:
        INC     R6
        MOV     A,R6
        CLR     C
        SUBB    A,#0x15
        JC      ??print_AssociatedDevList_0
??print_AssociatedDevList_2:
        MOV     A,#0x1
        LJMP    ?Subroutine60 & 0xFFFF
        CFI EndBlock cfiBlock0
//  589 }

        RSEG BANKED_CODE:CODE:NOROOT(0)
?Subroutine38:
        CFI Block cfiCond1 Using cfiCommon0
        CFI NoFunction
        CFI Conditional ??CrossCallReturnLabel_99
        CFI R6 load(1, XDATA, add(CFA_XSP16, literal(-10)))
        CFI VB load(1, XDATA, add(CFA_XSP16, literal(-9)))
        CFI V0 load(1, XDATA, add(CFA_XSP16, literal(-8)))
        CFI V1 load(1, XDATA, add(CFA_XSP16, literal(-7)))
        CFI R7 load(1, XDATA, add(CFA_XSP16, literal(-6)))
        CFI ?RET_LOW load(1, XDATA, add(CFA_XSP16, literal(-5)))
        CFI ?RET_HIGH load(1, XDATA, add(CFA_XSP16, literal(-4)))
        CFI ?BRET_EXT load(1, XDATA, add(CFA_XSP16, literal(-3)))
        CFI DPL0 load(1, XDATA, add(CFA_XSP16, literal(-2)))
        CFI DPH0 load(1, XDATA, add(CFA_XSP16, literal(-1)))
        CFI CFA_SP SP+0
        CFI CFA_XSP16 add(XSP16, 11)
        CFI Block cfiCond2 Using cfiCommon0
        CFI (cfiCond2) NoFunction
        CFI (cfiCond2) Conditional ??CrossCallReturnLabel_100
        CFI (cfiCond2) R6 load(1, XDATA, add(CFA_XSP16, literal(-10)))
        CFI (cfiCond2) VB load(1, XDATA, add(CFA_XSP16, literal(-9)))
        CFI (cfiCond2) V0 load(1, XDATA, add(CFA_XSP16, literal(-8)))
        CFI (cfiCond2) V1 load(1, XDATA, add(CFA_XSP16, literal(-7)))
        CFI (cfiCond2) R7 load(1, XDATA, add(CFA_XSP16, literal(-6)))
        CFI (cfiCond2) ?RET_LOW load(1, XDATA, add(CFA_XSP16, literal(-5)))
        CFI (cfiCond2) ?RET_HIGH load(1, XDATA, add(CFA_XSP16, literal(-4)))
        CFI (cfiCond2) ?BRET_EXT load(1, XDATA, add(CFA_XSP16, literal(-3)))
        CFI (cfiCond2) DPL0 load(1, XDATA, add(CFA_XSP16, literal(-2)))
        CFI (cfiCond2) DPH0 load(1, XDATA, add(CFA_XSP16, literal(-1)))
        CFI (cfiCond2) CFA_SP SP+0
        CFI (cfiCond2) CFA_XSP16 add(XSP16, 11)
        CFI Block cfiCond3 Using cfiCommon0
        CFI (cfiCond3) NoFunction
        CFI (cfiCond3) Conditional ??CrossCallReturnLabel_101
        CFI (cfiCond3) R6 load(1, XDATA, add(CFA_XSP16, literal(-10)))
        CFI (cfiCond3) VB load(1, XDATA, add(CFA_XSP16, literal(-9)))
        CFI (cfiCond3) V0 load(1, XDATA, add(CFA_XSP16, literal(-8)))
        CFI (cfiCond3) V1 load(1, XDATA, add(CFA_XSP16, literal(-7)))
        CFI (cfiCond3) R7 load(1, XDATA, add(CFA_XSP16, literal(-6)))
        CFI (cfiCond3) ?RET_LOW load(1, XDATA, add(CFA_XSP16, literal(-5)))
        CFI (cfiCond3) ?RET_HIGH load(1, XDATA, add(CFA_XSP16, literal(-4)))
        CFI (cfiCond3) ?BRET_EXT load(1, XDATA, add(CFA_XSP16, literal(-3)))
        CFI (cfiCond3) DPL0 load(1, XDATA, add(CFA_XSP16, literal(-2)))
        CFI (cfiCond3) DPH0 load(1, XDATA, add(CFA_XSP16, literal(-1)))
        CFI (cfiCond3) CFA_SP SP+0
        CFI (cfiCond3) CFA_XSP16 add(XSP16, 11)
        CFI Block cfiCond4 Using cfiCommon0
        CFI (cfiCond4) NoFunction
        CFI (cfiCond4) Conditional ??CrossCallReturnLabel_102
        CFI (cfiCond4) R6 load(1, XDATA, add(CFA_XSP16, literal(-10)))
        CFI (cfiCond4) VB load(1, XDATA, add(CFA_XSP16, literal(-9)))
        CFI (cfiCond4) V0 load(1, XDATA, add(CFA_XSP16, literal(-8)))
        CFI (cfiCond4) V1 load(1, XDATA, add(CFA_XSP16, literal(-7)))
        CFI (cfiCond4) R7 load(1, XDATA, add(CFA_XSP16, literal(-6)))
        CFI (cfiCond4) ?RET_LOW load(1, XDATA, add(CFA_XSP16, literal(-5)))
        CFI (cfiCond4) ?RET_HIGH load(1, XDATA, add(CFA_XSP16, literal(-4)))
        CFI (cfiCond4) ?BRET_EXT load(1, XDATA, add(CFA_XSP16, literal(-3)))
        CFI (cfiCond4) DPL0 load(1, XDATA, add(CFA_XSP16, literal(-2)))
        CFI (cfiCond4) DPH0 load(1, XDATA, add(CFA_XSP16, literal(-1)))
        CFI (cfiCond4) CFA_SP SP+0
        CFI (cfiCond4) CFA_XSP16 add(XSP16, 11)
        CFI Block cfiCond5 Using cfiCommon0
        CFI (cfiCond5) NoFunction
        CFI (cfiCond5) Conditional ??CrossCallReturnLabel_103
        CFI (cfiCond5) R6 load(1, XDATA, add(CFA_XSP16, literal(-10)))
        CFI (cfiCond5) VB load(1, XDATA, add(CFA_XSP16, literal(-9)))
        CFI (cfiCond5) V0 load(1, XDATA, add(CFA_XSP16, literal(-8)))
        CFI (cfiCond5) V1 load(1, XDATA, add(CFA_XSP16, literal(-7)))
        CFI (cfiCond5) R7 load(1, XDATA, add(CFA_XSP16, literal(-6)))
        CFI (cfiCond5) ?RET_LOW load(1, XDATA, add(CFA_XSP16, literal(-5)))
        CFI (cfiCond5) ?RET_HIGH load(1, XDATA, add(CFA_XSP16, literal(-4)))
        CFI (cfiCond5) ?BRET_EXT load(1, XDATA, add(CFA_XSP16, literal(-3)))
        CFI (cfiCond5) DPL0 load(1, XDATA, add(CFA_XSP16, literal(-2)))
        CFI (cfiCond5) DPH0 load(1, XDATA, add(CFA_XSP16, literal(-1)))
        CFI (cfiCond5) CFA_SP SP+0
        CFI (cfiCond5) CFA_XSP16 add(XSP16, 11)
        CFI Block cfiPicker6 Using cfiCommon1
        CFI (cfiPicker6) NoFunction
        CFI (cfiPicker6) Picker
        MOV     R2,A
        MOV     A,?V0 + 1
        ADDC    A,#0x0
        MOV     R3,A
        LCALL   ?Subroutine55 & 0xFFFF
??CrossCallReturnLabel_194:
        MOV     A,?V0 + 0
        RET
        CFI EndBlock cfiCond1
        CFI EndBlock cfiCond2
        CFI EndBlock cfiCond3
        CFI EndBlock cfiCond4
        CFI EndBlock cfiCond5
        CFI EndBlock cfiPicker6
//  590 #endif
//  591 
//  592 //检查水位计是否有电，防止水位计偶然断电后自动恢复

        RSEG BANKED_CODE:CODE:NOROOT(0)
//  593 void check_water_gage_charge()
check_water_gage_charge:
        CFI Block cfiBlock7 Using cfiCommon0
        CFI Function check_water_gage_charge
//  594 {
        FUNCALL check_water_gage_charge, osal_start_timerEx
        LOCFRAME ISTACK, 2, STACK
        LOCFRAME PSTACK, 0, STACK
        LOCFRAME XSTACK, 1, STACK
        LOCFRAME IOVERLAY, 0, STATIC
        LOCFRAME DOVERLAY, 0, STATIC
        ARGFRAME ISTACK, 2, STACK
        ARGFRAME PSTACK, 0, STACK
        ARGFRAME XSTACK, 1, STACK
        ARGFRAME IOVERLAY, 0, STATIC
        ARGFRAME DOVERLAY, 0, STATIC
        FUNCALL check_water_gage_charge, osal_start_timerEx
        LOCFRAME ISTACK, 2, STACK
        LOCFRAME PSTACK, 0, STACK
        LOCFRAME XSTACK, 1, STACK
        LOCFRAME IOVERLAY, 0, STATIC
        LOCFRAME DOVERLAY, 0, STATIC
        ARGFRAME ISTACK, 2, STACK
        ARGFRAME PSTACK, 0, STACK
        ARGFRAME XSTACK, 1, STACK
        ARGFRAME IOVERLAY, 0, STATIC
        ARGFRAME DOVERLAY, 0, STATIC
        FUNCALL check_water_gage_charge, HalUARTWrite
        LOCFRAME ISTACK, 2, STACK
        LOCFRAME PSTACK, 0, STACK
        LOCFRAME XSTACK, 1, STACK
        LOCFRAME IOVERLAY, 0, STATIC
        LOCFRAME DOVERLAY, 0, STATIC
        ARGFRAME ISTACK, 2, STACK
        ARGFRAME PSTACK, 0, STACK
        ARGFRAME XSTACK, 1, STACK
        ARGFRAME IOVERLAY, 0, STATIC
        ARGFRAME DOVERLAY, 0, STATIC
        PUSH    DPL
        CFI DPL0 Frame(CFA_SP, 4)
        CFI CFA_SP SP+-4
        PUSH    DPH
        CFI DPH0 Frame(CFA_SP, 5)
        CFI CFA_SP SP+-5
        ; Saved register size: 2
        ; Auto size: 1
        MOV     A,#-0x1
        LCALL   ?ALLOC_XSTACK8
        CFI CFA_XSP16 add(XSP16, 1)
//  595   if(no_charge_flag ==1)      //表示水位计没电
        MOV     DPTR,#no_charge_flag
        MOVX    A,@DPTR
        XRL     A,#0x1
        JNZ     ??check_water_gage_charge_0
//  596   {
//  597     osal_start_timerEx(p2p_test_TaskID,
//  598                           p2p_test_SEND_WATER_GAGE_MSG_EVT, 
//  599                           (SendWaterGageTimeFreq -60 )* 1000);
        ; Setup parameters for call to function osal_start_timerEx
        MOV     DPTR,#SendWaterGageTimeFreq
        MOVX    A,@DPTR
        ADD     A,#-0x3c
        MOV     R4,A
        INC     DPTR
        MOVX    A,@DPTR
        ADDC    A,#-0x1
        MOV     R5,A
        LCALL   ?Subroutine56 & 0xFFFF
??CrossCallReturnLabel_148:
        LCALL   ?Subroutine32 & 0xFFFF
??CrossCallReturnLabel_85:
        SJMP    ??check_water_gage_charge_1
//  600     osal_start_timerEx(p2p_test_TaskID,
//  601                           p2p_test_CHECK_WATER_GAGE_CHARGE_MSG_EVT, 
//  602                           CheckWaterGageChargeTimeFreq * 1000);
//  603   }
//  604   else if (no_charge_flag==0)    //表示水位计仍在正常工作
??check_water_gage_charge_0:
        MOVX    A,@DPTR
        JNZ     ??CrossCallReturnLabel_90
//  605   {
//  606     osal_start_timerEx(p2p_test_TaskID,
//  607                           p2p_test_CHECK_WATER_GAGE_CHARGE_MSG_EVT, 
//  608                           CheckWaterGageChargeTimeFreq * 1000);
??check_water_gage_charge_1:
        ; Setup parameters for call to function osal_start_timerEx
        MOV     DPTR,#CheckWaterGageChargeTimeFreq
        LCALL   ?Subroutine16 & 0xFFFF
??CrossCallReturnLabel_48:
        MOV     R2,#0x0
        MOV     R3,#0x1
        LCALL   ??Subroutine32_1 & 0xFFFF
//  609   }
//  610 
//  611 #if DEBUG  
//  612     uint8 x =255;
??CrossCallReturnLabel_90:
        MOV     A,#-0x1
        LCALL   ?Subroutine1 & 0xFFFF
//  613     HalUARTWrite(0,&x, sizeof(x));
//  614 #endif
//  615 } 
??CrossCallReturnLabel_163:
        MOV     A,#0x1
        LJMP    ?Subroutine67 & 0xFFFF
        CFI EndBlock cfiBlock7
//  616 
//  617 
//  618 //正确顺序输出16位数据到串口

        RSEG BANKED_CODE:CODE:NOROOT(0)
//  619 void HalUARTWrite_uint16(uint16 data)
HalUARTWrite_uint16:
        CFI Block cfiBlock8 Using cfiCommon0
        CFI Function HalUARTWrite_uint16
//  620 {
        FUNCALL HalUARTWrite_uint16, HalUARTWrite
        LOCFRAME ISTACK, 2, STACK
        LOCFRAME PSTACK, 0, STACK
        LOCFRAME XSTACK, 2, STACK
        LOCFRAME IOVERLAY, 0, STATIC
        LOCFRAME DOVERLAY, 0, STATIC
        ARGFRAME ISTACK, 2, STACK
        ARGFRAME PSTACK, 0, STACK
        ARGFRAME XSTACK, 2, STACK
        ARGFRAME IOVERLAY, 0, STATIC
        ARGFRAME DOVERLAY, 0, STATIC
        PUSH    DPL
        CFI DPL0 Frame(CFA_SP, 4)
        CFI CFA_SP SP+-4
        PUSH    DPH
        CFI DPH0 Frame(CFA_SP, 5)
        CFI CFA_SP SP+-5
        ; Saved register size: 2
        ; Auto size: 2
        MOV     A,#-0x2
        LCALL   ?ALLOC_XSTACK8
        CFI CFA_XSP16 add(XSP16, 2)
//  621   typedef struct{
//  622     uint8 x[2];
//  623   }x;
//  624    x xdata;       
//  625   xdata.x[0] = (data>>8)&0x00FF;
        MOV     A,R3
        MOV     DPL,?XSP + 0
        MOV     DPH,?XSP + 1
        MOVX    @DPTR,A
//  626   xdata.x[1] = data & 0x00FF;
        MOV     A,#0x1
        LCALL   ?XSTACK_DISP0_8
        MOV     A,R2
        MOVX    @DPTR,A
//  627   HalUARTWrite(0,(uint8*)&xdata, sizeof(xdata));
        ; Setup parameters for call to function HalUARTWrite
        MOV     R4,#0x2
        MOV     R5,#0x0
        MOV     DPL,?XSP + 0
        MOV     DPH,?XSP + 1
        MOV     R2,DPL
        MOV     R3,DPH
        MOV     R1,#0x0
        LCALL   ??HalUARTWrite?relay
//  628 }
        MOV     A,#0x2
        LJMP    ?Subroutine67 & 0xFFFF
        CFI EndBlock cfiBlock8
//  629 
//  630 //预测水位计下一数据值

        RSEG BANKED_CODE:CODE:NOROOT(0)
//  631 uint16 Water_gage_forecastValue(Watergage_data_and_time sdat)
Water_gage_forecastValue:
        CFI Block cfiBlock9 Using cfiCommon0
        CFI Function Water_gage_forecastValue
//  632   {
        MOV     A,#-0x10
        LCALL   ?BANKED_ENTER_XDATA
        CFI DPH0 load(1, XDATA, add(CFA_XSP16, literal(-1)))
        CFI DPL0 load(1, XDATA, add(CFA_XSP16, literal(-2)))
        CFI ?BRET_EXT load(1, XDATA, add(CFA_XSP16, literal(-3)))
        CFI ?RET_HIGH load(1, XDATA, add(CFA_XSP16, literal(-4)))
        CFI ?RET_LOW load(1, XDATA, add(CFA_XSP16, literal(-5)))
        CFI R7 load(1, XDATA, add(CFA_XSP16, literal(-6)))
        CFI V7 load(1, XDATA, add(CFA_XSP16, literal(-7)))
        CFI V6 load(1, XDATA, add(CFA_XSP16, literal(-8)))
        CFI V5 load(1, XDATA, add(CFA_XSP16, literal(-9)))
        CFI V4 load(1, XDATA, add(CFA_XSP16, literal(-10)))
        CFI V3 load(1, XDATA, add(CFA_XSP16, literal(-11)))
        CFI V2 load(1, XDATA, add(CFA_XSP16, literal(-12)))
        CFI V1 load(1, XDATA, add(CFA_XSP16, literal(-13)))
        CFI V0 load(1, XDATA, add(CFA_XSP16, literal(-14)))
        CFI VB load(1, XDATA, add(CFA_XSP16, literal(-15)))
        CFI R6 load(1, XDATA, add(CFA_XSP16, literal(-16)))
        CFI CFA_SP SP+0
        CFI CFA_XSP16 add(XSP16, 16)
        ; Saved register size: 16
        ; Auto size: 36
        MOV     A,#-0x24
        LCALL   ?ALLOC_XSTACK8
        CFI CFA_XSP16 add(XSP16, 52)
//  633      double x1,x2,x3;
//  634      double y1,y2,y3;
//  635      double b,k;
//  636      
//  637      if( (sdat.time[2]>sdat.time[1])&&(sdat.time[1]>sdat.time[0]) )
        MOV     A,#0x3e
        LCALL   ?XSTACK_DISP0_8
        PUSH    DPL
        CFI CFA_SP SP+-1
        PUSH    DPH
        CFI CFA_SP SP+-2
        MOV     A,#0x42
        LCALL   ?XSTACK_DISP0_8
        MOV     R0,#?V0 + 0
        LCALL   ?L_MOV_X
        POP     DPH
        CFI CFA_SP SP+-1
        POP     DPL
        CFI CFA_SP SP+0
        MOV     R0,#?V0 + 0
        LCALL   ?UL_GT_X
        JC      $+5
        LJMP    ??Water_gage_forecastValue_0 & 0xFFFF
        MOV     A,#0x3a
        LCALL   ?XSTACK_DISP0_8
        PUSH    DPL
        CFI CFA_SP SP+-1
        PUSH    DPH
        CFI CFA_SP SP+-2
        MOV     A,#0x3e
        LCALL   ?XSTACK_DISP0_8
        MOV     R0,#?V0 + 0
        LCALL   ?L_MOV_X
        POP     DPH
        CFI CFA_SP SP+-1
        POP     DPL
        CFI CFA_SP SP+0
        MOV     R0,#?V0 + 0
        LCALL   ?UL_GT_X
        JNC     ??Water_gage_forecastValue_0
//  638      {
//  639        y1=sdat.data[0];
        MOV     A,#0x34
        LCALL   ?XSTACK_DISP0_8
        LCALL   ?Subroutine14 & 0xFFFF
??CrossCallReturnLabel_36:
        LCALL   ?UL_TO_FLT
        MOV     A,#0xc
        LCALL   ?XSTACK_DISP0_8
        MOV     R0,#?V0 + 0
        LCALL   ?L_MOV_TO_X
//  640        x1=sdat.time[0];
        MOV     A,#0x3a
        LCALL   ?XSTACK_DISP0_8
        MOV     R0,#?V0 + 0
        LCALL   ?L_MOV_X
        MOV     R0,#?V0 + 0
        LCALL   ?UL_TO_FLT
        MOV     A,#0x4
        LCALL   ?XSTACK_DISP0_8
        MOV     R0,#?V0 + 0
        LCALL   ?L_MOV_TO_X
//  641        y2=sdat.data[1];
        MOV     A,#0x36
        LCALL   ?XSTACK_DISP0_8
        LCALL   ?Subroutine14 & 0xFFFF
??CrossCallReturnLabel_37:
        LCALL   ?UL_TO_FLT
        MOV     A,#0x10
        LCALL   ?XSTACK_DISP0_8
        MOV     R0,#?V0 + 0
        LCALL   ?L_MOV_TO_X
//  642        x2=sdat.time[1];
        MOV     A,#0x3e
        LCALL   ?XSTACK_DISP0_8
        MOV     R0,#?V0 + 0
        LCALL   ?L_MOV_X
        MOV     R0,#?V0 + 0
        LCALL   ?UL_TO_FLT
        MOV     A,#0x8
        LCALL   ?XSTACK_DISP0_8
        MOV     R0,#?V0 + 0
        LCALL   ?L_MOV_TO_X
//  643        y3=sdat.data[2];
        MOV     A,#0x38
        LCALL   ?XSTACK_DISP0_8
        LCALL   ?Subroutine14 & 0xFFFF
??CrossCallReturnLabel_38:
        LCALL   ?UL_TO_FLT
        MOV     A,#0x14
        LCALL   ?XSTACK_DISP0_8
        MOV     R0,#?V0 + 0
        LCALL   ?L_MOV_TO_X
//  644        x3=sdat.time[2];
        MOV     A,#0x42
        LJMP    ??Water_gage_forecastValue_1 & 0xFFFF
//  645 
//  646      
//  647      }
//  648      else if( (sdat.time[0]>sdat.time[2])&&(sdat.time[2]>sdat.time[1]) )
??Water_gage_forecastValue_0:
        MOV     A,#0x42
        LCALL   ?XSTACK_DISP0_8
        PUSH    DPL
        CFI CFA_SP SP+-1
        PUSH    DPH
        CFI CFA_SP SP+-2
        MOV     A,#0x3a
        LCALL   ?XSTACK_DISP0_8
        MOV     R0,#?V0 + 0
        LCALL   ?L_MOV_X
        POP     DPH
        CFI CFA_SP SP+-1
        POP     DPL
        CFI CFA_SP SP+0
        MOV     R0,#?V0 + 0
        LCALL   ?UL_GT_X
        JC      $+5
        LJMP    ??Water_gage_forecastValue_2 & 0xFFFF
        MOV     A,#0x3e
        LCALL   ?XSTACK_DISP0_8
        PUSH    DPL
        CFI CFA_SP SP+-1
        PUSH    DPH
        CFI CFA_SP SP+-2
        MOV     A,#0x42
        LCALL   ?XSTACK_DISP0_8
        MOV     R0,#?V0 + 0
        LCALL   ?L_MOV_X
        POP     DPH
        CFI CFA_SP SP+-1
        POP     DPL
        CFI CFA_SP SP+0
        MOV     R0,#?V0 + 0
        LCALL   ?UL_GT_X
        JNC     ??Water_gage_forecastValue_2
//  649      {
//  650        y1=sdat.data[1];
        MOV     A,#0x36
        LCALL   ?XSTACK_DISP0_8
        LCALL   ?Subroutine14 & 0xFFFF
??CrossCallReturnLabel_39:
        LCALL   ?UL_TO_FLT
        MOV     A,#0xc
        LCALL   ?XSTACK_DISP0_8
        MOV     R0,#?V0 + 0
        LCALL   ?L_MOV_TO_X
//  651        x1=sdat.time[1];
        MOV     A,#0x3e
        LCALL   ?XSTACK_DISP0_8
        MOV     R0,#?V0 + 0
        LCALL   ?L_MOV_X
        MOV     R0,#?V0 + 0
        LCALL   ?UL_TO_FLT
        MOV     A,#0x4
        LCALL   ?XSTACK_DISP0_8
        MOV     R0,#?V0 + 0
        LCALL   ?L_MOV_TO_X
//  652        y2=sdat.data[2];
        MOV     A,#0x38
        LCALL   ?XSTACK_DISP0_8
        LCALL   ?Subroutine14 & 0xFFFF
??CrossCallReturnLabel_40:
        LCALL   ?UL_TO_FLT
        MOV     A,#0x10
        LCALL   ?XSTACK_DISP0_8
        MOV     R0,#?V0 + 0
        LCALL   ?L_MOV_TO_X
//  653        x2=sdat.time[2];
        MOV     A,#0x42
        LCALL   ?XSTACK_DISP0_8
        MOV     R0,#?V0 + 0
        LCALL   ?L_MOV_X
        MOV     R0,#?V0 + 0
        LCALL   ?UL_TO_FLT
        MOV     A,#0x8
        LCALL   ?XSTACK_DISP0_8
        MOV     R0,#?V0 + 0
        LCALL   ?L_MOV_TO_X
//  654        y3=sdat.data[0];
        MOV     A,#0x34
        LCALL   ?XSTACK_DISP0_8
        LCALL   ?Subroutine14 & 0xFFFF
??CrossCallReturnLabel_41:
        LCALL   ?UL_TO_FLT
        MOV     A,#0x14
        LCALL   ?XSTACK_DISP0_8
        MOV     R0,#?V0 + 0
        LCALL   ?L_MOV_TO_X
//  655        x3=sdat.time[0];
        MOV     A,#0x3a
        SJMP    ??Water_gage_forecastValue_1
//  656      }
//  657      else
//  658      {
//  659        y1=sdat.data[2];
??Water_gage_forecastValue_2:
        MOV     A,#0x38
        LCALL   ?XSTACK_DISP0_8
        LCALL   ?Subroutine14 & 0xFFFF
??CrossCallReturnLabel_42:
        LCALL   ?UL_TO_FLT
        MOV     A,#0xc
        LCALL   ?XSTACK_DISP0_8
        MOV     R0,#?V0 + 0
        LCALL   ?L_MOV_TO_X
//  660        x1=sdat.time[2];
        MOV     A,#0x42
        LCALL   ?XSTACK_DISP0_8
        MOV     R0,#?V0 + 0
        LCALL   ?L_MOV_X
        MOV     R0,#?V0 + 0
        LCALL   ?UL_TO_FLT
        MOV     A,#0x4
        LCALL   ?XSTACK_DISP0_8
        MOV     R0,#?V0 + 0
        LCALL   ?L_MOV_TO_X
//  661        y2=sdat.data[0];
        MOV     A,#0x34
        LCALL   ?XSTACK_DISP0_8
        LCALL   ?Subroutine14 & 0xFFFF
??CrossCallReturnLabel_43:
        LCALL   ?UL_TO_FLT
        MOV     A,#0x10
        LCALL   ?XSTACK_DISP0_8
        MOV     R0,#?V0 + 0
        LCALL   ?L_MOV_TO_X
//  662        x2=sdat.time[0];
        MOV     A,#0x3a
        LCALL   ?XSTACK_DISP0_8
        MOV     R0,#?V0 + 0
        LCALL   ?L_MOV_X
        MOV     R0,#?V0 + 0
        LCALL   ?UL_TO_FLT
        MOV     A,#0x8
        LCALL   ?XSTACK_DISP0_8
        MOV     R0,#?V0 + 0
        LCALL   ?L_MOV_TO_X
//  663        y3=sdat.data[1];
        MOV     A,#0x36
        LCALL   ?XSTACK_DISP0_8
        LCALL   ?Subroutine14 & 0xFFFF
??CrossCallReturnLabel_44:
        LCALL   ?UL_TO_FLT
        MOV     A,#0x14
        LCALL   ?XSTACK_DISP0_8
        MOV     R0,#?V0 + 0
        LCALL   ?L_MOV_TO_X
//  664        x3=sdat.time[1];
        MOV     A,#0x3e
??Water_gage_forecastValue_1:
        LCALL   ?XSTACK_DISP0_8
        MOV     R0,#?V0 + 0
        LCALL   ?L_MOV_X
        MOV     R0,#?V0 + 0
        LCALL   ?UL_TO_FLT
        MOV     DPL,?XSP + 0
        MOV     DPH,?XSP + 1
        MOV     R0,#?V0 + 0
        LCALL   ?L_MOV_TO_X
//  665      }
//  666     
//  667      k=( (3*(x1*y1+x2*y2+x3*y3)-(x1+x2+x3)*(y1+y2+y3))/(3*(x1*x1+x2*x2+x3*x3)-(x1+x2+x3)*(x1+x2+x3)) );
        MOV     A,#0xc
        LCALL   ?XSTACK_DISP0_8
        MOV     R0,#?V0 + 0
        LCALL   ?L_MOV_X
        MOV     A,#0x10
        LCALL   ?XSTACK_DISP0_8
        MOV     R0,#?V0 + 4
        LCALL   ?L_MOV_X
        MOV     R0,#?V0 + 0
        MOV     R1,#?V0 + 4
        LCALL   ?FLT_ADD
        MOV     A,#0x14
        LCALL   ?XSTACK_DISP0_8
        MOV     R0,#?V0 + 4
        LCALL   ?L_MOV_X
        MOV     R0,#?V0 + 0
        MOV     R1,#?V0 + 4
        LCALL   ?FLT_ADD
        MOV     A,#0x1c
        LCALL   ?XSTACK_DISP0_8
        MOV     R0,#?V0 + 0
        LCALL   ?L_MOV_TO_X
        MOV     A,#0x4
        LCALL   ?XSTACK_DISP0_8
        MOV     R0,#?V0 + 0
        LCALL   ?L_MOV_X
        MOV     A,#0x8
        LCALL   ?XSTACK_DISP0_8
        MOV     R0,#?V0 + 4
        LCALL   ?L_MOV_X
        MOV     R0,#?V0 + 0
        MOV     R1,#?V0 + 4
        LCALL   ?FLT_ADD
        MOV     DPL,?XSP + 0
        MOV     DPH,?XSP + 1
        MOV     R0,#?V0 + 4
        LCALL   ?L_MOV_X
        MOV     R0,#?V0 + 0
        MOV     R1,#?V0 + 4
        LCALL   ?FLT_ADD
        MOV     A,#0x18
        LCALL   ?XSTACK_DISP0_8
        MOV     R0,#?V0 + 0
        LCALL   ?L_MOV_TO_X
        MOV     A,#0x4
        LCALL   ?XSTACK_DISP0_8
        MOV     R0,#?V0 + 0
        LCALL   ?L_MOV_X
        MOV     A,#0xc
        LCALL   ?XSTACK_DISP0_8
        MOV     R0,#?V0 + 4
        LCALL   ?L_MOV_X
        MOV     R0,#?V0 + 0
        MOV     R1,#?V0 + 4
        LCALL   ?FLT_MUL
        PUSH    ?V0 + 0
        CFI CFA_SP SP+-1
        PUSH    ?V0 + 1
        CFI CFA_SP SP+-2
        PUSH    ?V0 + 2
        CFI CFA_SP SP+-3
        PUSH    ?V0 + 3
        CFI CFA_SP SP+-4
        MOV     A,#0x8
        LCALL   ?XSTACK_DISP0_8
        MOV     R0,#?V0 + 4
        LCALL   ?L_MOV_X
        MOV     A,#0x10
        LCALL   ?XSTACK_DISP0_8
        MOV     R0,#?V0 + 0
        LCALL   ?L_MOV_X
        MOV     R0,#?V0 + 4
        MOV     R1,#?V0 + 0
        LCALL   ?FLT_MUL
        POP     ?V0 + 3
        CFI CFA_SP SP+-3
        POP     ?V0 + 2
        CFI CFA_SP SP+-2
        POP     ?V0 + 1
        CFI CFA_SP SP+-1
        POP     ?V0 + 0
        CFI CFA_SP SP+0
        MOV     R0,#?V0 + 0
        MOV     R1,#?V0 + 4
        LCALL   ?FLT_ADD
        PUSH    ?V0 + 0
        CFI CFA_SP SP+-1
        PUSH    ?V0 + 1
        CFI CFA_SP SP+-2
        PUSH    ?V0 + 2
        CFI CFA_SP SP+-3
        PUSH    ?V0 + 3
        CFI CFA_SP SP+-4
        MOV     DPL,?XSP + 0
        MOV     DPH,?XSP + 1
        MOV     R0,#?V0 + 4
        LCALL   ?L_MOV_X
        MOV     A,#0x14
        LCALL   ?XSTACK_DISP0_8
        MOV     R0,#?V0 + 0
        LCALL   ?L_MOV_X
        MOV     R0,#?V0 + 4
        MOV     R1,#?V0 + 0
        LCALL   ?FLT_MUL
        POP     ?V0 + 3
        CFI CFA_SP SP+-3
        POP     ?V0 + 2
        CFI CFA_SP SP+-2
        POP     ?V0 + 1
        CFI CFA_SP SP+-1
        POP     ?V0 + 0
        CFI CFA_SP SP+0
        MOV     R0,#?V0 + 0
        MOV     R1,#?V0 + 4
        LCALL   ?FLT_ADD
        MOV     DPTR,#__Constant_40400000
        MOV     R0,#?V0 + 4
        LCALL   ?L_MOV_X
        MOV     R0,#?V0 + 0
        MOV     R1,#?V0 + 4
        LCALL   ?FLT_MUL
        PUSH    ?V0 + 0
        CFI CFA_SP SP+-1
        PUSH    ?V0 + 1
        CFI CFA_SP SP+-2
        PUSH    ?V0 + 2
        CFI CFA_SP SP+-3
        PUSH    ?V0 + 3
        CFI CFA_SP SP+-4
        MOV     A,#0x18
        LCALL   ?XSTACK_DISP0_8
        MOV     R0,#?V0 + 4
        LCALL   ?L_MOV_X
        MOV     A,#0x1c
        LCALL   ?XSTACK_DISP0_8
        MOV     R0,#?V0 + 0
        LCALL   ?L_MOV_X
        MOV     R0,#?V0 + 4
        MOV     R1,#?V0 + 0
        LCALL   ?FLT_MUL
        POP     ?V0 + 3
        CFI CFA_SP SP+-3
        POP     ?V0 + 2
        CFI CFA_SP SP+-2
        POP     ?V0 + 1
        CFI CFA_SP SP+-1
        POP     ?V0 + 0
        CFI CFA_SP SP+0
        MOV     R0,#?V0 + 0
        MOV     R1,#?V0 + 4
        LCALL   ?FLT_SUB
        PUSH    ?V0 + 0
        CFI CFA_SP SP+-1
        PUSH    ?V0 + 1
        CFI CFA_SP SP+-2
        PUSH    ?V0 + 2
        CFI CFA_SP SP+-3
        PUSH    ?V0 + 3
        CFI CFA_SP SP+-4
        MOV     A,#0x4
        LCALL   ?XSTACK_DISP0_8
        MOV     R0,#?V0 + 0
        LCALL   ?L_MOV_X
        MOV     A,#0x4
        LCALL   ?XSTACK_DISP0_8
        MOV     R0,#?V0 + 4
        LCALL   ?L_MOV_X
        MOV     R0,#?V0 + 0
        MOV     R1,#?V0 + 4
        LCALL   ?FLT_MUL
        PUSH    ?V0 + 0
        CFI CFA_SP SP+-5
        PUSH    ?V0 + 1
        CFI CFA_SP SP+-6
        PUSH    ?V0 + 2
        CFI CFA_SP SP+-7
        PUSH    ?V0 + 3
        CFI CFA_SP SP+-8
        MOV     A,#0x8
        LCALL   ?XSTACK_DISP0_8
        MOV     R0,#?V0 + 4
        LCALL   ?L_MOV_X
        MOV     A,#0x8
        LCALL   ?XSTACK_DISP0_8
        MOV     R0,#?V0 + 0
        LCALL   ?L_MOV_X
        MOV     R0,#?V0 + 4
        MOV     R1,#?V0 + 0
        LCALL   ?FLT_MUL
        POP     ?V0 + 3
        CFI CFA_SP SP+-7
        POP     ?V0 + 2
        CFI CFA_SP SP+-6
        POP     ?V0 + 1
        CFI CFA_SP SP+-5
        POP     ?V0 + 0
        CFI CFA_SP SP+-4
        MOV     R0,#?V0 + 0
        MOV     R1,#?V0 + 4
        LCALL   ?FLT_ADD
        PUSH    ?V0 + 0
        CFI CFA_SP SP+-5
        PUSH    ?V0 + 1
        CFI CFA_SP SP+-6
        PUSH    ?V0 + 2
        CFI CFA_SP SP+-7
        PUSH    ?V0 + 3
        CFI CFA_SP SP+-8
        MOV     DPL,?XSP + 0
        MOV     DPH,?XSP + 1
        MOV     R0,#?V0 + 4
        LCALL   ?L_MOV_X
        MOV     DPL,?XSP + 0
        MOV     DPH,?XSP + 1
        MOV     R0,#?V0 + 0
        LCALL   ?L_MOV_X
        MOV     R0,#?V0 + 4
        MOV     R1,#?V0 + 0
        LCALL   ?FLT_MUL
        POP     ?V0 + 3
        CFI CFA_SP SP+-7
        POP     ?V0 + 2
        CFI CFA_SP SP+-6
        POP     ?V0 + 1
        CFI CFA_SP SP+-5
        POP     ?V0 + 0
        CFI CFA_SP SP+-4
        MOV     R0,#?V0 + 0
        MOV     R1,#?V0 + 4
        LCALL   ?FLT_ADD
        MOV     DPTR,#__Constant_40400000
        MOV     R0,#?V0 + 4
        LCALL   ?L_MOV_X
        MOV     R0,#?V0 + 0
        MOV     R1,#?V0 + 4
        LCALL   ?FLT_MUL
        PUSH    ?V0 + 0
        CFI CFA_SP SP+-5
        PUSH    ?V0 + 1
        CFI CFA_SP SP+-6
        PUSH    ?V0 + 2
        CFI CFA_SP SP+-7
        PUSH    ?V0 + 3
        CFI CFA_SP SP+-8
        MOV     A,#0x18
        LCALL   ?XSTACK_DISP0_8
        MOV     R0,#?V0 + 4
        LCALL   ?L_MOV_X
        MOV     A,#0x18
        LCALL   ?XSTACK_DISP0_8
        MOV     R0,#?V0 + 0
        LCALL   ?L_MOV_X
        MOV     R0,#?V0 + 4
        MOV     R1,#?V0 + 0
        LCALL   ?FLT_MUL
        POP     ?V0 + 3
        CFI CFA_SP SP+-7
        POP     ?V0 + 2
        CFI CFA_SP SP+-6
        POP     ?V0 + 1
        CFI CFA_SP SP+-5
        POP     ?V0 + 0
        CFI CFA_SP SP+-4
        MOV     R0,#?V0 + 0
        MOV     R1,#?V0 + 4
        LCALL   ?FLT_SUB
        POP     ?V0 + 7
        CFI CFA_SP SP+-3
        POP     ?V0 + 6
        CFI CFA_SP SP+-2
        POP     ?V0 + 5
        CFI CFA_SP SP+-1
        POP     ?V0 + 4
        CFI CFA_SP SP+0
        MOV     R0,#?V0 + 4
        MOV     R1,#?V0 + 0
        LCALL   ?FLT_DIV
        MOV     A,#0x20
        LCALL   ?XSTACK_DISP0_8
        MOV     R0,#?V0 + 4
        LCALL   ?L_MOV_TO_X
//  668      b=( (y1+y2+y3) -k*(x1+x2+x3) )/3;
//  669 
//  670      uint16 y4 =k*(x3+SendWaterGageTimeFreq*1000)+b;
//  671      
//  672      return y4;
        MOV     A,#0x20
        LCALL   ?XSTACK_DISP0_8
        MOV     R0,#?V0 + 0
        LCALL   ?L_MOV_X
        PUSH    ?V0 + 0
        CFI CFA_SP SP+-1
        PUSH    ?V0 + 1
        CFI CFA_SP SP+-2
        PUSH    ?V0 + 2
        CFI CFA_SP SP+-3
        PUSH    ?V0 + 3
        CFI CFA_SP SP+-4
        MOV     DPL,?XSP + 0
        MOV     DPH,?XSP + 1
        MOV     R0,#?V0 + 4
        LCALL   ?L_MOV_X
        MOV     DPTR,#SendWaterGageTimeFreq
        LCALL   ?Subroutine25 & 0xFFFF
??CrossCallReturnLabel_67:
        MOV     A,?V0 + 0
        MOV     B,#-0x18
        MUL     AB
        XCH     A,?V0 + 0
        MOV     R2,B
        MOV     B,#0x3
        MUL     AB
        ADD     A,R2
        MOV     R2,A
        MOV     B,#-0x18
        MOV     A,?V0 + 1
        MUL     AB
        ADD     A,R2
        MOV     ?V0 + 1,A
        MOV     ?V0 + 2,#0x0
        MOV     ?V0 + 3,#0x0
        MOV     R0,#?V0 + 0
        LCALL   ?UL_TO_FLT
        MOV     R0,#?V0 + 4
        MOV     R1,#?V0 + 0
        LCALL   ?FLT_ADD
        POP     ?V0 + 3
        CFI CFA_SP SP+-3
        POP     ?V0 + 2
        CFI CFA_SP SP+-2
        POP     ?V0 + 1
        CFI CFA_SP SP+-1
        POP     ?V0 + 0
        CFI CFA_SP SP+0
        MOV     R0,#?V0 + 0
        MOV     R1,#?V0 + 4
        LCALL   ?FLT_MUL
        PUSH    ?V0 + 0
        CFI CFA_SP SP+-1
        PUSH    ?V0 + 1
        CFI CFA_SP SP+-2
        PUSH    ?V0 + 2
        CFI CFA_SP SP+-3
        PUSH    ?V0 + 3
        CFI CFA_SP SP+-4
        MOV     A,#0x1c
        LCALL   ?XSTACK_DISP0_8
        MOV     R0,#?V0 + 0
        LCALL   ?L_MOV_X
        PUSH    ?V0 + 0
        CFI CFA_SP SP+-5
        PUSH    ?V0 + 1
        CFI CFA_SP SP+-6
        PUSH    ?V0 + 2
        CFI CFA_SP SP+-7
        PUSH    ?V0 + 3
        CFI CFA_SP SP+-8
        MOV     A,#0x20
        LCALL   ?XSTACK_DISP0_8
        MOV     R0,#?V0 + 4
        LCALL   ?L_MOV_X
        MOV     A,#0x18
        LCALL   ?XSTACK_DISP0_8
        MOV     R0,#?V0 + 0
        LCALL   ?L_MOV_X
        MOV     R0,#?V0 + 4
        MOV     R1,#?V0 + 0
        LCALL   ?FLT_MUL
        POP     ?V0 + 3
        CFI CFA_SP SP+-7
        POP     ?V0 + 2
        CFI CFA_SP SP+-6
        POP     ?V0 + 1
        CFI CFA_SP SP+-5
        POP     ?V0 + 0
        CFI CFA_SP SP+-4
        MOV     R0,#?V0 + 0
        MOV     R1,#?V0 + 4
        LCALL   ?FLT_SUB
        MOV     DPTR,#__Constant_40400000
        MOV     R0,#?V0 + 4
        LCALL   ?L_MOV_X
        MOV     R0,#?V0 + 0
        MOV     R1,#?V0 + 4
        LCALL   ?FLT_DIV
        POP     ?V0 + 7
        CFI CFA_SP SP+-3
        POP     ?V0 + 6
        CFI CFA_SP SP+-2
        POP     ?V0 + 5
        CFI CFA_SP SP+-1
        POP     ?V0 + 4
        CFI CFA_SP SP+0
        MOV     R0,#?V0 + 4
        MOV     R1,#?V0 + 0
        LCALL   ?FLT_ADD
        MOV     R0,#?V0 + 4
        LCALL   ?FLT_TO_L
        MOV     R2,?V0 + 4
        MOV     R3,?V0 + 5
        MOV     A,#0x24
        LJMP    ?Subroutine68 & 0xFFFF
        CFI EndBlock cfiBlock9
//  673   }

        RSEG BANKED_CODE:CODE:NOROOT(0)
?Subroutine14:
        CFI Block cfiCond10 Using cfiCommon0
        CFI NoFunction
        CFI Conditional ??CrossCallReturnLabel_36
        CFI R6 load(1, XDATA, add(CFA_XSP16, literal(-16)))
        CFI VB load(1, XDATA, add(CFA_XSP16, literal(-15)))
        CFI V0 load(1, XDATA, add(CFA_XSP16, literal(-14)))
        CFI V1 load(1, XDATA, add(CFA_XSP16, literal(-13)))
        CFI V2 load(1, XDATA, add(CFA_XSP16, literal(-12)))
        CFI V3 load(1, XDATA, add(CFA_XSP16, literal(-11)))
        CFI V4 load(1, XDATA, add(CFA_XSP16, literal(-10)))
        CFI V5 load(1, XDATA, add(CFA_XSP16, literal(-9)))
        CFI V6 load(1, XDATA, add(CFA_XSP16, literal(-8)))
        CFI V7 load(1, XDATA, add(CFA_XSP16, literal(-7)))
        CFI R7 load(1, XDATA, add(CFA_XSP16, literal(-6)))
        CFI ?RET_LOW load(1, XDATA, add(CFA_XSP16, literal(-5)))
        CFI ?RET_HIGH load(1, XDATA, add(CFA_XSP16, literal(-4)))
        CFI ?BRET_EXT load(1, XDATA, add(CFA_XSP16, literal(-3)))
        CFI DPL0 load(1, XDATA, add(CFA_XSP16, literal(-2)))
        CFI DPH0 load(1, XDATA, add(CFA_XSP16, literal(-1)))
        CFI CFA_SP SP+0
        CFI CFA_XSP16 add(XSP16, 52)
        CFI Block cfiCond11 Using cfiCommon0
        CFI (cfiCond11) NoFunction
        CFI (cfiCond11) Conditional ??CrossCallReturnLabel_37
        CFI (cfiCond11) R6 load(1, XDATA, add(CFA_XSP16, literal(-16)))
        CFI (cfiCond11) VB load(1, XDATA, add(CFA_XSP16, literal(-15)))
        CFI (cfiCond11) V0 load(1, XDATA, add(CFA_XSP16, literal(-14)))
        CFI (cfiCond11) V1 load(1, XDATA, add(CFA_XSP16, literal(-13)))
        CFI (cfiCond11) V2 load(1, XDATA, add(CFA_XSP16, literal(-12)))
        CFI (cfiCond11) V3 load(1, XDATA, add(CFA_XSP16, literal(-11)))
        CFI (cfiCond11) V4 load(1, XDATA, add(CFA_XSP16, literal(-10)))
        CFI (cfiCond11) V5 load(1, XDATA, add(CFA_XSP16, literal(-9)))
        CFI (cfiCond11) V6 load(1, XDATA, add(CFA_XSP16, literal(-8)))
        CFI (cfiCond11) V7 load(1, XDATA, add(CFA_XSP16, literal(-7)))
        CFI (cfiCond11) R7 load(1, XDATA, add(CFA_XSP16, literal(-6)))
        CFI (cfiCond11) ?RET_LOW load(1, XDATA, add(CFA_XSP16, literal(-5)))
        CFI (cfiCond11) ?RET_HIGH load(1, XDATA, add(CFA_XSP16, literal(-4)))
        CFI (cfiCond11) ?BRET_EXT load(1, XDATA, add(CFA_XSP16, literal(-3)))
        CFI (cfiCond11) DPL0 load(1, XDATA, add(CFA_XSP16, literal(-2)))
        CFI (cfiCond11) DPH0 load(1, XDATA, add(CFA_XSP16, literal(-1)))
        CFI (cfiCond11) CFA_SP SP+0
        CFI (cfiCond11) CFA_XSP16 add(XSP16, 52)
        CFI Block cfiCond12 Using cfiCommon0
        CFI (cfiCond12) NoFunction
        CFI (cfiCond12) Conditional ??CrossCallReturnLabel_38
        CFI (cfiCond12) R6 load(1, XDATA, add(CFA_XSP16, literal(-16)))
        CFI (cfiCond12) VB load(1, XDATA, add(CFA_XSP16, literal(-15)))
        CFI (cfiCond12) V0 load(1, XDATA, add(CFA_XSP16, literal(-14)))
        CFI (cfiCond12) V1 load(1, XDATA, add(CFA_XSP16, literal(-13)))
        CFI (cfiCond12) V2 load(1, XDATA, add(CFA_XSP16, literal(-12)))
        CFI (cfiCond12) V3 load(1, XDATA, add(CFA_XSP16, literal(-11)))
        CFI (cfiCond12) V4 load(1, XDATA, add(CFA_XSP16, literal(-10)))
        CFI (cfiCond12) V5 load(1, XDATA, add(CFA_XSP16, literal(-9)))
        CFI (cfiCond12) V6 load(1, XDATA, add(CFA_XSP16, literal(-8)))
        CFI (cfiCond12) V7 load(1, XDATA, add(CFA_XSP16, literal(-7)))
        CFI (cfiCond12) R7 load(1, XDATA, add(CFA_XSP16, literal(-6)))
        CFI (cfiCond12) ?RET_LOW load(1, XDATA, add(CFA_XSP16, literal(-5)))
        CFI (cfiCond12) ?RET_HIGH load(1, XDATA, add(CFA_XSP16, literal(-4)))
        CFI (cfiCond12) ?BRET_EXT load(1, XDATA, add(CFA_XSP16, literal(-3)))
        CFI (cfiCond12) DPL0 load(1, XDATA, add(CFA_XSP16, literal(-2)))
        CFI (cfiCond12) DPH0 load(1, XDATA, add(CFA_XSP16, literal(-1)))
        CFI (cfiCond12) CFA_SP SP+0
        CFI (cfiCond12) CFA_XSP16 add(XSP16, 52)
        CFI Block cfiCond13 Using cfiCommon0
        CFI (cfiCond13) NoFunction
        CFI (cfiCond13) Conditional ??CrossCallReturnLabel_39
        CFI (cfiCond13) R6 load(1, XDATA, add(CFA_XSP16, literal(-16)))
        CFI (cfiCond13) VB load(1, XDATA, add(CFA_XSP16, literal(-15)))
        CFI (cfiCond13) V0 load(1, XDATA, add(CFA_XSP16, literal(-14)))
        CFI (cfiCond13) V1 load(1, XDATA, add(CFA_XSP16, literal(-13)))
        CFI (cfiCond13) V2 load(1, XDATA, add(CFA_XSP16, literal(-12)))
        CFI (cfiCond13) V3 load(1, XDATA, add(CFA_XSP16, literal(-11)))
        CFI (cfiCond13) V4 load(1, XDATA, add(CFA_XSP16, literal(-10)))
        CFI (cfiCond13) V5 load(1, XDATA, add(CFA_XSP16, literal(-9)))
        CFI (cfiCond13) V6 load(1, XDATA, add(CFA_XSP16, literal(-8)))
        CFI (cfiCond13) V7 load(1, XDATA, add(CFA_XSP16, literal(-7)))
        CFI (cfiCond13) R7 load(1, XDATA, add(CFA_XSP16, literal(-6)))
        CFI (cfiCond13) ?RET_LOW load(1, XDATA, add(CFA_XSP16, literal(-5)))
        CFI (cfiCond13) ?RET_HIGH load(1, XDATA, add(CFA_XSP16, literal(-4)))
        CFI (cfiCond13) ?BRET_EXT load(1, XDATA, add(CFA_XSP16, literal(-3)))
        CFI (cfiCond13) DPL0 load(1, XDATA, add(CFA_XSP16, literal(-2)))
        CFI (cfiCond13) DPH0 load(1, XDATA, add(CFA_XSP16, literal(-1)))
        CFI (cfiCond13) CFA_SP SP+0
        CFI (cfiCond13) CFA_XSP16 add(XSP16, 52)
        CFI Block cfiCond14 Using cfiCommon0
        CFI (cfiCond14) NoFunction
        CFI (cfiCond14) Conditional ??CrossCallReturnLabel_40
        CFI (cfiCond14) R6 load(1, XDATA, add(CFA_XSP16, literal(-16)))
        CFI (cfiCond14) VB load(1, XDATA, add(CFA_XSP16, literal(-15)))
        CFI (cfiCond14) V0 load(1, XDATA, add(CFA_XSP16, literal(-14)))
        CFI (cfiCond14) V1 load(1, XDATA, add(CFA_XSP16, literal(-13)))
        CFI (cfiCond14) V2 load(1, XDATA, add(CFA_XSP16, literal(-12)))
        CFI (cfiCond14) V3 load(1, XDATA, add(CFA_XSP16, literal(-11)))
        CFI (cfiCond14) V4 load(1, XDATA, add(CFA_XSP16, literal(-10)))
        CFI (cfiCond14) V5 load(1, XDATA, add(CFA_XSP16, literal(-9)))
        CFI (cfiCond14) V6 load(1, XDATA, add(CFA_XSP16, literal(-8)))
        CFI (cfiCond14) V7 load(1, XDATA, add(CFA_XSP16, literal(-7)))
        CFI (cfiCond14) R7 load(1, XDATA, add(CFA_XSP16, literal(-6)))
        CFI (cfiCond14) ?RET_LOW load(1, XDATA, add(CFA_XSP16, literal(-5)))
        CFI (cfiCond14) ?RET_HIGH load(1, XDATA, add(CFA_XSP16, literal(-4)))
        CFI (cfiCond14) ?BRET_EXT load(1, XDATA, add(CFA_XSP16, literal(-3)))
        CFI (cfiCond14) DPL0 load(1, XDATA, add(CFA_XSP16, literal(-2)))
        CFI (cfiCond14) DPH0 load(1, XDATA, add(CFA_XSP16, literal(-1)))
        CFI (cfiCond14) CFA_SP SP+0
        CFI (cfiCond14) CFA_XSP16 add(XSP16, 52)
        CFI Block cfiCond15 Using cfiCommon0
        CFI (cfiCond15) NoFunction
        CFI (cfiCond15) Conditional ??CrossCallReturnLabel_41
        CFI (cfiCond15) R6 load(1, XDATA, add(CFA_XSP16, literal(-16)))
        CFI (cfiCond15) VB load(1, XDATA, add(CFA_XSP16, literal(-15)))
        CFI (cfiCond15) V0 load(1, XDATA, add(CFA_XSP16, literal(-14)))
        CFI (cfiCond15) V1 load(1, XDATA, add(CFA_XSP16, literal(-13)))
        CFI (cfiCond15) V2 load(1, XDATA, add(CFA_XSP16, literal(-12)))
        CFI (cfiCond15) V3 load(1, XDATA, add(CFA_XSP16, literal(-11)))
        CFI (cfiCond15) V4 load(1, XDATA, add(CFA_XSP16, literal(-10)))
        CFI (cfiCond15) V5 load(1, XDATA, add(CFA_XSP16, literal(-9)))
        CFI (cfiCond15) V6 load(1, XDATA, add(CFA_XSP16, literal(-8)))
        CFI (cfiCond15) V7 load(1, XDATA, add(CFA_XSP16, literal(-7)))
        CFI (cfiCond15) R7 load(1, XDATA, add(CFA_XSP16, literal(-6)))
        CFI (cfiCond15) ?RET_LOW load(1, XDATA, add(CFA_XSP16, literal(-5)))
        CFI (cfiCond15) ?RET_HIGH load(1, XDATA, add(CFA_XSP16, literal(-4)))
        CFI (cfiCond15) ?BRET_EXT load(1, XDATA, add(CFA_XSP16, literal(-3)))
        CFI (cfiCond15) DPL0 load(1, XDATA, add(CFA_XSP16, literal(-2)))
        CFI (cfiCond15) DPH0 load(1, XDATA, add(CFA_XSP16, literal(-1)))
        CFI (cfiCond15) CFA_SP SP+0
        CFI (cfiCond15) CFA_XSP16 add(XSP16, 52)
        CFI Block cfiCond16 Using cfiCommon0
        CFI (cfiCond16) NoFunction
        CFI (cfiCond16) Conditional ??CrossCallReturnLabel_42
        CFI (cfiCond16) R6 load(1, XDATA, add(CFA_XSP16, literal(-16)))
        CFI (cfiCond16) VB load(1, XDATA, add(CFA_XSP16, literal(-15)))
        CFI (cfiCond16) V0 load(1, XDATA, add(CFA_XSP16, literal(-14)))
        CFI (cfiCond16) V1 load(1, XDATA, add(CFA_XSP16, literal(-13)))
        CFI (cfiCond16) V2 load(1, XDATA, add(CFA_XSP16, literal(-12)))
        CFI (cfiCond16) V3 load(1, XDATA, add(CFA_XSP16, literal(-11)))
        CFI (cfiCond16) V4 load(1, XDATA, add(CFA_XSP16, literal(-10)))
        CFI (cfiCond16) V5 load(1, XDATA, add(CFA_XSP16, literal(-9)))
        CFI (cfiCond16) V6 load(1, XDATA, add(CFA_XSP16, literal(-8)))
        CFI (cfiCond16) V7 load(1, XDATA, add(CFA_XSP16, literal(-7)))
        CFI (cfiCond16) R7 load(1, XDATA, add(CFA_XSP16, literal(-6)))
        CFI (cfiCond16) ?RET_LOW load(1, XDATA, add(CFA_XSP16, literal(-5)))
        CFI (cfiCond16) ?RET_HIGH load(1, XDATA, add(CFA_XSP16, literal(-4)))
        CFI (cfiCond16) ?BRET_EXT load(1, XDATA, add(CFA_XSP16, literal(-3)))
        CFI (cfiCond16) DPL0 load(1, XDATA, add(CFA_XSP16, literal(-2)))
        CFI (cfiCond16) DPH0 load(1, XDATA, add(CFA_XSP16, literal(-1)))
        CFI (cfiCond16) CFA_SP SP+0
        CFI (cfiCond16) CFA_XSP16 add(XSP16, 52)
        CFI Block cfiCond17 Using cfiCommon0
        CFI (cfiCond17) NoFunction
        CFI (cfiCond17) Conditional ??CrossCallReturnLabel_43
        CFI (cfiCond17) R6 load(1, XDATA, add(CFA_XSP16, literal(-16)))
        CFI (cfiCond17) VB load(1, XDATA, add(CFA_XSP16, literal(-15)))
        CFI (cfiCond17) V0 load(1, XDATA, add(CFA_XSP16, literal(-14)))
        CFI (cfiCond17) V1 load(1, XDATA, add(CFA_XSP16, literal(-13)))
        CFI (cfiCond17) V2 load(1, XDATA, add(CFA_XSP16, literal(-12)))
        CFI (cfiCond17) V3 load(1, XDATA, add(CFA_XSP16, literal(-11)))
        CFI (cfiCond17) V4 load(1, XDATA, add(CFA_XSP16, literal(-10)))
        CFI (cfiCond17) V5 load(1, XDATA, add(CFA_XSP16, literal(-9)))
        CFI (cfiCond17) V6 load(1, XDATA, add(CFA_XSP16, literal(-8)))
        CFI (cfiCond17) V7 load(1, XDATA, add(CFA_XSP16, literal(-7)))
        CFI (cfiCond17) R7 load(1, XDATA, add(CFA_XSP16, literal(-6)))
        CFI (cfiCond17) ?RET_LOW load(1, XDATA, add(CFA_XSP16, literal(-5)))
        CFI (cfiCond17) ?RET_HIGH load(1, XDATA, add(CFA_XSP16, literal(-4)))
        CFI (cfiCond17) ?BRET_EXT load(1, XDATA, add(CFA_XSP16, literal(-3)))
        CFI (cfiCond17) DPL0 load(1, XDATA, add(CFA_XSP16, literal(-2)))
        CFI (cfiCond17) DPH0 load(1, XDATA, add(CFA_XSP16, literal(-1)))
        CFI (cfiCond17) CFA_SP SP+0
        CFI (cfiCond17) CFA_XSP16 add(XSP16, 52)
        CFI Block cfiCond18 Using cfiCommon0
        CFI (cfiCond18) NoFunction
        CFI (cfiCond18) Conditional ??CrossCallReturnLabel_44
        CFI (cfiCond18) R6 load(1, XDATA, add(CFA_XSP16, literal(-16)))
        CFI (cfiCond18) VB load(1, XDATA, add(CFA_XSP16, literal(-15)))
        CFI (cfiCond18) V0 load(1, XDATA, add(CFA_XSP16, literal(-14)))
        CFI (cfiCond18) V1 load(1, XDATA, add(CFA_XSP16, literal(-13)))
        CFI (cfiCond18) V2 load(1, XDATA, add(CFA_XSP16, literal(-12)))
        CFI (cfiCond18) V3 load(1, XDATA, add(CFA_XSP16, literal(-11)))
        CFI (cfiCond18) V4 load(1, XDATA, add(CFA_XSP16, literal(-10)))
        CFI (cfiCond18) V5 load(1, XDATA, add(CFA_XSP16, literal(-9)))
        CFI (cfiCond18) V6 load(1, XDATA, add(CFA_XSP16, literal(-8)))
        CFI (cfiCond18) V7 load(1, XDATA, add(CFA_XSP16, literal(-7)))
        CFI (cfiCond18) R7 load(1, XDATA, add(CFA_XSP16, literal(-6)))
        CFI (cfiCond18) ?RET_LOW load(1, XDATA, add(CFA_XSP16, literal(-5)))
        CFI (cfiCond18) ?RET_HIGH load(1, XDATA, add(CFA_XSP16, literal(-4)))
        CFI (cfiCond18) ?BRET_EXT load(1, XDATA, add(CFA_XSP16, literal(-3)))
        CFI (cfiCond18) DPL0 load(1, XDATA, add(CFA_XSP16, literal(-2)))
        CFI (cfiCond18) DPH0 load(1, XDATA, add(CFA_XSP16, literal(-1)))
        CFI (cfiCond18) CFA_SP SP+0
        CFI (cfiCond18) CFA_XSP16 add(XSP16, 52)
        CFI Block cfiPicker19 Using cfiCommon1
        CFI (cfiPicker19) NoFunction
        CFI (cfiPicker19) Picker
        LCALL   ?Subroutine51 & 0xFFFF
??CrossCallReturnLabel_136:
        MOV     ?V0 + 2,#0x0
        MOV     ?V0 + 3,#0x0
        MOV     R0,#?V0 + 0
        RET
        CFI EndBlock cfiCond10
        CFI EndBlock cfiCond11
        CFI EndBlock cfiCond12
        CFI EndBlock cfiCond13
        CFI EndBlock cfiCond14
        CFI EndBlock cfiCond15
        CFI EndBlock cfiCond16
        CFI EndBlock cfiCond17
        CFI EndBlock cfiCond18
        CFI EndBlock cfiPicker19
//  674 
//  675 /*
//  676 //预测土壤湿度传感器下一数据值
//  677 float Soil_humidity_forecastValue(Soilhumidity_data_and_time sdat)
//  678 {
//  679      double x1,x2,x3;
//  680      double y1,y2,y3;
//  681      double b,k;
//  682      
//  683      if( (sdat.time[2]>sdat.time[1])&&(sdat.time[1]>sdat.time[0]) )
//  684      {
//  685        y1=sdat.data[0];
//  686        x1=sdat.time[0];
//  687        y2=sdat.data[1];
//  688        x2=sdat.time[1];
//  689        y3=sdat.data[2];
//  690        x3=sdat.time[2];
//  691 
//  692      
//  693      }
//  694      else if( (sdat.time[0]>sdat.time[2])&&(sdat.time[2]>sdat.time[1]) )
//  695      {
//  696        y1=sdat.data[1];
//  697        x1=sdat.time[1];
//  698        y2=sdat.data[2];
//  699        x2=sdat.time[2];
//  700        y3=sdat.data[0];
//  701        x3=sdat.time[0];
//  702      }
//  703      else
//  704      {
//  705        y1=sdat.data[2];
//  706        x1=sdat.time[2];
//  707        y2=sdat.data[0];
//  708        x2=sdat.time[0];
//  709        y3=sdat.data[1];
//  710        x3=sdat.time[1];
//  711      }
//  712     
//  713      k=( (3*(x1*y1+x2*y2+x3*y3)-(x1+x2+x3)*(y1+y2+y3))/(3*(x1*x1+x2*x2+x3*x3)-(x1+x2+x3)*(x1+x2+x3)) );
//  714      b=( (y1+y2+y3) -k*(x1+x2+x3) )/3;
//  715 
//  716 
//  717      float y4 =k*(x3+SendSoilHumidityTimeFreq*1000)+b;
//  718      
//  719      return y4;
//  720 
//  721 }
//  722 */
//  723 //启动水位定时器

        RSEG BANKED_CODE:CODE:NOROOT(0)
//  724 void start_Water_gage_timer()
start_Water_gage_timer:
        CFI Block cfiBlock20 Using cfiCommon0
        CFI Function start_Water_gage_timer
//  725 {
        FUNCALL start_Water_gage_timer, osal_start_timerEx
        LOCFRAME ISTACK, 2, STACK
        LOCFRAME PSTACK, 0, STACK
        LOCFRAME XSTACK, 0, STACK
        LOCFRAME IOVERLAY, 0, STATIC
        LOCFRAME DOVERLAY, 0, STATIC
        ARGFRAME ISTACK, 2, STACK
        ARGFRAME PSTACK, 0, STACK
        ARGFRAME XSTACK, 0, STACK
        ARGFRAME IOVERLAY, 0, STATIC
        ARGFRAME DOVERLAY, 0, STATIC
        FUNCALL start_Water_gage_timer, osal_start_timerEx
        LOCFRAME ISTACK, 2, STACK
        LOCFRAME PSTACK, 0, STACK
        LOCFRAME XSTACK, 0, STACK
        LOCFRAME IOVERLAY, 0, STATIC
        LOCFRAME DOVERLAY, 0, STATIC
        ARGFRAME ISTACK, 2, STACK
        ARGFRAME PSTACK, 0, STACK
        ARGFRAME XSTACK, 0, STACK
        ARGFRAME IOVERLAY, 0, STATIC
        ARGFRAME DOVERLAY, 0, STATIC
        PUSH    DPL
        CFI DPL0 Frame(CFA_SP, 4)
        CFI CFA_SP SP+-4
        PUSH    DPH
        CFI DPH0 Frame(CFA_SP, 5)
        CFI CFA_SP SP+-5
        ; Saved register size: 2
        ; Auto size: 0
//  726 
//  727     if(!SendWaterGageRemainTime)
        MOV     DPTR,#SendWaterGageRemainTime
        MOVX    A,@DPTR
        JNZ     ??start_Water_gage_timer_0
        INC     DPTR
        MOVX    A,@DPTR
??start_Water_gage_timer_0:
        JNZ     ??CrossCallReturnLabel_17
//  728      {
//  729        SendWaterGageRemainTime= (SendWaterGageTimeFreq >= 60) ? (SendWaterGageTimeFreq - 60) : 0;//补偿发送前的定时1min
        MOV     DPTR,#SendWaterGageTimeFreq
        CLR     C
        MOVX    A,@DPTR
        SUBB    A,#0x3c
        INC     DPTR
        MOVX    A,@DPTR
        SUBB    A,#0x0
        JC      ??start_Water_gage_timer_1
        MOV     DPTR,#SendWaterGageTimeFreq
        MOVX    A,@DPTR
        ADD     A,#-0x3c
        MOV     R0,A
        INC     DPTR
        MOVX    A,@DPTR
        ADDC    A,#-0x1
        MOV     R1,A
        MOV     DPTR,#SendWaterGageRemainTime
        LCALL   ??Subroutine7_0 & 0xFFFF
//  730 
//  731      }
//  732      if(SendWaterGageRemainTime > 65)//osal_start_timerEx max time is 65.535s
??CrossCallReturnLabel_17:
        MOV     DPTR,#SendWaterGageRemainTime
        CLR     C
        MOVX    A,@DPTR
        SUBB    A,#0x42
        INC     DPTR
        MOVX    A,@DPTR
        SUBB    A,#0x0
        JC      ??start_Water_gage_timer_1
//  733      {
//  734        SendWaterGageRemainTime-= 65;
        MOV     DPTR,#SendWaterGageRemainTime
        MOVX    A,@DPTR
        ADD     A,#-0x41
        MOVX    @DPTR,A
        INC     DPTR
        MOVX    A,@DPTR
        ADDC    A,#-0x1
        MOVX    @DPTR,A
//  735        osal_start_timerEx( p2p_test_TaskID,
//  736                           p2p_test_START_WATER_GAGE_TIME_MSG_EVT, //不发数据，再次启动一个定时器
//  737                           65000);
        ; Setup parameters for call to function osal_start_timerEx
        MOV     R4,#-0x18
        MOV     R5,#-0x3
        MOV     R2,#0x10
        LCALL   ??Subroutine32_0 & 0xFFFF
??CrossCallReturnLabel_88:
        SJMP    ??start_Water_gage_timer_2
//  738      }
//  739      else 
//  740      {
//  741        osal_start_timerEx(p2p_test_TaskID,
//  742                           p2p_test_SEND_WATER_GAGE_MSG_EVT, 
//  743                           SendWaterGageRemainTime * 1000);
??start_Water_gage_timer_1:
        ; Setup parameters for call to function osal_start_timerEx
        MOV     DPTR,#SendWaterGageRemainTime
        LCALL   ?Subroutine16 & 0xFFFF
??CrossCallReturnLabel_49:
        LCALL   ?Subroutine32 & 0xFFFF
//  744       SendWaterGageRemainTime= 0;
??CrossCallReturnLabel_86:
        MOV     DPTR,#SendWaterGageRemainTime
        CLR     A
        MOVX    @DPTR,A
        INC     DPTR
        MOVX    @DPTR,A
//  745      }
//  746 
//  747        return;
??start_Water_gage_timer_2:
        SJMP    ??Subroutine67_0
        CFI EndBlock cfiBlock20
//  748 
//  749   
//  750 }

        RSEG BANKED_CODE:CODE:NOROOT(0)
?Subroutine67:
        CFI Block cfiBlock21 Using cfiCommon0
        CFI NoFunction
        CFI CFA_SP SP+-5
        CFI CFA_XSP16 add(XSP16, 1)
        CFI DPL0 Frame(CFA_SP, 4)
        CFI DPH0 Frame(CFA_SP, 5)
        CFI Invalid
        LCALL   ?DEALLOC_XSTACK8
        CFI CFA_XSP16 XSP16+0
        CFI Valid
??Subroutine67_0:
        POP     DPH
        CFI CFA_SP SP+-4
        CFI DPH0 SameValue
        POP     DPL
        CFI CFA_SP SP+-3
        CFI DPL0 SameValue
        LJMP    ?BRET
        CFI EndBlock cfiBlock21

        RSEG BANKED_CODE:CODE:NOROOT(0)
?Subroutine16:
        CFI Block cfiCond22 Using cfiCommon0
        CFI NoFunction
        CFI Conditional ??CrossCallReturnLabel_48
        CFI DPL0 Frame(CFA_SP, 4)
        CFI DPH0 Frame(CFA_SP, 5)
        CFI CFA_SP SP+-5
        CFI CFA_XSP16 add(XSP16, 1)
        CFI Block cfiCond23 Using cfiCommon0
        CFI (cfiCond23) NoFunction
        CFI (cfiCond23) Conditional ??CrossCallReturnLabel_49
        CFI (cfiCond23) DPL0 Frame(CFA_SP, 4)
        CFI (cfiCond23) DPH0 Frame(CFA_SP, 5)
        CFI (cfiCond23) CFA_SP SP+-5
        CFI Block cfiPicker24 Using cfiCommon1
        CFI (cfiPicker24) NoFunction
        CFI (cfiPicker24) Picker
        LCALL   ?Subroutine52 & 0xFFFF
??CrossCallReturnLabel_142:
        LCALL   ?Subroutine56 & 0xFFFF
??CrossCallReturnLabel_149:
        RET
        CFI EndBlock cfiCond22
        CFI EndBlock cfiCond23
        CFI EndBlock cfiPicker24

        RSEG BANKED_CODE:CODE:NOROOT(0)
?Subroutine56:
        CFI Block cfiCond25 Using cfiCommon0
        CFI NoFunction
        CFI Conditional ??CrossCallReturnLabel_148
        CFI DPL0 Frame(CFA_SP, 4)
        CFI DPH0 Frame(CFA_SP, 5)
        CFI CFA_SP SP+-5
        CFI CFA_XSP16 add(XSP16, 1)
        CFI Block cfiCond26 Using cfiCommon0
        CFI (cfiCond26) NoFunction
        CFI (cfiCond26) Conditional ??CrossCallReturnLabel_149, ??CrossCallReturnLabel_48
        CFI (cfiCond26) DPL0 Frame(CFA_SP, 4)
        CFI (cfiCond26) DPH0 Frame(CFA_SP, 5)
        CFI (cfiCond26) CFA_SP SP+-5
        CFI (cfiCond26) CFA_XSP16 add(XSP16, 1)
        CFI Block cfiCond27 Using cfiCommon0
        CFI (cfiCond27) NoFunction
        CFI (cfiCond27) Conditional ??CrossCallReturnLabel_149, ??CrossCallReturnLabel_49
        CFI (cfiCond27) DPL0 Frame(CFA_SP, 4)
        CFI (cfiCond27) DPH0 Frame(CFA_SP, 5)
        CFI (cfiCond27) CFA_SP SP+-5
        CFI Block cfiPicker28 Using cfiCommon1
        CFI (cfiPicker28) NoFunction
        CFI (cfiPicker28) Picker
        MOV     A,R4
        MOV     B,#-0x18
        MUL     AB
        XCH     A,R4
        MOV     R2,B
        MOV     B,#0x3
        MUL     AB
        ADD     A,R2
        MOV     R2,A
        MOV     B,#-0x18
        MOV     A,R5
        MUL     AB
        ADD     A,R2
        MOV     R5,A
        RET
        CFI EndBlock cfiCond25
        CFI EndBlock cfiCond26
        CFI EndBlock cfiCond27
        CFI EndBlock cfiPicker28
//  751 /*
//  752 //启动土壤湿度的定时器
//  753 void start_Soil_humidity_timer()
//  754 {
//  755 
//  756     if(!SendSoilHumidityRemainTime)
//  757     {
//  758       SendSoilHumidityRemainTime = SendSoilHumidityTimeFreq;
//  759     }
//  760 
//  761     if(SendSoilHumidityRemainTime>65)//osal_start_timerEx max time is 65.535s
//  762     {
//  763       SendSoilHumidityRemainTime -= 65;
//  764       osal_start_timerEx( p2p_test_TaskID,
//  765                        p2p_test_START_SOIL_HUMIDITY_TIME_MSG_EVT,
//  766                       65000 );
//  767     }
//  768     else
//  769     {
//  770        osal_start_timerEx( p2p_test_TaskID,
//  771                       p2p_test_SEND_SOIL_HUMIDITY_FREQ_MSG_EVT,
//  772                       SendSoilHumidityTimeFreq*1000 );
//  773        SendSoilHumidityRemainTime = 0;
//  774     }
//  775 
//  776       return;      
//  777 
//  778   }
//  779 
//  780 //将土壤湿度采集后经处理获得的数字值变为实际的模拟值（考虑参考电压后），以便存储和预测
//  781 float Soil_humidity_DtoA(uint16 data,uint16 vcc)
//  782   {
//  783     float x =( (1.25*data*vcc/8191)/8191);
//  784     return x;
//  785   }
//  786 */
//  787 
//  788 /*********************************************************************
//  789  * NETWORK LAYER CALLBACKS
//  790  */
//  791 
//  792 /*********************************************************************
//  793  * PUBLIC FUNCTIONS
//  794  */
//  795 
//  796 /*********************************************************************
//  797  * @fn      p2p_test_Init
//  798  *
//  799  * @brief   Initialization function for the Generic App Task.
//  800  *          This is called during initialization and should contain
//  801  *          any application specific initialization (ie. hardware
//  802  *          initialization/setup, table initialization, power up
//  803  *          notificaiton ... ).
//  804  *
//  805  * @param   task_id - the ID assigned by OSAL.  This ID should be
//  806  *                    used to send messages and set timers.
//  807  *
//  808  * @return  none
//  809  */

        RSEG BANKED_CODE:CODE:NOROOT(0)
//  810 void p2p_test_Init( byte task_id )
p2p_test_Init:
        CFI Block cfiBlock29 Using cfiCommon0
        CFI Function p2p_test_Init
//  811 { 
        FUNCALL p2p_test_Init, osal_msg_allocate
        LOCFRAME ISTACK, 2, STACK
        LOCFRAME PSTACK, 0, STACK
        LOCFRAME XSTACK, 0, STACK
        LOCFRAME IOVERLAY, 0, STATIC
        LOCFRAME DOVERLAY, 0, STATIC
        ARGFRAME ISTACK, 2, STACK
        ARGFRAME PSTACK, 0, STACK
        ARGFRAME XSTACK, 0, STACK
        ARGFRAME IOVERLAY, 0, STATIC
        ARGFRAME DOVERLAY, 0, STATIC
        FUNCALL p2p_test_Init, afRegister
        LOCFRAME ISTACK, 2, STACK
        LOCFRAME PSTACK, 0, STACK
        LOCFRAME XSTACK, 0, STACK
        LOCFRAME IOVERLAY, 0, STATIC
        LOCFRAME DOVERLAY, 0, STATIC
        ARGFRAME ISTACK, 2, STACK
        ARGFRAME PSTACK, 0, STACK
        ARGFRAME XSTACK, 0, STACK
        ARGFRAME IOVERLAY, 0, STATIC
        ARGFRAME DOVERLAY, 0, STATIC
        FUNCALL p2p_test_Init, OpenP1Interrupt
        LOCFRAME ISTACK, 2, STACK
        LOCFRAME PSTACK, 0, STACK
        LOCFRAME XSTACK, 0, STACK
        LOCFRAME IOVERLAY, 0, STATIC
        LOCFRAME DOVERLAY, 0, STATIC
        ARGFRAME ISTACK, 2, STACK
        ARGFRAME PSTACK, 0, STACK
        ARGFRAME XSTACK, 0, STACK
        ARGFRAME IOVERLAY, 0, STATIC
        ARGFRAME DOVERLAY, 0, STATIC
        FUNCALL p2p_test_Init, RegisterP1Interrupt
        LOCFRAME ISTACK, 2, STACK
        LOCFRAME PSTACK, 0, STACK
        LOCFRAME XSTACK, 0, STACK
        LOCFRAME IOVERLAY, 0, STATIC
        LOCFRAME DOVERLAY, 0, STATIC
        ARGFRAME ISTACK, 2, STACK
        ARGFRAME PSTACK, 0, STACK
        ARGFRAME XSTACK, 0, STACK
        ARGFRAME IOVERLAY, 0, STATIC
        ARGFRAME DOVERLAY, 0, STATIC
        FUNCALL p2p_test_Init, StartP1Interrupt
        LOCFRAME ISTACK, 2, STACK
        LOCFRAME PSTACK, 0, STACK
        LOCFRAME XSTACK, 0, STACK
        LOCFRAME IOVERLAY, 0, STATIC
        LOCFRAME DOVERLAY, 0, STATIC
        ARGFRAME ISTACK, 2, STACK
        ARGFRAME PSTACK, 0, STACK
        ARGFRAME XSTACK, 0, STACK
        ARGFRAME IOVERLAY, 0, STATIC
        ARGFRAME DOVERLAY, 0, STATIC
        FUNCALL p2p_test_Init, SPIMgr_RegisterTaskID
        LOCFRAME ISTACK, 2, STACK
        LOCFRAME PSTACK, 0, STACK
        LOCFRAME XSTACK, 0, STACK
        LOCFRAME IOVERLAY, 0, STATIC
        LOCFRAME DOVERLAY, 0, STATIC
        ARGFRAME ISTACK, 2, STACK
        ARGFRAME PSTACK, 0, STACK
        ARGFRAME XSTACK, 0, STACK
        ARGFRAME IOVERLAY, 0, STATIC
        ARGFRAME DOVERLAY, 0, STATIC
        FUNCALL p2p_test_Init, ZDO_RegisterForZDOMsg
        LOCFRAME ISTACK, 2, STACK
        LOCFRAME PSTACK, 0, STACK
        LOCFRAME XSTACK, 0, STACK
        LOCFRAME IOVERLAY, 0, STATIC
        LOCFRAME DOVERLAY, 0, STATIC
        ARGFRAME ISTACK, 2, STACK
        ARGFRAME PSTACK, 0, STACK
        ARGFRAME XSTACK, 0, STACK
        ARGFRAME IOVERLAY, 0, STATIC
        ARGFRAME DOVERLAY, 0, STATIC
        FUNCALL p2p_test_Init, ZDO_RegisterForZDOMsg
        LOCFRAME ISTACK, 2, STACK
        LOCFRAME PSTACK, 0, STACK
        LOCFRAME XSTACK, 0, STACK
        LOCFRAME IOVERLAY, 0, STATIC
        LOCFRAME DOVERLAY, 0, STATIC
        ARGFRAME ISTACK, 2, STACK
        ARGFRAME PSTACK, 0, STACK
        ARGFRAME XSTACK, 0, STACK
        ARGFRAME IOVERLAY, 0, STATIC
        ARGFRAME DOVERLAY, 0, STATIC
        PUSH    DPL
        CFI DPL0 Frame(CFA_SP, 4)
        CFI CFA_SP SP+-4
        PUSH    DPH
        CFI DPH0 Frame(CFA_SP, 5)
        CFI CFA_SP SP+-5
        ; Saved register size: 2
        ; Auto size: 0
//  812   p2p_test_TaskID = task_id;
        MOV     A,R1
        MOV     DPTR,#p2p_test_TaskID
        MOVX    @DPTR,A
//  813   p2p_test_NwkState = DEV_INIT;
        MOV     A,#0x1
        MOV     DPTR,#p2p_test_NwkState
        MOVX    @DPTR,A
//  814   p2p_test_TransID = 0;
        CLR     A
        MOV     DPTR,#p2p_test_TransID
        MOVX    @DPTR,A
//  815 //zyq add
//  816   /*
//  817   SendRainCountFreq = 1;
//  818   RainCountNum = 0;  
//  819   SendRainTimeFreq = 1;//product unit= 1 minute test unit=1 second
//  820   SendRainRemainTime = 0;
//  821   SendSoilHumidityTimeFreq = 5;
//  822   SendSoilHumidityRemainTime = 0;  
//  823   SendAccelerometerTimeFreq=1;
//  824   SendAccelerometerRemainTime=0;
//  825   SendVccValueTimeFreq   = 1;
//  826   SendVccValueRemainTime = 0;
//  827   */
//  828   SendWaterGageTimeFreq = 1*60;//单位 s
        MOV     DPTR,#SendWaterGageTimeFreq
        MOV     A,#0x3c
        MOVX    @DPTR,A
        INC     DPTR
        CLR     A
        MOVX    @DPTR,A
//  829   SendWaterGageRemainTime=0;
        MOV     DPTR,#SendWaterGageRemainTime
        MOVX    @DPTR,A
        INC     DPTR
        MOVX    @DPTR,A
//  830   
//  831   //select watergage type;
//  832   WaterGageUnit=Default_Water_Gage;
        MOV     DPTR,#WaterGageUnit
        MOV     A,#0x3
        MOVX    @DPTR,A
        INC     DPTR
        CLR     A
        MOVX    @DPTR,A
//  833   //select soil type:0--Clay_Soil,1--Loam_Soil,2--Sand_Soil.init is Clay_Soil
//  834   //SOIL_TYPE = 0;
//  835 //  SerialNumber = 0;
//  836   
//  837 //自己编写
//  838   //初始化
//  839   Water_gage_SerialNumber = 0;
        MOV     DPTR,#Water_gage_SerialNumber
        MOVX    @DPTR,A
        INC     DPTR
        MOVX    @DPTR,A
//  840   Water_gage_time = 1*60;
        MOV     DPTR,#Water_gage_time
        MOV     A,#0x3c
        MOVX    @DPTR,A
        INC     DPTR
        CLR     A
        MOVX    @DPTR,A
//  841   Water_gage_forValue=0;
        MOV     DPTR,#Water_gage_forValue
        MOVX    @DPTR,A
        INC     DPTR
        MOVX    @DPTR,A
//  842 
//  843   no_charge_flag = 0;
        MOV     DPTR,#no_charge_flag
        MOVX    @DPTR,A
//  844   water_gage_on = 0;
        MOV     DPTR,#water_gage_on
        MOVX    @DPTR,A
//  845   CheckWaterGageChargeTimeFreq =60; // 1min
        MOV     DPTR,#CheckWaterGageChargeTimeFreq
        MOV     A,#0x3c
        MOVX    @DPTR,A
        INC     DPTR
        CLR     A
        MOVX    @DPTR,A
//  846   
//  847   Water_gage_err_a = 10;  //10mm
        MOV     A,#0xa
        MOV     DPTR,#Water_gage_err_a
        MOVX    @DPTR,A
//  848   Water_gage_err_b = 50;  //50mm
        MOV     A,#0x32
        MOV     DPTR,#Water_gage_err_b
        MOVX    @DPTR,A
//  849   Water_gage_err_c = 100; //100mm
        MOV     A,#0x64
        MOV     DPTR,#Water_gage_err_c
        MOVX    @DPTR,A
//  850   
//  851   /*
//  852   Soil_humidity_SerialNumber = 0;
//  853   Soil_humidity_time = 5*60;
//  854   Soil_humidity_forValue=0;
//  855   */
//  856   relation_done =0;
        CLR     A
        MOV     DPTR,#relation_done
        MOVX    @DPTR,A
//  857   acceptance = 1;
        MOV     A,#0x1
        MOV     DPTR,#acceptance
        MOVX    @DPTR,A
//  858   
//  859 //未用到 
//  860   /*SoilHumidityFlag=0;
//  861    RainFlag=0;*/
//  862    WaterGageFlag=0;
        CLR     A
        MOV     DPTR,#WaterGageFlag
        MOVX    @DPTR,A
//  863    
//  864    ARM_ID=0x00;
        MOV     DPTR,#ARM_ID
        MOVX    @DPTR,A
//  865    Zigbee_ID=0x00;
        MOV     DPTR,#Zigbee_ID
        MOVX    @DPTR,A
//  866    RES=0x00;
        MOV     DPTR,#RES
        MOVX    @DPTR,A
//  867    
//  868    Head_Map=(struct RelationMap_t *)osal_msg_allocate(sizeof(struct RelationMap_t));//init relation map
        ; Setup parameters for call to function osal_msg_allocate
        MOV     R2,#0x5
        MOV     R3,A
        LCALL   ??osal_msg_allocate?relay
        MOV     DPTR,#Head_Map
        MOV     A,R2
        MOVX    @DPTR,A
        INC     DPTR
        MOV     A,R3
        LCALL   ?Subroutine2 & 0xFFFF
//  869    Head_Map->addr16=0x0000;
//  870    Head_Map->Zigbee_id=Zigbee_ID;
??CrossCallReturnLabel_7:
        PUSH    A
        CFI CFA_SP SP+-6
        LCALL   ?Subroutine30 & 0xFFFF
??CrossCallReturnLabel_83:
        POP     A
        CFI CFA_SP SP+-5
        LCALL   ?Subroutine11 & 0xFFFF
//  871    Head_Map->next=NULL;
??CrossCallReturnLabel_30:
        MOV     DPH,A
        MOV     DPL,R0
        INC     DPTR
        INC     DPTR
        INC     DPTR
        CLR     A
        MOVX    @DPTR,A
        INC     DPTR
        LCALL   ?Subroutine11 & 0xFFFF
//  872    Tail_Map=Head_Map;
??CrossCallReturnLabel_31:
        MOV     R1,A
        LCALL   ?Subroutine7 & 0xFFFF
//  873    FlagMap=0x0000;
??CrossCallReturnLabel_18:
        MOV     DPTR,#FlagMap
        CLR     A
        MOVX    @DPTR,A
        INC     DPTR
        MOVX    @DPTR,A
//  874 
//  875    // NodeId = 17;
//  876    //NodeId = 32;
//  877    //NodeId = 51;
//  878    //NodeId = 68 ;
//  879    //NodeId = 85 ;
//  880    // Device hardware initialization can be added here or in main() (Zmain.c).
//  881    // If the hardware is application specific - add it here.
//  882    // If the hardware is other parts of the device add it in main().
//  883 
//  884   p2p_test_DstAddr.addrMode = (afAddrMode_t)Addr16Bit;//must't be modify in other
        MOV     A,#0x2
        MOV     DPTR,#(p2p_test_DstAddr + 2)
        MOVX    @DPTR,A
//  885   p2p_test_DstAddr.endPoint = p2p_test_ENDPOINT;
        MOV     A,#0xa
        MOV     DPTR,#(p2p_test_DstAddr + 3)
        MOVX    @DPTR,A
//  886   p2p_test_DstAddr.addr.shortAddr = 0x0000;
        MOV     DPTR,#p2p_test_DstAddr
        CLR     A
        MOVX    @DPTR,A
        INC     DPTR
        MOVX    @DPTR,A
//  887   
//  888   p2p_test_EnddeviceAddr.addrMode = (afAddrMode_t)Addr16Bit;//must't be modify in other
        MOV     A,#0x2
        MOV     DPTR,#(p2p_test_EnddeviceAddr + 2)
        MOVX    @DPTR,A
//  889   p2p_test_EnddeviceAddr.endPoint = p2p_test_ENDPOINT;
        MOV     A,#0xa
        MOV     DPTR,#(p2p_test_EnddeviceAddr + 3)
        MOVX    @DPTR,A
//  890   p2p_test_EnddeviceAddr.addr.shortAddr = 0xFFFF;
        MOV     DPTR,#p2p_test_EnddeviceAddr
        MOV     A,#-0x1
        MOVX    @DPTR,A
        INC     DPTR
        MOVX    @DPTR,A
//  891 
//  892   // Fill out the endpoint description.
//  893   p2p_test_epDesc.endPoint = p2p_test_ENDPOINT;
        MOV     A,#0xa
        MOV     DPTR,#p2p_test_epDesc
        MOVX    @DPTR,A
//  894   p2p_test_epDesc.task_id = &p2p_test_TaskID;
        MOV     DPTR,#(p2p_test_epDesc + 1)
        MOV     A,#(p2p_test_TaskID & 0xff)
        MOVX    @DPTR,A
        INC     DPTR
        MOV     A,#((p2p_test_TaskID >> 8) & 0xff)
        MOVX    @DPTR,A
//  895   p2p_test_epDesc.simpleDesc
//  896             = (SimpleDescriptionFormat_t *)&p2p_test_SimpleDesc;
        MOV     DPTR,#(p2p_test_epDesc + 3)
        MOV     A,#(p2p_test_SimpleDesc & 0xff)
        MOVX    @DPTR,A
        INC     DPTR
        MOV     A,#((p2p_test_SimpleDesc >> 8) & 0xff)
        MOVX    @DPTR,A
//  897   p2p_test_epDesc.latencyReq = noLatencyReqs;
        CLR     A
        MOV     DPTR,#(p2p_test_epDesc + 5)
        MOVX    @DPTR,A
//  898 
//  899   // Register the endpoint description with the AF
//  900   afRegister( &p2p_test_epDesc );
        ; Setup parameters for call to function afRegister
        MOV     R2,#(p2p_test_epDesc & 0xff)
        MOV     R3,#((p2p_test_epDesc >> 8) & 0xff)
        LCALL   ??afRegister?relay
//  901   
//  902   //P1_0 is the driver of uart1 
//  903   P1SEL&=~(0x01);  //uart1 enable drive P1_0
        ANL     0xf4,#0xfe
//  904   P1DIR |=(0x01);   //P1_0 output
        ORL     0xfe,#0x1
//  905   
//  906   P2SEL&=~(0x01);  //uart1 enable drive P2_0
        ANL     0xf5,#0xfe
//  907   P2DIR |=(0x01);   //P2_0 output
        ORL     0xff,#0x1
//  908   P2_0=0;
        CLR     0xa0.0
//  909  
//  910   P1SEL&=~(0x02);  // P1_1
        ANL     0xf4,#0xfd
//  911   P1DIR |=(0x02);   //P1_1 output
        ORL     0xfe,#0x2
//  912   P1_1=0;
        CLR     0x90.1
//  913   //P0SEL &=~ (0x30);
//  914   //P0DIR &=~ (0x30);
//  915   // Register for all key events - This app will handle all key events
//  916   //RegisterForKeys( p2p_test_TaskID );
//  917   /* 
//  918   P2SEL &= ~(0x01);  //LED general-- test purpose
//  919   P2DIR |= (0x01);   //LED output-- test purpose
//  920   P2_0=1;            //LED brig.hten-- test purpose
//  921   */ 
//  922   
//  923   //p1.3 -- general -- input -- pullup -- FallEdge
//  924   OpenP1Interrupt(PIN_3, FUN_SELECT_GENERAL, DIRECTION_INPUT, INPUT_MODE_PULLUP, FALL_EDGE); 
        ; Setup parameters for call to function OpenP1Interrupt
        MOV     R5,#0x1
        MOV     R4,#0x0
        MOV     R3,#0x0
        MOV     R2,#0x0
        MOV     R1,#0x3
        LCALL   ??OpenP1Interrupt?relay
//  925   RegisterP1Interrupt(PIN_3, p2p_test_TaskID);
        ; Setup parameters for call to function RegisterP1Interrupt
        MOV     DPTR,#p2p_test_TaskID
        MOVX    A,@DPTR
        MOV     R2,A
        MOV     R1,#0x3
        LCALL   ??RegisterP1Interrupt?relay
//  926   StartP1Interrupt(PIN_3);   
        ; Setup parameters for call to function StartP1Interrupt
        MOV     R1,#0x3
        LCALL   ??StartP1Interrupt?relay
//  927   SPIMgr_RegisterTaskID(p2p_test_TaskID);//for uart recv
        ; Setup parameters for call to function SPIMgr_RegisterTaskID
        MOV     DPTR,#p2p_test_TaskID
        MOVX    A,@DPTR
        MOV     R1,A
        LCALL   ??SPIMgr_RegisterTaskID?relay
//  928 
//  929 
//  930   // Update the display
//  931   //#if defined ( LCD_SUPPORTED )
//  932   //    HalLcdWriteString( "p2p_test", HAL_LCD_LINE_1 );
//  933   //#endif
//  934 
//  935   ZDO_RegisterForZDOMsg( p2p_test_TaskID, End_Device_Bind_rsp );
        ; Setup parameters for call to function ZDO_RegisterForZDOMsg
        MOV     R2,#0x20
        MOV     R3,#-0x80
        MOV     DPTR,#p2p_test_TaskID
        MOVX    A,@DPTR
        MOV     R1,A
        LCALL   ??ZDO_RegisterForZDOMsg?relay
//  936   ZDO_RegisterForZDOMsg( p2p_test_TaskID, Match_Desc_rsp );
        ; Setup parameters for call to function ZDO_RegisterForZDOMsg
        MOV     R2,#0x6
        MOV     R3,#-0x80
        MOV     DPTR,#p2p_test_TaskID
        MOVX    A,@DPTR
        MOV     R1,A
        LCALL   ??ZDO_RegisterForZDOMsg?relay
//  937 }
        LJMP    ??Subroutine67_0 & 0xFFFF
        CFI EndBlock cfiBlock29
        REQUIRE _A_P1
        REQUIRE _A_P2
        REQUIRE P1SEL
        REQUIRE P2SEL
        REQUIRE P1DIR
        REQUIRE P2DIR

        RSEG BANKED_CODE:CODE:NOROOT(0)
?Subroutine11:
        CFI Block cfiCond30 Using cfiCommon0
        CFI NoFunction
        CFI Conditional ??CrossCallReturnLabel_30
        CFI DPL0 Frame(CFA_SP, 4)
        CFI DPH0 Frame(CFA_SP, 5)
        CFI CFA_SP SP+-5
        CFI Block cfiCond31 Using cfiCommon0
        CFI (cfiCond31) NoFunction
        CFI (cfiCond31) Conditional ??CrossCallReturnLabel_31
        CFI (cfiCond31) DPL0 Frame(CFA_SP, 4)
        CFI (cfiCond31) DPH0 Frame(CFA_SP, 5)
        CFI (cfiCond31) CFA_SP SP+-5
        CFI Block cfiPicker32 Using cfiCommon1
        CFI (cfiPicker32) NoFunction
        CFI (cfiPicker32) Picker
        LCALL   ?Subroutine49 & 0xFFFF
??CrossCallReturnLabel_132:
        RET
        CFI EndBlock cfiCond30
        CFI EndBlock cfiCond31
        CFI EndBlock cfiPicker32

        RSEG BANKED_CODE:CODE:NOROOT(0)
?Subroutine49:
        CFI Block cfiCond33 Using cfiCommon0
        CFI NoFunction
        CFI Conditional ??CrossCallReturnLabel_132, ??CrossCallReturnLabel_30
        CFI DPL0 Frame(CFA_SP, 4)
        CFI DPH0 Frame(CFA_SP, 5)
        CFI CFA_SP SP+-5
        CFI Block cfiCond34 Using cfiCommon0
        CFI (cfiCond34) NoFunction
        CFI (cfiCond34) Conditional ??CrossCallReturnLabel_132, ??CrossCallReturnLabel_31
        CFI (cfiCond34) DPL0 Frame(CFA_SP, 4)
        CFI (cfiCond34) DPH0 Frame(CFA_SP, 5)
        CFI (cfiCond34) CFA_SP SP+-5
        CFI Block cfiCond35 Using cfiCommon0
        CFI (cfiCond35) NoFunction
        CFI (cfiCond35) Conditional ??CrossCallReturnLabel_133, ??CrossCallReturnLabel_7
        CFI (cfiCond35) DPL0 Frame(CFA_SP, 4)
        CFI (cfiCond35) DPH0 Frame(CFA_SP, 5)
        CFI (cfiCond35) CFA_SP SP+-5
        CFI Block cfiCond36 Using cfiCommon0
        CFI (cfiCond36) NoFunction
        CFI (cfiCond36) Conditional ??CrossCallReturnLabel_133, ??CrossCallReturnLabel_8
        CFI (cfiCond36) R6 load(1, XDATA, add(CFA_XSP16, literal(-16)))
        CFI (cfiCond36) VB load(1, XDATA, add(CFA_XSP16, literal(-15)))
        CFI (cfiCond36) V0 load(1, XDATA, add(CFA_XSP16, literal(-14)))
        CFI (cfiCond36) V1 load(1, XDATA, add(CFA_XSP16, literal(-13)))
        CFI (cfiCond36) V2 load(1, XDATA, add(CFA_XSP16, literal(-12)))
        CFI (cfiCond36) V3 load(1, XDATA, add(CFA_XSP16, literal(-11)))
        CFI (cfiCond36) V4 load(1, XDATA, add(CFA_XSP16, literal(-10)))
        CFI (cfiCond36) V5 load(1, XDATA, add(CFA_XSP16, literal(-9)))
        CFI (cfiCond36) V6 load(1, XDATA, add(CFA_XSP16, literal(-8)))
        CFI (cfiCond36) V7 load(1, XDATA, add(CFA_XSP16, literal(-7)))
        CFI (cfiCond36) R7 load(1, XDATA, add(CFA_XSP16, literal(-6)))
        CFI (cfiCond36) ?RET_LOW load(1, XDATA, add(CFA_XSP16, literal(-5)))
        CFI (cfiCond36) ?RET_HIGH load(1, XDATA, add(CFA_XSP16, literal(-4)))
        CFI (cfiCond36) ?BRET_EXT load(1, XDATA, add(CFA_XSP16, literal(-3)))
        CFI (cfiCond36) DPL0 load(1, XDATA, add(CFA_XSP16, literal(-2)))
        CFI (cfiCond36) DPH0 load(1, XDATA, add(CFA_XSP16, literal(-1)))
        CFI (cfiCond36) CFA_SP SP+0
        CFI (cfiCond36) CFA_XSP16 add(XSP16, 37)
        CFI Block cfiPicker37 Using cfiCommon1
        CFI (cfiPicker37) NoFunction
        CFI (cfiPicker37) Picker
        MOVX    @DPTR,A
        LCALL   ?Subroutine59 & 0xFFFF
??CrossCallReturnLabel_160:
        RET
        CFI EndBlock cfiCond33
        CFI EndBlock cfiCond34
        CFI EndBlock cfiCond35
        CFI EndBlock cfiCond36
        CFI EndBlock cfiPicker37

        RSEG BANKED_CODE:CODE:NOROOT(0)
?Subroutine59:
        CFI Block cfiCond38 Using cfiCommon0
        CFI NoFunction
        CFI Conditional ??CrossCallReturnLabel_160, ??CrossCallReturnLabel_132, ??CrossCallReturnLabel_30
        CFI DPL0 Frame(CFA_SP, 4)
        CFI DPH0 Frame(CFA_SP, 5)
        CFI CFA_SP SP+-5
        CFI Block cfiCond39 Using cfiCommon0
        CFI (cfiCond39) NoFunction
        CFI (cfiCond39) Conditional ??CrossCallReturnLabel_160, ??CrossCallReturnLabel_132, ??CrossCallReturnLabel_31
        CFI (cfiCond39) DPL0 Frame(CFA_SP, 4)
        CFI (cfiCond39) DPH0 Frame(CFA_SP, 5)
        CFI (cfiCond39) CFA_SP SP+-5
        CFI Block cfiCond40 Using cfiCommon0
        CFI (cfiCond40) NoFunction
        CFI (cfiCond40) Conditional ??CrossCallReturnLabel_160, ??CrossCallReturnLabel_133, ??CrossCallReturnLabel_7
        CFI (cfiCond40) DPL0 Frame(CFA_SP, 4)
        CFI (cfiCond40) DPH0 Frame(CFA_SP, 5)
        CFI (cfiCond40) CFA_SP SP+-5
        CFI Block cfiCond41 Using cfiCommon0
        CFI (cfiCond41) NoFunction
        CFI (cfiCond41) Conditional ??CrossCallReturnLabel_160, ??CrossCallReturnLabel_133, ??CrossCallReturnLabel_8
        CFI (cfiCond41) R6 load(1, XDATA, add(CFA_XSP16, literal(-16)))
        CFI (cfiCond41) VB load(1, XDATA, add(CFA_XSP16, literal(-15)))
        CFI (cfiCond41) V0 load(1, XDATA, add(CFA_XSP16, literal(-14)))
        CFI (cfiCond41) V1 load(1, XDATA, add(CFA_XSP16, literal(-13)))
        CFI (cfiCond41) V2 load(1, XDATA, add(CFA_XSP16, literal(-12)))
        CFI (cfiCond41) V3 load(1, XDATA, add(CFA_XSP16, literal(-11)))
        CFI (cfiCond41) V4 load(1, XDATA, add(CFA_XSP16, literal(-10)))
        CFI (cfiCond41) V5 load(1, XDATA, add(CFA_XSP16, literal(-9)))
        CFI (cfiCond41) V6 load(1, XDATA, add(CFA_XSP16, literal(-8)))
        CFI (cfiCond41) V7 load(1, XDATA, add(CFA_XSP16, literal(-7)))
        CFI (cfiCond41) R7 load(1, XDATA, add(CFA_XSP16, literal(-6)))
        CFI (cfiCond41) ?RET_LOW load(1, XDATA, add(CFA_XSP16, literal(-5)))
        CFI (cfiCond41) ?RET_HIGH load(1, XDATA, add(CFA_XSP16, literal(-4)))
        CFI (cfiCond41) ?BRET_EXT load(1, XDATA, add(CFA_XSP16, literal(-3)))
        CFI (cfiCond41) DPL0 load(1, XDATA, add(CFA_XSP16, literal(-2)))
        CFI (cfiCond41) DPH0 load(1, XDATA, add(CFA_XSP16, literal(-1)))
        CFI (cfiCond41) CFA_SP SP+0
        CFI (cfiCond41) CFA_XSP16 add(XSP16, 37)
        CFI Block cfiCond42 Using cfiCommon0
        CFI (cfiCond42) NoFunction
        CFI (cfiCond42) Conditional ??CrossCallReturnLabel_159, ??CrossCallReturnLabel_83
        CFI (cfiCond42) DPL0 Frame(CFA_SP, 4)
        CFI (cfiCond42) DPH0 Frame(CFA_SP, 5)
        CFI (cfiCond42) CFA_SP SP+-6
        CFI Block cfiCond43 Using cfiCommon0
        CFI (cfiCond43) NoFunction
        CFI (cfiCond43) Conditional ??CrossCallReturnLabel_159, ??CrossCallReturnLabel_84
        CFI (cfiCond43) R6 load(1, XDATA, add(CFA_XSP16, literal(-16)))
        CFI (cfiCond43) VB load(1, XDATA, add(CFA_XSP16, literal(-15)))
        CFI (cfiCond43) V0 load(1, XDATA, add(CFA_XSP16, literal(-14)))
        CFI (cfiCond43) V1 load(1, XDATA, add(CFA_XSP16, literal(-13)))
        CFI (cfiCond43) V2 load(1, XDATA, add(CFA_XSP16, literal(-12)))
        CFI (cfiCond43) V3 load(1, XDATA, add(CFA_XSP16, literal(-11)))
        CFI (cfiCond43) V4 load(1, XDATA, add(CFA_XSP16, literal(-10)))
        CFI (cfiCond43) V5 load(1, XDATA, add(CFA_XSP16, literal(-9)))
        CFI (cfiCond43) V6 load(1, XDATA, add(CFA_XSP16, literal(-8)))
        CFI (cfiCond43) V7 load(1, XDATA, add(CFA_XSP16, literal(-7)))
        CFI (cfiCond43) R7 load(1, XDATA, add(CFA_XSP16, literal(-6)))
        CFI (cfiCond43) ?RET_LOW load(1, XDATA, add(CFA_XSP16, literal(-5)))
        CFI (cfiCond43) ?RET_HIGH load(1, XDATA, add(CFA_XSP16, literal(-4)))
        CFI (cfiCond43) ?BRET_EXT load(1, XDATA, add(CFA_XSP16, literal(-3)))
        CFI (cfiCond43) DPL0 load(1, XDATA, add(CFA_XSP16, literal(-2)))
        CFI (cfiCond43) DPH0 load(1, XDATA, add(CFA_XSP16, literal(-1)))
        CFI (cfiCond43) CFA_SP SP+-1
        CFI (cfiCond43) CFA_XSP16 add(XSP16, 37)
        CFI Block cfiPicker44 Using cfiCommon1
        CFI (cfiPicker44) NoFunction
        CFI (cfiPicker44) Picker
        MOV     DPTR,#Head_Map
        CFI Block cfiCond45 Using cfiCommon0
        CFI (cfiCond45) NoFunction
        CFI (cfiCond45) Conditional ??CrossCallReturnLabel_155
        CFI (cfiCond45) R6 load(1, XDATA, add(CFA_XSP16, literal(-16)))
        CFI (cfiCond45) VB load(1, XDATA, add(CFA_XSP16, literal(-15)))
        CFI (cfiCond45) V0 load(1, XDATA, add(CFA_XSP16, literal(-14)))
        CFI (cfiCond45) V1 load(1, XDATA, add(CFA_XSP16, literal(-13)))
        CFI (cfiCond45) V2 load(1, XDATA, add(CFA_XSP16, literal(-12)))
        CFI (cfiCond45) V3 load(1, XDATA, add(CFA_XSP16, literal(-11)))
        CFI (cfiCond45) V4 load(1, XDATA, add(CFA_XSP16, literal(-10)))
        CFI (cfiCond45) V5 load(1, XDATA, add(CFA_XSP16, literal(-9)))
        CFI (cfiCond45) V6 load(1, XDATA, add(CFA_XSP16, literal(-8)))
        CFI (cfiCond45) V7 load(1, XDATA, add(CFA_XSP16, literal(-7)))
        CFI (cfiCond45) R7 load(1, XDATA, add(CFA_XSP16, literal(-6)))
        CFI (cfiCond45) ?RET_LOW load(1, XDATA, add(CFA_XSP16, literal(-5)))
        CFI (cfiCond45) ?RET_HIGH load(1, XDATA, add(CFA_XSP16, literal(-4)))
        CFI (cfiCond45) ?BRET_EXT load(1, XDATA, add(CFA_XSP16, literal(-3)))
        CFI (cfiCond45) DPL0 load(1, XDATA, add(CFA_XSP16, literal(-2)))
        CFI (cfiCond45) DPH0 load(1, XDATA, add(CFA_XSP16, literal(-1)))
        CFI (cfiCond45) CFA_SP SP+0
        CFI (cfiCond45) CFA_XSP16 add(XSP16, 37)
        CFI Block cfiCond46 Using cfiCommon0
        CFI (cfiCond46) NoFunction
        CFI (cfiCond46) Conditional ??CrossCallReturnLabel_158, ??CrossCallReturnLabel_76
        CFI (cfiCond46) R6 load(1, XDATA, add(CFA_XSP16, literal(-16)))
        CFI (cfiCond46) VB load(1, XDATA, add(CFA_XSP16, literal(-15)))
        CFI (cfiCond46) V0 load(1, XDATA, add(CFA_XSP16, literal(-14)))
        CFI (cfiCond46) V1 load(1, XDATA, add(CFA_XSP16, literal(-13)))
        CFI (cfiCond46) V2 load(1, XDATA, add(CFA_XSP16, literal(-12)))
        CFI (cfiCond46) V3 load(1, XDATA, add(CFA_XSP16, literal(-11)))
        CFI (cfiCond46) V4 load(1, XDATA, add(CFA_XSP16, literal(-10)))
        CFI (cfiCond46) V5 load(1, XDATA, add(CFA_XSP16, literal(-9)))
        CFI (cfiCond46) V6 load(1, XDATA, add(CFA_XSP16, literal(-8)))
        CFI (cfiCond46) V7 load(1, XDATA, add(CFA_XSP16, literal(-7)))
        CFI (cfiCond46) R7 load(1, XDATA, add(CFA_XSP16, literal(-6)))
        CFI (cfiCond46) ?RET_LOW load(1, XDATA, add(CFA_XSP16, literal(-5)))
        CFI (cfiCond46) ?RET_HIGH load(1, XDATA, add(CFA_XSP16, literal(-4)))
        CFI (cfiCond46) ?BRET_EXT load(1, XDATA, add(CFA_XSP16, literal(-3)))
        CFI (cfiCond46) DPL0 load(1, XDATA, add(CFA_XSP16, literal(-2)))
        CFI (cfiCond46) DPH0 load(1, XDATA, add(CFA_XSP16, literal(-1)))
        CFI (cfiCond46) CFA_SP SP+0
        CFI (cfiCond46) CFA_XSP16 add(XSP16, 37)
        CFI Block cfiCond47 Using cfiCommon0
        CFI (cfiCond47) NoFunction
        CFI (cfiCond47) Conditional ??CrossCallReturnLabel_158, ??CrossCallReturnLabel_77
        CFI (cfiCond47) R6 load(1, XDATA, add(CFA_XSP16, literal(-16)))
        CFI (cfiCond47) VB load(1, XDATA, add(CFA_XSP16, literal(-15)))
        CFI (cfiCond47) V0 load(1, XDATA, add(CFA_XSP16, literal(-14)))
        CFI (cfiCond47) V1 load(1, XDATA, add(CFA_XSP16, literal(-13)))
        CFI (cfiCond47) V2 load(1, XDATA, add(CFA_XSP16, literal(-12)))
        CFI (cfiCond47) V3 load(1, XDATA, add(CFA_XSP16, literal(-11)))
        CFI (cfiCond47) V4 load(1, XDATA, add(CFA_XSP16, literal(-10)))
        CFI (cfiCond47) V5 load(1, XDATA, add(CFA_XSP16, literal(-9)))
        CFI (cfiCond47) V6 load(1, XDATA, add(CFA_XSP16, literal(-8)))
        CFI (cfiCond47) V7 load(1, XDATA, add(CFA_XSP16, literal(-7)))
        CFI (cfiCond47) R7 load(1, XDATA, add(CFA_XSP16, literal(-6)))
        CFI (cfiCond47) ?RET_LOW load(1, XDATA, add(CFA_XSP16, literal(-5)))
        CFI (cfiCond47) ?RET_HIGH load(1, XDATA, add(CFA_XSP16, literal(-4)))
        CFI (cfiCond47) ?BRET_EXT load(1, XDATA, add(CFA_XSP16, literal(-3)))
        CFI (cfiCond47) DPL0 load(1, XDATA, add(CFA_XSP16, literal(-2)))
        CFI (cfiCond47) DPH0 load(1, XDATA, add(CFA_XSP16, literal(-1)))
        CFI (cfiCond47) CFA_SP SP+0
        CFI (cfiCond47) CFA_XSP16 add(XSP16, 37)
        CFI Block cfiCond48 Using cfiCommon0
        CFI (cfiCond48) NoFunction
        CFI (cfiCond48) Conditional ??CrossCallReturnLabel_158, ??CrossCallReturnLabel_78
        CFI (cfiCond48) R6 load(1, XDATA, add(CFA_XSP16, literal(-16)))
        CFI (cfiCond48) VB load(1, XDATA, add(CFA_XSP16, literal(-15)))
        CFI (cfiCond48) V0 load(1, XDATA, add(CFA_XSP16, literal(-14)))
        CFI (cfiCond48) V1 load(1, XDATA, add(CFA_XSP16, literal(-13)))
        CFI (cfiCond48) V2 load(1, XDATA, add(CFA_XSP16, literal(-12)))
        CFI (cfiCond48) V3 load(1, XDATA, add(CFA_XSP16, literal(-11)))
        CFI (cfiCond48) V4 load(1, XDATA, add(CFA_XSP16, literal(-10)))
        CFI (cfiCond48) V5 load(1, XDATA, add(CFA_XSP16, literal(-9)))
        CFI (cfiCond48) V6 load(1, XDATA, add(CFA_XSP16, literal(-8)))
        CFI (cfiCond48) V7 load(1, XDATA, add(CFA_XSP16, literal(-7)))
        CFI (cfiCond48) R7 load(1, XDATA, add(CFA_XSP16, literal(-6)))
        CFI (cfiCond48) ?RET_LOW load(1, XDATA, add(CFA_XSP16, literal(-5)))
        CFI (cfiCond48) ?RET_HIGH load(1, XDATA, add(CFA_XSP16, literal(-4)))
        CFI (cfiCond48) ?BRET_EXT load(1, XDATA, add(CFA_XSP16, literal(-3)))
        CFI (cfiCond48) DPL0 load(1, XDATA, add(CFA_XSP16, literal(-2)))
        CFI (cfiCond48) DPH0 load(1, XDATA, add(CFA_XSP16, literal(-1)))
        CFI (cfiCond48) CFA_SP SP+0
        CFI (cfiCond48) CFA_XSP16 add(XSP16, 37)
        CFI Block cfiCond49 Using cfiCommon0
        CFI (cfiCond49) NoFunction
        CFI (cfiCond49) Conditional ??CrossCallReturnLabel_158, ??CrossCallReturnLabel_72
        CFI (cfiCond49) R6 load(1, XDATA, add(CFA_XSP16, literal(-10)))
        CFI (cfiCond49) VB load(1, XDATA, add(CFA_XSP16, literal(-9)))
        CFI (cfiCond49) V0 load(1, XDATA, add(CFA_XSP16, literal(-8)))
        CFI (cfiCond49) V1 load(1, XDATA, add(CFA_XSP16, literal(-7)))
        CFI (cfiCond49) R7 load(1, XDATA, add(CFA_XSP16, literal(-6)))
        CFI (cfiCond49) ?RET_LOW load(1, XDATA, add(CFA_XSP16, literal(-5)))
        CFI (cfiCond49) ?RET_HIGH load(1, XDATA, add(CFA_XSP16, literal(-4)))
        CFI (cfiCond49) ?BRET_EXT load(1, XDATA, add(CFA_XSP16, literal(-3)))
        CFI (cfiCond49) DPL0 load(1, XDATA, add(CFA_XSP16, literal(-2)))
        CFI (cfiCond49) DPH0 load(1, XDATA, add(CFA_XSP16, literal(-1)))
        CFI (cfiCond49) CFA_SP SP+0
        CFI (cfiCond49) CFA_XSP16 add(XSP16, 10)
        CFI Block cfiCond50 Using cfiCommon0
        CFI (cfiCond50) NoFunction
        CFI (cfiCond50) Conditional ??CrossCallReturnLabel_158, ??CrossCallReturnLabel_73
        CFI (cfiCond50) R6 load(1, XDATA, add(CFA_XSP16, literal(-16)))
        CFI (cfiCond50) VB load(1, XDATA, add(CFA_XSP16, literal(-15)))
        CFI (cfiCond50) V0 load(1, XDATA, add(CFA_XSP16, literal(-14)))
        CFI (cfiCond50) V1 load(1, XDATA, add(CFA_XSP16, literal(-13)))
        CFI (cfiCond50) V2 load(1, XDATA, add(CFA_XSP16, literal(-12)))
        CFI (cfiCond50) V3 load(1, XDATA, add(CFA_XSP16, literal(-11)))
        CFI (cfiCond50) V4 load(1, XDATA, add(CFA_XSP16, literal(-10)))
        CFI (cfiCond50) V5 load(1, XDATA, add(CFA_XSP16, literal(-9)))
        CFI (cfiCond50) V6 load(1, XDATA, add(CFA_XSP16, literal(-8)))
        CFI (cfiCond50) V7 load(1, XDATA, add(CFA_XSP16, literal(-7)))
        CFI (cfiCond50) R7 load(1, XDATA, add(CFA_XSP16, literal(-6)))
        CFI (cfiCond50) ?RET_LOW load(1, XDATA, add(CFA_XSP16, literal(-5)))
        CFI (cfiCond50) ?RET_HIGH load(1, XDATA, add(CFA_XSP16, literal(-4)))
        CFI (cfiCond50) ?BRET_EXT load(1, XDATA, add(CFA_XSP16, literal(-3)))
        CFI (cfiCond50) DPL0 load(1, XDATA, add(CFA_XSP16, literal(-2)))
        CFI (cfiCond50) DPH0 load(1, XDATA, add(CFA_XSP16, literal(-1)))
        CFI (cfiCond50) CFA_SP SP+0
        CFI (cfiCond50) CFA_XSP16 add(XSP16, 22)
        CFI Block cfiCond51 Using cfiCommon0
        CFI (cfiCond51) NoFunction
        CFI (cfiCond51) Conditional ??CrossCallReturnLabel_158, ??CrossCallReturnLabel_74
        CFI (cfiCond51) R6 load(1, XDATA, add(CFA_XSP16, literal(-16)))
        CFI (cfiCond51) VB load(1, XDATA, add(CFA_XSP16, literal(-15)))
        CFI (cfiCond51) V0 load(1, XDATA, add(CFA_XSP16, literal(-14)))
        CFI (cfiCond51) V1 load(1, XDATA, add(CFA_XSP16, literal(-13)))
        CFI (cfiCond51) V2 load(1, XDATA, add(CFA_XSP16, literal(-12)))
        CFI (cfiCond51) V3 load(1, XDATA, add(CFA_XSP16, literal(-11)))
        CFI (cfiCond51) V4 load(1, XDATA, add(CFA_XSP16, literal(-10)))
        CFI (cfiCond51) V5 load(1, XDATA, add(CFA_XSP16, literal(-9)))
        CFI (cfiCond51) V6 load(1, XDATA, add(CFA_XSP16, literal(-8)))
        CFI (cfiCond51) V7 load(1, XDATA, add(CFA_XSP16, literal(-7)))
        CFI (cfiCond51) R7 load(1, XDATA, add(CFA_XSP16, literal(-6)))
        CFI (cfiCond51) ?RET_LOW load(1, XDATA, add(CFA_XSP16, literal(-5)))
        CFI (cfiCond51) ?RET_HIGH load(1, XDATA, add(CFA_XSP16, literal(-4)))
        CFI (cfiCond51) ?BRET_EXT load(1, XDATA, add(CFA_XSP16, literal(-3)))
        CFI (cfiCond51) DPL0 load(1, XDATA, add(CFA_XSP16, literal(-2)))
        CFI (cfiCond51) DPH0 load(1, XDATA, add(CFA_XSP16, literal(-1)))
        CFI (cfiCond51) CFA_SP SP+0
        CFI (cfiCond51) CFA_XSP16 add(XSP16, 37)
        CFI Block cfiCond52 Using cfiCommon0
        CFI (cfiCond52) NoFunction
        CFI (cfiCond52) Conditional ??CrossCallReturnLabel_158, ??CrossCallReturnLabel_75
        CFI (cfiCond52) R6 load(1, XDATA, add(CFA_XSP16, literal(-16)))
        CFI (cfiCond52) VB load(1, XDATA, add(CFA_XSP16, literal(-15)))
        CFI (cfiCond52) V0 load(1, XDATA, add(CFA_XSP16, literal(-14)))
        CFI (cfiCond52) V1 load(1, XDATA, add(CFA_XSP16, literal(-13)))
        CFI (cfiCond52) V2 load(1, XDATA, add(CFA_XSP16, literal(-12)))
        CFI (cfiCond52) V3 load(1, XDATA, add(CFA_XSP16, literal(-11)))
        CFI (cfiCond52) V4 load(1, XDATA, add(CFA_XSP16, literal(-10)))
        CFI (cfiCond52) V5 load(1, XDATA, add(CFA_XSP16, literal(-9)))
        CFI (cfiCond52) V6 load(1, XDATA, add(CFA_XSP16, literal(-8)))
        CFI (cfiCond52) V7 load(1, XDATA, add(CFA_XSP16, literal(-7)))
        CFI (cfiCond52) R7 load(1, XDATA, add(CFA_XSP16, literal(-6)))
        CFI (cfiCond52) ?RET_LOW load(1, XDATA, add(CFA_XSP16, literal(-5)))
        CFI (cfiCond52) ?RET_HIGH load(1, XDATA, add(CFA_XSP16, literal(-4)))
        CFI (cfiCond52) ?BRET_EXT load(1, XDATA, add(CFA_XSP16, literal(-3)))
        CFI (cfiCond52) DPL0 load(1, XDATA, add(CFA_XSP16, literal(-2)))
        CFI (cfiCond52) DPH0 load(1, XDATA, add(CFA_XSP16, literal(-1)))
        CFI (cfiCond52) CFA_SP SP+0
        CFI (cfiCond52) CFA_XSP16 add(XSP16, 37)
        CFI Block cfiCond53 Using cfiCommon0
        CFI (cfiCond53) NoFunction
        CFI (cfiCond53) Conditional ??CrossCallReturnLabel_158, ??CrossCallReturnLabel_79
        CFI (cfiCond53) R6 load(1, XDATA, add(CFA_XSP16, literal(-16)))
        CFI (cfiCond53) VB load(1, XDATA, add(CFA_XSP16, literal(-15)))
        CFI (cfiCond53) V0 load(1, XDATA, add(CFA_XSP16, literal(-14)))
        CFI (cfiCond53) V1 load(1, XDATA, add(CFA_XSP16, literal(-13)))
        CFI (cfiCond53) V2 load(1, XDATA, add(CFA_XSP16, literal(-12)))
        CFI (cfiCond53) V3 load(1, XDATA, add(CFA_XSP16, literal(-11)))
        CFI (cfiCond53) V4 load(1, XDATA, add(CFA_XSP16, literal(-10)))
        CFI (cfiCond53) V5 load(1, XDATA, add(CFA_XSP16, literal(-9)))
        CFI (cfiCond53) V6 load(1, XDATA, add(CFA_XSP16, literal(-8)))
        CFI (cfiCond53) V7 load(1, XDATA, add(CFA_XSP16, literal(-7)))
        CFI (cfiCond53) R7 load(1, XDATA, add(CFA_XSP16, literal(-6)))
        CFI (cfiCond53) ?RET_LOW load(1, XDATA, add(CFA_XSP16, literal(-5)))
        CFI (cfiCond53) ?RET_HIGH load(1, XDATA, add(CFA_XSP16, literal(-4)))
        CFI (cfiCond53) ?BRET_EXT load(1, XDATA, add(CFA_XSP16, literal(-3)))
        CFI (cfiCond53) DPL0 load(1, XDATA, add(CFA_XSP16, literal(-2)))
        CFI (cfiCond53) DPH0 load(1, XDATA, add(CFA_XSP16, literal(-1)))
        CFI (cfiCond53) CFA_SP SP+0
        CFI (cfiCond53) CFA_XSP16 add(XSP16, 37)
        CFI Block cfiCond54 Using cfiCommon0
        CFI (cfiCond54) NoFunction
        CFI (cfiCond54) Conditional ??CrossCallReturnLabel_158, ??CrossCallReturnLabel_80
        CFI (cfiCond54) DPL0 Frame(CFA_SP, 4)
        CFI (cfiCond54) DPH0 Frame(CFA_SP, 5)
        CFI (cfiCond54) CFA_SP SP+-5
        CFI Block cfiCond55 Using cfiCommon0
        CFI (cfiCond55) NoFunction
        CFI (cfiCond55) Conditional ??CrossCallReturnLabel_157, ??CrossCallReturnLabel_70
        CFI (cfiCond55) R6 load(1, XDATA, add(CFA_XSP16, literal(-16)))
        CFI (cfiCond55) VB load(1, XDATA, add(CFA_XSP16, literal(-15)))
        CFI (cfiCond55) V0 load(1, XDATA, add(CFA_XSP16, literal(-14)))
        CFI (cfiCond55) V1 load(1, XDATA, add(CFA_XSP16, literal(-13)))
        CFI (cfiCond55) V2 load(1, XDATA, add(CFA_XSP16, literal(-12)))
        CFI (cfiCond55) V3 load(1, XDATA, add(CFA_XSP16, literal(-11)))
        CFI (cfiCond55) V4 load(1, XDATA, add(CFA_XSP16, literal(-10)))
        CFI (cfiCond55) V5 load(1, XDATA, add(CFA_XSP16, literal(-9)))
        CFI (cfiCond55) V6 load(1, XDATA, add(CFA_XSP16, literal(-8)))
        CFI (cfiCond55) V7 load(1, XDATA, add(CFA_XSP16, literal(-7)))
        CFI (cfiCond55) R7 load(1, XDATA, add(CFA_XSP16, literal(-6)))
        CFI (cfiCond55) ?RET_LOW load(1, XDATA, add(CFA_XSP16, literal(-5)))
        CFI (cfiCond55) ?RET_HIGH load(1, XDATA, add(CFA_XSP16, literal(-4)))
        CFI (cfiCond55) ?BRET_EXT load(1, XDATA, add(CFA_XSP16, literal(-3)))
        CFI (cfiCond55) DPL0 load(1, XDATA, add(CFA_XSP16, literal(-2)))
        CFI (cfiCond55) DPH0 load(1, XDATA, add(CFA_XSP16, literal(-1)))
        CFI (cfiCond55) CFA_SP SP+0
        CFI (cfiCond55) CFA_XSP16 add(XSP16, 37)
        CFI Block cfiCond56 Using cfiCommon0
        CFI (cfiCond56) NoFunction
        CFI (cfiCond56) Conditional ??CrossCallReturnLabel_157, ??CrossCallReturnLabel_71
        CFI (cfiCond56) R6 load(1, XDATA, add(CFA_XSP16, literal(-16)))
        CFI (cfiCond56) VB load(1, XDATA, add(CFA_XSP16, literal(-15)))
        CFI (cfiCond56) V0 load(1, XDATA, add(CFA_XSP16, literal(-14)))
        CFI (cfiCond56) V1 load(1, XDATA, add(CFA_XSP16, literal(-13)))
        CFI (cfiCond56) V2 load(1, XDATA, add(CFA_XSP16, literal(-12)))
        CFI (cfiCond56) V3 load(1, XDATA, add(CFA_XSP16, literal(-11)))
        CFI (cfiCond56) V4 load(1, XDATA, add(CFA_XSP16, literal(-10)))
        CFI (cfiCond56) V5 load(1, XDATA, add(CFA_XSP16, literal(-9)))
        CFI (cfiCond56) V6 load(1, XDATA, add(CFA_XSP16, literal(-8)))
        CFI (cfiCond56) V7 load(1, XDATA, add(CFA_XSP16, literal(-7)))
        CFI (cfiCond56) R7 load(1, XDATA, add(CFA_XSP16, literal(-6)))
        CFI (cfiCond56) ?RET_LOW load(1, XDATA, add(CFA_XSP16, literal(-5)))
        CFI (cfiCond56) ?RET_HIGH load(1, XDATA, add(CFA_XSP16, literal(-4)))
        CFI (cfiCond56) ?BRET_EXT load(1, XDATA, add(CFA_XSP16, literal(-3)))
        CFI (cfiCond56) DPL0 load(1, XDATA, add(CFA_XSP16, literal(-2)))
        CFI (cfiCond56) DPH0 load(1, XDATA, add(CFA_XSP16, literal(-1)))
        CFI (cfiCond56) CFA_SP SP+0
        CFI (cfiCond56) CFA_XSP16 add(XSP16, 37)
        CFI Block cfiCond57 Using cfiCommon0
        CFI (cfiCond57) NoFunction
        CFI (cfiCond57) Conditional ??CrossCallReturnLabel_156, ??CrossCallReturnLabel_50
        CFI (cfiCond57) R6 load(1, XDATA, add(CFA_XSP16, literal(-16)))
        CFI (cfiCond57) VB load(1, XDATA, add(CFA_XSP16, literal(-15)))
        CFI (cfiCond57) V0 load(1, XDATA, add(CFA_XSP16, literal(-14)))
        CFI (cfiCond57) V1 load(1, XDATA, add(CFA_XSP16, literal(-13)))
        CFI (cfiCond57) V2 load(1, XDATA, add(CFA_XSP16, literal(-12)))
        CFI (cfiCond57) V3 load(1, XDATA, add(CFA_XSP16, literal(-11)))
        CFI (cfiCond57) V4 load(1, XDATA, add(CFA_XSP16, literal(-10)))
        CFI (cfiCond57) V5 load(1, XDATA, add(CFA_XSP16, literal(-9)))
        CFI (cfiCond57) V6 load(1, XDATA, add(CFA_XSP16, literal(-8)))
        CFI (cfiCond57) V7 load(1, XDATA, add(CFA_XSP16, literal(-7)))
        CFI (cfiCond57) R7 load(1, XDATA, add(CFA_XSP16, literal(-6)))
        CFI (cfiCond57) ?RET_LOW load(1, XDATA, add(CFA_XSP16, literal(-5)))
        CFI (cfiCond57) ?RET_HIGH load(1, XDATA, add(CFA_XSP16, literal(-4)))
        CFI (cfiCond57) ?BRET_EXT load(1, XDATA, add(CFA_XSP16, literal(-3)))
        CFI (cfiCond57) DPL0 load(1, XDATA, add(CFA_XSP16, literal(-2)))
        CFI (cfiCond57) DPH0 load(1, XDATA, add(CFA_XSP16, literal(-1)))
        CFI (cfiCond57) CFA_SP SP+0
        CFI (cfiCond57) CFA_XSP16 add(XSP16, 37)
        CFI Block cfiCond58 Using cfiCommon0
        CFI (cfiCond58) NoFunction
        CFI (cfiCond58) Conditional ??CrossCallReturnLabel_156, ??CrossCallReturnLabel_51
        CFI (cfiCond58) R6 load(1, XDATA, add(CFA_XSP16, literal(-16)))
        CFI (cfiCond58) VB load(1, XDATA, add(CFA_XSP16, literal(-15)))
        CFI (cfiCond58) V0 load(1, XDATA, add(CFA_XSP16, literal(-14)))
        CFI (cfiCond58) V1 load(1, XDATA, add(CFA_XSP16, literal(-13)))
        CFI (cfiCond58) V2 load(1, XDATA, add(CFA_XSP16, literal(-12)))
        CFI (cfiCond58) V3 load(1, XDATA, add(CFA_XSP16, literal(-11)))
        CFI (cfiCond58) V4 load(1, XDATA, add(CFA_XSP16, literal(-10)))
        CFI (cfiCond58) V5 load(1, XDATA, add(CFA_XSP16, literal(-9)))
        CFI (cfiCond58) V6 load(1, XDATA, add(CFA_XSP16, literal(-8)))
        CFI (cfiCond58) V7 load(1, XDATA, add(CFA_XSP16, literal(-7)))
        CFI (cfiCond58) R7 load(1, XDATA, add(CFA_XSP16, literal(-6)))
        CFI (cfiCond58) ?RET_LOW load(1, XDATA, add(CFA_XSP16, literal(-5)))
        CFI (cfiCond58) ?RET_HIGH load(1, XDATA, add(CFA_XSP16, literal(-4)))
        CFI (cfiCond58) ?BRET_EXT load(1, XDATA, add(CFA_XSP16, literal(-3)))
        CFI (cfiCond58) DPL0 load(1, XDATA, add(CFA_XSP16, literal(-2)))
        CFI (cfiCond58) DPH0 load(1, XDATA, add(CFA_XSP16, literal(-1)))
        CFI (cfiCond58) CFA_SP SP+0
        CFI (cfiCond58) CFA_XSP16 add(XSP16, 37)
        CFI Block cfiCond59 Using cfiCommon0
        CFI (cfiCond59) NoFunction
        CFI (cfiCond59) Conditional ??CrossCallReturnLabel_156, ??CrossCallReturnLabel_52
        CFI (cfiCond59) R6 load(1, XDATA, add(CFA_XSP16, literal(-16)))
        CFI (cfiCond59) VB load(1, XDATA, add(CFA_XSP16, literal(-15)))
        CFI (cfiCond59) V0 load(1, XDATA, add(CFA_XSP16, literal(-14)))
        CFI (cfiCond59) V1 load(1, XDATA, add(CFA_XSP16, literal(-13)))
        CFI (cfiCond59) V2 load(1, XDATA, add(CFA_XSP16, literal(-12)))
        CFI (cfiCond59) V3 load(1, XDATA, add(CFA_XSP16, literal(-11)))
        CFI (cfiCond59) V4 load(1, XDATA, add(CFA_XSP16, literal(-10)))
        CFI (cfiCond59) V5 load(1, XDATA, add(CFA_XSP16, literal(-9)))
        CFI (cfiCond59) V6 load(1, XDATA, add(CFA_XSP16, literal(-8)))
        CFI (cfiCond59) V7 load(1, XDATA, add(CFA_XSP16, literal(-7)))
        CFI (cfiCond59) R7 load(1, XDATA, add(CFA_XSP16, literal(-6)))
        CFI (cfiCond59) ?RET_LOW load(1, XDATA, add(CFA_XSP16, literal(-5)))
        CFI (cfiCond59) ?RET_HIGH load(1, XDATA, add(CFA_XSP16, literal(-4)))
        CFI (cfiCond59) ?BRET_EXT load(1, XDATA, add(CFA_XSP16, literal(-3)))
        CFI (cfiCond59) DPL0 load(1, XDATA, add(CFA_XSP16, literal(-2)))
        CFI (cfiCond59) DPH0 load(1, XDATA, add(CFA_XSP16, literal(-1)))
        CFI (cfiCond59) CFA_SP SP+0
        CFI (cfiCond59) CFA_XSP16 add(XSP16, 37)
        CFI Block cfiCond60 Using cfiCommon0
        CFI (cfiCond60) NoFunction
        CFI (cfiCond60) Conditional ??CrossCallReturnLabel_156, ??CrossCallReturnLabel_53
        CFI (cfiCond60) R6 load(1, XDATA, add(CFA_XSP16, literal(-16)))
        CFI (cfiCond60) VB load(1, XDATA, add(CFA_XSP16, literal(-15)))
        CFI (cfiCond60) V0 load(1, XDATA, add(CFA_XSP16, literal(-14)))
        CFI (cfiCond60) V1 load(1, XDATA, add(CFA_XSP16, literal(-13)))
        CFI (cfiCond60) V2 load(1, XDATA, add(CFA_XSP16, literal(-12)))
        CFI (cfiCond60) V3 load(1, XDATA, add(CFA_XSP16, literal(-11)))
        CFI (cfiCond60) V4 load(1, XDATA, add(CFA_XSP16, literal(-10)))
        CFI (cfiCond60) V5 load(1, XDATA, add(CFA_XSP16, literal(-9)))
        CFI (cfiCond60) V6 load(1, XDATA, add(CFA_XSP16, literal(-8)))
        CFI (cfiCond60) V7 load(1, XDATA, add(CFA_XSP16, literal(-7)))
        CFI (cfiCond60) R7 load(1, XDATA, add(CFA_XSP16, literal(-6)))
        CFI (cfiCond60) ?RET_LOW load(1, XDATA, add(CFA_XSP16, literal(-5)))
        CFI (cfiCond60) ?RET_HIGH load(1, XDATA, add(CFA_XSP16, literal(-4)))
        CFI (cfiCond60) ?BRET_EXT load(1, XDATA, add(CFA_XSP16, literal(-3)))
        CFI (cfiCond60) DPL0 load(1, XDATA, add(CFA_XSP16, literal(-2)))
        CFI (cfiCond60) DPH0 load(1, XDATA, add(CFA_XSP16, literal(-1)))
        CFI (cfiCond60) CFA_SP SP+0
        CFI (cfiCond60) CFA_XSP16 add(XSP16, 37)
??Subroutine59_0:
        MOVX    A,@DPTR
        MOV     R0,A
        INC     DPTR
        MOVX    A,@DPTR
        RET
        CFI EndBlock cfiCond38
        CFI EndBlock cfiCond39
        CFI EndBlock cfiCond40
        CFI EndBlock cfiCond41
        CFI EndBlock cfiCond42
        CFI EndBlock cfiCond43
        CFI EndBlock cfiPicker44
        CFI EndBlock cfiCond45
        CFI EndBlock cfiCond46
        CFI EndBlock cfiCond47
        CFI EndBlock cfiCond48
        CFI EndBlock cfiCond49
        CFI EndBlock cfiCond50
        CFI EndBlock cfiCond51
        CFI EndBlock cfiCond52
        CFI EndBlock cfiCond53
        CFI EndBlock cfiCond54
        CFI EndBlock cfiCond55
        CFI EndBlock cfiCond56
        CFI EndBlock cfiCond57
        CFI EndBlock cfiCond58
        CFI EndBlock cfiCond59
        CFI EndBlock cfiCond60
//  938 
//  939 /*********************************************************************
//  940  * @fn      p2p_test_ProcessEvent
//  941  *
//  942  * @brief   Generic Application Task event processor.  This function
//  943  *          is called to process all events for the task.  Events
//  944  *          include timers, messages and any other user defined events.
//  945  *
//  946  * @param   task_id  - The OSAL assigned task ID.
//  947  * @param   events - events to process.  This is a bit map and can
//  948  *                   contain more than one event.
//  949  *
//  950  * @return  none
//  951  */

        RSEG BANKED_CODE:CODE:NOROOT(0)
//  952 UINT16 p2p_test_ProcessEvent( byte task_id, UINT16 events )
p2p_test_ProcessEvent:
        CFI Block cfiBlock61 Using cfiCommon0
        CFI Function p2p_test_ProcessEvent
//  953 {
        FUNCALL p2p_test_ProcessEvent, osal_msg_receive
        LOCFRAME ISTACK, 0, STACK
        LOCFRAME PSTACK, 0, STACK
        LOCFRAME XSTACK, 23, STACK
        LOCFRAME IOVERLAY, 0, STATIC
        LOCFRAME DOVERLAY, 0, STATIC
        ARGFRAME ISTACK, 0, STACK
        ARGFRAME PSTACK, 0, STACK
        ARGFRAME XSTACK, 23, STACK
        ARGFRAME IOVERLAY, 0, STATIC
        ARGFRAME DOVERLAY, 0, STATIC
        FUNCALL p2p_test_ProcessEvent, HalUARTWrite
        LOCFRAME ISTACK, 0, STACK
        LOCFRAME PSTACK, 0, STACK
        LOCFRAME XSTACK, 23, STACK
        LOCFRAME IOVERLAY, 0, STATIC
        LOCFRAME DOVERLAY, 0, STATIC
        ARGFRAME ISTACK, 0, STACK
        ARGFRAME PSTACK, 0, STACK
        ARGFRAME XSTACK, 23, STACK
        ARGFRAME IOVERLAY, 0, STATIC
        ARGFRAME DOVERLAY, 0, STATIC
        FUNCALL p2p_test_ProcessEvent, osal_msg_deallocate
        LOCFRAME ISTACK, 0, STACK
        LOCFRAME PSTACK, 0, STACK
        LOCFRAME XSTACK, 23, STACK
        LOCFRAME IOVERLAY, 0, STATIC
        LOCFRAME DOVERLAY, 0, STATIC
        ARGFRAME ISTACK, 0, STACK
        ARGFRAME PSTACK, 0, STACK
        ARGFRAME XSTACK, 23, STACK
        ARGFRAME IOVERLAY, 0, STATIC
        ARGFRAME DOVERLAY, 0, STATIC
        FUNCALL p2p_test_ProcessEvent, osal_msg_receive
        LOCFRAME ISTACK, 0, STACK
        LOCFRAME PSTACK, 0, STACK
        LOCFRAME XSTACK, 23, STACK
        LOCFRAME IOVERLAY, 0, STATIC
        LOCFRAME DOVERLAY, 0, STATIC
        ARGFRAME ISTACK, 0, STACK
        ARGFRAME PSTACK, 0, STACK
        ARGFRAME XSTACK, 23, STACK
        ARGFRAME IOVERLAY, 0, STATIC
        ARGFRAME DOVERLAY, 0, STATIC
        FUNCALL p2p_test_ProcessEvent, p2p_test_ProcessZDOMsgs
        LOCFRAME ISTACK, 0, STACK
        LOCFRAME PSTACK, 0, STACK
        LOCFRAME XSTACK, 23, STACK
        LOCFRAME IOVERLAY, 0, STATIC
        LOCFRAME DOVERLAY, 0, STATIC
        ARGFRAME ISTACK, 0, STACK
        ARGFRAME PSTACK, 0, STACK
        ARGFRAME XSTACK, 23, STACK
        ARGFRAME IOVERLAY, 0, STATIC
        ARGFRAME DOVERLAY, 0, STATIC
        FUNCALL p2p_test_ProcessEvent, HalUARTWrite
        LOCFRAME ISTACK, 0, STACK
        LOCFRAME PSTACK, 0, STACK
        LOCFRAME XSTACK, 23, STACK
        LOCFRAME IOVERLAY, 0, STATIC
        LOCFRAME DOVERLAY, 0, STATIC
        ARGFRAME ISTACK, 0, STACK
        ARGFRAME PSTACK, 0, STACK
        ARGFRAME XSTACK, 23, STACK
        ARGFRAME IOVERLAY, 0, STATIC
        ARGFRAME DOVERLAY, 0, STATIC
        FUNCALL p2p_test_ProcessEvent, p2p_test_RecvFromUart
        LOCFRAME ISTACK, 0, STACK
        LOCFRAME PSTACK, 0, STACK
        LOCFRAME XSTACK, 23, STACK
        LOCFRAME IOVERLAY, 0, STATIC
        LOCFRAME DOVERLAY, 0, STATIC
        ARGFRAME ISTACK, 0, STACK
        ARGFRAME PSTACK, 0, STACK
        ARGFRAME XSTACK, 23, STACK
        ARGFRAME IOVERLAY, 0, STATIC
        ARGFRAME DOVERLAY, 0, STATIC
        FUNCALL p2p_test_ProcessEvent, p2p_test_MessageMSGCB
        LOCFRAME ISTACK, 0, STACK
        LOCFRAME PSTACK, 0, STACK
        LOCFRAME XSTACK, 23, STACK
        LOCFRAME IOVERLAY, 0, STATIC
        LOCFRAME DOVERLAY, 0, STATIC
        ARGFRAME ISTACK, 0, STACK
        ARGFRAME PSTACK, 0, STACK
        ARGFRAME XSTACK, 23, STACK
        ARGFRAME IOVERLAY, 0, STATIC
        ARGFRAME DOVERLAY, 0, STATIC
        FUNCALL p2p_test_ProcessEvent, osal_start_timerEx
        LOCFRAME ISTACK, 0, STACK
        LOCFRAME PSTACK, 0, STACK
        LOCFRAME XSTACK, 23, STACK
        LOCFRAME IOVERLAY, 0, STATIC
        LOCFRAME DOVERLAY, 0, STATIC
        ARGFRAME ISTACK, 0, STACK
        ARGFRAME PSTACK, 0, STACK
        ARGFRAME XSTACK, 23, STACK
        ARGFRAME IOVERLAY, 0, STATIC
        ARGFRAME DOVERLAY, 0, STATIC
        FUNCALL p2p_test_ProcessEvent, HalUARTWrite
        LOCFRAME ISTACK, 0, STACK
        LOCFRAME PSTACK, 0, STACK
        LOCFRAME XSTACK, 23, STACK
        LOCFRAME IOVERLAY, 0, STATIC
        LOCFRAME DOVERLAY, 0, STATIC
        ARGFRAME ISTACK, 0, STACK
        ARGFRAME PSTACK, 0, STACK
        ARGFRAME XSTACK, 23, STACK
        ARGFRAME IOVERLAY, 0, STATIC
        ARGFRAME DOVERLAY, 0, STATIC
        FUNCALL p2p_test_ProcessEvent, osal_stop_timerEx
        LOCFRAME ISTACK, 0, STACK
        LOCFRAME PSTACK, 0, STACK
        LOCFRAME XSTACK, 23, STACK
        LOCFRAME IOVERLAY, 0, STATIC
        LOCFRAME DOVERLAY, 0, STATIC
        ARGFRAME ISTACK, 0, STACK
        ARGFRAME PSTACK, 0, STACK
        ARGFRAME XSTACK, 23, STACK
        ARGFRAME IOVERLAY, 0, STATIC
        ARGFRAME DOVERLAY, 0, STATIC
        FUNCALL p2p_test_ProcessEvent, osal_stop_timerEx
        LOCFRAME ISTACK, 0, STACK
        LOCFRAME PSTACK, 0, STACK
        LOCFRAME XSTACK, 23, STACK
        LOCFRAME IOVERLAY, 0, STATIC
        LOCFRAME DOVERLAY, 0, STATIC
        ARGFRAME ISTACK, 0, STACK
        ARGFRAME PSTACK, 0, STACK
        ARGFRAME XSTACK, 23, STACK
        ARGFRAME IOVERLAY, 0, STATIC
        ARGFRAME DOVERLAY, 0, STATIC
        FUNCALL p2p_test_ProcessEvent, HalUARTWrite
        LOCFRAME ISTACK, 0, STACK
        LOCFRAME PSTACK, 0, STACK
        LOCFRAME XSTACK, 23, STACK
        LOCFRAME IOVERLAY, 0, STATIC
        LOCFRAME DOVERLAY, 0, STATIC
        ARGFRAME ISTACK, 0, STACK
        ARGFRAME PSTACK, 0, STACK
        ARGFRAME XSTACK, 23, STACK
        ARGFRAME IOVERLAY, 0, STATIC
        ARGFRAME DOVERLAY, 0, STATIC
        FUNCALL p2p_test_ProcessEvent, osal_start_timerEx
        LOCFRAME ISTACK, 0, STACK
        LOCFRAME PSTACK, 0, STACK
        LOCFRAME XSTACK, 23, STACK
        LOCFRAME IOVERLAY, 0, STATIC
        LOCFRAME DOVERLAY, 0, STATIC
        ARGFRAME ISTACK, 0, STACK
        ARGFRAME PSTACK, 0, STACK
        ARGFRAME XSTACK, 23, STACK
        ARGFRAME IOVERLAY, 0, STATIC
        ARGFRAME DOVERLAY, 0, STATIC
        FUNCALL p2p_test_ProcessEvent, HalUARTWrite
        LOCFRAME ISTACK, 0, STACK
        LOCFRAME PSTACK, 0, STACK
        LOCFRAME XSTACK, 23, STACK
        LOCFRAME IOVERLAY, 0, STATIC
        LOCFRAME DOVERLAY, 0, STATIC
        ARGFRAME ISTACK, 0, STACK
        ARGFRAME PSTACK, 0, STACK
        ARGFRAME XSTACK, 23, STACK
        ARGFRAME IOVERLAY, 0, STATIC
        ARGFRAME DOVERLAY, 0, STATIC
        FUNCALL p2p_test_ProcessEvent, HalUARTWrite
        LOCFRAME ISTACK, 0, STACK
        LOCFRAME PSTACK, 0, STACK
        LOCFRAME XSTACK, 23, STACK
        LOCFRAME IOVERLAY, 0, STATIC
        LOCFRAME DOVERLAY, 0, STATIC
        ARGFRAME ISTACK, 0, STACK
        ARGFRAME PSTACK, 0, STACK
        ARGFRAME XSTACK, 23, STACK
        ARGFRAME IOVERLAY, 0, STATIC
        ARGFRAME DOVERLAY, 0, STATIC
        FUNCALL p2p_test_ProcessEvent, HalUARTWrite
        LOCFRAME ISTACK, 0, STACK
        LOCFRAME PSTACK, 0, STACK
        LOCFRAME XSTACK, 23, STACK
        LOCFRAME IOVERLAY, 0, STATIC
        LOCFRAME DOVERLAY, 0, STATIC
        ARGFRAME ISTACK, 0, STACK
        ARGFRAME PSTACK, 0, STACK
        ARGFRAME XSTACK, 23, STACK
        ARGFRAME IOVERLAY, 0, STATIC
        ARGFRAME DOVERLAY, 0, STATIC
        FUNCALL p2p_test_ProcessEvent, HalUARTWrite
        LOCFRAME ISTACK, 0, STACK
        LOCFRAME PSTACK, 0, STACK
        LOCFRAME XSTACK, 23, STACK
        LOCFRAME IOVERLAY, 0, STATIC
        LOCFRAME DOVERLAY, 0, STATIC
        ARGFRAME ISTACK, 0, STACK
        ARGFRAME PSTACK, 0, STACK
        ARGFRAME XSTACK, 23, STACK
        ARGFRAME IOVERLAY, 0, STATIC
        ARGFRAME DOVERLAY, 0, STATIC
        FUNCALL p2p_test_ProcessEvent, HalUARTWrite
        LOCFRAME ISTACK, 0, STACK
        LOCFRAME PSTACK, 0, STACK
        LOCFRAME XSTACK, 23, STACK
        LOCFRAME IOVERLAY, 0, STATIC
        LOCFRAME DOVERLAY, 0, STATIC
        ARGFRAME ISTACK, 0, STACK
        ARGFRAME PSTACK, 0, STACK
        ARGFRAME XSTACK, 23, STACK
        ARGFRAME IOVERLAY, 0, STATIC
        ARGFRAME DOVERLAY, 0, STATIC
        FUNCALL p2p_test_ProcessEvent, HalUARTWrite
        LOCFRAME ISTACK, 0, STACK
        LOCFRAME PSTACK, 0, STACK
        LOCFRAME XSTACK, 23, STACK
        LOCFRAME IOVERLAY, 0, STATIC
        LOCFRAME DOVERLAY, 0, STATIC
        ARGFRAME ISTACK, 0, STACK
        ARGFRAME PSTACK, 0, STACK
        ARGFRAME XSTACK, 23, STACK
        ARGFRAME IOVERLAY, 0, STATIC
        ARGFRAME DOVERLAY, 0, STATIC
        FUNCALL p2p_test_ProcessEvent, HalUARTWrite
        LOCFRAME ISTACK, 0, STACK
        LOCFRAME PSTACK, 0, STACK
        LOCFRAME XSTACK, 23, STACK
        LOCFRAME IOVERLAY, 0, STATIC
        LOCFRAME DOVERLAY, 0, STATIC
        ARGFRAME ISTACK, 0, STACK
        ARGFRAME PSTACK, 0, STACK
        ARGFRAME XSTACK, 23, STACK
        ARGFRAME IOVERLAY, 0, STATIC
        ARGFRAME DOVERLAY, 0, STATIC
        FUNCALL p2p_test_ProcessEvent, p2p_test_SendRelationPkt
        LOCFRAME ISTACK, 0, STACK
        LOCFRAME PSTACK, 0, STACK
        LOCFRAME XSTACK, 23, STACK
        LOCFRAME IOVERLAY, 0, STATIC
        LOCFRAME DOVERLAY, 0, STATIC
        ARGFRAME ISTACK, 0, STACK
        ARGFRAME PSTACK, 0, STACK
        ARGFRAME XSTACK, 23, STACK
        ARGFRAME IOVERLAY, 0, STATIC
        ARGFRAME DOVERLAY, 0, STATIC
        FUNCALL p2p_test_ProcessEvent, p2p_test_Send_Water_Gage
        LOCFRAME ISTACK, 0, STACK
        LOCFRAME PSTACK, 0, STACK
        LOCFRAME XSTACK, 23, STACK
        LOCFRAME IOVERLAY, 0, STATIC
        LOCFRAME DOVERLAY, 0, STATIC
        ARGFRAME ISTACK, 0, STACK
        ARGFRAME PSTACK, 0, STACK
        ARGFRAME XSTACK, 23, STACK
        ARGFRAME IOVERLAY, 0, STATIC
        ARGFRAME DOVERLAY, 0, STATIC
        FUNCALL p2p_test_ProcessEvent, start_Water_gage_timer
        LOCFRAME ISTACK, 0, STACK
        LOCFRAME PSTACK, 0, STACK
        LOCFRAME XSTACK, 23, STACK
        LOCFRAME IOVERLAY, 0, STATIC
        LOCFRAME DOVERLAY, 0, STATIC
        ARGFRAME ISTACK, 0, STACK
        ARGFRAME PSTACK, 0, STACK
        ARGFRAME XSTACK, 23, STACK
        ARGFRAME IOVERLAY, 0, STATIC
        ARGFRAME DOVERLAY, 0, STATIC
        FUNCALL p2p_test_ProcessEvent, check_water_gage_charge
        LOCFRAME ISTACK, 0, STACK
        LOCFRAME PSTACK, 0, STACK
        LOCFRAME XSTACK, 23, STACK
        LOCFRAME IOVERLAY, 0, STATIC
        LOCFRAME DOVERLAY, 0, STATIC
        ARGFRAME ISTACK, 0, STACK
        ARGFRAME PSTACK, 0, STACK
        ARGFRAME XSTACK, 23, STACK
        ARGFRAME IOVERLAY, 0, STATIC
        ARGFRAME DOVERLAY, 0, STATIC
        MOV     A,#-0xc
        LCALL   ?BANKED_ENTER_XDATA
        CFI DPH0 load(1, XDATA, add(CFA_XSP16, literal(-1)))
        CFI DPL0 load(1, XDATA, add(CFA_XSP16, literal(-2)))
        CFI ?BRET_EXT load(1, XDATA, add(CFA_XSP16, literal(-3)))
        CFI ?RET_HIGH load(1, XDATA, add(CFA_XSP16, literal(-4)))
        CFI ?RET_LOW load(1, XDATA, add(CFA_XSP16, literal(-5)))
        CFI R7 load(1, XDATA, add(CFA_XSP16, literal(-6)))
        CFI V3 load(1, XDATA, add(CFA_XSP16, literal(-7)))
        CFI V2 load(1, XDATA, add(CFA_XSP16, literal(-8)))
        CFI V1 load(1, XDATA, add(CFA_XSP16, literal(-9)))
        CFI V0 load(1, XDATA, add(CFA_XSP16, literal(-10)))
        CFI VB load(1, XDATA, add(CFA_XSP16, literal(-11)))
        CFI R6 load(1, XDATA, add(CFA_XSP16, literal(-12)))
        CFI CFA_SP SP+0
        CFI CFA_XSP16 add(XSP16, 12)
        ; Saved register size: 12
        ; Auto size: 11
        MOV     A,#-0xb
        LCALL   ?ALLOC_XSTACK8
        CFI CFA_XSP16 add(XSP16, 23)
        MOV     A,R2
        MOV     R6,A
        MOV     A,R3
        MOV     R7,A
//  954   afIncomingMSGPacket_t *MSGpkt;
//  955   afDataConfirm_t *afDataConfirm;
//  956 
//  957 #if DEBUG
//  958   uint8 x1 = 17;
        MOV     A,#0x1
        LCALL   ?XSTACK_DISP0_8
        MOV     A,#0x11
        MOVX    @DPTR,A
//  959   uint8 x2 = 34;
        MOV     A,#0x2
        LCALL   ?XSTACK_DISP0_8
        MOV     A,#0x22
        MOVX    @DPTR,A
//  960   uint8 x3 = 51;
        MOV     A,#0x3
        LCALL   ?XSTACK_DISP0_8
        MOV     A,#0x33
        MOVX    @DPTR,A
//  961   uint8 x4 = 68;
        MOV     A,#0x4
        LCALL   ?XSTACK_DISP0_8
        MOV     A,#0x44
        MOVX    @DPTR,A
//  962   uint8 x5 = 85;
        MOV     A,#0x5
        LCALL   ?XSTACK_DISP0_8
        MOV     A,#0x55
        MOVX    @DPTR,A
//  963   uint8 x6 = 102;
        MOV     A,#0x6
        LCALL   ?XSTACK_DISP0_8
        MOV     A,#0x66
        MOVX    @DPTR,A
//  964   uint8 x7 = 119;
        MOV     A,#0x7
        LCALL   ?XSTACK_DISP0_8
        MOV     A,#0x77
        MOVX    @DPTR,A
//  965   uint8 x8 = 136;
        MOV     A,#0x8
        LCALL   ?XSTACK_DISP0_8
        MOV     A,#-0x78
        MOVX    @DPTR,A
//  966   uint8 x9 = 153;
        MOV     A,#0x9
        LCALL   ?XSTACK_DISP0_8
        MOV     A,#-0x67
        MOVX    @DPTR,A
//  967   uint8 x10 = 170;
        MOV     A,#0xa
        LCALL   ?XSTACK_DISP0_8
        MOV     A,#-0x56
        MOVX    @DPTR,A
//  968   
//  969 #endif
//  970   
//  971   // Data Confirmation message fields
//  972   byte sentEP;
//  973   ZStatus_t sentStatus;
//  974   byte sentTransID;       // This should match the value sent
//  975   
//  976   if ( events & SYS_EVENT_MSG )
        MOV     A,#-0x80
        ANL     A,R7
        MOV     R1,A
        CLR     A
        JNZ     ??p2p_test_ProcessEvent_0
        MOV     A,R1
??p2p_test_ProcessEvent_0:
        JNZ     $+5
        LJMP    ??p2p_test_ProcessEvent_1 & 0xFFFF
//  977   {
//  978     MSGpkt = (afIncomingMSGPacket_t *)osal_msg_receive( p2p_test_TaskID );
        ; Setup parameters for call to function osal_msg_receive
        SJMP    ??p2p_test_ProcessEvent_2
//  979     while ( MSGpkt )
//  980     {
//  981       switch ( MSGpkt->hdr.event )
//  982       {
//  983         case ZDO_CB_MSG:
//  984           p2p_test_ProcessZDOMsgs( (zdoIncomingMsg_t *)MSGpkt );
//  985           break;
//  986 
//  987         case KEY_CHANGE:
//  988           // p2p_test_HandleKeys( ((keyChange_t *)MSGpkt)->state, ((keyChange_t *)MSGpkt)->keys );
//  989           break;
//  990         case CMD_SERIAL_MSG: 
//  991           {
//  992 #if DEBUG 
//  993           uint8 x3 = 0xEE;
//  994           HalUARTWrite(0,&x3, sizeof(x3));
//  995 #endif  
//  996           p2p_test_RecvFromUart( ((mtOSALSerialData_t *)MSGpkt)->msg ); 
//  997           }
//  998           break;
//  999         case P1_0_INTERRUPT:
// 1000           
// 1001           break;
// 1002         case P1_1_INTERRUPT:
// 1003           
// 1004           break;
// 1005         case P1_2_INTERRUPT:
// 1006 
// 1007           break;
// 1008         case P1_3_INTERRUPT:
// 1009           //HalUARTWrite(0,te,3);
// 1010          // p2p_test_interrupt_rain(  ( (rain_t *)MSGpkt )->count  );          
// 1011           break;
// 1012         case P1_4_INTERRUPT:
// 1013           
// 1014           break;
// 1015         case P1_5_INTERRUPT:
// 1016           
// 1017           break;
// 1018         case P1_6_INTERRUPT:
// 1019           
// 1020           break;
// 1021         case P1_7_INTERRUPT:
// 1022           
// 1023           break;          
// 1024         case AF_DATA_CONFIRM_CMD:
// 1025           // This message is received as a confirmation of a data packet sent.
// 1026           // The status is of ZStatus_t type [defined in ZComDef.h]
// 1027           // The message fields are defined in AF.h
// 1028           afDataConfirm = (afDataConfirm_t *)MSGpkt;
// 1029           sentEP = afDataConfirm->endpoint;
// 1030           sentStatus = afDataConfirm->hdr.status;
// 1031           sentTransID = afDataConfirm->transID;
// 1032           (void)sentEP;
// 1033           (void)sentTransID;
// 1034 
// 1035           // Action taken when confirmation is received.
// 1036           if ( sentStatus != ZSuccess )
// 1037           {
// 1038             // The data wasn't delivered -- Do something
// 1039           }
// 1040           break;
// 1041 
// 1042         case AF_INCOMING_MSG_CMD:
// 1043           p2p_test_MessageMSGCB( MSGpkt );
// 1044           //READ_TEST( MSGpkt );//DONG
// 1045             
// 1046  //         HalLedSet( HAL_LED_1, HAL_LED_MODE_ON );
// 1047   //        MicroWait( 62500 );
// 1048   //        MicroWait( 62500 );
// 1049    //       HalLedSet( HAL_LED_1, HAL_LED_MODE_OFF );
// 1050           break;
// 1051 
// 1052         case ZDO_STATE_CHANGE:
// 1053           p2p_test_NwkState = (devStates_t)(MSGpkt->hdr.status);
// 1054 
// 1055         //网络层组网成功
// 1056           if(p2p_test_NwkState ==DEV_END_DEVICE)
// 1057           {  
// 1058           osal_start_timerEx( p2p_test_TaskID,
// 1059                             p2p_test_SEND_MAINTAIN_MSG_EVT,
// 1060                             1000 );           
// 1061 #if DEBUG          
// 1062           HalUARTWrite(0,&x1, sizeof(x1));
// 1063 #endif
// 1064           }
// 1065           //网络层组网失败（如pan断电）
// 1066           else if(p2p_test_NwkState ==DEV_INIT)
// 1067           {
// 1068             osal_stop_timerEx(p2p_test_TaskID, 
// 1069                               p2p_test_SEND_WATER_GAGE_MSG_EVT);
// 1070             osal_stop_timerEx(p2p_test_TaskID, 
// 1071                               p2p_test_CHECK_WATER_GAGE_CHARGE_MSG_EVT);
// 1072             //p2p_test_Init(p2p_test_TaskID);//不加此句，之前的数据仍保存
// 1073           
// 1074 #if DEBUG          
// 1075           HalUARTWrite(0,&x2, sizeof(x2));
// 1076 #endif    
// 1077          //start watchdog mode, default time interval 1s
// 1078           SystemReset();
// 1079 
// 1080           }      
// 1081           //pan开启
// 1082           else if(p2p_test_NwkState ==DEV_ZB_COORD)
// 1083           {
// 1084                osal_start_timerEx( p2p_test_TaskID,
// 1085                             p2p_test_SEND_MAINTAIN_MSG_EVT,
// 1086                             1000 );    
// 1087 #if DEBUG          
// 1088           HalUARTWrite(0,&x3, sizeof(x3));
// 1089 #endif               
// 1090           }
// 1091 
// 1092 #if DEBUG  
// 1093           else if(p2p_test_NwkState ==DEV_HOLD)   
// 1094             HalUARTWrite(0,&x4, sizeof(x4)); 
// 1095           else if(p2p_test_NwkState ==DEV_NWK_DISC)   
// 1096             HalUARTWrite(0,&x5, sizeof(x5));   
// 1097           else if(p2p_test_NwkState ==DEV_NWK_JOINING)   
// 1098             HalUARTWrite(0,&x6, sizeof(x6));
// 1099           else if(p2p_test_NwkState ==DEV_NWK_REJOIN)   
// 1100             HalUARTWrite(0,&x7, sizeof(x7)); 
// 1101           else if(p2p_test_NwkState ==DEV_END_DEVICE_UNAUTH)   
// 1102             HalUARTWrite(0,&x8, sizeof(x8));   
// 1103           else if(p2p_test_NwkState ==DEV_COORD_STARTING)   
// 1104             HalUARTWrite(0,&x9, sizeof(x9));      
// 1105           else if(p2p_test_NwkState ==DEV_NWK_ORPHAN)   
??p2p_test_ProcessEvent_3:
        MOVX    A,@DPTR
        XRL     A,#0xa
        JNZ     ??p2p_test_ProcessEvent_4
// 1106             HalUARTWrite(0,&x10, sizeof(x10));           
        ; Setup parameters for call to function HalUARTWrite
        MOV     R4,#0x1
        MOV     R5,#0x0
        MOV     A,#0xa
??p2p_test_ProcessEvent_5:
        LCALL   ?XSTACK_DISP0_8
        MOV     R2,DPL
        MOV     R3,DPH
        MOV     R1,#0x0
        LCALL   ??HalUARTWrite?relay
// 1107 #endif 
// 1108           break;
// 1109 
// 1110         default:
// 1111           break;
// 1112       }
// 1113 
// 1114       // Release the memory
// 1115       osal_msg_deallocate( (uint8 *)MSGpkt );
??p2p_test_ProcessEvent_4:
        ; Setup parameters for call to function osal_msg_deallocate
        MOV     R2,?V0 + 0
        MOV     R3,?V0 + 1
        LCALL   ??osal_msg_deallocate?relay
// 1116 
// 1117       // Next
// 1118       MSGpkt = (afIncomingMSGPacket_t *)osal_msg_receive( p2p_test_TaskID );
        ; Setup parameters for call to function osal_msg_receive
??p2p_test_ProcessEvent_2:
        MOV     DPTR,#p2p_test_TaskID
        MOVX    A,@DPTR
        MOV     R1,A
        LCALL   ??osal_msg_receive?relay
        MOV     ?V0 + 0,R2
        MOV     ?V0 + 1,R3
        MOV     A,?V0 + 0
        JNZ     ??p2p_test_ProcessEvent_6
        MOV     A,?V0 + 1
??p2p_test_ProcessEvent_6:
        JNZ     $+5
        LJMP    ??p2p_test_ProcessEvent_7 & 0xFFFF
        MOV     DPL,?V0 + 0
        MOV     DPH,?V0 + 1
        MOVX    A,@DPTR
        LCALL   ?UC_SWITCH_SPARSE
`?<Jumptable for p2p_test_ProcessEvent>_0`:
        DATA
        DB        0
        DB        4
        DB        1
        DW        ??p2p_test_ProcessEvent_8
        DB        26
        DW        ??p2p_test_ProcessEvent_9
        DB        209
        DW        ??p2p_test_ProcessEvent_10
        DB        211
        DW        ??p2p_test_ProcessEvent_11
        DW        ??p2p_test_ProcessEvent_4
        CODE
??p2p_test_ProcessEvent_11:
        ; Setup parameters for call to function p2p_test_ProcessZDOMsgs
        MOV     R2,?V0 + 0
        MOV     R3,?V0 + 1
        LCALL   ??p2p_test_ProcessZDOMsgs?relay
        SJMP    ??p2p_test_ProcessEvent_4
??p2p_test_ProcessEvent_8:
        MOV     A,#-0x12
        LCALL   ?Subroutine1 & 0xFFFF
??CrossCallReturnLabel_164:
        ; Setup parameters for call to function p2p_test_RecvFromUart
        MOV     DPL,?V0 + 0
        MOV     DPH,?V0 + 1
        INC     DPTR
        INC     DPTR
        LCALL   ?Subroutine62 & 0xFFFF
??CrossCallReturnLabel_167:
        LCALL   ??p2p_test_RecvFromUart?relay
        SJMP    ??p2p_test_ProcessEvent_4
??p2p_test_ProcessEvent_9:
        ; Setup parameters for call to function p2p_test_MessageMSGCB
        MOV     R2,?V0 + 0
        MOV     R3,?V0 + 1
        LCALL   ??p2p_test_MessageMSGCB?relay
        SJMP    ??p2p_test_ProcessEvent_4
??p2p_test_ProcessEvent_10:
        MOV     DPL,?V0 + 0
        MOV     DPH,?V0 + 1
        INC     DPTR
        MOVX    A,@DPTR
        MOV     DPTR,#p2p_test_NwkState
        MOVX    @DPTR,A
        XRL     A,#0x6
        JNZ     ??p2p_test_ProcessEvent_12
        ; Setup parameters for call to function osal_start_timerEx
        LCALL   ?Subroutine31 & 0xFFFF
??CrossCallReturnLabel_197:
        MOV     A,R4
        LJMP    ??p2p_test_ProcessEvent_5 & 0xFFFF
??p2p_test_ProcessEvent_12:
        MOVX    A,@DPTR
        XRL     A,#0x1
        JNZ     ??p2p_test_ProcessEvent_13
        ; Setup parameters for call to function osal_stop_timerEx
        MOV     R2,#-0x80
        LCALL   ?Subroutine54 & 0xFFFF
??CrossCallReturnLabel_145:
        ; Setup parameters for call to function osal_stop_timerEx
        MOV     R2,#0x0
        MOV     R3,#0x1
        LCALL   ??Subroutine54_0 & 0xFFFF
??CrossCallReturnLabel_147:
        ; Setup parameters for call to function HalUARTWrite
        MOV     R4,#0x1
        MOV     R5,#0x0
        MOV     A,#0x2
        LCALL   ?XSTACK_DISP0_8
        MOV     R2,DPL
        MOV     R3,DPH
        MOV     R1,#0x0
        LCALL   ??HalUARTWrite?relay
        CLR     0xa8.7
        MOV     0xc9,#-0x55
        MOV     0xc9,#0x5b
??p2p_test_ProcessEvent_14:
        NOP
        SJMP    ??p2p_test_ProcessEvent_14
??p2p_test_ProcessEvent_13:
        MOVX    A,@DPTR
        XRL     A,#0x9
        JNZ     ??p2p_test_ProcessEvent_15
        ; Setup parameters for call to function osal_start_timerEx
        LCALL   ?Subroutine31 & 0xFFFF
??CrossCallReturnLabel_198:
        MOV     A,#0x3
        LJMP    ??p2p_test_ProcessEvent_5 & 0xFFFF
??p2p_test_ProcessEvent_15:
        MOVX    A,@DPTR
        JNZ     ??p2p_test_ProcessEvent_16
        ; Setup parameters for call to function HalUARTWrite
        MOV     R4,#0x1
        MOV     R5,#0x0
        MOV     A,#0x4
        LJMP    ??p2p_test_ProcessEvent_5 & 0xFFFF
??p2p_test_ProcessEvent_16:
        XRL     A,#0x2
        JNZ     ??p2p_test_ProcessEvent_17
        ; Setup parameters for call to function HalUARTWrite
        MOV     R4,#0x1
        MOV     R5,#0x0
        MOV     A,#0x5
        LJMP    ??p2p_test_ProcessEvent_5 & 0xFFFF
??p2p_test_ProcessEvent_17:
        MOVX    A,@DPTR
        XRL     A,#0x3
        JNZ     ??p2p_test_ProcessEvent_18
        ; Setup parameters for call to function HalUARTWrite
        MOV     R4,#0x1
        MOV     R5,#0x0
        MOV     A,#0x6
        LJMP    ??p2p_test_ProcessEvent_5 & 0xFFFF
??p2p_test_ProcessEvent_18:
        MOVX    A,@DPTR
        XRL     A,#0x4
        JNZ     ??p2p_test_ProcessEvent_19
        ; Setup parameters for call to function HalUARTWrite
        MOV     R4,#0x1
        MOV     R5,#0x0
        MOV     A,#0x7
        LJMP    ??p2p_test_ProcessEvent_5 & 0xFFFF
??p2p_test_ProcessEvent_19:
        MOVX    A,@DPTR
        XRL     A,#0x5
        JNZ     ??p2p_test_ProcessEvent_20
        ; Setup parameters for call to function HalUARTWrite
        MOV     R4,#0x1
        MOV     R5,#0x0
        MOV     A,#0x8
        LJMP    ??p2p_test_ProcessEvent_5 & 0xFFFF
??p2p_test_ProcessEvent_20:
        MOVX    A,@DPTR
        XRL     A,#0x8
        JZ      $+5
        LJMP    ??p2p_test_ProcessEvent_3 & 0xFFFF
        ; Setup parameters for call to function HalUARTWrite
        MOV     R4,#0x1
        MOV     R5,#0x0
        MOV     A,#0x9
        LJMP    ??p2p_test_ProcessEvent_5 & 0xFFFF
// 1119     }
// 1120 
// 1121     // return unprocessed events
// 1122     return (events ^ SYS_EVENT_MSG);
??p2p_test_ProcessEvent_7:
        MOV     A,R6
        MOV     R2,A
        MOV     A,#-0x80
??p2p_test_ProcessEvent_21:
        XRL     A,R7
??p2p_test_ProcessEvent_22:
        MOV     R3,A
        SJMP    ??p2p_test_ProcessEvent_23
// 1123   }
// 1124   
// 1125   if ( events & p2p_test_SEND_MAINTAIN_MSG_EVT)
??p2p_test_ProcessEvent_1:
        MOV     A,R6
        MOV     C,0xE0 /* A   */.0
        JNC     ??p2p_test_ProcessEvent_24
// 1126   {
// 1127     p2p_test_SendRelationPkt();
        ; Setup parameters for call to function p2p_test_SendRelationPkt
        LCALL   ??p2p_test_SendRelationPkt?relay
// 1128     //p2p_test_SendResetRelativeTime();
// 1129     // return unprocessed events
// 1130     return (events ^ p2p_test_SEND_MAINTAIN_MSG_EVT);    
        MOV     A,#0x1
??p2p_test_ProcessEvent_25:
        XRL     A,R6
        MOV     R2,A
        MOV     A,R7
        SJMP    ??p2p_test_ProcessEvent_22
// 1131   }
// 1132 
// 1133  /* if ( events & p2p_test_SEND_RAIN_FREQ_MSG_EVT)
// 1134   {
// 1135     p2p_test_SendRainTimeFreqAndRequire( FREQ );
// 1136     // return unprocessed events
// 1137     return (events ^ p2p_test_SEND_RAIN_FREQ_MSG_EVT);    
// 1138   }
// 1139   
// 1140   if ( events & p2p_test_SEND_SOIL_HUMIDITY_FREQ_MSG_EVT )
// 1141   {
// 1142     p2p_test_SendSoilHumidityTimeFreqAndRequire( FREQ );
// 1143     // return unprocessed events
// 1144     return (events ^ p2p_test_SEND_SOIL_HUMIDITY_FREQ_MSG_EVT);
// 1145   }  
// 1146   
// 1147 
// 1148   
// 1149   if ( events & p2p_test_SEND_VCC_VALUE_FREQ_MSG_EVT )
// 1150   {
// 1151     p2p_test_Send_VCC_VALUE( FREQ );
// 1152     // return unprocessed events
// 1153     return (events ^ p2p_test_SEND_VCC_VALUE_FREQ_MSG_EVT);
// 1154   }  
// 1155  */ 
// 1156   if( events & p2p_test_SEND_WATER_GAGE_MSG_EVT )
??p2p_test_ProcessEvent_24:
        ANL     A,#0x80
        JZ      ??p2p_test_ProcessEvent_26
// 1157   {
// 1158     p2p_test_Send_Water_Gage(FREQ,WaterGageUnit);
        ; Setup parameters for call to function p2p_test_Send_Water_Gage
        MOV     DPTR,#WaterGageUnit
        LCALL   ?Subroutine62 & 0xFFFF
??CrossCallReturnLabel_168:
        MOV     R1,#0x0
        LCALL   ??p2p_test_Send_Water_Gage?relay
// 1159     return (events ^ p2p_test_SEND_WATER_GAGE_MSG_EVT);
        MOV     A,#-0x80
        SJMP    ??p2p_test_ProcessEvent_25
// 1160   }
// 1161   
// 1162  /* if ( events &  p2p_test_SEND_ACCELEROMETER_FREQ_MSG_EVT )
// 1163   {
// 1164     p2p_test_SendAccelerometerTimeFreqAndRequire( FREQ );
// 1165     // return unprocessed events
// 1166     return (events ^ p2p_test_SEND_ACCELEROMETER_FREQ_MSG_EVT);
// 1167   } */
// 1168   
// 1169    //自己编写
// 1170   //适合SendWaterGageTimeFreq大于65s的情况
// 1171   if (events & p2p_test_START_WATER_GAGE_TIME_MSG_EVT)
??p2p_test_ProcessEvent_26:
        MOV     A,R6
        ANL     A,#0x10
        JZ      ??p2p_test_ProcessEvent_27
// 1172   {
// 1173     start_Water_gage_timer();
        ; Setup parameters for call to function start_Water_gage_timer
        LCALL   ??start_Water_gage_timer?relay
// 1174    return (events ^ p2p_test_START_WATER_GAGE_TIME_MSG_EVT);
        MOV     A,#0x10
        SJMP    ??p2p_test_ProcessEvent_25
// 1175   }
// 1176   
// 1177  /* if (events &  p2p_test_START_SOIL_HUMIDITY_TIME_MSG_EVT)
// 1178   {
// 1179     start_Soil_humidity_timer();
// 1180    return (events ^  p2p_test_START_SOIL_HUMIDITY_TIME_MSG_EVT);
// 1181   }
// 1182 */
// 1183   if (events &  p2p_test_CHECK_WATER_GAGE_CHARGE_MSG_EVT)
??p2p_test_ProcessEvent_27:
        MOV     A,#0x1
        ANL     A,R7
        MOV     R1,A
        CLR     A
        JNZ     ??p2p_test_ProcessEvent_28
        MOV     A,R1
??p2p_test_ProcessEvent_28:
        JZ      ??p2p_test_ProcessEvent_29
// 1184   {
// 1185     check_water_gage_charge();
        ; Setup parameters for call to function check_water_gage_charge
        LCALL   ??check_water_gage_charge?relay
// 1186    return (events ^  p2p_test_CHECK_WATER_GAGE_CHARGE_MSG_EVT);
        MOV     A,R6
        MOV     R2,A
        MOV     A,#0x1
        SJMP    ??p2p_test_ProcessEvent_21
// 1187   }  
// 1188   
// 1189  
// 1190    
// 1191   // Discard unknown events
// 1192   return 0;
??p2p_test_ProcessEvent_29:
        MOV     R2,#0x0
        MOV     R3,#0x0
??p2p_test_ProcessEvent_23:
        MOV     A,#0xb
        CFI EndBlock cfiBlock61
        REQUIRE ?Subroutine69
        REQUIRE _A_IEN0
        REQUIRE WDCTL
        ; // Fall through to label ?Subroutine69
// 1193 }

        RSEG BANKED_CODE:CODE:NOROOT(0)
?Subroutine69:
        CFI Block cfiBlock62 Using cfiCommon0
        CFI NoFunction
        CFI CFA_SP SP+0
        CFI CFA_XSP16 add(XSP16, 23)
        CFI VB load(1, XDATA, add(CFA_XSP16, literal(-11)))
        CFI DPL0 load(1, XDATA, add(CFA_XSP16, literal(-2)))
        CFI DPH0 load(1, XDATA, add(CFA_XSP16, literal(-1)))
        CFI R6 load(1, XDATA, add(CFA_XSP16, literal(-12)))
        CFI R7 load(1, XDATA, add(CFA_XSP16, literal(-6)))
        CFI V0 load(1, XDATA, add(CFA_XSP16, literal(-10)))
        CFI V1 load(1, XDATA, add(CFA_XSP16, literal(-9)))
        CFI V2 load(1, XDATA, add(CFA_XSP16, literal(-8)))
        CFI V3 load(1, XDATA, add(CFA_XSP16, literal(-7)))
        CFI ?BRET_EXT load(1, XDATA, add(CFA_XSP16, literal(-3)))
        CFI ?RET_HIGH load(1, XDATA, add(CFA_XSP16, literal(-4)))
        CFI ?RET_LOW load(1, XDATA, add(CFA_XSP16, literal(-5)))
        CFI Invalid
        LCALL   ?DEALLOC_XSTACK8
        CFI CFA_XSP16 add(XSP16, 12)
        CFI Valid
??Subroutine69_0:
        MOV     R7,#0x4
        LJMP    ?BANKED_LEAVE_XDATA
        CFI EndBlock cfiBlock62

        RSEG BANKED_CODE:CODE:NOROOT(0)
?Subroutine31:
        CFI Block cfiCond63 Using cfiCommon0
        CFI NoFunction
        CFI Conditional ??CrossCallReturnLabel_197
        CFI R6 load(1, XDATA, add(CFA_XSP16, literal(-12)))
        CFI VB load(1, XDATA, add(CFA_XSP16, literal(-11)))
        CFI V0 load(1, XDATA, add(CFA_XSP16, literal(-10)))
        CFI V1 load(1, XDATA, add(CFA_XSP16, literal(-9)))
        CFI V2 load(1, XDATA, add(CFA_XSP16, literal(-8)))
        CFI V3 load(1, XDATA, add(CFA_XSP16, literal(-7)))
        CFI R7 load(1, XDATA, add(CFA_XSP16, literal(-6)))
        CFI ?RET_LOW load(1, XDATA, add(CFA_XSP16, literal(-5)))
        CFI ?RET_HIGH load(1, XDATA, add(CFA_XSP16, literal(-4)))
        CFI ?BRET_EXT load(1, XDATA, add(CFA_XSP16, literal(-3)))
        CFI DPL0 load(1, XDATA, add(CFA_XSP16, literal(-2)))
        CFI DPH0 load(1, XDATA, add(CFA_XSP16, literal(-1)))
        CFI CFA_SP SP+0
        CFI CFA_XSP16 add(XSP16, 23)
        CFI Block cfiCond64 Using cfiCommon0
        CFI (cfiCond64) NoFunction
        CFI (cfiCond64) Conditional ??CrossCallReturnLabel_198
        CFI (cfiCond64) R6 load(1, XDATA, add(CFA_XSP16, literal(-12)))
        CFI (cfiCond64) VB load(1, XDATA, add(CFA_XSP16, literal(-11)))
        CFI (cfiCond64) V0 load(1, XDATA, add(CFA_XSP16, literal(-10)))
        CFI (cfiCond64) V1 load(1, XDATA, add(CFA_XSP16, literal(-9)))
        CFI (cfiCond64) V2 load(1, XDATA, add(CFA_XSP16, literal(-8)))
        CFI (cfiCond64) V3 load(1, XDATA, add(CFA_XSP16, literal(-7)))
        CFI (cfiCond64) R7 load(1, XDATA, add(CFA_XSP16, literal(-6)))
        CFI (cfiCond64) ?RET_LOW load(1, XDATA, add(CFA_XSP16, literal(-5)))
        CFI (cfiCond64) ?RET_HIGH load(1, XDATA, add(CFA_XSP16, literal(-4)))
        CFI (cfiCond64) ?BRET_EXT load(1, XDATA, add(CFA_XSP16, literal(-3)))
        CFI (cfiCond64) DPL0 load(1, XDATA, add(CFA_XSP16, literal(-2)))
        CFI (cfiCond64) DPH0 load(1, XDATA, add(CFA_XSP16, literal(-1)))
        CFI (cfiCond64) CFA_SP SP+0
        CFI (cfiCond64) CFA_XSP16 add(XSP16, 23)
        CFI Block cfiPicker65 Using cfiCommon1
        CFI (cfiPicker65) NoFunction
        CFI (cfiPicker65) Picker
        MOV     R4,#-0x18
        MOV     R5,#0x3
        MOV     R2,#0x1
        MOV     R3,#0x0
        MOV     DPTR,#p2p_test_TaskID
        MOVX    A,@DPTR
        MOV     R1,A
        LCALL   ??osal_start_timerEx?relay
        ; Setup parameters for call to function HalUARTWrite
        ; Setup parameters for call to function HalUARTWrite
        LJMP    ?Subroutine66 & 0xFFFF
        CFI EndBlock cfiCond63
        CFI EndBlock cfiCond64
        CFI EndBlock cfiPicker65

        RSEG BANKED_CODE:CODE:NOROOT(0)
?Subroutine1:
        CFI Block cfiCond66 Using cfiCommon0
        CFI NoFunction
        CFI Conditional ??CrossCallReturnLabel_163
        CFI DPL0 Frame(CFA_SP, 4)
        CFI DPH0 Frame(CFA_SP, 5)
        CFI CFA_SP SP+-5
        CFI CFA_XSP16 add(XSP16, 1)
        CFI Block cfiCond67 Using cfiCommon0
        CFI (cfiCond67) NoFunction
        CFI (cfiCond67) Conditional ??CrossCallReturnLabel_164
        CFI (cfiCond67) R6 load(1, XDATA, add(CFA_XSP16, literal(-12)))
        CFI (cfiCond67) VB load(1, XDATA, add(CFA_XSP16, literal(-11)))
        CFI (cfiCond67) V0 load(1, XDATA, add(CFA_XSP16, literal(-10)))
        CFI (cfiCond67) V1 load(1, XDATA, add(CFA_XSP16, literal(-9)))
        CFI (cfiCond67) V2 load(1, XDATA, add(CFA_XSP16, literal(-8)))
        CFI (cfiCond67) V3 load(1, XDATA, add(CFA_XSP16, literal(-7)))
        CFI (cfiCond67) R7 load(1, XDATA, add(CFA_XSP16, literal(-6)))
        CFI (cfiCond67) ?RET_LOW load(1, XDATA, add(CFA_XSP16, literal(-5)))
        CFI (cfiCond67) ?RET_HIGH load(1, XDATA, add(CFA_XSP16, literal(-4)))
        CFI (cfiCond67) ?BRET_EXT load(1, XDATA, add(CFA_XSP16, literal(-3)))
        CFI (cfiCond67) DPL0 load(1, XDATA, add(CFA_XSP16, literal(-2)))
        CFI (cfiCond67) DPH0 load(1, XDATA, add(CFA_XSP16, literal(-1)))
        CFI (cfiCond67) CFA_SP SP+0
        CFI (cfiCond67) CFA_XSP16 add(XSP16, 23)
        CFI Block cfiCond68 Using cfiCommon0
        CFI (cfiCond68) NoFunction
        CFI (cfiCond68) Conditional ??CrossCallReturnLabel_165
        CFI (cfiCond68) R6 load(1, XDATA, add(CFA_XSP16, literal(-12)))
        CFI (cfiCond68) VB load(1, XDATA, add(CFA_XSP16, literal(-11)))
        CFI (cfiCond68) V0 load(1, XDATA, add(CFA_XSP16, literal(-10)))
        CFI (cfiCond68) V1 load(1, XDATA, add(CFA_XSP16, literal(-9)))
        CFI (cfiCond68) V2 load(1, XDATA, add(CFA_XSP16, literal(-8)))
        CFI (cfiCond68) V3 load(1, XDATA, add(CFA_XSP16, literal(-7)))
        CFI (cfiCond68) R7 load(1, XDATA, add(CFA_XSP16, literal(-6)))
        CFI (cfiCond68) ?RET_LOW load(1, XDATA, add(CFA_XSP16, literal(-5)))
        CFI (cfiCond68) ?RET_HIGH load(1, XDATA, add(CFA_XSP16, literal(-4)))
        CFI (cfiCond68) ?BRET_EXT load(1, XDATA, add(CFA_XSP16, literal(-3)))
        CFI (cfiCond68) DPL0 load(1, XDATA, add(CFA_XSP16, literal(-2)))
        CFI (cfiCond68) DPH0 load(1, XDATA, add(CFA_XSP16, literal(-1)))
        CFI (cfiCond68) CFA_SP SP+0
        CFI (cfiCond68) CFA_XSP16 add(XSP16, 13)
        CFI Block cfiPicker69 Using cfiCommon1
        CFI (cfiPicker69) NoFunction
        CFI (cfiPicker69) Picker
        MOV     DPL,?XSP + 0
        MOV     DPH,?XSP + 1
        CFI Block cfiCond70 Using cfiCommon0
        CFI (cfiCond70) NoFunction
        CFI (cfiCond70) Conditional ??CrossCallReturnLabel_166
        CFI (cfiCond70) R6 load(1, XDATA, add(CFA_XSP16, literal(-16)))
        CFI (cfiCond70) VB load(1, XDATA, add(CFA_XSP16, literal(-15)))
        CFI (cfiCond70) V0 load(1, XDATA, add(CFA_XSP16, literal(-14)))
        CFI (cfiCond70) V1 load(1, XDATA, add(CFA_XSP16, literal(-13)))
        CFI (cfiCond70) V2 load(1, XDATA, add(CFA_XSP16, literal(-12)))
        CFI (cfiCond70) V3 load(1, XDATA, add(CFA_XSP16, literal(-11)))
        CFI (cfiCond70) V4 load(1, XDATA, add(CFA_XSP16, literal(-10)))
        CFI (cfiCond70) V5 load(1, XDATA, add(CFA_XSP16, literal(-9)))
        CFI (cfiCond70) V6 load(1, XDATA, add(CFA_XSP16, literal(-8)))
        CFI (cfiCond70) V7 load(1, XDATA, add(CFA_XSP16, literal(-7)))
        CFI (cfiCond70) R7 load(1, XDATA, add(CFA_XSP16, literal(-6)))
        CFI (cfiCond70) ?RET_LOW load(1, XDATA, add(CFA_XSP16, literal(-5)))
        CFI (cfiCond70) ?RET_HIGH load(1, XDATA, add(CFA_XSP16, literal(-4)))
        CFI (cfiCond70) ?BRET_EXT load(1, XDATA, add(CFA_XSP16, literal(-3)))
        CFI (cfiCond70) DPL0 load(1, XDATA, add(CFA_XSP16, literal(-2)))
        CFI (cfiCond70) DPH0 load(1, XDATA, add(CFA_XSP16, literal(-1)))
        CFI (cfiCond70) CFA_SP SP+0
        CFI (cfiCond70) CFA_XSP16 add(XSP16, 37)
??Subroutine1_0:
        MOVX    @DPTR,A
        ; Setup parameters for call to function HalUARTWrite
        ; Setup parameters for call to function HalUARTWrite
        ; Setup parameters for call to function HalUARTWrite
        ; Setup parameters for call to function HalUARTWrite
        MOV     R4,#0x1
        MOV     R5,#0x0
        CFI EndBlock cfiCond66
        CFI EndBlock cfiCond67
        CFI EndBlock cfiCond68
        CFI EndBlock cfiPicker69
        CFI EndBlock cfiCond70
        REQUIRE ?Subroutine61
        ; // Fall through to label ?Subroutine61

        RSEG BANKED_CODE:CODE:NOROOT(0)
?Subroutine61:
        CFI Block cfiCond71 Using cfiCommon0
        CFI NoFunction
        CFI Conditional ??CrossCallReturnLabel_163
        CFI DPL0 Frame(CFA_SP, 4)
        CFI DPH0 Frame(CFA_SP, 5)
        CFI CFA_SP SP+-5
        CFI CFA_XSP16 add(XSP16, 1)
        CFI Block cfiCond72 Using cfiCommon0
        CFI (cfiCond72) NoFunction
        CFI (cfiCond72) Conditional ??CrossCallReturnLabel_164
        CFI (cfiCond72) R6 load(1, XDATA, add(CFA_XSP16, literal(-12)))
        CFI (cfiCond72) VB load(1, XDATA, add(CFA_XSP16, literal(-11)))
        CFI (cfiCond72) V0 load(1, XDATA, add(CFA_XSP16, literal(-10)))
        CFI (cfiCond72) V1 load(1, XDATA, add(CFA_XSP16, literal(-9)))
        CFI (cfiCond72) V2 load(1, XDATA, add(CFA_XSP16, literal(-8)))
        CFI (cfiCond72) V3 load(1, XDATA, add(CFA_XSP16, literal(-7)))
        CFI (cfiCond72) R7 load(1, XDATA, add(CFA_XSP16, literal(-6)))
        CFI (cfiCond72) ?RET_LOW load(1, XDATA, add(CFA_XSP16, literal(-5)))
        CFI (cfiCond72) ?RET_HIGH load(1, XDATA, add(CFA_XSP16, literal(-4)))
        CFI (cfiCond72) ?BRET_EXT load(1, XDATA, add(CFA_XSP16, literal(-3)))
        CFI (cfiCond72) DPL0 load(1, XDATA, add(CFA_XSP16, literal(-2)))
        CFI (cfiCond72) DPH0 load(1, XDATA, add(CFA_XSP16, literal(-1)))
        CFI (cfiCond72) CFA_SP SP+0
        CFI (cfiCond72) CFA_XSP16 add(XSP16, 23)
        CFI Block cfiCond73 Using cfiCommon0
        CFI (cfiCond73) NoFunction
        CFI (cfiCond73) Conditional ??CrossCallReturnLabel_165
        CFI (cfiCond73) R6 load(1, XDATA, add(CFA_XSP16, literal(-12)))
        CFI (cfiCond73) VB load(1, XDATA, add(CFA_XSP16, literal(-11)))
        CFI (cfiCond73) V0 load(1, XDATA, add(CFA_XSP16, literal(-10)))
        CFI (cfiCond73) V1 load(1, XDATA, add(CFA_XSP16, literal(-9)))
        CFI (cfiCond73) V2 load(1, XDATA, add(CFA_XSP16, literal(-8)))
        CFI (cfiCond73) V3 load(1, XDATA, add(CFA_XSP16, literal(-7)))
        CFI (cfiCond73) R7 load(1, XDATA, add(CFA_XSP16, literal(-6)))
        CFI (cfiCond73) ?RET_LOW load(1, XDATA, add(CFA_XSP16, literal(-5)))
        CFI (cfiCond73) ?RET_HIGH load(1, XDATA, add(CFA_XSP16, literal(-4)))
        CFI (cfiCond73) ?BRET_EXT load(1, XDATA, add(CFA_XSP16, literal(-3)))
        CFI (cfiCond73) DPL0 load(1, XDATA, add(CFA_XSP16, literal(-2)))
        CFI (cfiCond73) DPH0 load(1, XDATA, add(CFA_XSP16, literal(-1)))
        CFI (cfiCond73) CFA_SP SP+0
        CFI (cfiCond73) CFA_XSP16 add(XSP16, 13)
        CFI Block cfiCond74 Using cfiCommon0
        CFI (cfiCond74) NoFunction
        CFI (cfiCond74) Conditional ??CrossCallReturnLabel_166
        CFI (cfiCond74) R6 load(1, XDATA, add(CFA_XSP16, literal(-16)))
        CFI (cfiCond74) VB load(1, XDATA, add(CFA_XSP16, literal(-15)))
        CFI (cfiCond74) V0 load(1, XDATA, add(CFA_XSP16, literal(-14)))
        CFI (cfiCond74) V1 load(1, XDATA, add(CFA_XSP16, literal(-13)))
        CFI (cfiCond74) V2 load(1, XDATA, add(CFA_XSP16, literal(-12)))
        CFI (cfiCond74) V3 load(1, XDATA, add(CFA_XSP16, literal(-11)))
        CFI (cfiCond74) V4 load(1, XDATA, add(CFA_XSP16, literal(-10)))
        CFI (cfiCond74) V5 load(1, XDATA, add(CFA_XSP16, literal(-9)))
        CFI (cfiCond74) V6 load(1, XDATA, add(CFA_XSP16, literal(-8)))
        CFI (cfiCond74) V7 load(1, XDATA, add(CFA_XSP16, literal(-7)))
        CFI (cfiCond74) R7 load(1, XDATA, add(CFA_XSP16, literal(-6)))
        CFI (cfiCond74) ?RET_LOW load(1, XDATA, add(CFA_XSP16, literal(-5)))
        CFI (cfiCond74) ?RET_HIGH load(1, XDATA, add(CFA_XSP16, literal(-4)))
        CFI (cfiCond74) ?BRET_EXT load(1, XDATA, add(CFA_XSP16, literal(-3)))
        CFI (cfiCond74) DPL0 load(1, XDATA, add(CFA_XSP16, literal(-2)))
        CFI (cfiCond74) DPH0 load(1, XDATA, add(CFA_XSP16, literal(-1)))
        CFI (cfiCond74) CFA_SP SP+0
        CFI (cfiCond74) CFA_XSP16 add(XSP16, 37)
        CFI Block cfiCond75 Using cfiCommon0
        CFI (cfiCond75) NoFunction
        CFI (cfiCond75) Conditional ??CrossCallReturnLabel_161
        CFI (cfiCond75) R6 load(1, XDATA, add(CFA_XSP16, literal(-10)))
        CFI (cfiCond75) VB load(1, XDATA, add(CFA_XSP16, literal(-9)))
        CFI (cfiCond75) V0 load(1, XDATA, add(CFA_XSP16, literal(-8)))
        CFI (cfiCond75) V1 load(1, XDATA, add(CFA_XSP16, literal(-7)))
        CFI (cfiCond75) R7 load(1, XDATA, add(CFA_XSP16, literal(-6)))
        CFI (cfiCond75) ?RET_LOW load(1, XDATA, add(CFA_XSP16, literal(-5)))
        CFI (cfiCond75) ?RET_HIGH load(1, XDATA, add(CFA_XSP16, literal(-4)))
        CFI (cfiCond75) ?BRET_EXT load(1, XDATA, add(CFA_XSP16, literal(-3)))
        CFI (cfiCond75) DPL0 load(1, XDATA, add(CFA_XSP16, literal(-2)))
        CFI (cfiCond75) DPH0 load(1, XDATA, add(CFA_XSP16, literal(-1)))
        CFI (cfiCond75) CFA_SP SP+0
        CFI (cfiCond75) CFA_XSP16 add(XSP16, 11)
        CFI Block cfiCond76 Using cfiCommon0
        CFI (cfiCond76) NoFunction
        CFI (cfiCond76) Conditional ??CrossCallReturnLabel_162
        CFI (cfiCond76) R6 load(1, XDATA, add(CFA_XSP16, literal(-11)))
        CFI (cfiCond76) VB load(1, XDATA, add(CFA_XSP16, literal(-10)))
        CFI (cfiCond76) V0 load(1, XDATA, add(CFA_XSP16, literal(-9)))
        CFI (cfiCond76) V1 load(1, XDATA, add(CFA_XSP16, literal(-8)))
        CFI (cfiCond76) V2 load(1, XDATA, add(CFA_XSP16, literal(-7)))
        CFI (cfiCond76) R7 load(1, XDATA, add(CFA_XSP16, literal(-6)))
        CFI (cfiCond76) ?RET_LOW load(1, XDATA, add(CFA_XSP16, literal(-5)))
        CFI (cfiCond76) ?RET_HIGH load(1, XDATA, add(CFA_XSP16, literal(-4)))
        CFI (cfiCond76) ?BRET_EXT load(1, XDATA, add(CFA_XSP16, literal(-3)))
        CFI (cfiCond76) DPL0 load(1, XDATA, add(CFA_XSP16, literal(-2)))
        CFI (cfiCond76) DPH0 load(1, XDATA, add(CFA_XSP16, literal(-1)))
        CFI (cfiCond76) CFA_SP SP+0
        CFI (cfiCond76) CFA_XSP16 add(XSP16, 17)
        CFI Block cfiPicker77 Using cfiCommon1
        CFI (cfiPicker77) NoFunction
        CFI (cfiPicker77) Picker
        MOV     R2,DPL
        MOV     R3,DPH
        MOV     R1,#0x0
        LCALL   ??HalUARTWrite?relay
        RET
        CFI EndBlock cfiCond71
        CFI EndBlock cfiCond72
        CFI EndBlock cfiCond73
        CFI EndBlock cfiCond74
        CFI EndBlock cfiCond75
        CFI EndBlock cfiCond76
        CFI EndBlock cfiPicker77
// 1194 
// 1195 /*********************************************************************
// 1196  * Event Generation Functions
// 1197  */
// 1198 /*********************************************************************
// 1199  * @fn      p2p_test_ProcessZDOMsgs()
// 1200  *
// 1201  * @brief   Process response messages
// 1202  *
// 1203  * @param   none
// 1204  *
// 1205  * @return  none
// 1206  */

        RSEG BANKED_CODE:CODE:NOROOT(0)
// 1207 void p2p_test_ProcessZDOMsgs( zdoIncomingMsg_t *inMsg )
p2p_test_ProcessZDOMsgs:
        CFI Block cfiBlock78 Using cfiCommon0
        CFI Function p2p_test_ProcessZDOMsgs
// 1208 { 
        FUNCALL p2p_test_ProcessZDOMsgs, HalLedSet
        LOCFRAME ISTACK, 0, STACK
        LOCFRAME PSTACK, 0, STACK
        LOCFRAME XSTACK, 10, STACK
        LOCFRAME IOVERLAY, 0, STATIC
        LOCFRAME DOVERLAY, 0, STATIC
        ARGFRAME ISTACK, 0, STACK
        ARGFRAME PSTACK, 0, STACK
        ARGFRAME XSTACK, 10, STACK
        ARGFRAME IOVERLAY, 0, STATIC
        ARGFRAME DOVERLAY, 0, STATIC
        FUNCALL p2p_test_ProcessZDOMsgs, HalLedSet
        LOCFRAME ISTACK, 0, STACK
        LOCFRAME PSTACK, 0, STACK
        LOCFRAME XSTACK, 10, STACK
        LOCFRAME IOVERLAY, 0, STATIC
        LOCFRAME DOVERLAY, 0, STATIC
        ARGFRAME ISTACK, 0, STACK
        ARGFRAME PSTACK, 0, STACK
        ARGFRAME XSTACK, 10, STACK
        ARGFRAME IOVERLAY, 0, STATIC
        ARGFRAME DOVERLAY, 0, STATIC
        FUNCALL p2p_test_ProcessZDOMsgs, ZDO_ParseEPListRsp
        LOCFRAME ISTACK, 0, STACK
        LOCFRAME PSTACK, 0, STACK
        LOCFRAME XSTACK, 10, STACK
        LOCFRAME IOVERLAY, 0, STATIC
        LOCFRAME DOVERLAY, 0, STATIC
        ARGFRAME ISTACK, 0, STACK
        ARGFRAME PSTACK, 0, STACK
        ARGFRAME XSTACK, 10, STACK
        ARGFRAME IOVERLAY, 0, STATIC
        ARGFRAME DOVERLAY, 0, STATIC
        FUNCALL p2p_test_ProcessZDOMsgs, HalLedSet
        LOCFRAME ISTACK, 0, STACK
        LOCFRAME PSTACK, 0, STACK
        LOCFRAME XSTACK, 10, STACK
        LOCFRAME IOVERLAY, 0, STATIC
        LOCFRAME DOVERLAY, 0, STATIC
        ARGFRAME ISTACK, 0, STACK
        ARGFRAME PSTACK, 0, STACK
        ARGFRAME XSTACK, 10, STACK
        ARGFRAME IOVERLAY, 0, STATIC
        ARGFRAME DOVERLAY, 0, STATIC
        FUNCALL p2p_test_ProcessZDOMsgs, osal_mem_free
        LOCFRAME ISTACK, 0, STACK
        LOCFRAME PSTACK, 0, STACK
        LOCFRAME XSTACK, 10, STACK
        LOCFRAME IOVERLAY, 0, STATIC
        LOCFRAME DOVERLAY, 0, STATIC
        ARGFRAME ISTACK, 0, STACK
        ARGFRAME PSTACK, 0, STACK
        ARGFRAME XSTACK, 10, STACK
        ARGFRAME IOVERLAY, 0, STATIC
        ARGFRAME DOVERLAY, 0, STATIC
        MOV     A,#-0xa
        LCALL   ?BANKED_ENTER_XDATA
        CFI DPH0 load(1, XDATA, add(CFA_XSP16, literal(-1)))
        CFI DPL0 load(1, XDATA, add(CFA_XSP16, literal(-2)))
        CFI ?BRET_EXT load(1, XDATA, add(CFA_XSP16, literal(-3)))
        CFI ?RET_HIGH load(1, XDATA, add(CFA_XSP16, literal(-4)))
        CFI ?RET_LOW load(1, XDATA, add(CFA_XSP16, literal(-5)))
        CFI R7 load(1, XDATA, add(CFA_XSP16, literal(-6)))
        CFI V1 load(1, XDATA, add(CFA_XSP16, literal(-7)))
        CFI V0 load(1, XDATA, add(CFA_XSP16, literal(-8)))
        CFI VB load(1, XDATA, add(CFA_XSP16, literal(-9)))
        CFI R6 load(1, XDATA, add(CFA_XSP16, literal(-10)))
        CFI CFA_SP SP+0
        CFI CFA_XSP16 add(XSP16, 10)
        ; Saved register size: 10
        ; Auto size: 0
// 1209   switch ( inMsg->clusterID )
        MOV     A,R2
        ADD     A,#0xc
        MOV     DPL,A
        MOV     A,R3
        ADDC    A,#0x0
        MOV     DPH,A
        LCALL   ?Subroutine25 & 0xFFFF
??CrossCallReturnLabel_68:
        MOV     R0,#?V0 + 0
        LCALL   ?US_SWITCH_SPARSE
`?<Jumptable for p2p_test_ProcessZDOMsgs>_0`:
        DATA
        DW        0
        DW        2
        DW        32774
        DW        ??p2p_test_ProcessZDOMsgs_0
        DW        32800
        DW        ??p2p_test_ProcessZDOMsgs_1
        DW        ??p2p_test_ProcessZDOMsgs_2
        CODE
// 1210   {
// 1211     case End_Device_Bind_rsp:
// 1212       if ( ZDO_ParseBindRsp( inMsg ) == ZSuccess )
??p2p_test_ProcessZDOMsgs_1:
        MOV     A,R2
        ADD     A,#0x11
        MOV     DPL,A
        MOV     A,R3
        LCALL   ??Subroutine41_0 & 0xFFFF
??CrossCallReturnLabel_107:
        MOV     R0,A
        INC     DPTR
        MOVX    A,@DPTR
        MOV     DPH,A
        MOV     DPL,R0
        MOVX    A,@DPTR
        JNZ     ??p2p_test_ProcessZDOMsgs_3
// 1213       {
// 1214         // Light LED
// 1215         HalLedSet( HAL_LED_4, HAL_LED_MODE_ON );
        ; Setup parameters for call to function HalLedSet
        MOV     R2,#0x1
??p2p_test_ProcessZDOMsgs_4:
        MOV     R1,#0x8
        LCALL   ??HalLedSet?relay
        SJMP    ??p2p_test_ProcessZDOMsgs_2
// 1216       }
// 1217 #if defined(BLINK_LEDS)
// 1218       else
// 1219       {
// 1220         // Flash LED to show failure
// 1221         HalLedSet ( HAL_LED_4, HAL_LED_MODE_FLASH );
??p2p_test_ProcessZDOMsgs_3:
        ; Setup parameters for call to function HalLedSet
        MOV     R2,#0x4
        SJMP    ??p2p_test_ProcessZDOMsgs_4
// 1222       }
// 1223 #endif
// 1224       break;
// 1225 
// 1226     case Match_Desc_rsp:
// 1227       {
// 1228         ZDO_ActiveEndpointRsp_t *pRsp = ZDO_ParseEPListRsp( inMsg );
??p2p_test_ProcessZDOMsgs_0:
        ; Setup parameters for call to function ZDO_ParseEPListRsp
        LCALL   ??ZDO_ParseEPListRsp?relay
        MOV     ?V0 + 0,R2
        MOV     ?V0 + 1,R3
        MOV     R6,?V0 + 0
        MOV     R7,?V0 + 1
// 1229         if ( pRsp )
        MOV     A,R6
        JNZ     ??p2p_test_ProcessZDOMsgs_5
        MOV     A,R7
??p2p_test_ProcessZDOMsgs_5:
        JZ      ??p2p_test_ProcessZDOMsgs_2
// 1230         {
// 1231           if ( pRsp->status == ZSuccess && pRsp->cnt )
        MOV     DPL,R6
        MOV     DPH,R7
        MOVX    A,@DPTR
        JNZ     ??p2p_test_ProcessZDOMsgs_6
        INC     DPTR
        INC     DPTR
        INC     DPTR
        MOVX    A,@DPTR
        JZ      ??p2p_test_ProcessZDOMsgs_6
// 1232           {
// 1233             p2p_test_DstAddr.addrMode = (afAddrMode_t)Addr16Bit;
        MOV     A,#0x2
        MOV     DPTR,#(p2p_test_DstAddr + 2)
        MOVX    @DPTR,A
// 1234             p2p_test_DstAddr.addr.shortAddr = pRsp->nwkAddr;
        MOV     DPL,R6
        MOV     DPH,R7
        INC     DPTR
        LCALL   ??Subroutine27_0 & 0xFFFF
??CrossCallReturnLabel_72:
        MOV     DPTR,#p2p_test_DstAddr
        LCALL   ??Subroutine7_0 & 0xFFFF
// 1235             // Take the first endpoint, Can be changed to search through endpoints
// 1236             p2p_test_DstAddr.endPoint = pRsp->epList[0];
??CrossCallReturnLabel_19:
        MOV     DPL,R6
        MOV     DPH,R7
        INC     DPTR
        INC     DPTR
        INC     DPTR
        INC     DPTR
        MOVX    A,@DPTR
        MOV     DPTR,#(p2p_test_DstAddr + 3)
        MOVX    @DPTR,A
// 1237 
// 1238             // Light LED
// 1239             HalLedSet( HAL_LED_4, HAL_LED_MODE_ON );
        ; Setup parameters for call to function HalLedSet
        MOV     R2,#0x1
        MOV     R1,#0x8
        LCALL   ??HalLedSet?relay
// 1240           }
// 1241           osal_mem_free( pRsp );
??p2p_test_ProcessZDOMsgs_6:
        ; Setup parameters for call to function osal_mem_free
        MOV     A,R6
        MOV     R2,A
        MOV     A,R7
        MOV     R3,A
        LCALL   ??osal_mem_free?relay
// 1242         }
// 1243       }
// 1244       break;
// 1245   }
// 1246 }
??p2p_test_ProcessZDOMsgs_2:
        SJMP    ??Subroutine60_0
        CFI EndBlock cfiBlock78

        RSEG BANKED_CODE:CODE:NOROOT(0)
?Subroutine60:
        CFI Block cfiBlock79 Using cfiCommon0
        CFI NoFunction
        CFI CFA_SP SP+0
        CFI CFA_XSP16 add(XSP16, 11)
        CFI VB load(1, XDATA, add(CFA_XSP16, literal(-9)))
        CFI DPL0 load(1, XDATA, add(CFA_XSP16, literal(-2)))
        CFI DPH0 load(1, XDATA, add(CFA_XSP16, literal(-1)))
        CFI R6 load(1, XDATA, add(CFA_XSP16, literal(-10)))
        CFI R7 load(1, XDATA, add(CFA_XSP16, literal(-6)))
        CFI V0 load(1, XDATA, add(CFA_XSP16, literal(-8)))
        CFI V1 load(1, XDATA, add(CFA_XSP16, literal(-7)))
        CFI ?BRET_EXT load(1, XDATA, add(CFA_XSP16, literal(-3)))
        CFI ?RET_HIGH load(1, XDATA, add(CFA_XSP16, literal(-4)))
        CFI ?RET_LOW load(1, XDATA, add(CFA_XSP16, literal(-5)))
        CFI Invalid
        LCALL   ?DEALLOC_XSTACK8
        CFI CFA_XSP16 add(XSP16, 10)
        CFI Valid
??Subroutine60_0:
        MOV     R7,#0x2
        LJMP    ?BANKED_LEAVE_XDATA
        CFI EndBlock cfiBlock79

        RSEG BANKED_CODE:CODE:NOROOT(0)
?Subroutine25:
        CFI Block cfiCond80 Using cfiCommon0
        CFI NoFunction
        CFI Conditional ??CrossCallReturnLabel_67
        CFI R6 load(1, XDATA, add(CFA_XSP16, literal(-16)))
        CFI VB load(1, XDATA, add(CFA_XSP16, literal(-15)))
        CFI V0 load(1, XDATA, add(CFA_XSP16, literal(-14)))
        CFI V1 load(1, XDATA, add(CFA_XSP16, literal(-13)))
        CFI V2 load(1, XDATA, add(CFA_XSP16, literal(-12)))
        CFI V3 load(1, XDATA, add(CFA_XSP16, literal(-11)))
        CFI V4 load(1, XDATA, add(CFA_XSP16, literal(-10)))
        CFI V5 load(1, XDATA, add(CFA_XSP16, literal(-9)))
        CFI V6 load(1, XDATA, add(CFA_XSP16, literal(-8)))
        CFI V7 load(1, XDATA, add(CFA_XSP16, literal(-7)))
        CFI R7 load(1, XDATA, add(CFA_XSP16, literal(-6)))
        CFI ?RET_LOW load(1, XDATA, add(CFA_XSP16, literal(-5)))
        CFI ?RET_HIGH load(1, XDATA, add(CFA_XSP16, literal(-4)))
        CFI ?BRET_EXT load(1, XDATA, add(CFA_XSP16, literal(-3)))
        CFI DPL0 load(1, XDATA, add(CFA_XSP16, literal(-2)))
        CFI DPH0 load(1, XDATA, add(CFA_XSP16, literal(-1)))
        CFI CFA_SP SP+-4
        CFI CFA_XSP16 add(XSP16, 52)
        CFI Block cfiCond81 Using cfiCommon0
        CFI (cfiCond81) NoFunction
        CFI (cfiCond81) Conditional ??CrossCallReturnLabel_68
        CFI (cfiCond81) R6 load(1, XDATA, add(CFA_XSP16, literal(-10)))
        CFI (cfiCond81) VB load(1, XDATA, add(CFA_XSP16, literal(-9)))
        CFI (cfiCond81) V0 load(1, XDATA, add(CFA_XSP16, literal(-8)))
        CFI (cfiCond81) V1 load(1, XDATA, add(CFA_XSP16, literal(-7)))
        CFI (cfiCond81) R7 load(1, XDATA, add(CFA_XSP16, literal(-6)))
        CFI (cfiCond81) ?RET_LOW load(1, XDATA, add(CFA_XSP16, literal(-5)))
        CFI (cfiCond81) ?RET_HIGH load(1, XDATA, add(CFA_XSP16, literal(-4)))
        CFI (cfiCond81) ?BRET_EXT load(1, XDATA, add(CFA_XSP16, literal(-3)))
        CFI (cfiCond81) DPL0 load(1, XDATA, add(CFA_XSP16, literal(-2)))
        CFI (cfiCond81) DPH0 load(1, XDATA, add(CFA_XSP16, literal(-1)))
        CFI (cfiCond81) CFA_SP SP+0
        CFI (cfiCond81) CFA_XSP16 add(XSP16, 10)
        CFI Block cfiCond82 Using cfiCommon0
        CFI (cfiCond82) NoFunction
        CFI (cfiCond82) Conditional ??CrossCallReturnLabel_69
        CFI (cfiCond82) R6 load(1, XDATA, add(CFA_XSP16, literal(-14)))
        CFI (cfiCond82) VB load(1, XDATA, add(CFA_XSP16, literal(-13)))
        CFI (cfiCond82) V0 load(1, XDATA, add(CFA_XSP16, literal(-12)))
        CFI (cfiCond82) V1 load(1, XDATA, add(CFA_XSP16, literal(-11)))
        CFI (cfiCond82) V2 load(1, XDATA, add(CFA_XSP16, literal(-10)))
        CFI (cfiCond82) V3 load(1, XDATA, add(CFA_XSP16, literal(-9)))
        CFI (cfiCond82) V4 load(1, XDATA, add(CFA_XSP16, literal(-8)))
        CFI (cfiCond82) V5 load(1, XDATA, add(CFA_XSP16, literal(-7)))
        CFI (cfiCond82) R7 load(1, XDATA, add(CFA_XSP16, literal(-6)))
        CFI (cfiCond82) ?RET_LOW load(1, XDATA, add(CFA_XSP16, literal(-5)))
        CFI (cfiCond82) ?RET_HIGH load(1, XDATA, add(CFA_XSP16, literal(-4)))
        CFI (cfiCond82) ?BRET_EXT load(1, XDATA, add(CFA_XSP16, literal(-3)))
        CFI (cfiCond82) DPL0 load(1, XDATA, add(CFA_XSP16, literal(-2)))
        CFI (cfiCond82) DPH0 load(1, XDATA, add(CFA_XSP16, literal(-1)))
        CFI (cfiCond82) CFA_SP SP+0
        CFI (cfiCond82) CFA_XSP16 add(XSP16, 14)
        CFI Block cfiPicker83 Using cfiCommon1
        CFI (cfiPicker83) NoFunction
        CFI (cfiPicker83) Picker
        LCALL   ?Subroutine51 & 0xFFFF
??CrossCallReturnLabel_138:
        RET
        CFI EndBlock cfiCond80
        CFI EndBlock cfiCond81
        CFI EndBlock cfiCond82
        CFI EndBlock cfiPicker83

        RSEG BANKED_CODE:CODE:NOROOT(0)
?Subroutine51:
        CFI Block cfiCond84 Using cfiCommon0
        CFI NoFunction
        CFI Conditional ??CrossCallReturnLabel_136, ??CrossCallReturnLabel_36
        CFI R6 load(1, XDATA, add(CFA_XSP16, literal(-16)))
        CFI VB load(1, XDATA, add(CFA_XSP16, literal(-15)))
        CFI V0 load(1, XDATA, add(CFA_XSP16, literal(-14)))
        CFI V1 load(1, XDATA, add(CFA_XSP16, literal(-13)))
        CFI V2 load(1, XDATA, add(CFA_XSP16, literal(-12)))
        CFI V3 load(1, XDATA, add(CFA_XSP16, literal(-11)))
        CFI V4 load(1, XDATA, add(CFA_XSP16, literal(-10)))
        CFI V5 load(1, XDATA, add(CFA_XSP16, literal(-9)))
        CFI V6 load(1, XDATA, add(CFA_XSP16, literal(-8)))
        CFI V7 load(1, XDATA, add(CFA_XSP16, literal(-7)))
        CFI R7 load(1, XDATA, add(CFA_XSP16, literal(-6)))
        CFI ?RET_LOW load(1, XDATA, add(CFA_XSP16, literal(-5)))
        CFI ?RET_HIGH load(1, XDATA, add(CFA_XSP16, literal(-4)))
        CFI ?BRET_EXT load(1, XDATA, add(CFA_XSP16, literal(-3)))
        CFI DPL0 load(1, XDATA, add(CFA_XSP16, literal(-2)))
        CFI DPH0 load(1, XDATA, add(CFA_XSP16, literal(-1)))
        CFI CFA_SP SP+0
        CFI CFA_XSP16 add(XSP16, 52)
        CFI Block cfiCond85 Using cfiCommon0
        CFI (cfiCond85) NoFunction
        CFI (cfiCond85) Conditional ??CrossCallReturnLabel_136, ??CrossCallReturnLabel_37
        CFI (cfiCond85) R6 load(1, XDATA, add(CFA_XSP16, literal(-16)))
        CFI (cfiCond85) VB load(1, XDATA, add(CFA_XSP16, literal(-15)))
        CFI (cfiCond85) V0 load(1, XDATA, add(CFA_XSP16, literal(-14)))
        CFI (cfiCond85) V1 load(1, XDATA, add(CFA_XSP16, literal(-13)))
        CFI (cfiCond85) V2 load(1, XDATA, add(CFA_XSP16, literal(-12)))
        CFI (cfiCond85) V3 load(1, XDATA, add(CFA_XSP16, literal(-11)))
        CFI (cfiCond85) V4 load(1, XDATA, add(CFA_XSP16, literal(-10)))
        CFI (cfiCond85) V5 load(1, XDATA, add(CFA_XSP16, literal(-9)))
        CFI (cfiCond85) V6 load(1, XDATA, add(CFA_XSP16, literal(-8)))
        CFI (cfiCond85) V7 load(1, XDATA, add(CFA_XSP16, literal(-7)))
        CFI (cfiCond85) R7 load(1, XDATA, add(CFA_XSP16, literal(-6)))
        CFI (cfiCond85) ?RET_LOW load(1, XDATA, add(CFA_XSP16, literal(-5)))
        CFI (cfiCond85) ?RET_HIGH load(1, XDATA, add(CFA_XSP16, literal(-4)))
        CFI (cfiCond85) ?BRET_EXT load(1, XDATA, add(CFA_XSP16, literal(-3)))
        CFI (cfiCond85) DPL0 load(1, XDATA, add(CFA_XSP16, literal(-2)))
        CFI (cfiCond85) DPH0 load(1, XDATA, add(CFA_XSP16, literal(-1)))
        CFI (cfiCond85) CFA_SP SP+0
        CFI (cfiCond85) CFA_XSP16 add(XSP16, 52)
        CFI Block cfiCond86 Using cfiCommon0
        CFI (cfiCond86) NoFunction
        CFI (cfiCond86) Conditional ??CrossCallReturnLabel_136, ??CrossCallReturnLabel_38
        CFI (cfiCond86) R6 load(1, XDATA, add(CFA_XSP16, literal(-16)))
        CFI (cfiCond86) VB load(1, XDATA, add(CFA_XSP16, literal(-15)))
        CFI (cfiCond86) V0 load(1, XDATA, add(CFA_XSP16, literal(-14)))
        CFI (cfiCond86) V1 load(1, XDATA, add(CFA_XSP16, literal(-13)))
        CFI (cfiCond86) V2 load(1, XDATA, add(CFA_XSP16, literal(-12)))
        CFI (cfiCond86) V3 load(1, XDATA, add(CFA_XSP16, literal(-11)))
        CFI (cfiCond86) V4 load(1, XDATA, add(CFA_XSP16, literal(-10)))
        CFI (cfiCond86) V5 load(1, XDATA, add(CFA_XSP16, literal(-9)))
        CFI (cfiCond86) V6 load(1, XDATA, add(CFA_XSP16, literal(-8)))
        CFI (cfiCond86) V7 load(1, XDATA, add(CFA_XSP16, literal(-7)))
        CFI (cfiCond86) R7 load(1, XDATA, add(CFA_XSP16, literal(-6)))
        CFI (cfiCond86) ?RET_LOW load(1, XDATA, add(CFA_XSP16, literal(-5)))
        CFI (cfiCond86) ?RET_HIGH load(1, XDATA, add(CFA_XSP16, literal(-4)))
        CFI (cfiCond86) ?BRET_EXT load(1, XDATA, add(CFA_XSP16, literal(-3)))
        CFI (cfiCond86) DPL0 load(1, XDATA, add(CFA_XSP16, literal(-2)))
        CFI (cfiCond86) DPH0 load(1, XDATA, add(CFA_XSP16, literal(-1)))
        CFI (cfiCond86) CFA_SP SP+0
        CFI (cfiCond86) CFA_XSP16 add(XSP16, 52)
        CFI Block cfiCond87 Using cfiCommon0
        CFI (cfiCond87) NoFunction
        CFI (cfiCond87) Conditional ??CrossCallReturnLabel_136, ??CrossCallReturnLabel_39
        CFI (cfiCond87) R6 load(1, XDATA, add(CFA_XSP16, literal(-16)))
        CFI (cfiCond87) VB load(1, XDATA, add(CFA_XSP16, literal(-15)))
        CFI (cfiCond87) V0 load(1, XDATA, add(CFA_XSP16, literal(-14)))
        CFI (cfiCond87) V1 load(1, XDATA, add(CFA_XSP16, literal(-13)))
        CFI (cfiCond87) V2 load(1, XDATA, add(CFA_XSP16, literal(-12)))
        CFI (cfiCond87) V3 load(1, XDATA, add(CFA_XSP16, literal(-11)))
        CFI (cfiCond87) V4 load(1, XDATA, add(CFA_XSP16, literal(-10)))
        CFI (cfiCond87) V5 load(1, XDATA, add(CFA_XSP16, literal(-9)))
        CFI (cfiCond87) V6 load(1, XDATA, add(CFA_XSP16, literal(-8)))
        CFI (cfiCond87) V7 load(1, XDATA, add(CFA_XSP16, literal(-7)))
        CFI (cfiCond87) R7 load(1, XDATA, add(CFA_XSP16, literal(-6)))
        CFI (cfiCond87) ?RET_LOW load(1, XDATA, add(CFA_XSP16, literal(-5)))
        CFI (cfiCond87) ?RET_HIGH load(1, XDATA, add(CFA_XSP16, literal(-4)))
        CFI (cfiCond87) ?BRET_EXT load(1, XDATA, add(CFA_XSP16, literal(-3)))
        CFI (cfiCond87) DPL0 load(1, XDATA, add(CFA_XSP16, literal(-2)))
        CFI (cfiCond87) DPH0 load(1, XDATA, add(CFA_XSP16, literal(-1)))
        CFI (cfiCond87) CFA_SP SP+0
        CFI (cfiCond87) CFA_XSP16 add(XSP16, 52)
        CFI Block cfiCond88 Using cfiCommon0
        CFI (cfiCond88) NoFunction
        CFI (cfiCond88) Conditional ??CrossCallReturnLabel_136, ??CrossCallReturnLabel_40
        CFI (cfiCond88) R6 load(1, XDATA, add(CFA_XSP16, literal(-16)))
        CFI (cfiCond88) VB load(1, XDATA, add(CFA_XSP16, literal(-15)))
        CFI (cfiCond88) V0 load(1, XDATA, add(CFA_XSP16, literal(-14)))
        CFI (cfiCond88) V1 load(1, XDATA, add(CFA_XSP16, literal(-13)))
        CFI (cfiCond88) V2 load(1, XDATA, add(CFA_XSP16, literal(-12)))
        CFI (cfiCond88) V3 load(1, XDATA, add(CFA_XSP16, literal(-11)))
        CFI (cfiCond88) V4 load(1, XDATA, add(CFA_XSP16, literal(-10)))
        CFI (cfiCond88) V5 load(1, XDATA, add(CFA_XSP16, literal(-9)))
        CFI (cfiCond88) V6 load(1, XDATA, add(CFA_XSP16, literal(-8)))
        CFI (cfiCond88) V7 load(1, XDATA, add(CFA_XSP16, literal(-7)))
        CFI (cfiCond88) R7 load(1, XDATA, add(CFA_XSP16, literal(-6)))
        CFI (cfiCond88) ?RET_LOW load(1, XDATA, add(CFA_XSP16, literal(-5)))
        CFI (cfiCond88) ?RET_HIGH load(1, XDATA, add(CFA_XSP16, literal(-4)))
        CFI (cfiCond88) ?BRET_EXT load(1, XDATA, add(CFA_XSP16, literal(-3)))
        CFI (cfiCond88) DPL0 load(1, XDATA, add(CFA_XSP16, literal(-2)))
        CFI (cfiCond88) DPH0 load(1, XDATA, add(CFA_XSP16, literal(-1)))
        CFI (cfiCond88) CFA_SP SP+0
        CFI (cfiCond88) CFA_XSP16 add(XSP16, 52)
        CFI Block cfiCond89 Using cfiCommon0
        CFI (cfiCond89) NoFunction
        CFI (cfiCond89) Conditional ??CrossCallReturnLabel_136, ??CrossCallReturnLabel_41
        CFI (cfiCond89) R6 load(1, XDATA, add(CFA_XSP16, literal(-16)))
        CFI (cfiCond89) VB load(1, XDATA, add(CFA_XSP16, literal(-15)))
        CFI (cfiCond89) V0 load(1, XDATA, add(CFA_XSP16, literal(-14)))
        CFI (cfiCond89) V1 load(1, XDATA, add(CFA_XSP16, literal(-13)))
        CFI (cfiCond89) V2 load(1, XDATA, add(CFA_XSP16, literal(-12)))
        CFI (cfiCond89) V3 load(1, XDATA, add(CFA_XSP16, literal(-11)))
        CFI (cfiCond89) V4 load(1, XDATA, add(CFA_XSP16, literal(-10)))
        CFI (cfiCond89) V5 load(1, XDATA, add(CFA_XSP16, literal(-9)))
        CFI (cfiCond89) V6 load(1, XDATA, add(CFA_XSP16, literal(-8)))
        CFI (cfiCond89) V7 load(1, XDATA, add(CFA_XSP16, literal(-7)))
        CFI (cfiCond89) R7 load(1, XDATA, add(CFA_XSP16, literal(-6)))
        CFI (cfiCond89) ?RET_LOW load(1, XDATA, add(CFA_XSP16, literal(-5)))
        CFI (cfiCond89) ?RET_HIGH load(1, XDATA, add(CFA_XSP16, literal(-4)))
        CFI (cfiCond89) ?BRET_EXT load(1, XDATA, add(CFA_XSP16, literal(-3)))
        CFI (cfiCond89) DPL0 load(1, XDATA, add(CFA_XSP16, literal(-2)))
        CFI (cfiCond89) DPH0 load(1, XDATA, add(CFA_XSP16, literal(-1)))
        CFI (cfiCond89) CFA_SP SP+0
        CFI (cfiCond89) CFA_XSP16 add(XSP16, 52)
        CFI Block cfiCond90 Using cfiCommon0
        CFI (cfiCond90) NoFunction
        CFI (cfiCond90) Conditional ??CrossCallReturnLabel_136, ??CrossCallReturnLabel_42
        CFI (cfiCond90) R6 load(1, XDATA, add(CFA_XSP16, literal(-16)))
        CFI (cfiCond90) VB load(1, XDATA, add(CFA_XSP16, literal(-15)))
        CFI (cfiCond90) V0 load(1, XDATA, add(CFA_XSP16, literal(-14)))
        CFI (cfiCond90) V1 load(1, XDATA, add(CFA_XSP16, literal(-13)))
        CFI (cfiCond90) V2 load(1, XDATA, add(CFA_XSP16, literal(-12)))
        CFI (cfiCond90) V3 load(1, XDATA, add(CFA_XSP16, literal(-11)))
        CFI (cfiCond90) V4 load(1, XDATA, add(CFA_XSP16, literal(-10)))
        CFI (cfiCond90) V5 load(1, XDATA, add(CFA_XSP16, literal(-9)))
        CFI (cfiCond90) V6 load(1, XDATA, add(CFA_XSP16, literal(-8)))
        CFI (cfiCond90) V7 load(1, XDATA, add(CFA_XSP16, literal(-7)))
        CFI (cfiCond90) R7 load(1, XDATA, add(CFA_XSP16, literal(-6)))
        CFI (cfiCond90) ?RET_LOW load(1, XDATA, add(CFA_XSP16, literal(-5)))
        CFI (cfiCond90) ?RET_HIGH load(1, XDATA, add(CFA_XSP16, literal(-4)))
        CFI (cfiCond90) ?BRET_EXT load(1, XDATA, add(CFA_XSP16, literal(-3)))
        CFI (cfiCond90) DPL0 load(1, XDATA, add(CFA_XSP16, literal(-2)))
        CFI (cfiCond90) DPH0 load(1, XDATA, add(CFA_XSP16, literal(-1)))
        CFI (cfiCond90) CFA_SP SP+0
        CFI (cfiCond90) CFA_XSP16 add(XSP16, 52)
        CFI Block cfiCond91 Using cfiCommon0
        CFI (cfiCond91) NoFunction
        CFI (cfiCond91) Conditional ??CrossCallReturnLabel_136, ??CrossCallReturnLabel_43
        CFI (cfiCond91) R6 load(1, XDATA, add(CFA_XSP16, literal(-16)))
        CFI (cfiCond91) VB load(1, XDATA, add(CFA_XSP16, literal(-15)))
        CFI (cfiCond91) V0 load(1, XDATA, add(CFA_XSP16, literal(-14)))
        CFI (cfiCond91) V1 load(1, XDATA, add(CFA_XSP16, literal(-13)))
        CFI (cfiCond91) V2 load(1, XDATA, add(CFA_XSP16, literal(-12)))
        CFI (cfiCond91) V3 load(1, XDATA, add(CFA_XSP16, literal(-11)))
        CFI (cfiCond91) V4 load(1, XDATA, add(CFA_XSP16, literal(-10)))
        CFI (cfiCond91) V5 load(1, XDATA, add(CFA_XSP16, literal(-9)))
        CFI (cfiCond91) V6 load(1, XDATA, add(CFA_XSP16, literal(-8)))
        CFI (cfiCond91) V7 load(1, XDATA, add(CFA_XSP16, literal(-7)))
        CFI (cfiCond91) R7 load(1, XDATA, add(CFA_XSP16, literal(-6)))
        CFI (cfiCond91) ?RET_LOW load(1, XDATA, add(CFA_XSP16, literal(-5)))
        CFI (cfiCond91) ?RET_HIGH load(1, XDATA, add(CFA_XSP16, literal(-4)))
        CFI (cfiCond91) ?BRET_EXT load(1, XDATA, add(CFA_XSP16, literal(-3)))
        CFI (cfiCond91) DPL0 load(1, XDATA, add(CFA_XSP16, literal(-2)))
        CFI (cfiCond91) DPH0 load(1, XDATA, add(CFA_XSP16, literal(-1)))
        CFI (cfiCond91) CFA_SP SP+0
        CFI (cfiCond91) CFA_XSP16 add(XSP16, 52)
        CFI Block cfiCond92 Using cfiCommon0
        CFI (cfiCond92) NoFunction
        CFI (cfiCond92) Conditional ??CrossCallReturnLabel_136, ??CrossCallReturnLabel_44
        CFI (cfiCond92) R6 load(1, XDATA, add(CFA_XSP16, literal(-16)))
        CFI (cfiCond92) VB load(1, XDATA, add(CFA_XSP16, literal(-15)))
        CFI (cfiCond92) V0 load(1, XDATA, add(CFA_XSP16, literal(-14)))
        CFI (cfiCond92) V1 load(1, XDATA, add(CFA_XSP16, literal(-13)))
        CFI (cfiCond92) V2 load(1, XDATA, add(CFA_XSP16, literal(-12)))
        CFI (cfiCond92) V3 load(1, XDATA, add(CFA_XSP16, literal(-11)))
        CFI (cfiCond92) V4 load(1, XDATA, add(CFA_XSP16, literal(-10)))
        CFI (cfiCond92) V5 load(1, XDATA, add(CFA_XSP16, literal(-9)))
        CFI (cfiCond92) V6 load(1, XDATA, add(CFA_XSP16, literal(-8)))
        CFI (cfiCond92) V7 load(1, XDATA, add(CFA_XSP16, literal(-7)))
        CFI (cfiCond92) R7 load(1, XDATA, add(CFA_XSP16, literal(-6)))
        CFI (cfiCond92) ?RET_LOW load(1, XDATA, add(CFA_XSP16, literal(-5)))
        CFI (cfiCond92) ?RET_HIGH load(1, XDATA, add(CFA_XSP16, literal(-4)))
        CFI (cfiCond92) ?BRET_EXT load(1, XDATA, add(CFA_XSP16, literal(-3)))
        CFI (cfiCond92) DPL0 load(1, XDATA, add(CFA_XSP16, literal(-2)))
        CFI (cfiCond92) DPH0 load(1, XDATA, add(CFA_XSP16, literal(-1)))
        CFI (cfiCond92) CFA_SP SP+0
        CFI (cfiCond92) CFA_XSP16 add(XSP16, 52)
        CFI Block cfiCond93 Using cfiCommon0
        CFI (cfiCond93) NoFunction
        CFI (cfiCond93) Conditional ??CrossCallReturnLabel_138, ??CrossCallReturnLabel_67
        CFI (cfiCond93) R6 load(1, XDATA, add(CFA_XSP16, literal(-16)))
        CFI (cfiCond93) VB load(1, XDATA, add(CFA_XSP16, literal(-15)))
        CFI (cfiCond93) V0 load(1, XDATA, add(CFA_XSP16, literal(-14)))
        CFI (cfiCond93) V1 load(1, XDATA, add(CFA_XSP16, literal(-13)))
        CFI (cfiCond93) V2 load(1, XDATA, add(CFA_XSP16, literal(-12)))
        CFI (cfiCond93) V3 load(1, XDATA, add(CFA_XSP16, literal(-11)))
        CFI (cfiCond93) V4 load(1, XDATA, add(CFA_XSP16, literal(-10)))
        CFI (cfiCond93) V5 load(1, XDATA, add(CFA_XSP16, literal(-9)))
        CFI (cfiCond93) V6 load(1, XDATA, add(CFA_XSP16, literal(-8)))
        CFI (cfiCond93) V7 load(1, XDATA, add(CFA_XSP16, literal(-7)))
        CFI (cfiCond93) R7 load(1, XDATA, add(CFA_XSP16, literal(-6)))
        CFI (cfiCond93) ?RET_LOW load(1, XDATA, add(CFA_XSP16, literal(-5)))
        CFI (cfiCond93) ?RET_HIGH load(1, XDATA, add(CFA_XSP16, literal(-4)))
        CFI (cfiCond93) ?BRET_EXT load(1, XDATA, add(CFA_XSP16, literal(-3)))
        CFI (cfiCond93) DPL0 load(1, XDATA, add(CFA_XSP16, literal(-2)))
        CFI (cfiCond93) DPH0 load(1, XDATA, add(CFA_XSP16, literal(-1)))
        CFI (cfiCond93) CFA_SP SP+-4
        CFI (cfiCond93) CFA_XSP16 add(XSP16, 52)
        CFI Block cfiCond94 Using cfiCommon0
        CFI (cfiCond94) NoFunction
        CFI (cfiCond94) Conditional ??CrossCallReturnLabel_138, ??CrossCallReturnLabel_68
        CFI (cfiCond94) R6 load(1, XDATA, add(CFA_XSP16, literal(-10)))
        CFI (cfiCond94) VB load(1, XDATA, add(CFA_XSP16, literal(-9)))
        CFI (cfiCond94) V0 load(1, XDATA, add(CFA_XSP16, literal(-8)))
        CFI (cfiCond94) V1 load(1, XDATA, add(CFA_XSP16, literal(-7)))
        CFI (cfiCond94) R7 load(1, XDATA, add(CFA_XSP16, literal(-6)))
        CFI (cfiCond94) ?RET_LOW load(1, XDATA, add(CFA_XSP16, literal(-5)))
        CFI (cfiCond94) ?RET_HIGH load(1, XDATA, add(CFA_XSP16, literal(-4)))
        CFI (cfiCond94) ?BRET_EXT load(1, XDATA, add(CFA_XSP16, literal(-3)))
        CFI (cfiCond94) DPL0 load(1, XDATA, add(CFA_XSP16, literal(-2)))
        CFI (cfiCond94) DPH0 load(1, XDATA, add(CFA_XSP16, literal(-1)))
        CFI (cfiCond94) CFA_SP SP+0
        CFI (cfiCond94) CFA_XSP16 add(XSP16, 10)
        CFI Block cfiCond95 Using cfiCommon0
        CFI (cfiCond95) NoFunction
        CFI (cfiCond95) Conditional ??CrossCallReturnLabel_138, ??CrossCallReturnLabel_69
        CFI (cfiCond95) R6 load(1, XDATA, add(CFA_XSP16, literal(-14)))
        CFI (cfiCond95) VB load(1, XDATA, add(CFA_XSP16, literal(-13)))
        CFI (cfiCond95) V0 load(1, XDATA, add(CFA_XSP16, literal(-12)))
        CFI (cfiCond95) V1 load(1, XDATA, add(CFA_XSP16, literal(-11)))
        CFI (cfiCond95) V2 load(1, XDATA, add(CFA_XSP16, literal(-10)))
        CFI (cfiCond95) V3 load(1, XDATA, add(CFA_XSP16, literal(-9)))
        CFI (cfiCond95) V4 load(1, XDATA, add(CFA_XSP16, literal(-8)))
        CFI (cfiCond95) V5 load(1, XDATA, add(CFA_XSP16, literal(-7)))
        CFI (cfiCond95) R7 load(1, XDATA, add(CFA_XSP16, literal(-6)))
        CFI (cfiCond95) ?RET_LOW load(1, XDATA, add(CFA_XSP16, literal(-5)))
        CFI (cfiCond95) ?RET_HIGH load(1, XDATA, add(CFA_XSP16, literal(-4)))
        CFI (cfiCond95) ?BRET_EXT load(1, XDATA, add(CFA_XSP16, literal(-3)))
        CFI (cfiCond95) DPL0 load(1, XDATA, add(CFA_XSP16, literal(-2)))
        CFI (cfiCond95) DPH0 load(1, XDATA, add(CFA_XSP16, literal(-1)))
        CFI (cfiCond95) CFA_SP SP+0
        CFI (cfiCond95) CFA_XSP16 add(XSP16, 14)
        CFI Block cfiCond96 Using cfiCommon0
        CFI (cfiCond96) NoFunction
        CFI (cfiCond96) Conditional ??CrossCallReturnLabel_137, ??CrossCallReturnLabel_65
        CFI (cfiCond96) R6 load(1, XDATA, add(CFA_XSP16, literal(-16)))
        CFI (cfiCond96) VB load(1, XDATA, add(CFA_XSP16, literal(-15)))
        CFI (cfiCond96) V0 load(1, XDATA, add(CFA_XSP16, literal(-14)))
        CFI (cfiCond96) V1 load(1, XDATA, add(CFA_XSP16, literal(-13)))
        CFI (cfiCond96) V2 load(1, XDATA, add(CFA_XSP16, literal(-12)))
        CFI (cfiCond96) V3 load(1, XDATA, add(CFA_XSP16, literal(-11)))
        CFI (cfiCond96) V4 load(1, XDATA, add(CFA_XSP16, literal(-10)))
        CFI (cfiCond96) V5 load(1, XDATA, add(CFA_XSP16, literal(-9)))
        CFI (cfiCond96) V6 load(1, XDATA, add(CFA_XSP16, literal(-8)))
        CFI (cfiCond96) V7 load(1, XDATA, add(CFA_XSP16, literal(-7)))
        CFI (cfiCond96) R7 load(1, XDATA, add(CFA_XSP16, literal(-6)))
        CFI (cfiCond96) ?RET_LOW load(1, XDATA, add(CFA_XSP16, literal(-5)))
        CFI (cfiCond96) ?RET_HIGH load(1, XDATA, add(CFA_XSP16, literal(-4)))
        CFI (cfiCond96) ?BRET_EXT load(1, XDATA, add(CFA_XSP16, literal(-3)))
        CFI (cfiCond96) DPL0 load(1, XDATA, add(CFA_XSP16, literal(-2)))
        CFI (cfiCond96) DPH0 load(1, XDATA, add(CFA_XSP16, literal(-1)))
        CFI (cfiCond96) CFA_SP SP+0
        CFI (cfiCond96) CFA_XSP16 add(XSP16, 37)
        CFI Block cfiCond97 Using cfiCommon0
        CFI (cfiCond97) NoFunction
        CFI (cfiCond97) Conditional ??CrossCallReturnLabel_137, ??CrossCallReturnLabel_66
        CFI (cfiCond97) R6 load(1, XDATA, add(CFA_XSP16, literal(-16)))
        CFI (cfiCond97) VB load(1, XDATA, add(CFA_XSP16, literal(-15)))
        CFI (cfiCond97) V0 load(1, XDATA, add(CFA_XSP16, literal(-14)))
        CFI (cfiCond97) V1 load(1, XDATA, add(CFA_XSP16, literal(-13)))
        CFI (cfiCond97) V2 load(1, XDATA, add(CFA_XSP16, literal(-12)))
        CFI (cfiCond97) V3 load(1, XDATA, add(CFA_XSP16, literal(-11)))
        CFI (cfiCond97) V4 load(1, XDATA, add(CFA_XSP16, literal(-10)))
        CFI (cfiCond97) V5 load(1, XDATA, add(CFA_XSP16, literal(-9)))
        CFI (cfiCond97) V6 load(1, XDATA, add(CFA_XSP16, literal(-8)))
        CFI (cfiCond97) V7 load(1, XDATA, add(CFA_XSP16, literal(-7)))
        CFI (cfiCond97) R7 load(1, XDATA, add(CFA_XSP16, literal(-6)))
        CFI (cfiCond97) ?RET_LOW load(1, XDATA, add(CFA_XSP16, literal(-5)))
        CFI (cfiCond97) ?RET_HIGH load(1, XDATA, add(CFA_XSP16, literal(-4)))
        CFI (cfiCond97) ?BRET_EXT load(1, XDATA, add(CFA_XSP16, literal(-3)))
        CFI (cfiCond97) DPL0 load(1, XDATA, add(CFA_XSP16, literal(-2)))
        CFI (cfiCond97) DPH0 load(1, XDATA, add(CFA_XSP16, literal(-1)))
        CFI (cfiCond97) CFA_SP SP+0
        CFI (cfiCond97) CFA_XSP16 add(XSP16, 37)
        CFI Block cfiPicker98 Using cfiCommon1
        CFI (cfiPicker98) NoFunction
        CFI (cfiPicker98) Picker
        MOVX    A,@DPTR
        MOV     ?V0 + 0,A
        INC     DPTR
        MOVX    A,@DPTR
        MOV     ?V0 + 1,A
        RET
        CFI EndBlock cfiCond84
        CFI EndBlock cfiCond85
        CFI EndBlock cfiCond86
        CFI EndBlock cfiCond87
        CFI EndBlock cfiCond88
        CFI EndBlock cfiCond89
        CFI EndBlock cfiCond90
        CFI EndBlock cfiCond91
        CFI EndBlock cfiCond92
        CFI EndBlock cfiCond93
        CFI EndBlock cfiCond94
        CFI EndBlock cfiCond95
        CFI EndBlock cfiCond96
        CFI EndBlock cfiCond97
        CFI EndBlock cfiPicker98
// 1247 
// 1248 
// 1249 
// 1250 /*********************************************************************
// 1251  * LOCAL FUNCTIONS
// 1252  */
// 1253 
// 1254 /*********************************************************************
// 1255  * @fn      p2p_test_MessageMSGCB
// 1256  *
// 1257  * @brief   Data message processor callback.  This function processes
// 1258  *          any incoming data - probably from other devices.  So, based
// 1259  *          on cluster ID, perform the intended action.
// 1260  *
// 1261  * @param   none
// 1262  *
// 1263  * @return  none
// 1264  */

        RSEG BANKED_CODE:CODE:NOROOT(0)
// 1265 void p2p_test_MessageMSGCB( afIncomingMSGPacket_t *pkt )
p2p_test_MessageMSGCB:
        CFI Block cfiBlock99 Using cfiCommon0
        CFI Function p2p_test_MessageMSGCB
// 1266 {
        FUNCALL p2p_test_MessageMSGCB, p2p_test_recv_108clusterId
        LOCFRAME ISTACK, 0, STACK
        LOCFRAME PSTACK, 0, STACK
        LOCFRAME XSTACK, 10, STACK
        LOCFRAME IOVERLAY, 0, STATIC
        LOCFRAME DOVERLAY, 0, STATIC
        ARGFRAME ISTACK, 0, STACK
        ARGFRAME PSTACK, 0, STACK
        ARGFRAME XSTACK, 10, STACK
        ARGFRAME IOVERLAY, 0, STATIC
        ARGFRAME DOVERLAY, 0, STATIC
        FUNCALL p2p_test_MessageMSGCB, p2p_test_recv_RelationMsgclusterId
        LOCFRAME ISTACK, 0, STACK
        LOCFRAME PSTACK, 0, STACK
        LOCFRAME XSTACK, 10, STACK
        LOCFRAME IOVERLAY, 0, STATIC
        LOCFRAME DOVERLAY, 0, STATIC
        ARGFRAME ISTACK, 0, STACK
        ARGFRAME PSTACK, 0, STACK
        ARGFRAME XSTACK, 10, STACK
        ARGFRAME IOVERLAY, 0, STATIC
        ARGFRAME DOVERLAY, 0, STATIC
        MOV     A,#-0xa
        LCALL   ?BANKED_ENTER_XDATA
        CFI DPH0 load(1, XDATA, add(CFA_XSP16, literal(-1)))
        CFI DPL0 load(1, XDATA, add(CFA_XSP16, literal(-2)))
        CFI ?BRET_EXT load(1, XDATA, add(CFA_XSP16, literal(-3)))
        CFI ?RET_HIGH load(1, XDATA, add(CFA_XSP16, literal(-4)))
        CFI ?RET_LOW load(1, XDATA, add(CFA_XSP16, literal(-5)))
        CFI R7 load(1, XDATA, add(CFA_XSP16, literal(-6)))
        CFI V1 load(1, XDATA, add(CFA_XSP16, literal(-7)))
        CFI V0 load(1, XDATA, add(CFA_XSP16, literal(-8)))
        CFI VB load(1, XDATA, add(CFA_XSP16, literal(-9)))
        CFI R6 load(1, XDATA, add(CFA_XSP16, literal(-10)))
        CFI CFA_SP SP+0
        CFI CFA_XSP16 add(XSP16, 10)
        ; Saved register size: 10
        ; Auto size: 0
// 1267   uint16 temp_shortaddr;
// 1268   switch ( pkt->clusterId )
        MOV     DPL,R2
        MOV     DPH,R3
        INC     DPTR
        INC     DPTR
        INC     DPTR
        INC     DPTR
        MOVX    A,@DPTR
        MOV     ?V0 + 0,A
        INC     DPTR
        MOVX    A,@DPTR
        JNZ     ??p2p_test_MessageMSGCB_0
        MOV     A,?V0 + 0
        LCALL   ?UC_SWITCH_SPARSE
`?<Jumptable for p2p_test_MessageMSGCB>_0`:
        DATA
        DB        0
        DB        2
        DB        2
        DW        ??p2p_test_MessageMSGCB_1
        DB        4
        DW        ??p2p_test_MessageMSGCB_2
        DW        ??p2p_test_MessageMSGCB_0
        CODE
// 1269   {
// 1270     case p2p_test_CLUSTERID:
// 1271       // "the" message
// 1272       //p2p_test_SendToUart((uint8*)pkt->cmd.Data, pkt->cmd.DataLength);
// 1273       //HalUARTWrite( 0, (uint8*)pkt->cmd.Data, pkt->cmd.DataLength );
// 1274       break;
// 1275     case p2p_test_108ID:
// 1276       p2p_test_recv_108clusterId(pkt->cmd.Data, pkt->cmd.DataLength);
??p2p_test_MessageMSGCB_1:
        ; Setup parameters for call to function p2p_test_recv_108clusterId
        LCALL   ?Subroutine18 & 0xFFFF
??CrossCallReturnLabel_172:
        LCALL   ??p2p_test_recv_108clusterId?relay
        SJMP    ??p2p_test_MessageMSGCB_0
// 1277       //SendRainCountFreq=(pkt->cmd.Data)[0];
// 1278       break;
// 1279     case p2p_test_RelationMsg:
// 1280       temp_shortaddr=pkt->srcAddr.addr.shortAddr;
// 1281       //printf short_addr
// 1282      // p2p_test_SendToUart((uint8 *)&temp_shortaddr,sizeof(temp_shortaddr));
// 1283      // HalUARTWrite(0,(uint8 *)&temp_shortaddr,sizeof(temp_shortaddr));
// 1284       p2p_test_recv_RelationMsgclusterId(pkt->cmd.Data,pkt->cmd.DataLength,temp_shortaddr);
??p2p_test_MessageMSGCB_2:
        ; Setup parameters for call to function p2p_test_recv_RelationMsgclusterId
        MOV     DPL,R2
        MOV     DPH,R3
        INC     DPTR
        INC     DPTR
        INC     DPTR
        INC     DPTR
        INC     DPTR
        INC     DPTR
        LCALL   ?Subroutine52 & 0xFFFF
??CrossCallReturnLabel_139:
        LCALL   ?Subroutine18 & 0xFFFF
??CrossCallReturnLabel_173:
        LCALL   ??p2p_test_recv_RelationMsgclusterId?relay
// 1285       break;
// 1286     
// 1287   }
// 1288 }
??p2p_test_MessageMSGCB_0:
        SJMP    ??Subroutine60_0
        CFI EndBlock cfiBlock99

        RSEG BANKED_CODE:CODE:NOROOT(0)
?Subroutine18:
        CFI Block cfiCond100 Using cfiCommon0
        CFI NoFunction
        CFI Conditional ??CrossCallReturnLabel_172
        CFI R6 load(1, XDATA, add(CFA_XSP16, literal(-10)))
        CFI VB load(1, XDATA, add(CFA_XSP16, literal(-9)))
        CFI V0 load(1, XDATA, add(CFA_XSP16, literal(-8)))
        CFI V1 load(1, XDATA, add(CFA_XSP16, literal(-7)))
        CFI R7 load(1, XDATA, add(CFA_XSP16, literal(-6)))
        CFI ?RET_LOW load(1, XDATA, add(CFA_XSP16, literal(-5)))
        CFI ?RET_HIGH load(1, XDATA, add(CFA_XSP16, literal(-4)))
        CFI ?BRET_EXT load(1, XDATA, add(CFA_XSP16, literal(-3)))
        CFI DPL0 load(1, XDATA, add(CFA_XSP16, literal(-2)))
        CFI DPH0 load(1, XDATA, add(CFA_XSP16, literal(-1)))
        CFI CFA_SP SP+0
        CFI CFA_XSP16 add(XSP16, 10)
        CFI Block cfiCond101 Using cfiCommon0
        CFI (cfiCond101) NoFunction
        CFI (cfiCond101) Conditional ??CrossCallReturnLabel_173
        CFI (cfiCond101) R6 load(1, XDATA, add(CFA_XSP16, literal(-10)))
        CFI (cfiCond101) VB load(1, XDATA, add(CFA_XSP16, literal(-9)))
        CFI (cfiCond101) V0 load(1, XDATA, add(CFA_XSP16, literal(-8)))
        CFI (cfiCond101) V1 load(1, XDATA, add(CFA_XSP16, literal(-7)))
        CFI (cfiCond101) R7 load(1, XDATA, add(CFA_XSP16, literal(-6)))
        CFI (cfiCond101) ?RET_LOW load(1, XDATA, add(CFA_XSP16, literal(-5)))
        CFI (cfiCond101) ?RET_HIGH load(1, XDATA, add(CFA_XSP16, literal(-4)))
        CFI (cfiCond101) ?BRET_EXT load(1, XDATA, add(CFA_XSP16, literal(-3)))
        CFI (cfiCond101) DPL0 load(1, XDATA, add(CFA_XSP16, literal(-2)))
        CFI (cfiCond101) DPH0 load(1, XDATA, add(CFA_XSP16, literal(-1)))
        CFI (cfiCond101) CFA_SP SP+0
        CFI (cfiCond101) CFA_XSP16 add(XSP16, 10)
        CFI Block cfiPicker102 Using cfiCommon1
        CFI (cfiPicker102) NoFunction
        CFI (cfiPicker102) Picker
        MOV     A,R2
        ADD     A,#0x13
        MOV     DPL,A
        MOV     A,R3
        ADDC    A,#0x0
        MOV     DPH,A
        MOVX    A,@DPTR
        MOV     R1,A
        MOV     A,R2
        ADD     A,#0x15
        MOV     DPL,A
        MOV     A,R3
        ADDC    A,#0x0
        MOV     DPH,A
        CFI EndBlock cfiCond100
        CFI EndBlock cfiCond101
        CFI EndBlock cfiPicker102
        REQUIRE ?Subroutine62
        ; // Fall through to label ?Subroutine62

        RSEG BANKED_CODE:CODE:NOROOT(0)
?Subroutine62:
        CFI Block cfiCond103 Using cfiCommon0
        CFI NoFunction
        CFI Conditional ??CrossCallReturnLabel_172
        CFI R6 load(1, XDATA, add(CFA_XSP16, literal(-10)))
        CFI VB load(1, XDATA, add(CFA_XSP16, literal(-9)))
        CFI V0 load(1, XDATA, add(CFA_XSP16, literal(-8)))
        CFI V1 load(1, XDATA, add(CFA_XSP16, literal(-7)))
        CFI R7 load(1, XDATA, add(CFA_XSP16, literal(-6)))
        CFI ?RET_LOW load(1, XDATA, add(CFA_XSP16, literal(-5)))
        CFI ?RET_HIGH load(1, XDATA, add(CFA_XSP16, literal(-4)))
        CFI ?BRET_EXT load(1, XDATA, add(CFA_XSP16, literal(-3)))
        CFI DPL0 load(1, XDATA, add(CFA_XSP16, literal(-2)))
        CFI DPH0 load(1, XDATA, add(CFA_XSP16, literal(-1)))
        CFI CFA_SP SP+0
        CFI CFA_XSP16 add(XSP16, 10)
        CFI Block cfiCond104 Using cfiCommon0
        CFI (cfiCond104) NoFunction
        CFI (cfiCond104) Conditional ??CrossCallReturnLabel_173
        CFI (cfiCond104) R6 load(1, XDATA, add(CFA_XSP16, literal(-10)))
        CFI (cfiCond104) VB load(1, XDATA, add(CFA_XSP16, literal(-9)))
        CFI (cfiCond104) V0 load(1, XDATA, add(CFA_XSP16, literal(-8)))
        CFI (cfiCond104) V1 load(1, XDATA, add(CFA_XSP16, literal(-7)))
        CFI (cfiCond104) R7 load(1, XDATA, add(CFA_XSP16, literal(-6)))
        CFI (cfiCond104) ?RET_LOW load(1, XDATA, add(CFA_XSP16, literal(-5)))
        CFI (cfiCond104) ?RET_HIGH load(1, XDATA, add(CFA_XSP16, literal(-4)))
        CFI (cfiCond104) ?BRET_EXT load(1, XDATA, add(CFA_XSP16, literal(-3)))
        CFI (cfiCond104) DPL0 load(1, XDATA, add(CFA_XSP16, literal(-2)))
        CFI (cfiCond104) DPH0 load(1, XDATA, add(CFA_XSP16, literal(-1)))
        CFI (cfiCond104) CFA_SP SP+0
        CFI (cfiCond104) CFA_XSP16 add(XSP16, 10)
        CFI Block cfiCond105 Using cfiCommon0
        CFI (cfiCond105) NoFunction
        CFI (cfiCond105) Conditional ??CrossCallReturnLabel_167
        CFI (cfiCond105) R6 load(1, XDATA, add(CFA_XSP16, literal(-12)))
        CFI (cfiCond105) VB load(1, XDATA, add(CFA_XSP16, literal(-11)))
        CFI (cfiCond105) V0 load(1, XDATA, add(CFA_XSP16, literal(-10)))
        CFI (cfiCond105) V1 load(1, XDATA, add(CFA_XSP16, literal(-9)))
        CFI (cfiCond105) V2 load(1, XDATA, add(CFA_XSP16, literal(-8)))
        CFI (cfiCond105) V3 load(1, XDATA, add(CFA_XSP16, literal(-7)))
        CFI (cfiCond105) R7 load(1, XDATA, add(CFA_XSP16, literal(-6)))
        CFI (cfiCond105) ?RET_LOW load(1, XDATA, add(CFA_XSP16, literal(-5)))
        CFI (cfiCond105) ?RET_HIGH load(1, XDATA, add(CFA_XSP16, literal(-4)))
        CFI (cfiCond105) ?BRET_EXT load(1, XDATA, add(CFA_XSP16, literal(-3)))
        CFI (cfiCond105) DPL0 load(1, XDATA, add(CFA_XSP16, literal(-2)))
        CFI (cfiCond105) DPH0 load(1, XDATA, add(CFA_XSP16, literal(-1)))
        CFI (cfiCond105) CFA_SP SP+0
        CFI (cfiCond105) CFA_XSP16 add(XSP16, 23)
        CFI Block cfiCond106 Using cfiCommon0
        CFI (cfiCond106) NoFunction
        CFI (cfiCond106) Conditional ??CrossCallReturnLabel_168
        CFI (cfiCond106) R6 load(1, XDATA, add(CFA_XSP16, literal(-12)))
        CFI (cfiCond106) VB load(1, XDATA, add(CFA_XSP16, literal(-11)))
        CFI (cfiCond106) V0 load(1, XDATA, add(CFA_XSP16, literal(-10)))
        CFI (cfiCond106) V1 load(1, XDATA, add(CFA_XSP16, literal(-9)))
        CFI (cfiCond106) V2 load(1, XDATA, add(CFA_XSP16, literal(-8)))
        CFI (cfiCond106) V3 load(1, XDATA, add(CFA_XSP16, literal(-7)))
        CFI (cfiCond106) R7 load(1, XDATA, add(CFA_XSP16, literal(-6)))
        CFI (cfiCond106) ?RET_LOW load(1, XDATA, add(CFA_XSP16, literal(-5)))
        CFI (cfiCond106) ?RET_HIGH load(1, XDATA, add(CFA_XSP16, literal(-4)))
        CFI (cfiCond106) ?BRET_EXT load(1, XDATA, add(CFA_XSP16, literal(-3)))
        CFI (cfiCond106) DPL0 load(1, XDATA, add(CFA_XSP16, literal(-2)))
        CFI (cfiCond106) DPH0 load(1, XDATA, add(CFA_XSP16, literal(-1)))
        CFI (cfiCond106) CFA_SP SP+0
        CFI (cfiCond106) CFA_XSP16 add(XSP16, 23)
        CFI Block cfiCond107 Using cfiCommon0
        CFI (cfiCond107) NoFunction
        CFI (cfiCond107) Conditional ??CrossCallReturnLabel_169
        CFI (cfiCond107) R6 load(1, XDATA, add(CFA_XSP16, literal(-16)))
        CFI (cfiCond107) VB load(1, XDATA, add(CFA_XSP16, literal(-15)))
        CFI (cfiCond107) V0 load(1, XDATA, add(CFA_XSP16, literal(-14)))
        CFI (cfiCond107) V1 load(1, XDATA, add(CFA_XSP16, literal(-13)))
        CFI (cfiCond107) V2 load(1, XDATA, add(CFA_XSP16, literal(-12)))
        CFI (cfiCond107) V3 load(1, XDATA, add(CFA_XSP16, literal(-11)))
        CFI (cfiCond107) V4 load(1, XDATA, add(CFA_XSP16, literal(-10)))
        CFI (cfiCond107) V5 load(1, XDATA, add(CFA_XSP16, literal(-9)))
        CFI (cfiCond107) V6 load(1, XDATA, add(CFA_XSP16, literal(-8)))
        CFI (cfiCond107) V7 load(1, XDATA, add(CFA_XSP16, literal(-7)))
        CFI (cfiCond107) R7 load(1, XDATA, add(CFA_XSP16, literal(-6)))
        CFI (cfiCond107) ?RET_LOW load(1, XDATA, add(CFA_XSP16, literal(-5)))
        CFI (cfiCond107) ?RET_HIGH load(1, XDATA, add(CFA_XSP16, literal(-4)))
        CFI (cfiCond107) ?BRET_EXT load(1, XDATA, add(CFA_XSP16, literal(-3)))
        CFI (cfiCond107) DPL0 load(1, XDATA, add(CFA_XSP16, literal(-2)))
        CFI (cfiCond107) DPH0 load(1, XDATA, add(CFA_XSP16, literal(-1)))
        CFI (cfiCond107) CFA_SP SP+0
        CFI (cfiCond107) CFA_XSP16 add(XSP16, 22)
        CFI Block cfiCond108 Using cfiCommon0
        CFI (cfiCond108) NoFunction
        CFI (cfiCond108) Conditional ??CrossCallReturnLabel_170
        CFI (cfiCond108) R6 load(1, XDATA, add(CFA_XSP16, literal(-16)))
        CFI (cfiCond108) VB load(1, XDATA, add(CFA_XSP16, literal(-15)))
        CFI (cfiCond108) V0 load(1, XDATA, add(CFA_XSP16, literal(-14)))
        CFI (cfiCond108) V1 load(1, XDATA, add(CFA_XSP16, literal(-13)))
        CFI (cfiCond108) V2 load(1, XDATA, add(CFA_XSP16, literal(-12)))
        CFI (cfiCond108) V3 load(1, XDATA, add(CFA_XSP16, literal(-11)))
        CFI (cfiCond108) V4 load(1, XDATA, add(CFA_XSP16, literal(-10)))
        CFI (cfiCond108) V5 load(1, XDATA, add(CFA_XSP16, literal(-9)))
        CFI (cfiCond108) V6 load(1, XDATA, add(CFA_XSP16, literal(-8)))
        CFI (cfiCond108) V7 load(1, XDATA, add(CFA_XSP16, literal(-7)))
        CFI (cfiCond108) R7 load(1, XDATA, add(CFA_XSP16, literal(-6)))
        CFI (cfiCond108) ?RET_LOW load(1, XDATA, add(CFA_XSP16, literal(-5)))
        CFI (cfiCond108) ?RET_HIGH load(1, XDATA, add(CFA_XSP16, literal(-4)))
        CFI (cfiCond108) ?BRET_EXT load(1, XDATA, add(CFA_XSP16, literal(-3)))
        CFI (cfiCond108) DPL0 load(1, XDATA, add(CFA_XSP16, literal(-2)))
        CFI (cfiCond108) DPH0 load(1, XDATA, add(CFA_XSP16, literal(-1)))
        CFI (cfiCond108) CFA_SP SP+0
        CFI (cfiCond108) CFA_XSP16 add(XSP16, 22)
        CFI Block cfiCond109 Using cfiCommon0
        CFI (cfiCond109) NoFunction
        CFI (cfiCond109) Conditional ??CrossCallReturnLabel_171
        CFI (cfiCond109) R6 load(1, XDATA, add(CFA_XSP16, literal(-12)))
        CFI (cfiCond109) VB load(1, XDATA, add(CFA_XSP16, literal(-11)))
        CFI (cfiCond109) V0 load(1, XDATA, add(CFA_XSP16, literal(-10)))
        CFI (cfiCond109) V1 load(1, XDATA, add(CFA_XSP16, literal(-9)))
        CFI (cfiCond109) V2 load(1, XDATA, add(CFA_XSP16, literal(-8)))
        CFI (cfiCond109) V3 load(1, XDATA, add(CFA_XSP16, literal(-7)))
        CFI (cfiCond109) R7 load(1, XDATA, add(CFA_XSP16, literal(-6)))
        CFI (cfiCond109) ?RET_LOW load(1, XDATA, add(CFA_XSP16, literal(-5)))
        CFI (cfiCond109) ?RET_HIGH load(1, XDATA, add(CFA_XSP16, literal(-4)))
        CFI (cfiCond109) ?BRET_EXT load(1, XDATA, add(CFA_XSP16, literal(-3)))
        CFI (cfiCond109) DPL0 load(1, XDATA, add(CFA_XSP16, literal(-2)))
        CFI (cfiCond109) DPH0 load(1, XDATA, add(CFA_XSP16, literal(-1)))
        CFI (cfiCond109) CFA_SP SP+0
        CFI (cfiCond109) CFA_XSP16 add(XSP16, 12)
        CFI Block cfiPicker110 Using cfiCommon1
        CFI (cfiPicker110) NoFunction
        CFI (cfiPicker110) Picker
        MOVX    A,@DPTR
        MOV     R2,A
        INC     DPTR
        MOVX    A,@DPTR
        MOV     R3,A
        RET
        CFI EndBlock cfiCond103
        CFI EndBlock cfiCond104
        CFI EndBlock cfiCond105
        CFI EndBlock cfiCond106
        CFI EndBlock cfiCond107
        CFI EndBlock cfiCond108
        CFI EndBlock cfiCond109
        CFI EndBlock cfiPicker110
// 1289 
// 1290 
// 1291 /*********************************************************************
// 1292  * @fn      p2p_test_SendTheMessage
// 1293  *
// 1294  * @brief   Send "the" message.
// 1295  *
// 1296  * @param   none
// 1297  *
// 1298  * @return  none
// 1299  */
// 1300 /*
// 1301 void p2p_test_SendTheMessage( void )
// 1302 {
// 1303    //char p2p_msg[] = "Hello World ";
// 1304    if ( AF_DataRequest( &p2p_test_DstAddr, &p2p_test_epDesc,
// 1305                        p2p_test_CLUSTERID,
// 1306                        6,
// 1307                        (byte *)&p2p_msg,
// 1308                        &p2p_test_TransID,
// 1309                        AF_DISCV_ROUTE, AF_DEFAULT_RADIUS ) == afStatus_SUCCESS )
// 1310 
// 1311   {
// 1312     // Successfully requested to be sent.  
// 1313 //    HalUARTWrite( 0,  (uint8 *)p2p_msg, (byte)osal_strlen( p2p_msg ) + 1);
// 1314 
// 1315   } 
// 1316   
// 1317   else
// 1318   {
// 1319     // Error occurred in request to send.
// 1320   }
// 1321 }
// 1322 */
// 1323 
// 1324 /*********************************************************************
// 1325  * @fn      p2p_test_recv_108clusterId
// 1326  *
// 1327  * @brief   
// 1328  *
// 1329  * @param   none
// 1330  *
// 1331  * @return  none
// 1332  */

        RSEG BANKED_CODE:CODE:NOROOT(0)
// 1333 void p2p_test_recv_108clusterId(uint8 *pkt, uint8 length)
p2p_test_recv_108clusterId:
        CFI Block cfiBlock111 Using cfiCommon0
        CFI Function p2p_test_recv_108clusterId
// 1334 {
        FUNCALL p2p_test_recv_108clusterId, p2p_test_SendToUart
        LOCFRAME ISTACK, 0, STACK
        LOCFRAME PSTACK, 0, STACK
        LOCFRAME XSTACK, 17, STACK
        LOCFRAME IOVERLAY, 0, STATIC
        LOCFRAME DOVERLAY, 0, STATIC
        ARGFRAME ISTACK, 0, STACK
        ARGFRAME PSTACK, 0, STACK
        ARGFRAME XSTACK, 17, STACK
        ARGFRAME IOVERLAY, 0, STATIC
        ARGFRAME DOVERLAY, 0, STATIC
        FUNCALL p2p_test_recv_108clusterId, osal_msg_allocate
        LOCFRAME ISTACK, 0, STACK
        LOCFRAME PSTACK, 0, STACK
        LOCFRAME XSTACK, 17, STACK
        LOCFRAME IOVERLAY, 0, STATIC
        LOCFRAME DOVERLAY, 0, STATIC
        ARGFRAME ISTACK, 0, STACK
        ARGFRAME PSTACK, 0, STACK
        ARGFRAME XSTACK, 17, STACK
        ARGFRAME IOVERLAY, 0, STATIC
        ARGFRAME DOVERLAY, 0, STATIC
        FUNCALL p2p_test_recv_108clusterId, fill_AppHead_sn
        LOCFRAME ISTACK, 0, STACK
        LOCFRAME PSTACK, 0, STACK
        LOCFRAME XSTACK, 21, STACK
        LOCFRAME IOVERLAY, 0, STATIC
        LOCFRAME DOVERLAY, 0, STATIC
        ARGFRAME ISTACK, 0, STACK
        ARGFRAME PSTACK, 0, STACK
        ARGFRAME XSTACK, 21, STACK
        ARGFRAME IOVERLAY, 0, STATIC
        ARGFRAME DOVERLAY, 0, STATIC
        FUNCALL p2p_test_recv_108clusterId, SendMsg
        LOCFRAME ISTACK, 0, STACK
        LOCFRAME PSTACK, 0, STACK
        LOCFRAME XSTACK, 23, STACK
        LOCFRAME IOVERLAY, 0, STATIC
        LOCFRAME DOVERLAY, 0, STATIC
        ARGFRAME ISTACK, 0, STACK
        ARGFRAME PSTACK, 0, STACK
        ARGFRAME XSTACK, 23, STACK
        ARGFRAME IOVERLAY, 0, STATIC
        ARGFRAME DOVERLAY, 0, STATIC
        FUNCALL p2p_test_recv_108clusterId, HalUARTWrite_uint16
        LOCFRAME ISTACK, 0, STACK
        LOCFRAME PSTACK, 0, STACK
        LOCFRAME XSTACK, 17, STACK
        LOCFRAME IOVERLAY, 0, STATIC
        LOCFRAME DOVERLAY, 0, STATIC
        ARGFRAME ISTACK, 0, STACK
        ARGFRAME PSTACK, 0, STACK
        ARGFRAME XSTACK, 17, STACK
        ARGFRAME IOVERLAY, 0, STATIC
        ARGFRAME DOVERLAY, 0, STATIC
        FUNCALL p2p_test_recv_108clusterId, osal_msg_deallocate
        LOCFRAME ISTACK, 0, STACK
        LOCFRAME PSTACK, 0, STACK
        LOCFRAME XSTACK, 17, STACK
        LOCFRAME IOVERLAY, 0, STATIC
        LOCFRAME DOVERLAY, 0, STATIC
        ARGFRAME ISTACK, 0, STACK
        ARGFRAME PSTACK, 0, STACK
        ARGFRAME XSTACK, 17, STACK
        ARGFRAME IOVERLAY, 0, STATIC
        ARGFRAME DOVERLAY, 0, STATIC
        FUNCALL p2p_test_recv_108clusterId, SendMsg
        LOCFRAME ISTACK, 0, STACK
        LOCFRAME PSTACK, 0, STACK
        LOCFRAME XSTACK, 23, STACK
        LOCFRAME IOVERLAY, 0, STATIC
        LOCFRAME DOVERLAY, 0, STATIC
        ARGFRAME ISTACK, 0, STACK
        ARGFRAME PSTACK, 0, STACK
        ARGFRAME XSTACK, 23, STACK
        ARGFRAME IOVERLAY, 0, STATIC
        ARGFRAME DOVERLAY, 0, STATIC
        FUNCALL p2p_test_recv_108clusterId, HalUARTWrite_uint16
        LOCFRAME ISTACK, 0, STACK
        LOCFRAME PSTACK, 0, STACK
        LOCFRAME XSTACK, 17, STACK
        LOCFRAME IOVERLAY, 0, STATIC
        LOCFRAME DOVERLAY, 0, STATIC
        ARGFRAME ISTACK, 0, STACK
        ARGFRAME PSTACK, 0, STACK
        ARGFRAME XSTACK, 17, STACK
        ARGFRAME IOVERLAY, 0, STATIC
        ARGFRAME DOVERLAY, 0, STATIC
        FUNCALL p2p_test_recv_108clusterId, SendMsg
        LOCFRAME ISTACK, 0, STACK
        LOCFRAME PSTACK, 0, STACK
        LOCFRAME XSTACK, 23, STACK
        LOCFRAME IOVERLAY, 0, STATIC
        LOCFRAME DOVERLAY, 0, STATIC
        ARGFRAME ISTACK, 0, STACK
        ARGFRAME PSTACK, 0, STACK
        ARGFRAME XSTACK, 23, STACK
        ARGFRAME IOVERLAY, 0, STATIC
        ARGFRAME DOVERLAY, 0, STATIC
        FUNCALL p2p_test_recv_108clusterId, HalUARTWrite
        LOCFRAME ISTACK, 0, STACK
        LOCFRAME PSTACK, 0, STACK
        LOCFRAME XSTACK, 17, STACK
        LOCFRAME IOVERLAY, 0, STATIC
        LOCFRAME DOVERLAY, 0, STATIC
        ARGFRAME ISTACK, 0, STACK
        ARGFRAME PSTACK, 0, STACK
        ARGFRAME XSTACK, 17, STACK
        ARGFRAME IOVERLAY, 0, STATIC
        ARGFRAME DOVERLAY, 0, STATIC
        FUNCALL p2p_test_recv_108clusterId, SendMsg
        LOCFRAME ISTACK, 0, STACK
        LOCFRAME PSTACK, 0, STACK
        LOCFRAME XSTACK, 23, STACK
        LOCFRAME IOVERLAY, 0, STATIC
        LOCFRAME DOVERLAY, 0, STATIC
        ARGFRAME ISTACK, 0, STACK
        ARGFRAME PSTACK, 0, STACK
        ARGFRAME XSTACK, 23, STACK
        ARGFRAME IOVERLAY, 0, STATIC
        ARGFRAME DOVERLAY, 0, STATIC
        FUNCALL p2p_test_recv_108clusterId, HalUARTWrite
        LOCFRAME ISTACK, 0, STACK
        LOCFRAME PSTACK, 0, STACK
        LOCFRAME XSTACK, 17, STACK
        LOCFRAME IOVERLAY, 0, STATIC
        LOCFRAME DOVERLAY, 0, STATIC
        ARGFRAME ISTACK, 0, STACK
        ARGFRAME PSTACK, 0, STACK
        ARGFRAME XSTACK, 17, STACK
        ARGFRAME IOVERLAY, 0, STATIC
        ARGFRAME DOVERLAY, 0, STATIC
        FUNCALL p2p_test_recv_108clusterId, SendMsg
        LOCFRAME ISTACK, 0, STACK
        LOCFRAME PSTACK, 0, STACK
        LOCFRAME XSTACK, 23, STACK
        LOCFRAME IOVERLAY, 0, STATIC
        LOCFRAME DOVERLAY, 0, STATIC
        ARGFRAME ISTACK, 0, STACK
        ARGFRAME PSTACK, 0, STACK
        ARGFRAME XSTACK, 23, STACK
        ARGFRAME IOVERLAY, 0, STATIC
        ARGFRAME DOVERLAY, 0, STATIC
        FUNCALL p2p_test_recv_108clusterId, HalUARTWrite
        LOCFRAME ISTACK, 0, STACK
        LOCFRAME PSTACK, 0, STACK
        LOCFRAME XSTACK, 17, STACK
        LOCFRAME IOVERLAY, 0, STATIC
        LOCFRAME DOVERLAY, 0, STATIC
        ARGFRAME ISTACK, 0, STACK
        ARGFRAME PSTACK, 0, STACK
        ARGFRAME XSTACK, 17, STACK
        ARGFRAME IOVERLAY, 0, STATIC
        ARGFRAME DOVERLAY, 0, STATIC
        FUNCALL p2p_test_recv_108clusterId, SendMsg
        LOCFRAME ISTACK, 0, STACK
        LOCFRAME PSTACK, 0, STACK
        LOCFRAME XSTACK, 23, STACK
        LOCFRAME IOVERLAY, 0, STATIC
        LOCFRAME DOVERLAY, 0, STATIC
        ARGFRAME ISTACK, 0, STACK
        ARGFRAME PSTACK, 0, STACK
        ARGFRAME XSTACK, 23, STACK
        ARGFRAME IOVERLAY, 0, STATIC
        ARGFRAME DOVERLAY, 0, STATIC
        FUNCALL p2p_test_recv_108clusterId, HalUARTWrite
        LOCFRAME ISTACK, 0, STACK
        LOCFRAME PSTACK, 0, STACK
        LOCFRAME XSTACK, 17, STACK
        LOCFRAME IOVERLAY, 0, STATIC
        LOCFRAME DOVERLAY, 0, STATIC
        ARGFRAME ISTACK, 0, STACK
        ARGFRAME PSTACK, 0, STACK
        ARGFRAME XSTACK, 17, STACK
        ARGFRAME IOVERLAY, 0, STATIC
        ARGFRAME DOVERLAY, 0, STATIC
        FUNCALL p2p_test_recv_108clusterId, SendMsg
        LOCFRAME ISTACK, 0, STACK
        LOCFRAME PSTACK, 0, STACK
        LOCFRAME XSTACK, 23, STACK
        LOCFRAME IOVERLAY, 0, STATIC
        LOCFRAME DOVERLAY, 0, STATIC
        ARGFRAME ISTACK, 0, STACK
        ARGFRAME PSTACK, 0, STACK
        ARGFRAME XSTACK, 23, STACK
        ARGFRAME IOVERLAY, 0, STATIC
        ARGFRAME DOVERLAY, 0, STATIC
        FUNCALL p2p_test_recv_108clusterId, HalUARTWrite_uint16
        LOCFRAME ISTACK, 0, STACK
        LOCFRAME PSTACK, 0, STACK
        LOCFRAME XSTACK, 17, STACK
        LOCFRAME IOVERLAY, 0, STATIC
        LOCFRAME DOVERLAY, 0, STATIC
        ARGFRAME ISTACK, 0, STACK
        ARGFRAME PSTACK, 0, STACK
        ARGFRAME XSTACK, 17, STACK
        ARGFRAME IOVERLAY, 0, STATIC
        ARGFRAME DOVERLAY, 0, STATIC
        FUNCALL p2p_test_recv_108clusterId, HalUARTWrite_uint16
        LOCFRAME ISTACK, 0, STACK
        LOCFRAME PSTACK, 0, STACK
        LOCFRAME XSTACK, 17, STACK
        LOCFRAME IOVERLAY, 0, STATIC
        LOCFRAME DOVERLAY, 0, STATIC
        ARGFRAME ISTACK, 0, STACK
        ARGFRAME PSTACK, 0, STACK
        ARGFRAME XSTACK, 17, STACK
        ARGFRAME IOVERLAY, 0, STATIC
        ARGFRAME DOVERLAY, 0, STATIC
        FUNCALL p2p_test_recv_108clusterId, HalUARTWrite_uint16
        LOCFRAME ISTACK, 0, STACK
        LOCFRAME PSTACK, 0, STACK
        LOCFRAME XSTACK, 17, STACK
        LOCFRAME IOVERLAY, 0, STATIC
        LOCFRAME DOVERLAY, 0, STATIC
        ARGFRAME ISTACK, 0, STACK
        ARGFRAME PSTACK, 0, STACK
        ARGFRAME XSTACK, 17, STACK
        ARGFRAME IOVERLAY, 0, STATIC
        ARGFRAME DOVERLAY, 0, STATIC
        FUNCALL p2p_test_recv_108clusterId, HalUARTWrite
        LOCFRAME ISTACK, 0, STACK
        LOCFRAME PSTACK, 0, STACK
        LOCFRAME XSTACK, 17, STACK
        LOCFRAME IOVERLAY, 0, STATIC
        LOCFRAME DOVERLAY, 0, STATIC
        ARGFRAME ISTACK, 0, STACK
        ARGFRAME PSTACK, 0, STACK
        ARGFRAME XSTACK, 17, STACK
        ARGFRAME IOVERLAY, 0, STATIC
        ARGFRAME DOVERLAY, 0, STATIC
        FUNCALL p2p_test_recv_108clusterId, HalUARTWrite
        LOCFRAME ISTACK, 0, STACK
        LOCFRAME PSTACK, 0, STACK
        LOCFRAME XSTACK, 17, STACK
        LOCFRAME IOVERLAY, 0, STATIC
        LOCFRAME DOVERLAY, 0, STATIC
        ARGFRAME ISTACK, 0, STACK
        ARGFRAME PSTACK, 0, STACK
        ARGFRAME XSTACK, 17, STACK
        ARGFRAME IOVERLAY, 0, STATIC
        ARGFRAME DOVERLAY, 0, STATIC
        FUNCALL p2p_test_recv_108clusterId, HalUARTWrite
        LOCFRAME ISTACK, 0, STACK
        LOCFRAME PSTACK, 0, STACK
        LOCFRAME XSTACK, 17, STACK
        LOCFRAME IOVERLAY, 0, STATIC
        LOCFRAME DOVERLAY, 0, STATIC
        ARGFRAME ISTACK, 0, STACK
        ARGFRAME PSTACK, 0, STACK
        ARGFRAME XSTACK, 17, STACK
        ARGFRAME IOVERLAY, 0, STATIC
        ARGFRAME DOVERLAY, 0, STATIC
        FUNCALL p2p_test_recv_108clusterId, SendMsg
        LOCFRAME ISTACK, 0, STACK
        LOCFRAME PSTACK, 0, STACK
        LOCFRAME XSTACK, 23, STACK
        LOCFRAME IOVERLAY, 0, STATIC
        LOCFRAME DOVERLAY, 0, STATIC
        ARGFRAME ISTACK, 0, STACK
        ARGFRAME PSTACK, 0, STACK
        ARGFRAME XSTACK, 23, STACK
        ARGFRAME IOVERLAY, 0, STATIC
        ARGFRAME DOVERLAY, 0, STATIC
        FUNCALL p2p_test_recv_108clusterId, HalUARTWrite
        LOCFRAME ISTACK, 0, STACK
        LOCFRAME PSTACK, 0, STACK
        LOCFRAME XSTACK, 17, STACK
        LOCFRAME IOVERLAY, 0, STATIC
        LOCFRAME DOVERLAY, 0, STATIC
        ARGFRAME ISTACK, 0, STACK
        ARGFRAME PSTACK, 0, STACK
        ARGFRAME XSTACK, 17, STACK
        ARGFRAME IOVERLAY, 0, STATIC
        ARGFRAME DOVERLAY, 0, STATIC
        FUNCALL p2p_test_recv_108clusterId, SendMsg
        LOCFRAME ISTACK, 0, STACK
        LOCFRAME PSTACK, 0, STACK
        LOCFRAME XSTACK, 23, STACK
        LOCFRAME IOVERLAY, 0, STATIC
        LOCFRAME DOVERLAY, 0, STATIC
        ARGFRAME ISTACK, 0, STACK
        ARGFRAME PSTACK, 0, STACK
        ARGFRAME XSTACK, 23, STACK
        ARGFRAME IOVERLAY, 0, STATIC
        ARGFRAME DOVERLAY, 0, STATIC
        FUNCALL p2p_test_recv_108clusterId, HalUARTWrite
        LOCFRAME ISTACK, 0, STACK
        LOCFRAME PSTACK, 0, STACK
        LOCFRAME XSTACK, 17, STACK
        LOCFRAME IOVERLAY, 0, STATIC
        LOCFRAME DOVERLAY, 0, STATIC
        ARGFRAME ISTACK, 0, STACK
        ARGFRAME PSTACK, 0, STACK
        ARGFRAME XSTACK, 17, STACK
        ARGFRAME IOVERLAY, 0, STATIC
        ARGFRAME DOVERLAY, 0, STATIC
        FUNCALL p2p_test_recv_108clusterId, halWait
        LOCFRAME ISTACK, 0, STACK
        LOCFRAME PSTACK, 0, STACK
        LOCFRAME XSTACK, 17, STACK
        LOCFRAME IOVERLAY, 0, STATIC
        LOCFRAME DOVERLAY, 0, STATIC
        ARGFRAME ISTACK, 0, STACK
        ARGFRAME PSTACK, 0, STACK
        ARGFRAME XSTACK, 17, STACK
        ARGFRAME IOVERLAY, 0, STATIC
        ARGFRAME DOVERLAY, 0, STATIC
        MOV     A,#-0x10
        LCALL   ?BANKED_ENTER_XDATA
        CFI DPH0 load(1, XDATA, add(CFA_XSP16, literal(-1)))
        CFI DPL0 load(1, XDATA, add(CFA_XSP16, literal(-2)))
        CFI ?BRET_EXT load(1, XDATA, add(CFA_XSP16, literal(-3)))
        CFI ?RET_HIGH load(1, XDATA, add(CFA_XSP16, literal(-4)))
        CFI ?RET_LOW load(1, XDATA, add(CFA_XSP16, literal(-5)))
        CFI R7 load(1, XDATA, add(CFA_XSP16, literal(-6)))
        CFI V7 load(1, XDATA, add(CFA_XSP16, literal(-7)))
        CFI V6 load(1, XDATA, add(CFA_XSP16, literal(-8)))
        CFI V5 load(1, XDATA, add(CFA_XSP16, literal(-9)))
        CFI V4 load(1, XDATA, add(CFA_XSP16, literal(-10)))
        CFI V3 load(1, XDATA, add(CFA_XSP16, literal(-11)))
        CFI V2 load(1, XDATA, add(CFA_XSP16, literal(-12)))
        CFI V1 load(1, XDATA, add(CFA_XSP16, literal(-13)))
        CFI V0 load(1, XDATA, add(CFA_XSP16, literal(-14)))
        CFI VB load(1, XDATA, add(CFA_XSP16, literal(-15)))
        CFI R6 load(1, XDATA, add(CFA_XSP16, literal(-16)))
        CFI CFA_SP SP+0
        CFI CFA_XSP16 add(XSP16, 16)
        ; Saved register size: 16
        ; Auto size: 1
        MOV     A,#-0x1
        LCALL   ?ALLOC_XSTACK8
        CFI CFA_XSP16 add(XSP16, 17)
        MOV     ?V0 + 2,R2
        MOV     ?V0 + 3,R3
// 1335   AppHead_t *AppHead = (AppHead_t *)pkt;
// 1336   //AppHead->AckRequire;
// 1337   if(AppHead->type == TYPE_SENSOR ||(AppHead->type == TYPE_ACK && AppHead->TypeCode==TYPE_ACK_UP) )
        MOV     DPL,R2
        MOV     DPH,R3
        MOVX    A,@DPTR
        ANL     A,#0xf
        JZ      ??p2p_test_recv_108clusterId_0
        MOVX    A,@DPTR
        ANL     A,#0xf
        XRL     A,#0xf
        JNZ     ??p2p_test_recv_108clusterId_1
        INC     DPTR
        MOVX    A,@DPTR
        JZ      $+5
        LJMP    ??p2p_test_recv_108clusterId_2 & 0xFFFF
// 1338   {
// 1339     //if(AppHead->TypeCode == TYPE_CODE_SENSOR_RAIN)//may be is not need,TYPE_SENSOR all to UART 
// 1340     //{
// 1341       p2p_test_SendToUart(pkt, length);
??p2p_test_recv_108clusterId_0:
        ; Setup parameters for call to function p2p_test_SendToUart
        LCALL   ??p2p_test_SendToUart?relay
// 1342       return;
        LJMP    ??p2p_test_recv_108clusterId_2 & 0xFFFF
// 1343     //}
// 1344   }
// 1345   else if(AppHead->type == TYPE_COMMAND)
??p2p_test_recv_108clusterId_1:
        MOVX    A,@DPTR
        ANL     A,#0xf
        XRL     A,#0x8
        JZ      $+5
        LJMP    ??p2p_test_recv_108clusterId_2 & 0xFFFF
// 1346   {
// 1347     uint8 temp_arm_id,temp_zigbee_id;
// 1348     temp_arm_id=(pkt[4]&0x0f);
// 1349     temp_zigbee_id=(pkt[5]&0xf0)>>4;
        INC     DPTR
        INC     DPTR
        INC     DPTR
        INC     DPTR
        INC     DPTR
        MOVX    A,@DPTR
        SWAP    A
        ANL     A,#0xf
        MOV     R4,A
// 1350     uint16 SerialNumber =BUILD_UINT16(AppHead->sn[1],AppHead->sn[0]);
        MOV     DPL,R2
        MOV     DPH,R3
        INC     DPTR
        INC     DPTR
        INC     DPTR
        LCALL   ?Subroutine33 & 0xFFFF
??CrossCallReturnLabel_184:
        LCALL   ?Subroutine35 & 0xFFFF
// 1351     //uint16 SerialNumber =BUILD_UINT16(pkt[3],pkt[2]);
// 1352     
// 1353     if(ARM_ID==temp_arm_id && Zigbee_ID==temp_zigbee_id)
??CrossCallReturnLabel_95:
        MOV     DPTR,#ARM_ID
        LCALL   ?Subroutine33 & 0xFFFF
??CrossCallReturnLabel_185:
        INC     DPTR
        INC     DPTR
        MOVX    A,@DPTR
        ANL     A,#0xf
        XRL     A,R2
        JZ      $+5
        LJMP    ??p2p_test_recv_108clusterId_2 & 0xFFFF
        MOV     DPTR,#Zigbee_ID
        MOVX    A,@DPTR
        XRL     A,R4
        JZ      $+5
        LJMP    ??p2p_test_recv_108clusterId_2 & 0xFFFF
// 1354     {
// 1355     //  if(AppHead->TypeCode == TYPE_CODE_COMMAND_MODIFY_K)
// 1356   //    {
// 1357         uint8 sensor_type = pkt[6];
        MOV     DPL,?V0 + 2
        MOV     DPH,R3
        INC     DPTR
        INC     DPTR
        INC     DPTR
        INC     DPTR
        INC     DPTR
        INC     DPTR
        MOVX    A,@DPTR
        MOV     DPL,?XSP + 0
        MOV     DPH,?XSP + 1
        MOVX    @DPTR,A
// 1358         uint16 freq = BUILD_UINT16(pkt[7], 0x00);
        MOV     DPL,?V0 + 2
        MOV     DPH,R3
        INC     DPTR
        INC     DPTR
        INC     DPTR
        INC     DPTR
        INC     DPTR
        INC     DPTR
        INC     DPTR
        MOVX    A,@DPTR
        MOV     R6,A
// 1359         AppHeadNodeId_t *AppHeadNodeId=(AppHeadNodeId_t *)osal_msg_allocate(sizeof(AppHeadNodeId_t));
        ; Setup parameters for call to function osal_msg_allocate
        MOV     R2,#0x6
        MOV     R3,#0x0
        LCALL   ??osal_msg_allocate?relay
        MOV     ?V0 + 6,R2
        MOV     ?V0 + 7,R3
// 1360         //fill_AppHead((AppHead_t *)&AppHeadNodeId->AppHead,ACK_NO, MAIN_VERSION, SUB_VERSION,TYPE_ACK,TYPE_ACK_UP);
// 1361         fill_AppHead_sn((AppHead_t *)&AppHeadNodeId->AppHead,ACK_NO, MAIN_VERSION, SUB_VERSION,TYPE_ACK,TYPE_ACK_UP, SerialNumber);
        ; Setup parameters for call to function fill_AppHead_sn
        MOV     R0,#?V0 + 0
        LCALL   ?PUSH_XSTACK_I_TWO
        CFI CFA_XSP16 add(XSP16, 19)
        MOV     ?V0 + 0,#0x0
        MOV     R0,#?V0 + 0
        LCALL   ?PUSH_XSTACK_I_ONE
        CFI CFA_XSP16 add(XSP16, 20)
        MOV     ?V0 + 0,#0xf
        MOV     R0,#?V0 + 0
        LCALL   ?PUSH_XSTACK_I_ONE
        CFI CFA_XSP16 add(XSP16, 21)
        MOV     R5,#0x1
        MOV     R4,#0x0
        MOV     R1,#0x0
        LCALL   ??fill_AppHead_sn?relay
        MOV     A,#0x4
        LCALL   ?DEALLOC_XSTACK8
        CFI CFA_XSP16 add(XSP16, 17)
// 1362 
// 1363         AppHeadNodeId->NodeId.r=RES;
        LCALL   ?Subroutine40 & 0xFFFF
??CrossCallReturnLabel_104:
        PUSH    A
        CFI CFA_SP SP+-1
        MOV     DPL,R0
        MOV     DPH,R1
        MOVX    A,@DPTR
        ANL     A,#0xf
        MOV     R2,A
        POP     A
        CFI CFA_SP SP+0
        LCALL   ?Subroutine44 & 0xFFFF
// 1364         AppHeadNodeId->NodeId.ARM_id=ARM_ID;
??CrossCallReturnLabel_126:
        PUSH    A
        CFI CFA_SP SP+-1
        MOV     A,#-0x10
        ANL     A,R2
        MOV     R2,A
        POP     A
        CFI CFA_SP SP+0
        ORL     A,R2
        MOV     DPL,R0
        MOV     DPH,R1
        MOVX    @DPTR,A
// 1365         AppHeadNodeId->NodeId.Zigbee_id=Zigbee_ID;//
        MOV     A,?V0 + 6
        ADD     A,#0x5
        INC     R0
        MOV     A,?V0 + 7
        ADDC    A,#0x0
        MOV     R1,A
        MOV     DPTR,#Zigbee_ID
        MOVX    A,@DPTR
        SWAP    A
        ANL     A,#0xf0
        PUSH    A
        CFI CFA_SP SP+-1
        MOV     DPL,R0
        MOV     DPH,R1
        MOVX    A,@DPTR
        ANL     A,#0xf
        MOV     R2,A
        POP     A
        CFI CFA_SP SP+0
        ORL     A,R2
        LCALL   ?Subroutine12 & 0xFFFF
// 1366       //  uint16 freq=(uint16)pkt[7]
// 1367         
// 1368         switch (sensor_type)
??CrossCallReturnLabel_32:
        LCALL   ?UC_SWITCH_SPARSE
`?<Jumptable for p2p_test_recv_108clusterId>_0`:
        DATA
        DB        0
        DB        9
        DB        3
        DW        ??p2p_test_recv_108clusterId_3
        DB        7
        DW        ??p2p_test_recv_108clusterId_4
        DB        9
        DW        ??p2p_test_recv_108clusterId_5
        DB        10
        DW        ??p2p_test_recv_108clusterId_6
        DB        11
        DW        ??p2p_test_recv_108clusterId_7
        DB        12
        DW        ??p2p_test_recv_108clusterId_8
        DB        13
        DW        ??p2p_test_recv_108clusterId_9
        DB        14
        DW        ??p2p_test_recv_108clusterId_10
        DB        17
        DW        ??p2p_test_recv_108clusterId_11
        DW        ??CrossCallReturnLabel_61
        CODE
// 1369         {
// 1370        /*   
// 1371        case COMMAND_TYPE_RAIN:               //雨量K值
// 1372           if( (freq & 0x0080) == 0 )          //或者右移7位
// 1373             SendRainTimeFreq = freq;
// 1374           else
// 1375           {
// 1376             freq = freq &0x007F;
// 1377             SendRainTimeFreq = freq*60 ;
// 1378           }
// 1379           //SendRainTimeFreq = freq;
// 1380           osal_stop_timerEx(p2p_test_TaskID, p2p_test_SEND_RAIN_FREQ_MSG_EVT);
// 1381           SendRainRemainTime = 0;//send at once
// 1382           p2p_test_SendRainTimeFreqAndRequire(FREQ);   
// 1383           AppHeadNodeId->NodeId.sensor_type= RAIN_ID ;
// 1384           SendMsg((uint8 *)AppHeadNodeId,sizeof(AppHeadNodeId_t), p2p_test_DstAddr, AF_DISCV_ROUTE,p2p_test_108ID);
// 1385           break;
// 1386           
// 1387         case COMMAND_TYPE_RAIN_KVALUE:         //雨量N值
// 1388           SendRainCountFreq = freq;
// 1389           RainCountNum = 0;//reset  
// 1390           AppHeadNodeId->NodeId.sensor_type= RAIN_ID ;
// 1391           SendMsg((uint8 *)AppHeadNodeId,sizeof(AppHeadNodeId_t), p2p_test_DstAddr, AF_DISCV_ROUTE,p2p_test_108ID);
// 1392           break;
// 1393           
// 1394         case COMMAND_TYPE_SOIL_HUMIDITY:       //土壤湿度K值
// 1395 
// 1396           SendSoilHumidityTimeFreq = freq*60;
// 1397           osal_stop_timerEx(p2p_test_TaskID, p2p_test_SEND_SOIL_HUMIDITY_FREQ_MSG_EVT);
// 1398           SendSoilHumidityRemainTime = 0;//send at once
// 1399           p2p_test_SendSoilHumidityTimeFreqAndRequire(FREQ); 
// 1400           AppHeadNodeId->NodeId.sensor_type= SOIL_ID ;
// 1401           SendMsg((uint8 *)AppHeadNodeId,sizeof(AppHeadNodeId_t), p2p_test_DstAddr, AF_DISCV_ROUTE,p2p_test_108ID);
// 1402           break;
// 1403           
// 1404         case COMMAND_TYPE_VIBRATIO:             //振动K值
// 1405           SendAccelerometerTimeFreq=freq*60;
// 1406           osal_stop_timerEx(p2p_test_TaskID, p2p_test_SEND_ACCELEROMETER_FREQ_MSG_EVT);
// 1407           SendAccelerometerRemainTime = 0;      //send at once
// 1408           AppHeadNodeId->NodeId.sensor_type= EARTHQUAKE_ID ;
// 1409           p2p_test_SendAccelerometerTimeFreqAndRequire(FREQ);
// 1410           SendMsg((uint8 *)AppHeadNodeId,sizeof(AppHeadNodeId_t), p2p_test_DstAddr, AF_DISCV_ROUTE,p2p_test_108ID);
// 1411           break;
// 1412           */
// 1413           
// 1414         case COMMAND_TYPE_WATER_GAGE:            //水位K值
// 1415 
// 1416           SendWaterGageTimeFreq= freq*60;
??p2p_test_recv_108clusterId_3:
        MOV     A,R6
        MOV     B,#0x3c
        MUL     AB
        MOV     DPTR,#SendWaterGageTimeFreq
        LCALL   ?Subroutine0 & 0xFFFF
// 1417           //osal_stop_timerEx(p2p_test_TaskID, p2p_test_SEND_WATER_GAGE_MSG_EVT);
// 1418           //SendWaterGageRemainTime=0;
// 1419           AppHeadNodeId->NodeId.sensor_type= WATER_GAGE_ID ;
// 1420           //p2p_test_Send_Water_Gage(FREQ,WaterGageUnit);
// 1421           SendMsg((uint8 *)AppHeadNodeId,sizeof(AppHeadNodeId_t), p2p_test_DstAddr, AF_DISCV_ROUTE,p2p_test_108ID);
??CrossCallReturnLabel_0:
        LCALL   ?PUSH_XSTACK_I_TWO
        CFI CFA_XSP16 add(XSP16, 19)
        MOV     DPTR,#p2p_test_DstAddr
        MOV     A,#0x4
        LCALL   ?PUSH_XSTACK8_X
        CFI CFA_XSP16 add(XSP16, 23)
        LCALL   ?Subroutine43 & 0xFFFF
??CrossCallReturnLabel_114:
        LCALL   ?DEALLOC_XSTACK8
        CFI CFA_XSP16 add(XSP16, 17)
// 1422 #if DEBUG
// 1423           HalUARTWrite_uint16(SendWaterGageTimeFreq);
        ; Setup parameters for call to function HalUARTWrite_uint16
        MOV     DPTR,#SendWaterGageTimeFreq
??p2p_test_recv_108clusterId_12:
        LCALL   ??Subroutine23_0 & 0xFFFF
// 1424 #endif             
// 1425           break;
// 1426           
// 1427         case COMMAND_TYPE_WATER_HIGHTYPE:          //水位计数据类型
// 1428           WaterGageUnit = BUILD_UINT16(pkt[7],0x00 );
// 1429           //osal_stop_timerEx(p2p_test_TaskID, p2p_test_SEND_WATER_GAGE_MSG_EVT);
// 1430           //SendWaterGageRemainTime=0;
// 1431           AppHeadNodeId->NodeId.sensor_type= WATER_GAGE_ID ;
// 1432           //p2p_test_Send_Water_Gage(FREQ,WaterGageUnit);
// 1433           SendMsg((uint8 *)AppHeadNodeId,sizeof(AppHeadNodeId_t), p2p_test_DstAddr, AF_DISCV_ROUTE,p2p_test_108ID);
// 1434 #if DEBUG
// 1435           HalUARTWrite_uint16(WaterGageUnit);
// 1436 #endif          
// 1437           break;
// 1438           
// 1439         case COMMAND_TYPE_WATER_T:                  //水位计自适应采集周期增加间隔T取值
// 1440           Water_gage_time = BUILD_UINT16(pkt[7],0x00 )*60;   
// 1441           AppHeadNodeId->NodeId.sensor_type= WATER_GAGE_ID ;
// 1442           SendMsg((uint8 *)AppHeadNodeId,sizeof(AppHeadNodeId_t), p2p_test_DstAddr, AF_DISCV_ROUTE,p2p_test_108ID);
// 1443 #if DEBUG
// 1444           HalUARTWrite(0,&pkt[7], sizeof(pkt[7]));
// 1445 #endif
// 1446           break;
// 1447           
// 1448         case COMMAND_TYPE_WATER_EDGE_A:              //水位计自适应边界取值A
// 1449           Water_gage_err_a = pkt[7];
// 1450           AppHeadNodeId->NodeId.sensor_type= WATER_GAGE_ID ;
// 1451           SendMsg((uint8 *)AppHeadNodeId,sizeof(AppHeadNodeId_t), p2p_test_DstAddr, AF_DISCV_ROUTE,p2p_test_108ID);
// 1452 #if DEBUG
// 1453           HalUARTWrite(0,&Water_gage_err_a, sizeof(Water_gage_err_a));
// 1454 #endif
// 1455           
// 1456           break;
// 1457           
// 1458         case COMMAND_TYPE_WATER_EDGE_B:               //水位计自适应边界取值B
// 1459           Water_gage_err_b = pkt[7];
// 1460           AppHeadNodeId->NodeId.sensor_type= WATER_GAGE_ID ;
// 1461           SendMsg((uint8 *)AppHeadNodeId,sizeof(AppHeadNodeId_t), p2p_test_DstAddr, AF_DISCV_ROUTE,p2p_test_108ID);          
// 1462 #if DEBUG
// 1463           HalUARTWrite(0,&Water_gage_err_b, sizeof(Water_gage_err_b));
// 1464 #endif
// 1465           break;
// 1466           
// 1467         case COMMAND_TYPE_WATER_EDGE_C:               //水位计自适应边界取值C
// 1468           Water_gage_err_c = pkt[7];
// 1469           AppHeadNodeId->NodeId.sensor_type= WATER_GAGE_ID ;
// 1470           SendMsg((uint8 *)AppHeadNodeId,sizeof(AppHeadNodeId_t), p2p_test_DstAddr, AF_DISCV_ROUTE,p2p_test_108ID);          
// 1471 #if DEBUG
// 1472           HalUARTWrite(0,&Water_gage_err_c, sizeof(Water_gage_err_c));
// 1473 #endif
// 1474           break;
// 1475           
// 1476         case COMMAND_TYPE_ZIGBEE_RESTART:             //zigbee重启的设置
// 1477           {
// 1478           AppHeadNodeId->NodeId.sensor_type= WATER_GAGE_ID ;
// 1479           SendMsg((uint8 *)AppHeadNodeId,sizeof(AppHeadNodeId_t), p2p_test_DstAddr, AF_DISCV_ROUTE,p2p_test_108ID);   
// 1480         
// 1481 /*          Zigbee_Restart_Command_t *pkt_zst = (Zigbee_Restart_Command_t *)pkt;
// 1482        
// 1483           WaterGageUnit = pkt_zst->water_gage_type;
// 1484           SendWaterGageTimeFreq = pkt_zst-> water_gage_freq;
// 1485           Water_gage_time = pkt_zst-> water_gage_T;
// 1486           Water_gage_err_a = pkt_zst-> water_gage_A;
// 1487           Water_gage_err_b = pkt_zst-> water_gage_B;
// 1488           Water_gage_err_c = pkt_zst-> water_gage_C;  
// 1489 */
// 1490          // osal_stop_timerEx(p2p_test_TaskID, p2p_test_SEND_WATER_GAGE_MSG_EVT);
// 1491           WaterGageUnit = BUILD_UINT16(pkt[8],pkt[7]);
// 1492           SendWaterGageTimeFreq = BUILD_UINT16(pkt[10],pkt[9])*60;
// 1493           Water_gage_time = BUILD_UINT16(pkt[12],pkt[11])*60;
// 1494           Water_gage_err_a = pkt[13];
// 1495           Water_gage_err_b = pkt[14];
// 1496           Water_gage_err_c = pkt[15];
// 1497         
// 1498 #if DEBUG
// 1499           HalUARTWrite_uint16(WaterGageUnit);
// 1500           HalUARTWrite_uint16(SendWaterGageTimeFreq);
// 1501           HalUARTWrite_uint16(Water_gage_time);
// 1502           HalUARTWrite(0,&Water_gage_err_a, sizeof(Water_gage_err_a));        
// 1503           HalUARTWrite(0,&Water_gage_err_b, sizeof(Water_gage_err_b));          
// 1504           HalUARTWrite(0,&Water_gage_err_c, sizeof(Water_gage_err_c));
// 1505 #endif   
// 1506           }
// 1507           break ;
// 1508           
// 1509         case COMMAND_TYPE_ACCEPTANCE:
// 1510           acceptance = pkt[7] ;
// 1511           AppHeadNodeId->NodeId.sensor_type= WATER_GAGE_ID ;
// 1512           SendMsg((uint8 *)AppHeadNodeId,sizeof(AppHeadNodeId_t), p2p_test_DstAddr, AF_DISCV_ROUTE,p2p_test_108ID);          
// 1513 #if DEBUG
// 1514           HalUARTWrite(0,&acceptance, sizeof(acceptance));
// 1515 #endif
// 1516           break;
// 1517           
// 1518         case COMMAND_TYPE_ZIGBEE_RESTART_COMMAND:
// 1519           AppHeadNodeId->NodeId.sensor_type= WATER_GAGE_ID ;
// 1520           SendMsg((uint8 *)AppHeadNodeId,sizeof(AppHeadNodeId_t), p2p_test_DstAddr, AF_DISCV_ROUTE,p2p_test_108ID);          
// 1521 #if DEBUG
// 1522           HalUARTWrite(0,&pkt[7], sizeof(pkt[7]));
// 1523 #endif      
// 1524           halWait(100);
// 1525           SystemReset();
// 1526           
// 1527         default :
// 1528           break;
// 1529          
// 1530         }
// 1531         
// 1532         osal_msg_deallocate((uint8 *)AppHeadNodeId); 
??CrossCallReturnLabel_61:
        ; Setup parameters for call to function osal_msg_deallocate
        MOV     R2,?V0 + 6
        MOV     R3,?V0 + 7
        LCALL   ??osal_msg_deallocate?relay
// 1533         return;
??p2p_test_recv_108clusterId_2:
        MOV     A,#0x1
        LJMP    ?Subroutine68 & 0xFFFF
??p2p_test_recv_108clusterId_4:
        MOV     DPL,?V0 + 2
        MOV     DPH,?V0 + 3
        INC     DPTR
        INC     DPTR
        INC     DPTR
        INC     DPTR
        INC     DPTR
        INC     DPTR
        INC     DPTR
        MOVX    A,@DPTR
        MOV     DPTR,#WaterGageUnit
        MOVX    @DPTR,A
        INC     DPTR
        CLR     A
        LCALL   ??Subroutine0_0 & 0xFFFF
??CrossCallReturnLabel_2:
        LCALL   ?PUSH_XSTACK_I_TWO
        CFI CFA_XSP16 add(XSP16, 19)
        MOV     DPTR,#p2p_test_DstAddr
        MOV     A,#0x4
        LCALL   ?PUSH_XSTACK8_X
        CFI CFA_XSP16 add(XSP16, 23)
        LCALL   ?Subroutine43 & 0xFFFF
??CrossCallReturnLabel_115:
        LCALL   ?DEALLOC_XSTACK8
        CFI CFA_XSP16 add(XSP16, 17)
        ; Setup parameters for call to function HalUARTWrite_uint16
        MOV     DPTR,#WaterGageUnit
        SJMP    ??p2p_test_recv_108clusterId_12
??p2p_test_recv_108clusterId_5:
        MOV     A,?V0 + 2
        ADD     A,#0x7
        MOV     R6,A
        MOV     A,?V0 + 3
        LCALL   ?Subroutine42 & 0xFFFF
??CrossCallReturnLabel_112:
        MOV     B,#0x3c
        MUL     AB
        MOV     DPTR,#Water_gage_time
        LCALL   ?Subroutine0 & 0xFFFF
??CrossCallReturnLabel_1:
        LCALL   ?PUSH_XSTACK_I_TWO
        CFI CFA_XSP16 add(XSP16, 19)
        MOV     DPTR,#p2p_test_DstAddr
        MOV     A,#0x4
        LCALL   ?PUSH_XSTACK8_X
        CFI CFA_XSP16 add(XSP16, 23)
        LCALL   ?Subroutine43 & 0xFFFF
??CrossCallReturnLabel_116:
        LCALL   ?DEALLOC_XSTACK8
        CFI CFA_XSP16 add(XSP16, 17)
        ; Setup parameters for call to function HalUARTWrite
        MOV     R4,#0x1
        MOV     R5,#0x0
        MOV     A,R6
        MOV     R2,A
        MOV     A,R7
        MOV     R3,A
??p2p_test_recv_108clusterId_13:
        MOV     R1,#0x0
        LCALL   ??HalUARTWrite?relay
        SJMP    ??CrossCallReturnLabel_61
??p2p_test_recv_108clusterId_6:
        MOV     DPL,?V0 + 2
        MOV     DPH,?V0 + 3
        INC     DPTR
        INC     DPTR
        INC     DPTR
        INC     DPTR
        INC     DPTR
        INC     DPTR
        INC     DPTR
        MOVX    A,@DPTR
        MOV     DPTR,#Water_gage_err_a
        LCALL   ??Subroutine0_0 & 0xFFFF
??CrossCallReturnLabel_3:
        LCALL   ?PUSH_XSTACK_I_TWO
        CFI CFA_XSP16 add(XSP16, 19)
        MOV     DPTR,#p2p_test_DstAddr
        MOV     A,#0x4
        LCALL   ?PUSH_XSTACK8_X
        CFI CFA_XSP16 add(XSP16, 23)
        LCALL   ?Subroutine43 & 0xFFFF
??CrossCallReturnLabel_117:
        LCALL   ?DEALLOC_XSTACK8
        CFI CFA_XSP16 add(XSP16, 17)
        ; Setup parameters for call to function HalUARTWrite
        MOV     R4,#0x1
        MOV     R5,#0x0
        MOV     R2,#(Water_gage_err_a & 0xff)
        MOV     R3,#((Water_gage_err_a >> 8) & 0xff)
        SJMP    ??p2p_test_recv_108clusterId_13
??p2p_test_recv_108clusterId_7:
        MOV     DPL,?V0 + 2
        MOV     DPH,?V0 + 3
        INC     DPTR
        INC     DPTR
        INC     DPTR
        INC     DPTR
        INC     DPTR
        INC     DPTR
        INC     DPTR
        MOVX    A,@DPTR
        MOV     DPTR,#Water_gage_err_b
        LCALL   ??Subroutine0_0 & 0xFFFF
??CrossCallReturnLabel_4:
        LCALL   ?PUSH_XSTACK_I_TWO
        CFI CFA_XSP16 add(XSP16, 19)
        MOV     DPTR,#p2p_test_DstAddr
        MOV     A,#0x4
        LCALL   ?PUSH_XSTACK8_X
        CFI CFA_XSP16 add(XSP16, 23)
        LCALL   ?Subroutine43 & 0xFFFF
??CrossCallReturnLabel_118:
        LCALL   ?DEALLOC_XSTACK8
        CFI CFA_XSP16 add(XSP16, 17)
        ; Setup parameters for call to function HalUARTWrite
        MOV     R4,#0x1
        MOV     R5,#0x0
        MOV     R2,#(Water_gage_err_b & 0xff)
        MOV     R3,#((Water_gage_err_b >> 8) & 0xff)
        SJMP    ??p2p_test_recv_108clusterId_13
??p2p_test_recv_108clusterId_8:
        MOV     DPL,?V0 + 2
        MOV     DPH,?V0 + 3
        INC     DPTR
        INC     DPTR
        INC     DPTR
        INC     DPTR
        INC     DPTR
        INC     DPTR
        INC     DPTR
        MOVX    A,@DPTR
        MOV     DPTR,#Water_gage_err_c
        LCALL   ??Subroutine0_0 & 0xFFFF
??CrossCallReturnLabel_5:
        LCALL   ?PUSH_XSTACK_I_TWO
        CFI CFA_XSP16 add(XSP16, 19)
        MOV     DPTR,#p2p_test_DstAddr
        MOV     A,#0x4
        LCALL   ?PUSH_XSTACK8_X
        CFI CFA_XSP16 add(XSP16, 23)
        LCALL   ?Subroutine43 & 0xFFFF
??CrossCallReturnLabel_119:
        LCALL   ?DEALLOC_XSTACK8
        CFI CFA_XSP16 add(XSP16, 17)
        ; Setup parameters for call to function HalUARTWrite
??p2p_test_recv_108clusterId_14:
        MOV     R4,#0x1
        MOV     R5,#0x0
        MOV     R2,#(Water_gage_err_c & 0xff)
        MOV     R3,#((Water_gage_err_c >> 8) & 0xff)
        LJMP    ??p2p_test_recv_108clusterId_13 & 0xFFFF
??p2p_test_recv_108clusterId_9:
        LCALL   ?Subroutine8 & 0xFFFF
??CrossCallReturnLabel_26:
        LCALL   ?PUSH_XSTACK_I_TWO
        CFI CFA_XSP16 add(XSP16, 19)
        MOV     DPTR,#p2p_test_DstAddr
        MOV     A,#0x4
        LCALL   ?PUSH_XSTACK8_X
        CFI CFA_XSP16 add(XSP16, 23)
        LCALL   ?Subroutine43 & 0xFFFF
??CrossCallReturnLabel_120:
        LCALL   ?DEALLOC_XSTACK8
        CFI CFA_XSP16 add(XSP16, 17)
        MOV     DPL,?V0 + 2
        MOV     DPH,?V0 + 3
        LCALL   ?Subroutine21 & 0xFFFF
??CrossCallReturnLabel_178:
        MOVX    A,@DPTR
        MOV     R1,A
        MOV     A,R2
        MOV     DPTR,#WaterGageUnit
        LCALL   ??Subroutine7_1 & 0xFFFF
??CrossCallReturnLabel_20:
        MOV     DPL,?V0 + 2
        MOV     DPH,?V0 + 3
        INC     DPTR
        INC     DPTR
        LCALL   ?Subroutine21 & 0xFFFF
??CrossCallReturnLabel_179:
        INC     DPTR
        INC     DPTR
        LCALL   ?Subroutine19 & 0xFFFF
??CrossCallReturnLabel_54:
        MOV     DPTR,#SendWaterGageTimeFreq
        LCALL   ??Subroutine7_0 & 0xFFFF
??CrossCallReturnLabel_21:
        MOV     A,?V0 + 2
        ADD     A,#0xc
        LCALL   ?Subroutine41 & 0xFFFF
??CrossCallReturnLabel_108:
        MOV     R2,A
        MOV     A,?V0 + 2
        ADD     A,#0xb
        MOV     DPL,A
        MOV     A,?V0 + 3
        ADDC    A,#0x0
        MOV     DPH,A
        LCALL   ?Subroutine19 & 0xFFFF
??CrossCallReturnLabel_55:
        MOV     DPTR,#Water_gage_time
        LCALL   ??Subroutine7_0 & 0xFFFF
??CrossCallReturnLabel_22:
        MOV     A,?V0 + 2
        ADD     A,#0xd
        LCALL   ?Subroutine41 & 0xFFFF
??CrossCallReturnLabel_109:
        MOV     DPTR,#Water_gage_err_a
        MOVX    @DPTR,A
        MOV     A,?V0 + 2
        ADD     A,#0xe
        LCALL   ?Subroutine41 & 0xFFFF
??CrossCallReturnLabel_110:
        MOV     DPTR,#Water_gage_err_b
        MOVX    @DPTR,A
        MOV     A,?V0 + 2
        ADD     A,#0xf
        LCALL   ?Subroutine41 & 0xFFFF
??CrossCallReturnLabel_111:
        MOV     DPTR,#Water_gage_err_c
        MOVX    @DPTR,A
        ; Setup parameters for call to function HalUARTWrite_uint16
        MOV     DPTR,#WaterGageUnit
        LCALL   ??Subroutine23_0 & 0xFFFF
??CrossCallReturnLabel_62:
        ; Setup parameters for call to function HalUARTWrite_uint16
        LCALL   ?Subroutine23 & 0xFFFF
??CrossCallReturnLabel_58:
        ; Setup parameters for call to function HalUARTWrite_uint16
        MOV     DPTR,#Water_gage_time
        LCALL   ?Subroutine22 & 0xFFFF
??CrossCallReturnLabel_193:
        MOV     R2,#(Water_gage_err_a & 0xff)
        MOV     R3,#((Water_gage_err_a >> 8) & 0xff)
        LCALL   ?Subroutine55 & 0xFFFF
??CrossCallReturnLabel_195:
        MOV     R2,#(Water_gage_err_b & 0xff)
        MOV     R3,#((Water_gage_err_b >> 8) & 0xff)
        MOV     R1,#0x0
        LCALL   ??HalUARTWrite?relay
        ; Setup parameters for call to function HalUARTWrite
        LJMP    ??p2p_test_recv_108clusterId_14 & 0xFFFF
??p2p_test_recv_108clusterId_10:
        MOV     DPL,?V0 + 2
        MOV     DPH,?V0 + 3
        INC     DPTR
        INC     DPTR
        INC     DPTR
        INC     DPTR
        INC     DPTR
        INC     DPTR
        INC     DPTR
        MOVX    A,@DPTR
        MOV     DPTR,#acceptance
        LCALL   ??Subroutine0_0 & 0xFFFF
??CrossCallReturnLabel_6:
        LCALL   ?PUSH_XSTACK_I_TWO
        CFI CFA_XSP16 add(XSP16, 19)
        MOV     DPTR,#p2p_test_DstAddr
        MOV     A,#0x4
        LCALL   ?PUSH_XSTACK8_X
        CFI CFA_XSP16 add(XSP16, 23)
        LCALL   ?Subroutine43 & 0xFFFF
??CrossCallReturnLabel_121:
        LCALL   ?DEALLOC_XSTACK8
        CFI CFA_XSP16 add(XSP16, 17)
        ; Setup parameters for call to function HalUARTWrite
        MOV     R4,#0x1
        MOV     R5,#0x0
        MOV     R2,#(acceptance & 0xff)
        MOV     R3,#((acceptance >> 8) & 0xff)
        LJMP    ??p2p_test_recv_108clusterId_13 & 0xFFFF
??p2p_test_recv_108clusterId_11:
        LCALL   ?Subroutine8 & 0xFFFF
??CrossCallReturnLabel_27:
        LCALL   ?PUSH_XSTACK_I_TWO
        CFI CFA_XSP16 add(XSP16, 19)
        MOV     DPTR,#p2p_test_DstAddr
        MOV     A,#0x4
        LCALL   ?PUSH_XSTACK8_X
        CFI CFA_XSP16 add(XSP16, 23)
        LCALL   ?Subroutine43 & 0xFFFF
??CrossCallReturnLabel_122:
        LCALL   ?DEALLOC_XSTACK8
        CFI CFA_XSP16 add(XSP16, 17)
        ; Setup parameters for call to function HalUARTWrite
        MOV     R4,#0x1
        MOV     R5,#0x0
        MOV     A,?V0 + 2
        ADD     A,#0x7
        MOV     R2,A
        MOV     A,?V0 + 3
        ADDC    A,#0x0
        MOV     R3,A
        MOV     R1,#0x0
        LCALL   ??HalUARTWrite?relay
        ; Setup parameters for call to function halWait
        MOV     R1,#0x64
        LCALL   ??halWait?relay
        CLR     0xa8.7
        MOV     0xc9,#-0x55
        MOV     0xc9,#0x5b
??p2p_test_recv_108clusterId_15:
        NOP
        SJMP    ??p2p_test_recv_108clusterId_15
        CFI EndBlock cfiBlock111
        REQUIRE _A_IEN0
        REQUIRE WDCTL
// 1534     }
// 1535       /*
// 1536         else if(AppHead->TypeCode == TYPE_CODE_COMMAND_MODIFY_N)
// 1537         {
// 1538           uint8 sensor_type = pkt[6];
// 1539           if(sensor_type == TYPE_CODE_SENSOR_RAIN)
// 1540           {
// 1541             SendRainCountFreq = pkt[7];
// 1542             RainCountNum = 0;//reset        
// 1543           }
// 1544           return;
// 1545         }
// 1546         else if(AppHead->TypeCode == TYPE_CODE_COMMAND_REQUIRE)
// 1547         {
// 1548           uint8 sensor_type = pkt[6];
// 1549           if(sensor_type == TYPE_CODE_SENSOR_RAIN)
// 1550           {
// 1551             p2p_test_SendRainTimeFreqAndRequire(REQUIRE);
// 1552           }
// 1553           else if(sensor_type == TYPE_CODE_SENSOR_SOIL_HUMIDITY )
// 1554           {
// 1555             SOIL_TYPE = pkt[7];
// 1556             p2p_test_SendSoilHumidityTimeFreqAndRequire(REQUIRE);
// 1557           }   
// 1558            else if(sensor_type == TYPE_CODE_SENSOR_READ_VCC)
// 1559          {
// 1560           p2p_test_Send_VCC_VALUE(REQUIRE);
// 1561          }
// 1562           return;
// 1563         }     
// 1564         else if(AppHead->TypeCode == TYPE_CODE_COMMAND_SENSOR_STOP_EVT)
// 1565         {
// 1566           uint8 sensor_type = pkt[6];
// 1567           if (sensor_type ==  TYPE_CODE_SENSOR_RAIN)
// 1568           {
// 1569            osal_stop_timerEx(p2p_test_TaskID, p2p_test_SEND_RAIN_FREQ_MSG_EVT);
// 1570            SendRainRemainTime = 0;//keep next send at once
// 1571           } 
// 1572           else if(sensor_type == TYPE_CODE_SENSOR_SOIL_HUMIDITY)
// 1573           {
// 1574            osal_stop_timerEx(p2p_test_TaskID, p2p_test_SEND_SOIL_HUMIDITY_FREQ_MSG_EVT );
// 1575            SendSoilHumidityRemainTime = 0;   //keep next send at once
// 1576           }
// 1577           else if(sensor_type == TYPE_CODE_SENSOR_READ_VCC)
// 1578           {
// 1579           osal_stop_timerEx(p2p_test_TaskID, p2p_test_SEND_VCC_VALUE_FREQ_MSG_EVT);
// 1580           SendVccValueRemainTime = 0;       //keep next send at once
// 1581           }
// 1582         }
// 1583     }*/
// 1584   }
// 1585      
// 1586      
// 1587    /* else if(AppHead->type == TYPE_MAINTAIN)
// 1588     {
// 1589       if((AppHead->TypeCode == TYPE_CODE_MAINTAIN_RESET_TIME) || (AppHead->TypeCode == TYPE_CODE_MAINTAIN_RELATION_1))
// 1590       {
// 1591         p2p_test_SendToUart(pkt, length);
// 1592         return;
// 1593       }
// 1594     */
// 1595  /* else if(AppHead->type == TYPE_ZIGBEE_RESTART_COMMAND)
// 1596   {
// 1597     uint8 temp_arm_id,temp_zigbee_id;
// 1598     temp_arm_id=(pkt[4]&0x0f);
// 1599     temp_zigbee_id=(pkt[5]&0xf0)>>4;
// 1600     uint16 SerialNumber =BUILD_UINT16(AppHead->sn[1],AppHead->sn[0]);
// 1601     //uint16 SerialNumber =BUILD_UINT16(pkt[3],pkt[2]);
// 1602     
// 1603     if(ARM_ID==temp_arm_id && Zigbee_ID==temp_zigbee_id)
// 1604     {
// 1605 
// 1606    //     uint8 sensor_type = pkt[6];
// 1607   //      uint16 freq = BUILD_UINT16(pkt[7], 0x00);
// 1608         AppHeadNodeId_t *AppHeadNodeId=(AppHeadNodeId_t *)osal_msg_allocate(sizeof(AppHeadNodeId_t));
// 1609         //fill_AppHead((AppHead_t *)&AppHeadNodeId->AppHead,ACK_NO, MAIN_VERSION, SUB_VERSION,TYPE_ACK,TYPE_ACK_UP);
// 1610         fill_AppHead_sn((AppHead_t *)&AppHeadNodeId->AppHead,ACK_NO, MAIN_VERSION, SUB_VERSION,TYPE_ACK,TYPE_ACK_UP, SerialNumber);
// 1611 
// 1612         AppHeadNodeId->NodeId.r=RES;
// 1613         AppHeadNodeId->NodeId.ARM_id=ARM_ID;
// 1614         AppHeadNodeId->NodeId.Zigbee_id=Zigbee_ID;
// 1615         AppHeadNodeId->NodeId.sensor_type= WATER_GAGE_ID ;
// 1616         SendMsg((uint8 *)AppHeadNodeId,sizeof(AppHeadNodeId_t), p2p_test_DstAddr, AF_DISCV_ROUTE,p2p_test_108ID);   
// 1617         
// 1618         Zigbee_Restart_Command_t *pkt_zst = (Zigbee_Restart_Command_t *)pkt;
// 1619       
// 1620         WaterGageUnit = pkt_zst->water_gage_type;
// 1621         SendWaterGageTimeFreq = pkt_zst-> water_gage_freq;
// 1622         Water_gage_time = pkt_zst-> water_gage_T ;
// 1623         Water_gage_err_a = pkt_zst-> water_gage_A;
// 1624         Water_gage_err_b = pkt_zst-> water_gage_B;
// 1625         Water_gage_err_c = pkt_zst-> water_gage_C;   
// 1626         
// 1627 #if DEBUG
// 1628         HalUARTWrite_uint16(WaterGageUnit);
// 1629         HalUARTWrite(0,&Water_gage_err_a, sizeof(Water_gage_err_a));
// 1630         HalUARTWrite_uint16(SendWaterGageTimeFreq);
// 1631         HalUARTWrite(0,&Water_gage_err_b, sizeof(Water_gage_err_b));
// 1632         HalUARTWrite_uint16(Water_gage_time);
// 1633         HalUARTWrite(0,&Water_gage_err_c, sizeof(Water_gage_err_c));
// 1634 #endif        
// 1635         osal_msg_deallocate((uint8 *)AppHeadNodeId);
// 1636     }
// 1637     return ;
// 1638   }*/
// 1639 
// 1640   else if(AppHead->type == TYPE_REPORT)
// 1641   {
// 1642   }
// 1643   else if(AppHead->type == TYPE_ACK)
// 1644   {
// 1645   }
// 1646  
// 1647 }

        RSEG BANKED_CODE:CODE:NOROOT(0)
?Subroutine55:
        CFI Block cfiCond112 Using cfiCommon0
        CFI NoFunction
        CFI Conditional ??CrossCallReturnLabel_194, ??CrossCallReturnLabel_99
        CFI R6 load(1, XDATA, add(CFA_XSP16, literal(-10)))
        CFI VB load(1, XDATA, add(CFA_XSP16, literal(-9)))
        CFI V0 load(1, XDATA, add(CFA_XSP16, literal(-8)))
        CFI V1 load(1, XDATA, add(CFA_XSP16, literal(-7)))
        CFI R7 load(1, XDATA, add(CFA_XSP16, literal(-6)))
        CFI ?RET_LOW load(1, XDATA, add(CFA_XSP16, literal(-5)))
        CFI ?RET_HIGH load(1, XDATA, add(CFA_XSP16, literal(-4)))
        CFI ?BRET_EXT load(1, XDATA, add(CFA_XSP16, literal(-3)))
        CFI DPL0 load(1, XDATA, add(CFA_XSP16, literal(-2)))
        CFI DPH0 load(1, XDATA, add(CFA_XSP16, literal(-1)))
        CFI CFA_SP SP+0
        CFI CFA_XSP16 add(XSP16, 11)
        CFI Block cfiCond113 Using cfiCommon0
        CFI (cfiCond113) NoFunction
        CFI (cfiCond113) Conditional ??CrossCallReturnLabel_194, ??CrossCallReturnLabel_100
        CFI (cfiCond113) R6 load(1, XDATA, add(CFA_XSP16, literal(-10)))
        CFI (cfiCond113) VB load(1, XDATA, add(CFA_XSP16, literal(-9)))
        CFI (cfiCond113) V0 load(1, XDATA, add(CFA_XSP16, literal(-8)))
        CFI (cfiCond113) V1 load(1, XDATA, add(CFA_XSP16, literal(-7)))
        CFI (cfiCond113) R7 load(1, XDATA, add(CFA_XSP16, literal(-6)))
        CFI (cfiCond113) ?RET_LOW load(1, XDATA, add(CFA_XSP16, literal(-5)))
        CFI (cfiCond113) ?RET_HIGH load(1, XDATA, add(CFA_XSP16, literal(-4)))
        CFI (cfiCond113) ?BRET_EXT load(1, XDATA, add(CFA_XSP16, literal(-3)))
        CFI (cfiCond113) DPL0 load(1, XDATA, add(CFA_XSP16, literal(-2)))
        CFI (cfiCond113) DPH0 load(1, XDATA, add(CFA_XSP16, literal(-1)))
        CFI (cfiCond113) CFA_SP SP+0
        CFI (cfiCond113) CFA_XSP16 add(XSP16, 11)
        CFI Block cfiCond114 Using cfiCommon0
        CFI (cfiCond114) NoFunction
        CFI (cfiCond114) Conditional ??CrossCallReturnLabel_194, ??CrossCallReturnLabel_101
        CFI (cfiCond114) R6 load(1, XDATA, add(CFA_XSP16, literal(-10)))
        CFI (cfiCond114) VB load(1, XDATA, add(CFA_XSP16, literal(-9)))
        CFI (cfiCond114) V0 load(1, XDATA, add(CFA_XSP16, literal(-8)))
        CFI (cfiCond114) V1 load(1, XDATA, add(CFA_XSP16, literal(-7)))
        CFI (cfiCond114) R7 load(1, XDATA, add(CFA_XSP16, literal(-6)))
        CFI (cfiCond114) ?RET_LOW load(1, XDATA, add(CFA_XSP16, literal(-5)))
        CFI (cfiCond114) ?RET_HIGH load(1, XDATA, add(CFA_XSP16, literal(-4)))
        CFI (cfiCond114) ?BRET_EXT load(1, XDATA, add(CFA_XSP16, literal(-3)))
        CFI (cfiCond114) DPL0 load(1, XDATA, add(CFA_XSP16, literal(-2)))
        CFI (cfiCond114) DPH0 load(1, XDATA, add(CFA_XSP16, literal(-1)))
        CFI (cfiCond114) CFA_SP SP+0
        CFI (cfiCond114) CFA_XSP16 add(XSP16, 11)
        CFI Block cfiCond115 Using cfiCommon0
        CFI (cfiCond115) NoFunction
        CFI (cfiCond115) Conditional ??CrossCallReturnLabel_194, ??CrossCallReturnLabel_102
        CFI (cfiCond115) R6 load(1, XDATA, add(CFA_XSP16, literal(-10)))
        CFI (cfiCond115) VB load(1, XDATA, add(CFA_XSP16, literal(-9)))
        CFI (cfiCond115) V0 load(1, XDATA, add(CFA_XSP16, literal(-8)))
        CFI (cfiCond115) V1 load(1, XDATA, add(CFA_XSP16, literal(-7)))
        CFI (cfiCond115) R7 load(1, XDATA, add(CFA_XSP16, literal(-6)))
        CFI (cfiCond115) ?RET_LOW load(1, XDATA, add(CFA_XSP16, literal(-5)))
        CFI (cfiCond115) ?RET_HIGH load(1, XDATA, add(CFA_XSP16, literal(-4)))
        CFI (cfiCond115) ?BRET_EXT load(1, XDATA, add(CFA_XSP16, literal(-3)))
        CFI (cfiCond115) DPL0 load(1, XDATA, add(CFA_XSP16, literal(-2)))
        CFI (cfiCond115) DPH0 load(1, XDATA, add(CFA_XSP16, literal(-1)))
        CFI (cfiCond115) CFA_SP SP+0
        CFI (cfiCond115) CFA_XSP16 add(XSP16, 11)
        CFI Block cfiCond116 Using cfiCommon0
        CFI (cfiCond116) NoFunction
        CFI (cfiCond116) Conditional ??CrossCallReturnLabel_194, ??CrossCallReturnLabel_103
        CFI (cfiCond116) R6 load(1, XDATA, add(CFA_XSP16, literal(-10)))
        CFI (cfiCond116) VB load(1, XDATA, add(CFA_XSP16, literal(-9)))
        CFI (cfiCond116) V0 load(1, XDATA, add(CFA_XSP16, literal(-8)))
        CFI (cfiCond116) V1 load(1, XDATA, add(CFA_XSP16, literal(-7)))
        CFI (cfiCond116) R7 load(1, XDATA, add(CFA_XSP16, literal(-6)))
        CFI (cfiCond116) ?RET_LOW load(1, XDATA, add(CFA_XSP16, literal(-5)))
        CFI (cfiCond116) ?RET_HIGH load(1, XDATA, add(CFA_XSP16, literal(-4)))
        CFI (cfiCond116) ?BRET_EXT load(1, XDATA, add(CFA_XSP16, literal(-3)))
        CFI (cfiCond116) DPL0 load(1, XDATA, add(CFA_XSP16, literal(-2)))
        CFI (cfiCond116) DPH0 load(1, XDATA, add(CFA_XSP16, literal(-1)))
        CFI (cfiCond116) CFA_SP SP+0
        CFI (cfiCond116) CFA_XSP16 add(XSP16, 11)
        CFI Block cfiCond117 Using cfiCommon0
        CFI (cfiCond117) NoFunction
        CFI (cfiCond117) Conditional ??CrossCallReturnLabel_195
        CFI (cfiCond117) R6 load(1, XDATA, add(CFA_XSP16, literal(-16)))
        CFI (cfiCond117) VB load(1, XDATA, add(CFA_XSP16, literal(-15)))
        CFI (cfiCond117) V0 load(1, XDATA, add(CFA_XSP16, literal(-14)))
        CFI (cfiCond117) V1 load(1, XDATA, add(CFA_XSP16, literal(-13)))
        CFI (cfiCond117) V2 load(1, XDATA, add(CFA_XSP16, literal(-12)))
        CFI (cfiCond117) V3 load(1, XDATA, add(CFA_XSP16, literal(-11)))
        CFI (cfiCond117) V4 load(1, XDATA, add(CFA_XSP16, literal(-10)))
        CFI (cfiCond117) V5 load(1, XDATA, add(CFA_XSP16, literal(-9)))
        CFI (cfiCond117) V6 load(1, XDATA, add(CFA_XSP16, literal(-8)))
        CFI (cfiCond117) V7 load(1, XDATA, add(CFA_XSP16, literal(-7)))
        CFI (cfiCond117) R7 load(1, XDATA, add(CFA_XSP16, literal(-6)))
        CFI (cfiCond117) ?RET_LOW load(1, XDATA, add(CFA_XSP16, literal(-5)))
        CFI (cfiCond117) ?RET_HIGH load(1, XDATA, add(CFA_XSP16, literal(-4)))
        CFI (cfiCond117) ?BRET_EXT load(1, XDATA, add(CFA_XSP16, literal(-3)))
        CFI (cfiCond117) DPL0 load(1, XDATA, add(CFA_XSP16, literal(-2)))
        CFI (cfiCond117) DPH0 load(1, XDATA, add(CFA_XSP16, literal(-1)))
        CFI (cfiCond117) CFA_SP SP+0
        CFI (cfiCond117) CFA_XSP16 add(XSP16, 17)
        CFI Block cfiCond118 Using cfiCommon0
        CFI (cfiCond118) NoFunction
        CFI (cfiCond118) Conditional ??CrossCallReturnLabel_196, ??CrossCallReturnLabel_161
        CFI (cfiCond118) R6 load(1, XDATA, add(CFA_XSP16, literal(-10)))
        CFI (cfiCond118) VB load(1, XDATA, add(CFA_XSP16, literal(-9)))
        CFI (cfiCond118) V0 load(1, XDATA, add(CFA_XSP16, literal(-8)))
        CFI (cfiCond118) V1 load(1, XDATA, add(CFA_XSP16, literal(-7)))
        CFI (cfiCond118) R7 load(1, XDATA, add(CFA_XSP16, literal(-6)))
        CFI (cfiCond118) ?RET_LOW load(1, XDATA, add(CFA_XSP16, literal(-5)))
        CFI (cfiCond118) ?RET_HIGH load(1, XDATA, add(CFA_XSP16, literal(-4)))
        CFI (cfiCond118) ?BRET_EXT load(1, XDATA, add(CFA_XSP16, literal(-3)))
        CFI (cfiCond118) DPL0 load(1, XDATA, add(CFA_XSP16, literal(-2)))
        CFI (cfiCond118) DPH0 load(1, XDATA, add(CFA_XSP16, literal(-1)))
        CFI (cfiCond118) CFA_SP SP+0
        CFI (cfiCond118) CFA_XSP16 add(XSP16, 11)
        CFI Block cfiCond119 Using cfiCommon0
        CFI (cfiCond119) NoFunction
        CFI (cfiCond119) Conditional ??CrossCallReturnLabel_196, ??CrossCallReturnLabel_162
        CFI (cfiCond119) R6 load(1, XDATA, add(CFA_XSP16, literal(-11)))
        CFI (cfiCond119) VB load(1, XDATA, add(CFA_XSP16, literal(-10)))
        CFI (cfiCond119) V0 load(1, XDATA, add(CFA_XSP16, literal(-9)))
        CFI (cfiCond119) V1 load(1, XDATA, add(CFA_XSP16, literal(-8)))
        CFI (cfiCond119) V2 load(1, XDATA, add(CFA_XSP16, literal(-7)))
        CFI (cfiCond119) R7 load(1, XDATA, add(CFA_XSP16, literal(-6)))
        CFI (cfiCond119) ?RET_LOW load(1, XDATA, add(CFA_XSP16, literal(-5)))
        CFI (cfiCond119) ?RET_HIGH load(1, XDATA, add(CFA_XSP16, literal(-4)))
        CFI (cfiCond119) ?BRET_EXT load(1, XDATA, add(CFA_XSP16, literal(-3)))
        CFI (cfiCond119) DPL0 load(1, XDATA, add(CFA_XSP16, literal(-2)))
        CFI (cfiCond119) DPH0 load(1, XDATA, add(CFA_XSP16, literal(-1)))
        CFI (cfiCond119) CFA_SP SP+0
        CFI (cfiCond119) CFA_XSP16 add(XSP16, 17)
        CFI Block cfiPicker120 Using cfiCommon1
        CFI (cfiPicker120) NoFunction
        CFI (cfiPicker120) Picker
        MOV     R1,#0x0
        LCALL   ??HalUARTWrite?relay
        ; Setup parameters for call to function HalUARTWrite
        ; Setup parameters for call to function HalUARTWrite
        ; Setup parameters for call to function HalUARTWrite
        ; Setup parameters for call to function HalUARTWrite
        ; Setup parameters for call to function HalUARTWrite
        ; Setup parameters for call to function HalUARTWrite
        ; Setup parameters for call to function HalUARTWrite
        ; Setup parameters for call to function HalUARTWrite
        SJMP    ?Subroutine66
        CFI EndBlock cfiCond112
        CFI EndBlock cfiCond113
        CFI EndBlock cfiCond114
        CFI EndBlock cfiCond115
        CFI EndBlock cfiCond116
        CFI EndBlock cfiCond117
        CFI EndBlock cfiCond118
        CFI EndBlock cfiCond119
        CFI EndBlock cfiPicker120

        RSEG BANKED_CODE:CODE:NOROOT(0)
?Subroutine33:
        CFI Block cfiCond121 Using cfiCommon0
        CFI NoFunction
        CFI Conditional ??CrossCallReturnLabel_184
        CFI R6 load(1, XDATA, add(CFA_XSP16, literal(-16)))
        CFI VB load(1, XDATA, add(CFA_XSP16, literal(-15)))
        CFI V0 load(1, XDATA, add(CFA_XSP16, literal(-14)))
        CFI V1 load(1, XDATA, add(CFA_XSP16, literal(-13)))
        CFI V2 load(1, XDATA, add(CFA_XSP16, literal(-12)))
        CFI V3 load(1, XDATA, add(CFA_XSP16, literal(-11)))
        CFI V4 load(1, XDATA, add(CFA_XSP16, literal(-10)))
        CFI V5 load(1, XDATA, add(CFA_XSP16, literal(-9)))
        CFI V6 load(1, XDATA, add(CFA_XSP16, literal(-8)))
        CFI V7 load(1, XDATA, add(CFA_XSP16, literal(-7)))
        CFI R7 load(1, XDATA, add(CFA_XSP16, literal(-6)))
        CFI ?RET_LOW load(1, XDATA, add(CFA_XSP16, literal(-5)))
        CFI ?RET_HIGH load(1, XDATA, add(CFA_XSP16, literal(-4)))
        CFI ?BRET_EXT load(1, XDATA, add(CFA_XSP16, literal(-3)))
        CFI DPL0 load(1, XDATA, add(CFA_XSP16, literal(-2)))
        CFI DPH0 load(1, XDATA, add(CFA_XSP16, literal(-1)))
        CFI CFA_SP SP+0
        CFI CFA_XSP16 add(XSP16, 17)
        CFI Block cfiCond122 Using cfiCommon0
        CFI (cfiCond122) NoFunction
        CFI (cfiCond122) Conditional ??CrossCallReturnLabel_185
        CFI (cfiCond122) R6 load(1, XDATA, add(CFA_XSP16, literal(-16)))
        CFI (cfiCond122) VB load(1, XDATA, add(CFA_XSP16, literal(-15)))
        CFI (cfiCond122) V0 load(1, XDATA, add(CFA_XSP16, literal(-14)))
        CFI (cfiCond122) V1 load(1, XDATA, add(CFA_XSP16, literal(-13)))
        CFI (cfiCond122) V2 load(1, XDATA, add(CFA_XSP16, literal(-12)))
        CFI (cfiCond122) V3 load(1, XDATA, add(CFA_XSP16, literal(-11)))
        CFI (cfiCond122) V4 load(1, XDATA, add(CFA_XSP16, literal(-10)))
        CFI (cfiCond122) V5 load(1, XDATA, add(CFA_XSP16, literal(-9)))
        CFI (cfiCond122) V6 load(1, XDATA, add(CFA_XSP16, literal(-8)))
        CFI (cfiCond122) V7 load(1, XDATA, add(CFA_XSP16, literal(-7)))
        CFI (cfiCond122) R7 load(1, XDATA, add(CFA_XSP16, literal(-6)))
        CFI (cfiCond122) ?RET_LOW load(1, XDATA, add(CFA_XSP16, literal(-5)))
        CFI (cfiCond122) ?RET_HIGH load(1, XDATA, add(CFA_XSP16, literal(-4)))
        CFI (cfiCond122) ?BRET_EXT load(1, XDATA, add(CFA_XSP16, literal(-3)))
        CFI (cfiCond122) DPL0 load(1, XDATA, add(CFA_XSP16, literal(-2)))
        CFI (cfiCond122) DPH0 load(1, XDATA, add(CFA_XSP16, literal(-1)))
        CFI (cfiCond122) CFA_SP SP+0
        CFI (cfiCond122) CFA_XSP16 add(XSP16, 17)
        CFI Block cfiPicker123 Using cfiCommon1
        CFI (cfiPicker123) NoFunction
        CFI (cfiPicker123) Picker
        MOVX    A,@DPTR
        MOV     R2,A
        MOV     DPL,?V0 + 2
        CFI EndBlock cfiCond121
        CFI EndBlock cfiCond122
        CFI EndBlock cfiPicker123
        REQUIRE ?Subroutine65
        ; // Fall through to label ?Subroutine65

        RSEG BANKED_CODE:CODE:NOROOT(0)
?Subroutine65:
        CFI Block cfiCond124 Using cfiCommon0
        CFI NoFunction
        CFI Conditional ??CrossCallReturnLabel_184
        CFI R6 load(1, XDATA, add(CFA_XSP16, literal(-16)))
        CFI VB load(1, XDATA, add(CFA_XSP16, literal(-15)))
        CFI V0 load(1, XDATA, add(CFA_XSP16, literal(-14)))
        CFI V1 load(1, XDATA, add(CFA_XSP16, literal(-13)))
        CFI V2 load(1, XDATA, add(CFA_XSP16, literal(-12)))
        CFI V3 load(1, XDATA, add(CFA_XSP16, literal(-11)))
        CFI V4 load(1, XDATA, add(CFA_XSP16, literal(-10)))
        CFI V5 load(1, XDATA, add(CFA_XSP16, literal(-9)))
        CFI V6 load(1, XDATA, add(CFA_XSP16, literal(-8)))
        CFI V7 load(1, XDATA, add(CFA_XSP16, literal(-7)))
        CFI R7 load(1, XDATA, add(CFA_XSP16, literal(-6)))
        CFI ?RET_LOW load(1, XDATA, add(CFA_XSP16, literal(-5)))
        CFI ?RET_HIGH load(1, XDATA, add(CFA_XSP16, literal(-4)))
        CFI ?BRET_EXT load(1, XDATA, add(CFA_XSP16, literal(-3)))
        CFI DPL0 load(1, XDATA, add(CFA_XSP16, literal(-2)))
        CFI DPH0 load(1, XDATA, add(CFA_XSP16, literal(-1)))
        CFI CFA_SP SP+0
        CFI CFA_XSP16 add(XSP16, 17)
        CFI Block cfiCond125 Using cfiCommon0
        CFI (cfiCond125) NoFunction
        CFI (cfiCond125) Conditional ??CrossCallReturnLabel_185
        CFI (cfiCond125) R6 load(1, XDATA, add(CFA_XSP16, literal(-16)))
        CFI (cfiCond125) VB load(1, XDATA, add(CFA_XSP16, literal(-15)))
        CFI (cfiCond125) V0 load(1, XDATA, add(CFA_XSP16, literal(-14)))
        CFI (cfiCond125) V1 load(1, XDATA, add(CFA_XSP16, literal(-13)))
        CFI (cfiCond125) V2 load(1, XDATA, add(CFA_XSP16, literal(-12)))
        CFI (cfiCond125) V3 load(1, XDATA, add(CFA_XSP16, literal(-11)))
        CFI (cfiCond125) V4 load(1, XDATA, add(CFA_XSP16, literal(-10)))
        CFI (cfiCond125) V5 load(1, XDATA, add(CFA_XSP16, literal(-9)))
        CFI (cfiCond125) V6 load(1, XDATA, add(CFA_XSP16, literal(-8)))
        CFI (cfiCond125) V7 load(1, XDATA, add(CFA_XSP16, literal(-7)))
        CFI (cfiCond125) R7 load(1, XDATA, add(CFA_XSP16, literal(-6)))
        CFI (cfiCond125) ?RET_LOW load(1, XDATA, add(CFA_XSP16, literal(-5)))
        CFI (cfiCond125) ?RET_HIGH load(1, XDATA, add(CFA_XSP16, literal(-4)))
        CFI (cfiCond125) ?BRET_EXT load(1, XDATA, add(CFA_XSP16, literal(-3)))
        CFI (cfiCond125) DPL0 load(1, XDATA, add(CFA_XSP16, literal(-2)))
        CFI (cfiCond125) DPH0 load(1, XDATA, add(CFA_XSP16, literal(-1)))
        CFI (cfiCond125) CFA_SP SP+0
        CFI (cfiCond125) CFA_XSP16 add(XSP16, 17)
        CFI Block cfiCond126 Using cfiCommon0
        CFI (cfiCond126) NoFunction
        CFI (cfiCond126) Conditional ??CrossCallReturnLabel_182
        CFI (cfiCond126) R6 load(1, XDATA, add(CFA_XSP16, literal(-9)))
        CFI (cfiCond126) VB load(1, XDATA, add(CFA_XSP16, literal(-8)))
        CFI (cfiCond126) V0 load(1, XDATA, add(CFA_XSP16, literal(-7)))
        CFI (cfiCond126) R7 load(1, XDATA, add(CFA_XSP16, literal(-6)))
        CFI (cfiCond126) ?RET_LOW load(1, XDATA, add(CFA_XSP16, literal(-5)))
        CFI (cfiCond126) ?RET_HIGH load(1, XDATA, add(CFA_XSP16, literal(-4)))
        CFI (cfiCond126) ?BRET_EXT load(1, XDATA, add(CFA_XSP16, literal(-3)))
        CFI (cfiCond126) DPL0 load(1, XDATA, add(CFA_XSP16, literal(-2)))
        CFI (cfiCond126) DPH0 load(1, XDATA, add(CFA_XSP16, literal(-1)))
        CFI (cfiCond126) CFA_SP SP+0
        CFI (cfiCond126) CFA_XSP16 add(XSP16, 9)
        CFI Block cfiCond127 Using cfiCommon0
        CFI (cfiCond127) NoFunction
        CFI (cfiCond127) Conditional ??CrossCallReturnLabel_183
        CFI (cfiCond127) R6 load(1, XDATA, add(CFA_XSP16, literal(-12)))
        CFI (cfiCond127) VB load(1, XDATA, add(CFA_XSP16, literal(-11)))
        CFI (cfiCond127) V0 load(1, XDATA, add(CFA_XSP16, literal(-10)))
        CFI (cfiCond127) V1 load(1, XDATA, add(CFA_XSP16, literal(-9)))
        CFI (cfiCond127) V2 load(1, XDATA, add(CFA_XSP16, literal(-8)))
        CFI (cfiCond127) V3 load(1, XDATA, add(CFA_XSP16, literal(-7)))
        CFI (cfiCond127) R7 load(1, XDATA, add(CFA_XSP16, literal(-6)))
        CFI (cfiCond127) ?RET_LOW load(1, XDATA, add(CFA_XSP16, literal(-5)))
        CFI (cfiCond127) ?RET_HIGH load(1, XDATA, add(CFA_XSP16, literal(-4)))
        CFI (cfiCond127) ?BRET_EXT load(1, XDATA, add(CFA_XSP16, literal(-3)))
        CFI (cfiCond127) DPL0 load(1, XDATA, add(CFA_XSP16, literal(-2)))
        CFI (cfiCond127) DPH0 load(1, XDATA, add(CFA_XSP16, literal(-1)))
        CFI (cfiCond127) CFA_SP SP+0
        CFI (cfiCond127) CFA_XSP16 add(XSP16, 13)
        CFI Block cfiPicker128 Using cfiCommon1
        CFI (cfiPicker128) NoFunction
        CFI (cfiPicker128) Picker
        MOV     DPH,R3
        INC     DPTR
        INC     DPTR
        RET
        CFI EndBlock cfiCond124
        CFI EndBlock cfiCond125
        CFI EndBlock cfiCond126
        CFI EndBlock cfiCond127
        CFI EndBlock cfiPicker128

        RSEG BANKED_CODE:CODE:NOROOT(0)
?Subroutine23:
        CFI Block cfiCond129 Using cfiCommon0
        CFI NoFunction
        CFI Conditional ??CrossCallReturnLabel_58
        CFI R6 load(1, XDATA, add(CFA_XSP16, literal(-16)))
        CFI VB load(1, XDATA, add(CFA_XSP16, literal(-15)))
        CFI V0 load(1, XDATA, add(CFA_XSP16, literal(-14)))
        CFI V1 load(1, XDATA, add(CFA_XSP16, literal(-13)))
        CFI V2 load(1, XDATA, add(CFA_XSP16, literal(-12)))
        CFI V3 load(1, XDATA, add(CFA_XSP16, literal(-11)))
        CFI V4 load(1, XDATA, add(CFA_XSP16, literal(-10)))
        CFI V5 load(1, XDATA, add(CFA_XSP16, literal(-9)))
        CFI V6 load(1, XDATA, add(CFA_XSP16, literal(-8)))
        CFI V7 load(1, XDATA, add(CFA_XSP16, literal(-7)))
        CFI R7 load(1, XDATA, add(CFA_XSP16, literal(-6)))
        CFI ?RET_LOW load(1, XDATA, add(CFA_XSP16, literal(-5)))
        CFI ?RET_HIGH load(1, XDATA, add(CFA_XSP16, literal(-4)))
        CFI ?BRET_EXT load(1, XDATA, add(CFA_XSP16, literal(-3)))
        CFI DPL0 load(1, XDATA, add(CFA_XSP16, literal(-2)))
        CFI DPH0 load(1, XDATA, add(CFA_XSP16, literal(-1)))
        CFI CFA_SP SP+0
        CFI CFA_XSP16 add(XSP16, 17)
        CFI Block cfiCond130 Using cfiCommon0
        CFI (cfiCond130) NoFunction
        CFI (cfiCond130) Conditional ??CrossCallReturnLabel_59
        CFI (cfiCond130) R6 load(1, XDATA, add(CFA_XSP16, literal(-16)))
        CFI (cfiCond130) VB load(1, XDATA, add(CFA_XSP16, literal(-15)))
        CFI (cfiCond130) V0 load(1, XDATA, add(CFA_XSP16, literal(-14)))
        CFI (cfiCond130) V1 load(1, XDATA, add(CFA_XSP16, literal(-13)))
        CFI (cfiCond130) V2 load(1, XDATA, add(CFA_XSP16, literal(-12)))
        CFI (cfiCond130) V3 load(1, XDATA, add(CFA_XSP16, literal(-11)))
        CFI (cfiCond130) V4 load(1, XDATA, add(CFA_XSP16, literal(-10)))
        CFI (cfiCond130) V5 load(1, XDATA, add(CFA_XSP16, literal(-9)))
        CFI (cfiCond130) V6 load(1, XDATA, add(CFA_XSP16, literal(-8)))
        CFI (cfiCond130) V7 load(1, XDATA, add(CFA_XSP16, literal(-7)))
        CFI (cfiCond130) R7 load(1, XDATA, add(CFA_XSP16, literal(-6)))
        CFI (cfiCond130) ?RET_LOW load(1, XDATA, add(CFA_XSP16, literal(-5)))
        CFI (cfiCond130) ?RET_HIGH load(1, XDATA, add(CFA_XSP16, literal(-4)))
        CFI (cfiCond130) ?BRET_EXT load(1, XDATA, add(CFA_XSP16, literal(-3)))
        CFI (cfiCond130) DPL0 load(1, XDATA, add(CFA_XSP16, literal(-2)))
        CFI (cfiCond130) DPH0 load(1, XDATA, add(CFA_XSP16, literal(-1)))
        CFI (cfiCond130) CFA_SP SP+0
        CFI (cfiCond130) CFA_XSP16 add(XSP16, 37)
        CFI Block cfiPicker131 Using cfiCommon1
        CFI (cfiPicker131) NoFunction
        CFI (cfiPicker131) Picker
        MOV     DPTR,#SendWaterGageTimeFreq
        CFI Block cfiCond132 Using cfiCommon0
        CFI (cfiCond132) NoFunction
        CFI (cfiCond132) Conditional ??CrossCallReturnLabel_60
        CFI (cfiCond132) R6 load(1, XDATA, add(CFA_XSP16, literal(-10)))
        CFI (cfiCond132) VB load(1, XDATA, add(CFA_XSP16, literal(-9)))
        CFI (cfiCond132) V0 load(1, XDATA, add(CFA_XSP16, literal(-8)))
        CFI (cfiCond132) V1 load(1, XDATA, add(CFA_XSP16, literal(-7)))
        CFI (cfiCond132) R7 load(1, XDATA, add(CFA_XSP16, literal(-6)))
        CFI (cfiCond132) ?RET_LOW load(1, XDATA, add(CFA_XSP16, literal(-5)))
        CFI (cfiCond132) ?RET_HIGH load(1, XDATA, add(CFA_XSP16, literal(-4)))
        CFI (cfiCond132) ?BRET_EXT load(1, XDATA, add(CFA_XSP16, literal(-3)))
        CFI (cfiCond132) DPL0 load(1, XDATA, add(CFA_XSP16, literal(-2)))
        CFI (cfiCond132) DPH0 load(1, XDATA, add(CFA_XSP16, literal(-1)))
        CFI (cfiCond132) CFA_SP SP+0
        CFI (cfiCond132) CFA_XSP16 add(XSP16, 11)
        CFI Block cfiCond133 Using cfiCommon0
        CFI (cfiCond133) NoFunction
        CFI (cfiCond133) Conditional ??CrossCallReturnLabel_61
        CFI (cfiCond133) R6 load(1, XDATA, add(CFA_XSP16, literal(-16)))
        CFI (cfiCond133) VB load(1, XDATA, add(CFA_XSP16, literal(-15)))
        CFI (cfiCond133) V0 load(1, XDATA, add(CFA_XSP16, literal(-14)))
        CFI (cfiCond133) V1 load(1, XDATA, add(CFA_XSP16, literal(-13)))
        CFI (cfiCond133) V2 load(1, XDATA, add(CFA_XSP16, literal(-12)))
        CFI (cfiCond133) V3 load(1, XDATA, add(CFA_XSP16, literal(-11)))
        CFI (cfiCond133) V4 load(1, XDATA, add(CFA_XSP16, literal(-10)))
        CFI (cfiCond133) V5 load(1, XDATA, add(CFA_XSP16, literal(-9)))
        CFI (cfiCond133) V6 load(1, XDATA, add(CFA_XSP16, literal(-8)))
        CFI (cfiCond133) V7 load(1, XDATA, add(CFA_XSP16, literal(-7)))
        CFI (cfiCond133) R7 load(1, XDATA, add(CFA_XSP16, literal(-6)))
        CFI (cfiCond133) ?RET_LOW load(1, XDATA, add(CFA_XSP16, literal(-5)))
        CFI (cfiCond133) ?RET_HIGH load(1, XDATA, add(CFA_XSP16, literal(-4)))
        CFI (cfiCond133) ?BRET_EXT load(1, XDATA, add(CFA_XSP16, literal(-3)))
        CFI (cfiCond133) DPL0 load(1, XDATA, add(CFA_XSP16, literal(-2)))
        CFI (cfiCond133) DPH0 load(1, XDATA, add(CFA_XSP16, literal(-1)))
        CFI (cfiCond133) CFA_SP SP+0
        CFI (cfiCond133) CFA_XSP16 add(XSP16, 17)
        CFI Block cfiCond134 Using cfiCommon0
        CFI (cfiCond134) NoFunction
        CFI (cfiCond134) Conditional ??CrossCallReturnLabel_62
        CFI (cfiCond134) R6 load(1, XDATA, add(CFA_XSP16, literal(-16)))
        CFI (cfiCond134) VB load(1, XDATA, add(CFA_XSP16, literal(-15)))
        CFI (cfiCond134) V0 load(1, XDATA, add(CFA_XSP16, literal(-14)))
        CFI (cfiCond134) V1 load(1, XDATA, add(CFA_XSP16, literal(-13)))
        CFI (cfiCond134) V2 load(1, XDATA, add(CFA_XSP16, literal(-12)))
        CFI (cfiCond134) V3 load(1, XDATA, add(CFA_XSP16, literal(-11)))
        CFI (cfiCond134) V4 load(1, XDATA, add(CFA_XSP16, literal(-10)))
        CFI (cfiCond134) V5 load(1, XDATA, add(CFA_XSP16, literal(-9)))
        CFI (cfiCond134) V6 load(1, XDATA, add(CFA_XSP16, literal(-8)))
        CFI (cfiCond134) V7 load(1, XDATA, add(CFA_XSP16, literal(-7)))
        CFI (cfiCond134) R7 load(1, XDATA, add(CFA_XSP16, literal(-6)))
        CFI (cfiCond134) ?RET_LOW load(1, XDATA, add(CFA_XSP16, literal(-5)))
        CFI (cfiCond134) ?RET_HIGH load(1, XDATA, add(CFA_XSP16, literal(-4)))
        CFI (cfiCond134) ?BRET_EXT load(1, XDATA, add(CFA_XSP16, literal(-3)))
        CFI (cfiCond134) DPL0 load(1, XDATA, add(CFA_XSP16, literal(-2)))
        CFI (cfiCond134) DPH0 load(1, XDATA, add(CFA_XSP16, literal(-1)))
        CFI (cfiCond134) CFA_SP SP+0
        CFI (cfiCond134) CFA_XSP16 add(XSP16, 17)
        CFI Block cfiCond135 Using cfiCommon0
        CFI (cfiCond135) NoFunction
        CFI (cfiCond135) Conditional ??CrossCallReturnLabel_63
        CFI (cfiCond135) R6 load(1, XDATA, add(CFA_XSP16, literal(-16)))
        CFI (cfiCond135) VB load(1, XDATA, add(CFA_XSP16, literal(-15)))
        CFI (cfiCond135) V0 load(1, XDATA, add(CFA_XSP16, literal(-14)))
        CFI (cfiCond135) V1 load(1, XDATA, add(CFA_XSP16, literal(-13)))
        CFI (cfiCond135) V2 load(1, XDATA, add(CFA_XSP16, literal(-12)))
        CFI (cfiCond135) V3 load(1, XDATA, add(CFA_XSP16, literal(-11)))
        CFI (cfiCond135) V4 load(1, XDATA, add(CFA_XSP16, literal(-10)))
        CFI (cfiCond135) V5 load(1, XDATA, add(CFA_XSP16, literal(-9)))
        CFI (cfiCond135) V6 load(1, XDATA, add(CFA_XSP16, literal(-8)))
        CFI (cfiCond135) V7 load(1, XDATA, add(CFA_XSP16, literal(-7)))
        CFI (cfiCond135) R7 load(1, XDATA, add(CFA_XSP16, literal(-6)))
        CFI (cfiCond135) ?RET_LOW load(1, XDATA, add(CFA_XSP16, literal(-5)))
        CFI (cfiCond135) ?RET_HIGH load(1, XDATA, add(CFA_XSP16, literal(-4)))
        CFI (cfiCond135) ?BRET_EXT load(1, XDATA, add(CFA_XSP16, literal(-3)))
        CFI (cfiCond135) DPL0 load(1, XDATA, add(CFA_XSP16, literal(-2)))
        CFI (cfiCond135) DPH0 load(1, XDATA, add(CFA_XSP16, literal(-1)))
        CFI (cfiCond135) CFA_SP SP+0
        CFI (cfiCond135) CFA_XSP16 add(XSP16, 37)
        CFI Block cfiCond136 Using cfiCommon0
        CFI (cfiCond136) NoFunction
        CFI (cfiCond136) Conditional ??CrossCallReturnLabel_64
        CFI (cfiCond136) R6 load(1, XDATA, add(CFA_XSP16, literal(-16)))
        CFI (cfiCond136) VB load(1, XDATA, add(CFA_XSP16, literal(-15)))
        CFI (cfiCond136) V0 load(1, XDATA, add(CFA_XSP16, literal(-14)))
        CFI (cfiCond136) V1 load(1, XDATA, add(CFA_XSP16, literal(-13)))
        CFI (cfiCond136) V2 load(1, XDATA, add(CFA_XSP16, literal(-12)))
        CFI (cfiCond136) V3 load(1, XDATA, add(CFA_XSP16, literal(-11)))
        CFI (cfiCond136) V4 load(1, XDATA, add(CFA_XSP16, literal(-10)))
        CFI (cfiCond136) V5 load(1, XDATA, add(CFA_XSP16, literal(-9)))
        CFI (cfiCond136) V6 load(1, XDATA, add(CFA_XSP16, literal(-8)))
        CFI (cfiCond136) V7 load(1, XDATA, add(CFA_XSP16, literal(-7)))
        CFI (cfiCond136) R7 load(1, XDATA, add(CFA_XSP16, literal(-6)))
        CFI (cfiCond136) ?RET_LOW load(1, XDATA, add(CFA_XSP16, literal(-5)))
        CFI (cfiCond136) ?RET_HIGH load(1, XDATA, add(CFA_XSP16, literal(-4)))
        CFI (cfiCond136) ?BRET_EXT load(1, XDATA, add(CFA_XSP16, literal(-3)))
        CFI (cfiCond136) DPL0 load(1, XDATA, add(CFA_XSP16, literal(-2)))
        CFI (cfiCond136) DPH0 load(1, XDATA, add(CFA_XSP16, literal(-1)))
        CFI (cfiCond136) CFA_SP SP+0
        CFI (cfiCond136) CFA_XSP16 add(XSP16, 37)
??Subroutine23_0:
        LCALL   ?Subroutine53 & 0xFFFF
??CrossCallReturnLabel_143:
        RET
        CFI EndBlock cfiCond129
        CFI EndBlock cfiCond130
        CFI EndBlock cfiPicker131
        CFI EndBlock cfiCond132
        CFI EndBlock cfiCond133
        CFI EndBlock cfiCond134
        CFI EndBlock cfiCond135
        CFI EndBlock cfiCond136

        RSEG BANKED_CODE:CODE:NOROOT(0)
?Subroutine53:
        CFI Block cfiCond137 Using cfiCommon0
        CFI NoFunction
        CFI Conditional ??CrossCallReturnLabel_143, ??CrossCallReturnLabel_58
        CFI R6 load(1, XDATA, add(CFA_XSP16, literal(-16)))
        CFI VB load(1, XDATA, add(CFA_XSP16, literal(-15)))
        CFI V0 load(1, XDATA, add(CFA_XSP16, literal(-14)))
        CFI V1 load(1, XDATA, add(CFA_XSP16, literal(-13)))
        CFI V2 load(1, XDATA, add(CFA_XSP16, literal(-12)))
        CFI V3 load(1, XDATA, add(CFA_XSP16, literal(-11)))
        CFI V4 load(1, XDATA, add(CFA_XSP16, literal(-10)))
        CFI V5 load(1, XDATA, add(CFA_XSP16, literal(-9)))
        CFI V6 load(1, XDATA, add(CFA_XSP16, literal(-8)))
        CFI V7 load(1, XDATA, add(CFA_XSP16, literal(-7)))
        CFI R7 load(1, XDATA, add(CFA_XSP16, literal(-6)))
        CFI ?RET_LOW load(1, XDATA, add(CFA_XSP16, literal(-5)))
        CFI ?RET_HIGH load(1, XDATA, add(CFA_XSP16, literal(-4)))
        CFI ?BRET_EXT load(1, XDATA, add(CFA_XSP16, literal(-3)))
        CFI DPL0 load(1, XDATA, add(CFA_XSP16, literal(-2)))
        CFI DPH0 load(1, XDATA, add(CFA_XSP16, literal(-1)))
        CFI CFA_SP SP+0
        CFI CFA_XSP16 add(XSP16, 17)
        CFI Block cfiCond138 Using cfiCommon0
        CFI (cfiCond138) NoFunction
        CFI (cfiCond138) Conditional ??CrossCallReturnLabel_143, ??CrossCallReturnLabel_59
        CFI (cfiCond138) R6 load(1, XDATA, add(CFA_XSP16, literal(-16)))
        CFI (cfiCond138) VB load(1, XDATA, add(CFA_XSP16, literal(-15)))
        CFI (cfiCond138) V0 load(1, XDATA, add(CFA_XSP16, literal(-14)))
        CFI (cfiCond138) V1 load(1, XDATA, add(CFA_XSP16, literal(-13)))
        CFI (cfiCond138) V2 load(1, XDATA, add(CFA_XSP16, literal(-12)))
        CFI (cfiCond138) V3 load(1, XDATA, add(CFA_XSP16, literal(-11)))
        CFI (cfiCond138) V4 load(1, XDATA, add(CFA_XSP16, literal(-10)))
        CFI (cfiCond138) V5 load(1, XDATA, add(CFA_XSP16, literal(-9)))
        CFI (cfiCond138) V6 load(1, XDATA, add(CFA_XSP16, literal(-8)))
        CFI (cfiCond138) V7 load(1, XDATA, add(CFA_XSP16, literal(-7)))
        CFI (cfiCond138) R7 load(1, XDATA, add(CFA_XSP16, literal(-6)))
        CFI (cfiCond138) ?RET_LOW load(1, XDATA, add(CFA_XSP16, literal(-5)))
        CFI (cfiCond138) ?RET_HIGH load(1, XDATA, add(CFA_XSP16, literal(-4)))
        CFI (cfiCond138) ?BRET_EXT load(1, XDATA, add(CFA_XSP16, literal(-3)))
        CFI (cfiCond138) DPL0 load(1, XDATA, add(CFA_XSP16, literal(-2)))
        CFI (cfiCond138) DPH0 load(1, XDATA, add(CFA_XSP16, literal(-1)))
        CFI (cfiCond138) CFA_SP SP+0
        CFI (cfiCond138) CFA_XSP16 add(XSP16, 37)
        CFI Block cfiCond139 Using cfiCommon0
        CFI (cfiCond139) NoFunction
        CFI (cfiCond139) Conditional ??CrossCallReturnLabel_143, ??CrossCallReturnLabel_60
        CFI (cfiCond139) R6 load(1, XDATA, add(CFA_XSP16, literal(-10)))
        CFI (cfiCond139) VB load(1, XDATA, add(CFA_XSP16, literal(-9)))
        CFI (cfiCond139) V0 load(1, XDATA, add(CFA_XSP16, literal(-8)))
        CFI (cfiCond139) V1 load(1, XDATA, add(CFA_XSP16, literal(-7)))
        CFI (cfiCond139) R7 load(1, XDATA, add(CFA_XSP16, literal(-6)))
        CFI (cfiCond139) ?RET_LOW load(1, XDATA, add(CFA_XSP16, literal(-5)))
        CFI (cfiCond139) ?RET_HIGH load(1, XDATA, add(CFA_XSP16, literal(-4)))
        CFI (cfiCond139) ?BRET_EXT load(1, XDATA, add(CFA_XSP16, literal(-3)))
        CFI (cfiCond139) DPL0 load(1, XDATA, add(CFA_XSP16, literal(-2)))
        CFI (cfiCond139) DPH0 load(1, XDATA, add(CFA_XSP16, literal(-1)))
        CFI (cfiCond139) CFA_SP SP+0
        CFI (cfiCond139) CFA_XSP16 add(XSP16, 11)
        CFI Block cfiCond140 Using cfiCommon0
        CFI (cfiCond140) NoFunction
        CFI (cfiCond140) Conditional ??CrossCallReturnLabel_143, ??CrossCallReturnLabel_61
        CFI (cfiCond140) R6 load(1, XDATA, add(CFA_XSP16, literal(-16)))
        CFI (cfiCond140) VB load(1, XDATA, add(CFA_XSP16, literal(-15)))
        CFI (cfiCond140) V0 load(1, XDATA, add(CFA_XSP16, literal(-14)))
        CFI (cfiCond140) V1 load(1, XDATA, add(CFA_XSP16, literal(-13)))
        CFI (cfiCond140) V2 load(1, XDATA, add(CFA_XSP16, literal(-12)))
        CFI (cfiCond140) V3 load(1, XDATA, add(CFA_XSP16, literal(-11)))
        CFI (cfiCond140) V4 load(1, XDATA, add(CFA_XSP16, literal(-10)))
        CFI (cfiCond140) V5 load(1, XDATA, add(CFA_XSP16, literal(-9)))
        CFI (cfiCond140) V6 load(1, XDATA, add(CFA_XSP16, literal(-8)))
        CFI (cfiCond140) V7 load(1, XDATA, add(CFA_XSP16, literal(-7)))
        CFI (cfiCond140) R7 load(1, XDATA, add(CFA_XSP16, literal(-6)))
        CFI (cfiCond140) ?RET_LOW load(1, XDATA, add(CFA_XSP16, literal(-5)))
        CFI (cfiCond140) ?RET_HIGH load(1, XDATA, add(CFA_XSP16, literal(-4)))
        CFI (cfiCond140) ?BRET_EXT load(1, XDATA, add(CFA_XSP16, literal(-3)))
        CFI (cfiCond140) DPL0 load(1, XDATA, add(CFA_XSP16, literal(-2)))
        CFI (cfiCond140) DPH0 load(1, XDATA, add(CFA_XSP16, literal(-1)))
        CFI (cfiCond140) CFA_SP SP+0
        CFI (cfiCond140) CFA_XSP16 add(XSP16, 17)
        CFI Block cfiCond141 Using cfiCommon0
        CFI (cfiCond141) NoFunction
        CFI (cfiCond141) Conditional ??CrossCallReturnLabel_143, ??CrossCallReturnLabel_62
        CFI (cfiCond141) R6 load(1, XDATA, add(CFA_XSP16, literal(-16)))
        CFI (cfiCond141) VB load(1, XDATA, add(CFA_XSP16, literal(-15)))
        CFI (cfiCond141) V0 load(1, XDATA, add(CFA_XSP16, literal(-14)))
        CFI (cfiCond141) V1 load(1, XDATA, add(CFA_XSP16, literal(-13)))
        CFI (cfiCond141) V2 load(1, XDATA, add(CFA_XSP16, literal(-12)))
        CFI (cfiCond141) V3 load(1, XDATA, add(CFA_XSP16, literal(-11)))
        CFI (cfiCond141) V4 load(1, XDATA, add(CFA_XSP16, literal(-10)))
        CFI (cfiCond141) V5 load(1, XDATA, add(CFA_XSP16, literal(-9)))
        CFI (cfiCond141) V6 load(1, XDATA, add(CFA_XSP16, literal(-8)))
        CFI (cfiCond141) V7 load(1, XDATA, add(CFA_XSP16, literal(-7)))
        CFI (cfiCond141) R7 load(1, XDATA, add(CFA_XSP16, literal(-6)))
        CFI (cfiCond141) ?RET_LOW load(1, XDATA, add(CFA_XSP16, literal(-5)))
        CFI (cfiCond141) ?RET_HIGH load(1, XDATA, add(CFA_XSP16, literal(-4)))
        CFI (cfiCond141) ?BRET_EXT load(1, XDATA, add(CFA_XSP16, literal(-3)))
        CFI (cfiCond141) DPL0 load(1, XDATA, add(CFA_XSP16, literal(-2)))
        CFI (cfiCond141) DPH0 load(1, XDATA, add(CFA_XSP16, literal(-1)))
        CFI (cfiCond141) CFA_SP SP+0
        CFI (cfiCond141) CFA_XSP16 add(XSP16, 17)
        CFI Block cfiCond142 Using cfiCommon0
        CFI (cfiCond142) NoFunction
        CFI (cfiCond142) Conditional ??CrossCallReturnLabel_143, ??CrossCallReturnLabel_63
        CFI (cfiCond142) R6 load(1, XDATA, add(CFA_XSP16, literal(-16)))
        CFI (cfiCond142) VB load(1, XDATA, add(CFA_XSP16, literal(-15)))
        CFI (cfiCond142) V0 load(1, XDATA, add(CFA_XSP16, literal(-14)))
        CFI (cfiCond142) V1 load(1, XDATA, add(CFA_XSP16, literal(-13)))
        CFI (cfiCond142) V2 load(1, XDATA, add(CFA_XSP16, literal(-12)))
        CFI (cfiCond142) V3 load(1, XDATA, add(CFA_XSP16, literal(-11)))
        CFI (cfiCond142) V4 load(1, XDATA, add(CFA_XSP16, literal(-10)))
        CFI (cfiCond142) V5 load(1, XDATA, add(CFA_XSP16, literal(-9)))
        CFI (cfiCond142) V6 load(1, XDATA, add(CFA_XSP16, literal(-8)))
        CFI (cfiCond142) V7 load(1, XDATA, add(CFA_XSP16, literal(-7)))
        CFI (cfiCond142) R7 load(1, XDATA, add(CFA_XSP16, literal(-6)))
        CFI (cfiCond142) ?RET_LOW load(1, XDATA, add(CFA_XSP16, literal(-5)))
        CFI (cfiCond142) ?RET_HIGH load(1, XDATA, add(CFA_XSP16, literal(-4)))
        CFI (cfiCond142) ?BRET_EXT load(1, XDATA, add(CFA_XSP16, literal(-3)))
        CFI (cfiCond142) DPL0 load(1, XDATA, add(CFA_XSP16, literal(-2)))
        CFI (cfiCond142) DPH0 load(1, XDATA, add(CFA_XSP16, literal(-1)))
        CFI (cfiCond142) CFA_SP SP+0
        CFI (cfiCond142) CFA_XSP16 add(XSP16, 37)
        CFI Block cfiCond143 Using cfiCommon0
        CFI (cfiCond143) NoFunction
        CFI (cfiCond143) Conditional ??CrossCallReturnLabel_143, ??CrossCallReturnLabel_64
        CFI (cfiCond143) R6 load(1, XDATA, add(CFA_XSP16, literal(-16)))
        CFI (cfiCond143) VB load(1, XDATA, add(CFA_XSP16, literal(-15)))
        CFI (cfiCond143) V0 load(1, XDATA, add(CFA_XSP16, literal(-14)))
        CFI (cfiCond143) V1 load(1, XDATA, add(CFA_XSP16, literal(-13)))
        CFI (cfiCond143) V2 load(1, XDATA, add(CFA_XSP16, literal(-12)))
        CFI (cfiCond143) V3 load(1, XDATA, add(CFA_XSP16, literal(-11)))
        CFI (cfiCond143) V4 load(1, XDATA, add(CFA_XSP16, literal(-10)))
        CFI (cfiCond143) V5 load(1, XDATA, add(CFA_XSP16, literal(-9)))
        CFI (cfiCond143) V6 load(1, XDATA, add(CFA_XSP16, literal(-8)))
        CFI (cfiCond143) V7 load(1, XDATA, add(CFA_XSP16, literal(-7)))
        CFI (cfiCond143) R7 load(1, XDATA, add(CFA_XSP16, literal(-6)))
        CFI (cfiCond143) ?RET_LOW load(1, XDATA, add(CFA_XSP16, literal(-5)))
        CFI (cfiCond143) ?RET_HIGH load(1, XDATA, add(CFA_XSP16, literal(-4)))
        CFI (cfiCond143) ?BRET_EXT load(1, XDATA, add(CFA_XSP16, literal(-3)))
        CFI (cfiCond143) DPL0 load(1, XDATA, add(CFA_XSP16, literal(-2)))
        CFI (cfiCond143) DPH0 load(1, XDATA, add(CFA_XSP16, literal(-1)))
        CFI (cfiCond143) CFA_SP SP+0
        CFI (cfiCond143) CFA_XSP16 add(XSP16, 37)
        CFI Block cfiCond144 Using cfiCommon0
        CFI (cfiCond144) NoFunction
        CFI (cfiCond144) Conditional ??CrossCallReturnLabel_144, ??CrossCallReturnLabel_192
        CFI (cfiCond144) R6 load(1, XDATA, add(CFA_XSP16, literal(-10)))
        CFI (cfiCond144) VB load(1, XDATA, add(CFA_XSP16, literal(-9)))
        CFI (cfiCond144) V0 load(1, XDATA, add(CFA_XSP16, literal(-8)))
        CFI (cfiCond144) V1 load(1, XDATA, add(CFA_XSP16, literal(-7)))
        CFI (cfiCond144) R7 load(1, XDATA, add(CFA_XSP16, literal(-6)))
        CFI (cfiCond144) ?RET_LOW load(1, XDATA, add(CFA_XSP16, literal(-5)))
        CFI (cfiCond144) ?RET_HIGH load(1, XDATA, add(CFA_XSP16, literal(-4)))
        CFI (cfiCond144) ?BRET_EXT load(1, XDATA, add(CFA_XSP16, literal(-3)))
        CFI (cfiCond144) DPL0 load(1, XDATA, add(CFA_XSP16, literal(-2)))
        CFI (cfiCond144) DPH0 load(1, XDATA, add(CFA_XSP16, literal(-1)))
        CFI (cfiCond144) CFA_SP SP+0
        CFI (cfiCond144) CFA_XSP16 add(XSP16, 11)
        CFI Block cfiCond145 Using cfiCommon0
        CFI (cfiCond145) NoFunction
        CFI (cfiCond145) Conditional ??CrossCallReturnLabel_144, ??CrossCallReturnLabel_193
        CFI (cfiCond145) R6 load(1, XDATA, add(CFA_XSP16, literal(-16)))
        CFI (cfiCond145) VB load(1, XDATA, add(CFA_XSP16, literal(-15)))
        CFI (cfiCond145) V0 load(1, XDATA, add(CFA_XSP16, literal(-14)))
        CFI (cfiCond145) V1 load(1, XDATA, add(CFA_XSP16, literal(-13)))
        CFI (cfiCond145) V2 load(1, XDATA, add(CFA_XSP16, literal(-12)))
        CFI (cfiCond145) V3 load(1, XDATA, add(CFA_XSP16, literal(-11)))
        CFI (cfiCond145) V4 load(1, XDATA, add(CFA_XSP16, literal(-10)))
        CFI (cfiCond145) V5 load(1, XDATA, add(CFA_XSP16, literal(-9)))
        CFI (cfiCond145) V6 load(1, XDATA, add(CFA_XSP16, literal(-8)))
        CFI (cfiCond145) V7 load(1, XDATA, add(CFA_XSP16, literal(-7)))
        CFI (cfiCond145) R7 load(1, XDATA, add(CFA_XSP16, literal(-6)))
        CFI (cfiCond145) ?RET_LOW load(1, XDATA, add(CFA_XSP16, literal(-5)))
        CFI (cfiCond145) ?RET_HIGH load(1, XDATA, add(CFA_XSP16, literal(-4)))
        CFI (cfiCond145) ?BRET_EXT load(1, XDATA, add(CFA_XSP16, literal(-3)))
        CFI (cfiCond145) DPL0 load(1, XDATA, add(CFA_XSP16, literal(-2)))
        CFI (cfiCond145) DPH0 load(1, XDATA, add(CFA_XSP16, literal(-1)))
        CFI (cfiCond145) CFA_SP SP+0
        CFI (cfiCond145) CFA_XSP16 add(XSP16, 17)
        CFI Block cfiPicker146 Using cfiCommon1
        CFI (cfiPicker146) NoFunction
        CFI (cfiPicker146) Picker
        MOVX    A,@DPTR
        MOV     R2,A
        INC     DPTR
        MOVX    A,@DPTR
        MOV     R3,A
        LCALL   ??HalUARTWrite_uint16?relay
        RET
        CFI EndBlock cfiCond137
        CFI EndBlock cfiCond138
        CFI EndBlock cfiCond139
        CFI EndBlock cfiCond140
        CFI EndBlock cfiCond141
        CFI EndBlock cfiCond142
        CFI EndBlock cfiCond143
        CFI EndBlock cfiCond144
        CFI EndBlock cfiCond145
        CFI EndBlock cfiPicker146

        RSEG BANKED_CODE:CODE:NOROOT(0)
?Subroutine22:
        CFI Block cfiCond147 Using cfiCommon0
        CFI NoFunction
        CFI Conditional ??CrossCallReturnLabel_192
        CFI R6 load(1, XDATA, add(CFA_XSP16, literal(-10)))
        CFI VB load(1, XDATA, add(CFA_XSP16, literal(-9)))
        CFI V0 load(1, XDATA, add(CFA_XSP16, literal(-8)))
        CFI V1 load(1, XDATA, add(CFA_XSP16, literal(-7)))
        CFI R7 load(1, XDATA, add(CFA_XSP16, literal(-6)))
        CFI ?RET_LOW load(1, XDATA, add(CFA_XSP16, literal(-5)))
        CFI ?RET_HIGH load(1, XDATA, add(CFA_XSP16, literal(-4)))
        CFI ?BRET_EXT load(1, XDATA, add(CFA_XSP16, literal(-3)))
        CFI DPL0 load(1, XDATA, add(CFA_XSP16, literal(-2)))
        CFI DPH0 load(1, XDATA, add(CFA_XSP16, literal(-1)))
        CFI CFA_SP SP+0
        CFI CFA_XSP16 add(XSP16, 11)
        CFI Block cfiCond148 Using cfiCommon0
        CFI (cfiCond148) NoFunction
        CFI (cfiCond148) Conditional ??CrossCallReturnLabel_193
        CFI (cfiCond148) R6 load(1, XDATA, add(CFA_XSP16, literal(-16)))
        CFI (cfiCond148) VB load(1, XDATA, add(CFA_XSP16, literal(-15)))
        CFI (cfiCond148) V0 load(1, XDATA, add(CFA_XSP16, literal(-14)))
        CFI (cfiCond148) V1 load(1, XDATA, add(CFA_XSP16, literal(-13)))
        CFI (cfiCond148) V2 load(1, XDATA, add(CFA_XSP16, literal(-12)))
        CFI (cfiCond148) V3 load(1, XDATA, add(CFA_XSP16, literal(-11)))
        CFI (cfiCond148) V4 load(1, XDATA, add(CFA_XSP16, literal(-10)))
        CFI (cfiCond148) V5 load(1, XDATA, add(CFA_XSP16, literal(-9)))
        CFI (cfiCond148) V6 load(1, XDATA, add(CFA_XSP16, literal(-8)))
        CFI (cfiCond148) V7 load(1, XDATA, add(CFA_XSP16, literal(-7)))
        CFI (cfiCond148) R7 load(1, XDATA, add(CFA_XSP16, literal(-6)))
        CFI (cfiCond148) ?RET_LOW load(1, XDATA, add(CFA_XSP16, literal(-5)))
        CFI (cfiCond148) ?RET_HIGH load(1, XDATA, add(CFA_XSP16, literal(-4)))
        CFI (cfiCond148) ?BRET_EXT load(1, XDATA, add(CFA_XSP16, literal(-3)))
        CFI (cfiCond148) DPL0 load(1, XDATA, add(CFA_XSP16, literal(-2)))
        CFI (cfiCond148) DPH0 load(1, XDATA, add(CFA_XSP16, literal(-1)))
        CFI (cfiCond148) CFA_SP SP+0
        CFI (cfiCond148) CFA_XSP16 add(XSP16, 17)
        CFI Block cfiPicker149 Using cfiCommon1
        CFI (cfiPicker149) NoFunction
        CFI (cfiPicker149) Picker
        LCALL   ?Subroutine53 & 0xFFFF
        CFI EndBlock cfiCond147
        CFI EndBlock cfiCond148
        CFI EndBlock cfiPicker149
??CrossCallReturnLabel_144:
        ; Setup parameters for call to function HalUARTWrite
        ; Setup parameters for call to function HalUARTWrite
        REQUIRE ?Subroutine66
        ; // Fall through to label ?Subroutine66

        RSEG BANKED_CODE:CODE:NOROOT(0)
?Subroutine66:
        CFI Block cfiCond150 Using cfiCommon0
        CFI NoFunction
        CFI Conditional ??CrossCallReturnLabel_197
        CFI R6 load(1, XDATA, add(CFA_XSP16, literal(-12)))
        CFI VB load(1, XDATA, add(CFA_XSP16, literal(-11)))
        CFI V0 load(1, XDATA, add(CFA_XSP16, literal(-10)))
        CFI V1 load(1, XDATA, add(CFA_XSP16, literal(-9)))
        CFI V2 load(1, XDATA, add(CFA_XSP16, literal(-8)))
        CFI V3 load(1, XDATA, add(CFA_XSP16, literal(-7)))
        CFI R7 load(1, XDATA, add(CFA_XSP16, literal(-6)))
        CFI ?RET_LOW load(1, XDATA, add(CFA_XSP16, literal(-5)))
        CFI ?RET_HIGH load(1, XDATA, add(CFA_XSP16, literal(-4)))
        CFI ?BRET_EXT load(1, XDATA, add(CFA_XSP16, literal(-3)))
        CFI DPL0 load(1, XDATA, add(CFA_XSP16, literal(-2)))
        CFI DPH0 load(1, XDATA, add(CFA_XSP16, literal(-1)))
        CFI CFA_SP SP+0
        CFI CFA_XSP16 add(XSP16, 23)
        CFI Block cfiCond151 Using cfiCommon0
        CFI (cfiCond151) NoFunction
        CFI (cfiCond151) Conditional ??CrossCallReturnLabel_198
        CFI (cfiCond151) R6 load(1, XDATA, add(CFA_XSP16, literal(-12)))
        CFI (cfiCond151) VB load(1, XDATA, add(CFA_XSP16, literal(-11)))
        CFI (cfiCond151) V0 load(1, XDATA, add(CFA_XSP16, literal(-10)))
        CFI (cfiCond151) V1 load(1, XDATA, add(CFA_XSP16, literal(-9)))
        CFI (cfiCond151) V2 load(1, XDATA, add(CFA_XSP16, literal(-8)))
        CFI (cfiCond151) V3 load(1, XDATA, add(CFA_XSP16, literal(-7)))
        CFI (cfiCond151) R7 load(1, XDATA, add(CFA_XSP16, literal(-6)))
        CFI (cfiCond151) ?RET_LOW load(1, XDATA, add(CFA_XSP16, literal(-5)))
        CFI (cfiCond151) ?RET_HIGH load(1, XDATA, add(CFA_XSP16, literal(-4)))
        CFI (cfiCond151) ?BRET_EXT load(1, XDATA, add(CFA_XSP16, literal(-3)))
        CFI (cfiCond151) DPL0 load(1, XDATA, add(CFA_XSP16, literal(-2)))
        CFI (cfiCond151) DPH0 load(1, XDATA, add(CFA_XSP16, literal(-1)))
        CFI (cfiCond151) CFA_SP SP+0
        CFI (cfiCond151) CFA_XSP16 add(XSP16, 23)
        CFI Block cfiCond152 Using cfiCommon0
        CFI (cfiCond152) NoFunction
        CFI (cfiCond152) Conditional ??CrossCallReturnLabel_194, ??CrossCallReturnLabel_99
        CFI (cfiCond152) R6 load(1, XDATA, add(CFA_XSP16, literal(-10)))
        CFI (cfiCond152) VB load(1, XDATA, add(CFA_XSP16, literal(-9)))
        CFI (cfiCond152) V0 load(1, XDATA, add(CFA_XSP16, literal(-8)))
        CFI (cfiCond152) V1 load(1, XDATA, add(CFA_XSP16, literal(-7)))
        CFI (cfiCond152) R7 load(1, XDATA, add(CFA_XSP16, literal(-6)))
        CFI (cfiCond152) ?RET_LOW load(1, XDATA, add(CFA_XSP16, literal(-5)))
        CFI (cfiCond152) ?RET_HIGH load(1, XDATA, add(CFA_XSP16, literal(-4)))
        CFI (cfiCond152) ?BRET_EXT load(1, XDATA, add(CFA_XSP16, literal(-3)))
        CFI (cfiCond152) DPL0 load(1, XDATA, add(CFA_XSP16, literal(-2)))
        CFI (cfiCond152) DPH0 load(1, XDATA, add(CFA_XSP16, literal(-1)))
        CFI (cfiCond152) CFA_SP SP+0
        CFI (cfiCond152) CFA_XSP16 add(XSP16, 11)
        CFI Block cfiCond153 Using cfiCommon0
        CFI (cfiCond153) NoFunction
        CFI (cfiCond153) Conditional ??CrossCallReturnLabel_194, ??CrossCallReturnLabel_100
        CFI (cfiCond153) R6 load(1, XDATA, add(CFA_XSP16, literal(-10)))
        CFI (cfiCond153) VB load(1, XDATA, add(CFA_XSP16, literal(-9)))
        CFI (cfiCond153) V0 load(1, XDATA, add(CFA_XSP16, literal(-8)))
        CFI (cfiCond153) V1 load(1, XDATA, add(CFA_XSP16, literal(-7)))
        CFI (cfiCond153) R7 load(1, XDATA, add(CFA_XSP16, literal(-6)))
        CFI (cfiCond153) ?RET_LOW load(1, XDATA, add(CFA_XSP16, literal(-5)))
        CFI (cfiCond153) ?RET_HIGH load(1, XDATA, add(CFA_XSP16, literal(-4)))
        CFI (cfiCond153) ?BRET_EXT load(1, XDATA, add(CFA_XSP16, literal(-3)))
        CFI (cfiCond153) DPL0 load(1, XDATA, add(CFA_XSP16, literal(-2)))
        CFI (cfiCond153) DPH0 load(1, XDATA, add(CFA_XSP16, literal(-1)))
        CFI (cfiCond153) CFA_SP SP+0
        CFI (cfiCond153) CFA_XSP16 add(XSP16, 11)
        CFI Block cfiCond154 Using cfiCommon0
        CFI (cfiCond154) NoFunction
        CFI (cfiCond154) Conditional ??CrossCallReturnLabel_194, ??CrossCallReturnLabel_101
        CFI (cfiCond154) R6 load(1, XDATA, add(CFA_XSP16, literal(-10)))
        CFI (cfiCond154) VB load(1, XDATA, add(CFA_XSP16, literal(-9)))
        CFI (cfiCond154) V0 load(1, XDATA, add(CFA_XSP16, literal(-8)))
        CFI (cfiCond154) V1 load(1, XDATA, add(CFA_XSP16, literal(-7)))
        CFI (cfiCond154) R7 load(1, XDATA, add(CFA_XSP16, literal(-6)))
        CFI (cfiCond154) ?RET_LOW load(1, XDATA, add(CFA_XSP16, literal(-5)))
        CFI (cfiCond154) ?RET_HIGH load(1, XDATA, add(CFA_XSP16, literal(-4)))
        CFI (cfiCond154) ?BRET_EXT load(1, XDATA, add(CFA_XSP16, literal(-3)))
        CFI (cfiCond154) DPL0 load(1, XDATA, add(CFA_XSP16, literal(-2)))
        CFI (cfiCond154) DPH0 load(1, XDATA, add(CFA_XSP16, literal(-1)))
        CFI (cfiCond154) CFA_SP SP+0
        CFI (cfiCond154) CFA_XSP16 add(XSP16, 11)
        CFI Block cfiCond155 Using cfiCommon0
        CFI (cfiCond155) NoFunction
        CFI (cfiCond155) Conditional ??CrossCallReturnLabel_194, ??CrossCallReturnLabel_102
        CFI (cfiCond155) R6 load(1, XDATA, add(CFA_XSP16, literal(-10)))
        CFI (cfiCond155) VB load(1, XDATA, add(CFA_XSP16, literal(-9)))
        CFI (cfiCond155) V0 load(1, XDATA, add(CFA_XSP16, literal(-8)))
        CFI (cfiCond155) V1 load(1, XDATA, add(CFA_XSP16, literal(-7)))
        CFI (cfiCond155) R7 load(1, XDATA, add(CFA_XSP16, literal(-6)))
        CFI (cfiCond155) ?RET_LOW load(1, XDATA, add(CFA_XSP16, literal(-5)))
        CFI (cfiCond155) ?RET_HIGH load(1, XDATA, add(CFA_XSP16, literal(-4)))
        CFI (cfiCond155) ?BRET_EXT load(1, XDATA, add(CFA_XSP16, literal(-3)))
        CFI (cfiCond155) DPL0 load(1, XDATA, add(CFA_XSP16, literal(-2)))
        CFI (cfiCond155) DPH0 load(1, XDATA, add(CFA_XSP16, literal(-1)))
        CFI (cfiCond155) CFA_SP SP+0
        CFI (cfiCond155) CFA_XSP16 add(XSP16, 11)
        CFI Block cfiCond156 Using cfiCommon0
        CFI (cfiCond156) NoFunction
        CFI (cfiCond156) Conditional ??CrossCallReturnLabel_194, ??CrossCallReturnLabel_103
        CFI (cfiCond156) R6 load(1, XDATA, add(CFA_XSP16, literal(-10)))
        CFI (cfiCond156) VB load(1, XDATA, add(CFA_XSP16, literal(-9)))
        CFI (cfiCond156) V0 load(1, XDATA, add(CFA_XSP16, literal(-8)))
        CFI (cfiCond156) V1 load(1, XDATA, add(CFA_XSP16, literal(-7)))
        CFI (cfiCond156) R7 load(1, XDATA, add(CFA_XSP16, literal(-6)))
        CFI (cfiCond156) ?RET_LOW load(1, XDATA, add(CFA_XSP16, literal(-5)))
        CFI (cfiCond156) ?RET_HIGH load(1, XDATA, add(CFA_XSP16, literal(-4)))
        CFI (cfiCond156) ?BRET_EXT load(1, XDATA, add(CFA_XSP16, literal(-3)))
        CFI (cfiCond156) DPL0 load(1, XDATA, add(CFA_XSP16, literal(-2)))
        CFI (cfiCond156) DPH0 load(1, XDATA, add(CFA_XSP16, literal(-1)))
        CFI (cfiCond156) CFA_SP SP+0
        CFI (cfiCond156) CFA_XSP16 add(XSP16, 11)
        CFI Block cfiCond157 Using cfiCommon0
        CFI (cfiCond157) NoFunction
        CFI (cfiCond157) Conditional ??CrossCallReturnLabel_195
        CFI (cfiCond157) R6 load(1, XDATA, add(CFA_XSP16, literal(-16)))
        CFI (cfiCond157) VB load(1, XDATA, add(CFA_XSP16, literal(-15)))
        CFI (cfiCond157) V0 load(1, XDATA, add(CFA_XSP16, literal(-14)))
        CFI (cfiCond157) V1 load(1, XDATA, add(CFA_XSP16, literal(-13)))
        CFI (cfiCond157) V2 load(1, XDATA, add(CFA_XSP16, literal(-12)))
        CFI (cfiCond157) V3 load(1, XDATA, add(CFA_XSP16, literal(-11)))
        CFI (cfiCond157) V4 load(1, XDATA, add(CFA_XSP16, literal(-10)))
        CFI (cfiCond157) V5 load(1, XDATA, add(CFA_XSP16, literal(-9)))
        CFI (cfiCond157) V6 load(1, XDATA, add(CFA_XSP16, literal(-8)))
        CFI (cfiCond157) V7 load(1, XDATA, add(CFA_XSP16, literal(-7)))
        CFI (cfiCond157) R7 load(1, XDATA, add(CFA_XSP16, literal(-6)))
        CFI (cfiCond157) ?RET_LOW load(1, XDATA, add(CFA_XSP16, literal(-5)))
        CFI (cfiCond157) ?RET_HIGH load(1, XDATA, add(CFA_XSP16, literal(-4)))
        CFI (cfiCond157) ?BRET_EXT load(1, XDATA, add(CFA_XSP16, literal(-3)))
        CFI (cfiCond157) DPL0 load(1, XDATA, add(CFA_XSP16, literal(-2)))
        CFI (cfiCond157) DPH0 load(1, XDATA, add(CFA_XSP16, literal(-1)))
        CFI (cfiCond157) CFA_SP SP+0
        CFI (cfiCond157) CFA_XSP16 add(XSP16, 17)
        CFI Block cfiCond158 Using cfiCommon0
        CFI (cfiCond158) NoFunction
        CFI (cfiCond158) Conditional ??CrossCallReturnLabel_196, ??CrossCallReturnLabel_161
        CFI (cfiCond158) R6 load(1, XDATA, add(CFA_XSP16, literal(-10)))
        CFI (cfiCond158) VB load(1, XDATA, add(CFA_XSP16, literal(-9)))
        CFI (cfiCond158) V0 load(1, XDATA, add(CFA_XSP16, literal(-8)))
        CFI (cfiCond158) V1 load(1, XDATA, add(CFA_XSP16, literal(-7)))
        CFI (cfiCond158) R7 load(1, XDATA, add(CFA_XSP16, literal(-6)))
        CFI (cfiCond158) ?RET_LOW load(1, XDATA, add(CFA_XSP16, literal(-5)))
        CFI (cfiCond158) ?RET_HIGH load(1, XDATA, add(CFA_XSP16, literal(-4)))
        CFI (cfiCond158) ?BRET_EXT load(1, XDATA, add(CFA_XSP16, literal(-3)))
        CFI (cfiCond158) DPL0 load(1, XDATA, add(CFA_XSP16, literal(-2)))
        CFI (cfiCond158) DPH0 load(1, XDATA, add(CFA_XSP16, literal(-1)))
        CFI (cfiCond158) CFA_SP SP+0
        CFI (cfiCond158) CFA_XSP16 add(XSP16, 11)
        CFI Block cfiCond159 Using cfiCommon0
        CFI (cfiCond159) NoFunction
        CFI (cfiCond159) Conditional ??CrossCallReturnLabel_196, ??CrossCallReturnLabel_162
        CFI (cfiCond159) R6 load(1, XDATA, add(CFA_XSP16, literal(-11)))
        CFI (cfiCond159) VB load(1, XDATA, add(CFA_XSP16, literal(-10)))
        CFI (cfiCond159) V0 load(1, XDATA, add(CFA_XSP16, literal(-9)))
        CFI (cfiCond159) V1 load(1, XDATA, add(CFA_XSP16, literal(-8)))
        CFI (cfiCond159) V2 load(1, XDATA, add(CFA_XSP16, literal(-7)))
        CFI (cfiCond159) R7 load(1, XDATA, add(CFA_XSP16, literal(-6)))
        CFI (cfiCond159) ?RET_LOW load(1, XDATA, add(CFA_XSP16, literal(-5)))
        CFI (cfiCond159) ?RET_HIGH load(1, XDATA, add(CFA_XSP16, literal(-4)))
        CFI (cfiCond159) ?BRET_EXT load(1, XDATA, add(CFA_XSP16, literal(-3)))
        CFI (cfiCond159) DPL0 load(1, XDATA, add(CFA_XSP16, literal(-2)))
        CFI (cfiCond159) DPH0 load(1, XDATA, add(CFA_XSP16, literal(-1)))
        CFI (cfiCond159) CFA_SP SP+0
        CFI (cfiCond159) CFA_XSP16 add(XSP16, 17)
        CFI Block cfiCond160 Using cfiCommon0
        CFI (cfiCond160) NoFunction
        CFI (cfiCond160) Conditional ??CrossCallReturnLabel_192
        CFI (cfiCond160) R6 load(1, XDATA, add(CFA_XSP16, literal(-10)))
        CFI (cfiCond160) VB load(1, XDATA, add(CFA_XSP16, literal(-9)))
        CFI (cfiCond160) V0 load(1, XDATA, add(CFA_XSP16, literal(-8)))
        CFI (cfiCond160) V1 load(1, XDATA, add(CFA_XSP16, literal(-7)))
        CFI (cfiCond160) R7 load(1, XDATA, add(CFA_XSP16, literal(-6)))
        CFI (cfiCond160) ?RET_LOW load(1, XDATA, add(CFA_XSP16, literal(-5)))
        CFI (cfiCond160) ?RET_HIGH load(1, XDATA, add(CFA_XSP16, literal(-4)))
        CFI (cfiCond160) ?BRET_EXT load(1, XDATA, add(CFA_XSP16, literal(-3)))
        CFI (cfiCond160) DPL0 load(1, XDATA, add(CFA_XSP16, literal(-2)))
        CFI (cfiCond160) DPH0 load(1, XDATA, add(CFA_XSP16, literal(-1)))
        CFI (cfiCond160) CFA_SP SP+0
        CFI (cfiCond160) CFA_XSP16 add(XSP16, 11)
        CFI Block cfiCond161 Using cfiCommon0
        CFI (cfiCond161) NoFunction
        CFI (cfiCond161) Conditional ??CrossCallReturnLabel_193
        CFI (cfiCond161) R6 load(1, XDATA, add(CFA_XSP16, literal(-16)))
        CFI (cfiCond161) VB load(1, XDATA, add(CFA_XSP16, literal(-15)))
        CFI (cfiCond161) V0 load(1, XDATA, add(CFA_XSP16, literal(-14)))
        CFI (cfiCond161) V1 load(1, XDATA, add(CFA_XSP16, literal(-13)))
        CFI (cfiCond161) V2 load(1, XDATA, add(CFA_XSP16, literal(-12)))
        CFI (cfiCond161) V3 load(1, XDATA, add(CFA_XSP16, literal(-11)))
        CFI (cfiCond161) V4 load(1, XDATA, add(CFA_XSP16, literal(-10)))
        CFI (cfiCond161) V5 load(1, XDATA, add(CFA_XSP16, literal(-9)))
        CFI (cfiCond161) V6 load(1, XDATA, add(CFA_XSP16, literal(-8)))
        CFI (cfiCond161) V7 load(1, XDATA, add(CFA_XSP16, literal(-7)))
        CFI (cfiCond161) R7 load(1, XDATA, add(CFA_XSP16, literal(-6)))
        CFI (cfiCond161) ?RET_LOW load(1, XDATA, add(CFA_XSP16, literal(-5)))
        CFI (cfiCond161) ?RET_HIGH load(1, XDATA, add(CFA_XSP16, literal(-4)))
        CFI (cfiCond161) ?BRET_EXT load(1, XDATA, add(CFA_XSP16, literal(-3)))
        CFI (cfiCond161) DPL0 load(1, XDATA, add(CFA_XSP16, literal(-2)))
        CFI (cfiCond161) DPH0 load(1, XDATA, add(CFA_XSP16, literal(-1)))
        CFI (cfiCond161) CFA_SP SP+0
        CFI (cfiCond161) CFA_XSP16 add(XSP16, 17)
        CFI Block cfiCond162 Using cfiCommon0
        CFI (cfiCond162) NoFunction
        CFI (cfiCond162) Conditional ??CrossCallReturnLabel_186
        CFI (cfiCond162) R6 load(1, XDATA, add(CFA_XSP16, literal(-16)))
        CFI (cfiCond162) VB load(1, XDATA, add(CFA_XSP16, literal(-15)))
        CFI (cfiCond162) V0 load(1, XDATA, add(CFA_XSP16, literal(-14)))
        CFI (cfiCond162) V1 load(1, XDATA, add(CFA_XSP16, literal(-13)))
        CFI (cfiCond162) V2 load(1, XDATA, add(CFA_XSP16, literal(-12)))
        CFI (cfiCond162) V3 load(1, XDATA, add(CFA_XSP16, literal(-11)))
        CFI (cfiCond162) V4 load(1, XDATA, add(CFA_XSP16, literal(-10)))
        CFI (cfiCond162) V5 load(1, XDATA, add(CFA_XSP16, literal(-9)))
        CFI (cfiCond162) V6 load(1, XDATA, add(CFA_XSP16, literal(-8)))
        CFI (cfiCond162) V7 load(1, XDATA, add(CFA_XSP16, literal(-7)))
        CFI (cfiCond162) R7 load(1, XDATA, add(CFA_XSP16, literal(-6)))
        CFI (cfiCond162) ?RET_LOW load(1, XDATA, add(CFA_XSP16, literal(-5)))
        CFI (cfiCond162) ?RET_HIGH load(1, XDATA, add(CFA_XSP16, literal(-4)))
        CFI (cfiCond162) ?BRET_EXT load(1, XDATA, add(CFA_XSP16, literal(-3)))
        CFI (cfiCond162) DPL0 load(1, XDATA, add(CFA_XSP16, literal(-2)))
        CFI (cfiCond162) DPH0 load(1, XDATA, add(CFA_XSP16, literal(-1)))
        CFI (cfiCond162) CFA_SP SP+0
        CFI (cfiCond162) CFA_XSP16 add(XSP16, 37)
        CFI Block cfiCond163 Using cfiCommon0
        CFI (cfiCond163) NoFunction
        CFI (cfiCond163) Conditional ??CrossCallReturnLabel_187
        CFI (cfiCond163) R6 load(1, XDATA, add(CFA_XSP16, literal(-16)))
        CFI (cfiCond163) VB load(1, XDATA, add(CFA_XSP16, literal(-15)))
        CFI (cfiCond163) V0 load(1, XDATA, add(CFA_XSP16, literal(-14)))
        CFI (cfiCond163) V1 load(1, XDATA, add(CFA_XSP16, literal(-13)))
        CFI (cfiCond163) V2 load(1, XDATA, add(CFA_XSP16, literal(-12)))
        CFI (cfiCond163) V3 load(1, XDATA, add(CFA_XSP16, literal(-11)))
        CFI (cfiCond163) V4 load(1, XDATA, add(CFA_XSP16, literal(-10)))
        CFI (cfiCond163) V5 load(1, XDATA, add(CFA_XSP16, literal(-9)))
        CFI (cfiCond163) V6 load(1, XDATA, add(CFA_XSP16, literal(-8)))
        CFI (cfiCond163) V7 load(1, XDATA, add(CFA_XSP16, literal(-7)))
        CFI (cfiCond163) R7 load(1, XDATA, add(CFA_XSP16, literal(-6)))
        CFI (cfiCond163) ?RET_LOW load(1, XDATA, add(CFA_XSP16, literal(-5)))
        CFI (cfiCond163) ?RET_HIGH load(1, XDATA, add(CFA_XSP16, literal(-4)))
        CFI (cfiCond163) ?BRET_EXT load(1, XDATA, add(CFA_XSP16, literal(-3)))
        CFI (cfiCond163) DPL0 load(1, XDATA, add(CFA_XSP16, literal(-2)))
        CFI (cfiCond163) DPH0 load(1, XDATA, add(CFA_XSP16, literal(-1)))
        CFI (cfiCond163) CFA_SP SP+0
        CFI (cfiCond163) CFA_XSP16 add(XSP16, 37)
        CFI Block cfiCond164 Using cfiCommon0
        CFI (cfiCond164) NoFunction
        CFI (cfiCond164) Conditional ??CrossCallReturnLabel_188
        CFI (cfiCond164) R6 load(1, XDATA, add(CFA_XSP16, literal(-16)))
        CFI (cfiCond164) VB load(1, XDATA, add(CFA_XSP16, literal(-15)))
        CFI (cfiCond164) V0 load(1, XDATA, add(CFA_XSP16, literal(-14)))
        CFI (cfiCond164) V1 load(1, XDATA, add(CFA_XSP16, literal(-13)))
        CFI (cfiCond164) V2 load(1, XDATA, add(CFA_XSP16, literal(-12)))
        CFI (cfiCond164) V3 load(1, XDATA, add(CFA_XSP16, literal(-11)))
        CFI (cfiCond164) V4 load(1, XDATA, add(CFA_XSP16, literal(-10)))
        CFI (cfiCond164) V5 load(1, XDATA, add(CFA_XSP16, literal(-9)))
        CFI (cfiCond164) V6 load(1, XDATA, add(CFA_XSP16, literal(-8)))
        CFI (cfiCond164) V7 load(1, XDATA, add(CFA_XSP16, literal(-7)))
        CFI (cfiCond164) R7 load(1, XDATA, add(CFA_XSP16, literal(-6)))
        CFI (cfiCond164) ?RET_LOW load(1, XDATA, add(CFA_XSP16, literal(-5)))
        CFI (cfiCond164) ?RET_HIGH load(1, XDATA, add(CFA_XSP16, literal(-4)))
        CFI (cfiCond164) ?BRET_EXT load(1, XDATA, add(CFA_XSP16, literal(-3)))
        CFI (cfiCond164) DPL0 load(1, XDATA, add(CFA_XSP16, literal(-2)))
        CFI (cfiCond164) DPH0 load(1, XDATA, add(CFA_XSP16, literal(-1)))
        CFI (cfiCond164) CFA_SP SP+0
        CFI (cfiCond164) CFA_XSP16 add(XSP16, 37)
        CFI Block cfiCond165 Using cfiCommon0
        CFI (cfiCond165) NoFunction
        CFI (cfiCond165) Conditional ??CrossCallReturnLabel_189
        CFI (cfiCond165) R6 load(1, XDATA, add(CFA_XSP16, literal(-16)))
        CFI (cfiCond165) VB load(1, XDATA, add(CFA_XSP16, literal(-15)))
        CFI (cfiCond165) V0 load(1, XDATA, add(CFA_XSP16, literal(-14)))
        CFI (cfiCond165) V1 load(1, XDATA, add(CFA_XSP16, literal(-13)))
        CFI (cfiCond165) V2 load(1, XDATA, add(CFA_XSP16, literal(-12)))
        CFI (cfiCond165) V3 load(1, XDATA, add(CFA_XSP16, literal(-11)))
        CFI (cfiCond165) V4 load(1, XDATA, add(CFA_XSP16, literal(-10)))
        CFI (cfiCond165) V5 load(1, XDATA, add(CFA_XSP16, literal(-9)))
        CFI (cfiCond165) V6 load(1, XDATA, add(CFA_XSP16, literal(-8)))
        CFI (cfiCond165) V7 load(1, XDATA, add(CFA_XSP16, literal(-7)))
        CFI (cfiCond165) R7 load(1, XDATA, add(CFA_XSP16, literal(-6)))
        CFI (cfiCond165) ?RET_LOW load(1, XDATA, add(CFA_XSP16, literal(-5)))
        CFI (cfiCond165) ?RET_HIGH load(1, XDATA, add(CFA_XSP16, literal(-4)))
        CFI (cfiCond165) ?BRET_EXT load(1, XDATA, add(CFA_XSP16, literal(-3)))
        CFI (cfiCond165) DPL0 load(1, XDATA, add(CFA_XSP16, literal(-2)))
        CFI (cfiCond165) DPH0 load(1, XDATA, add(CFA_XSP16, literal(-1)))
        CFI (cfiCond165) CFA_SP SP+0
        CFI (cfiCond165) CFA_XSP16 add(XSP16, 37)
        CFI Block cfiCond166 Using cfiCommon0
        CFI (cfiCond166) NoFunction
        CFI (cfiCond166) Conditional ??CrossCallReturnLabel_190
        CFI (cfiCond166) R6 load(1, XDATA, add(CFA_XSP16, literal(-16)))
        CFI (cfiCond166) VB load(1, XDATA, add(CFA_XSP16, literal(-15)))
        CFI (cfiCond166) V0 load(1, XDATA, add(CFA_XSP16, literal(-14)))
        CFI (cfiCond166) V1 load(1, XDATA, add(CFA_XSP16, literal(-13)))
        CFI (cfiCond166) V2 load(1, XDATA, add(CFA_XSP16, literal(-12)))
        CFI (cfiCond166) V3 load(1, XDATA, add(CFA_XSP16, literal(-11)))
        CFI (cfiCond166) V4 load(1, XDATA, add(CFA_XSP16, literal(-10)))
        CFI (cfiCond166) V5 load(1, XDATA, add(CFA_XSP16, literal(-9)))
        CFI (cfiCond166) V6 load(1, XDATA, add(CFA_XSP16, literal(-8)))
        CFI (cfiCond166) V7 load(1, XDATA, add(CFA_XSP16, literal(-7)))
        CFI (cfiCond166) R7 load(1, XDATA, add(CFA_XSP16, literal(-6)))
        CFI (cfiCond166) ?RET_LOW load(1, XDATA, add(CFA_XSP16, literal(-5)))
        CFI (cfiCond166) ?RET_HIGH load(1, XDATA, add(CFA_XSP16, literal(-4)))
        CFI (cfiCond166) ?BRET_EXT load(1, XDATA, add(CFA_XSP16, literal(-3)))
        CFI (cfiCond166) DPL0 load(1, XDATA, add(CFA_XSP16, literal(-2)))
        CFI (cfiCond166) DPH0 load(1, XDATA, add(CFA_XSP16, literal(-1)))
        CFI (cfiCond166) CFA_SP SP+0
        CFI (cfiCond166) CFA_XSP16 add(XSP16, 37)
        CFI Block cfiCond167 Using cfiCommon0
        CFI (cfiCond167) NoFunction
        CFI (cfiCond167) Conditional ??CrossCallReturnLabel_191
        CFI (cfiCond167) R6 load(1, XDATA, add(CFA_XSP16, literal(-16)))
        CFI (cfiCond167) VB load(1, XDATA, add(CFA_XSP16, literal(-15)))
        CFI (cfiCond167) V0 load(1, XDATA, add(CFA_XSP16, literal(-14)))
        CFI (cfiCond167) V1 load(1, XDATA, add(CFA_XSP16, literal(-13)))
        CFI (cfiCond167) V2 load(1, XDATA, add(CFA_XSP16, literal(-12)))
        CFI (cfiCond167) V3 load(1, XDATA, add(CFA_XSP16, literal(-11)))
        CFI (cfiCond167) V4 load(1, XDATA, add(CFA_XSP16, literal(-10)))
        CFI (cfiCond167) V5 load(1, XDATA, add(CFA_XSP16, literal(-9)))
        CFI (cfiCond167) V6 load(1, XDATA, add(CFA_XSP16, literal(-8)))
        CFI (cfiCond167) V7 load(1, XDATA, add(CFA_XSP16, literal(-7)))
        CFI (cfiCond167) R7 load(1, XDATA, add(CFA_XSP16, literal(-6)))
        CFI (cfiCond167) ?RET_LOW load(1, XDATA, add(CFA_XSP16, literal(-5)))
        CFI (cfiCond167) ?RET_HIGH load(1, XDATA, add(CFA_XSP16, literal(-4)))
        CFI (cfiCond167) ?BRET_EXT load(1, XDATA, add(CFA_XSP16, literal(-3)))
        CFI (cfiCond167) DPL0 load(1, XDATA, add(CFA_XSP16, literal(-2)))
        CFI (cfiCond167) DPH0 load(1, XDATA, add(CFA_XSP16, literal(-1)))
        CFI (cfiCond167) CFA_SP SP+0
        CFI (cfiCond167) CFA_XSP16 add(XSP16, 37)
        CFI Block cfiPicker168 Using cfiCommon1
        CFI (cfiPicker168) NoFunction
        CFI (cfiPicker168) Picker
        MOV     R4,#0x1
        MOV     R5,#0x0
        RET
        CFI EndBlock cfiCond150
        CFI EndBlock cfiCond151
        CFI EndBlock cfiCond152
        CFI EndBlock cfiCond153
        CFI EndBlock cfiCond154
        CFI EndBlock cfiCond155
        CFI EndBlock cfiCond156
        CFI EndBlock cfiCond157
        CFI EndBlock cfiCond158
        CFI EndBlock cfiCond159
        CFI EndBlock cfiCond160
        CFI EndBlock cfiCond161
        CFI EndBlock cfiCond162
        CFI EndBlock cfiCond163
        CFI EndBlock cfiCond164
        CFI EndBlock cfiCond165
        CFI EndBlock cfiCond166
        CFI EndBlock cfiCond167
        CFI EndBlock cfiPicker168

        RSEG BANKED_CODE:CODE:NOROOT(0)
?Subroutine21:
        CFI Block cfiCond169 Using cfiCommon0
        CFI NoFunction
        CFI Conditional ??CrossCallReturnLabel_178
        CFI R6 load(1, XDATA, add(CFA_XSP16, literal(-16)))
        CFI VB load(1, XDATA, add(CFA_XSP16, literal(-15)))
        CFI V0 load(1, XDATA, add(CFA_XSP16, literal(-14)))
        CFI V1 load(1, XDATA, add(CFA_XSP16, literal(-13)))
        CFI V2 load(1, XDATA, add(CFA_XSP16, literal(-12)))
        CFI V3 load(1, XDATA, add(CFA_XSP16, literal(-11)))
        CFI V4 load(1, XDATA, add(CFA_XSP16, literal(-10)))
        CFI V5 load(1, XDATA, add(CFA_XSP16, literal(-9)))
        CFI V6 load(1, XDATA, add(CFA_XSP16, literal(-8)))
        CFI V7 load(1, XDATA, add(CFA_XSP16, literal(-7)))
        CFI R7 load(1, XDATA, add(CFA_XSP16, literal(-6)))
        CFI ?RET_LOW load(1, XDATA, add(CFA_XSP16, literal(-5)))
        CFI ?RET_HIGH load(1, XDATA, add(CFA_XSP16, literal(-4)))
        CFI ?BRET_EXT load(1, XDATA, add(CFA_XSP16, literal(-3)))
        CFI DPL0 load(1, XDATA, add(CFA_XSP16, literal(-2)))
        CFI DPH0 load(1, XDATA, add(CFA_XSP16, literal(-1)))
        CFI CFA_SP SP+0
        CFI CFA_XSP16 add(XSP16, 17)
        CFI Block cfiCond170 Using cfiCommon0
        CFI (cfiCond170) NoFunction
        CFI (cfiCond170) Conditional ??CrossCallReturnLabel_179
        CFI (cfiCond170) R6 load(1, XDATA, add(CFA_XSP16, literal(-16)))
        CFI (cfiCond170) VB load(1, XDATA, add(CFA_XSP16, literal(-15)))
        CFI (cfiCond170) V0 load(1, XDATA, add(CFA_XSP16, literal(-14)))
        CFI (cfiCond170) V1 load(1, XDATA, add(CFA_XSP16, literal(-13)))
        CFI (cfiCond170) V2 load(1, XDATA, add(CFA_XSP16, literal(-12)))
        CFI (cfiCond170) V3 load(1, XDATA, add(CFA_XSP16, literal(-11)))
        CFI (cfiCond170) V4 load(1, XDATA, add(CFA_XSP16, literal(-10)))
        CFI (cfiCond170) V5 load(1, XDATA, add(CFA_XSP16, literal(-9)))
        CFI (cfiCond170) V6 load(1, XDATA, add(CFA_XSP16, literal(-8)))
        CFI (cfiCond170) V7 load(1, XDATA, add(CFA_XSP16, literal(-7)))
        CFI (cfiCond170) R7 load(1, XDATA, add(CFA_XSP16, literal(-6)))
        CFI (cfiCond170) ?RET_LOW load(1, XDATA, add(CFA_XSP16, literal(-5)))
        CFI (cfiCond170) ?RET_HIGH load(1, XDATA, add(CFA_XSP16, literal(-4)))
        CFI (cfiCond170) ?BRET_EXT load(1, XDATA, add(CFA_XSP16, literal(-3)))
        CFI (cfiCond170) DPL0 load(1, XDATA, add(CFA_XSP16, literal(-2)))
        CFI (cfiCond170) DPH0 load(1, XDATA, add(CFA_XSP16, literal(-1)))
        CFI (cfiCond170) CFA_SP SP+0
        CFI (cfiCond170) CFA_XSP16 add(XSP16, 17)
        CFI Block cfiPicker171 Using cfiCommon1
        CFI (cfiPicker171) NoFunction
        CFI (cfiPicker171) Picker
        INC     DPTR
        INC     DPTR
        INC     DPTR
        INC     DPTR
        INC     DPTR
        INC     DPTR
        INC     DPTR
        INC     DPTR
        MOVX    A,@DPTR
        MOV     R2,A
        MOV     DPL,?V0 + 2
        MOV     DPH,?V0 + 3
        INC     DPTR
        INC     DPTR
        INC     DPTR
        CFI EndBlock cfiCond169
        CFI EndBlock cfiCond170
        CFI EndBlock cfiPicker171
        REQUIRE ?Subroutine64
        ; // Fall through to label ?Subroutine64

        RSEG BANKED_CODE:CODE:NOROOT(0)
?Subroutine64:
        CFI Block cfiCond172 Using cfiCommon0
        CFI NoFunction
        CFI Conditional ??CrossCallReturnLabel_178
        CFI R6 load(1, XDATA, add(CFA_XSP16, literal(-16)))
        CFI VB load(1, XDATA, add(CFA_XSP16, literal(-15)))
        CFI V0 load(1, XDATA, add(CFA_XSP16, literal(-14)))
        CFI V1 load(1, XDATA, add(CFA_XSP16, literal(-13)))
        CFI V2 load(1, XDATA, add(CFA_XSP16, literal(-12)))
        CFI V3 load(1, XDATA, add(CFA_XSP16, literal(-11)))
        CFI V4 load(1, XDATA, add(CFA_XSP16, literal(-10)))
        CFI V5 load(1, XDATA, add(CFA_XSP16, literal(-9)))
        CFI V6 load(1, XDATA, add(CFA_XSP16, literal(-8)))
        CFI V7 load(1, XDATA, add(CFA_XSP16, literal(-7)))
        CFI R7 load(1, XDATA, add(CFA_XSP16, literal(-6)))
        CFI ?RET_LOW load(1, XDATA, add(CFA_XSP16, literal(-5)))
        CFI ?RET_HIGH load(1, XDATA, add(CFA_XSP16, literal(-4)))
        CFI ?BRET_EXT load(1, XDATA, add(CFA_XSP16, literal(-3)))
        CFI DPL0 load(1, XDATA, add(CFA_XSP16, literal(-2)))
        CFI DPH0 load(1, XDATA, add(CFA_XSP16, literal(-1)))
        CFI CFA_SP SP+0
        CFI CFA_XSP16 add(XSP16, 17)
        CFI Block cfiCond173 Using cfiCommon0
        CFI (cfiCond173) NoFunction
        CFI (cfiCond173) Conditional ??CrossCallReturnLabel_179
        CFI (cfiCond173) R6 load(1, XDATA, add(CFA_XSP16, literal(-16)))
        CFI (cfiCond173) VB load(1, XDATA, add(CFA_XSP16, literal(-15)))
        CFI (cfiCond173) V0 load(1, XDATA, add(CFA_XSP16, literal(-14)))
        CFI (cfiCond173) V1 load(1, XDATA, add(CFA_XSP16, literal(-13)))
        CFI (cfiCond173) V2 load(1, XDATA, add(CFA_XSP16, literal(-12)))
        CFI (cfiCond173) V3 load(1, XDATA, add(CFA_XSP16, literal(-11)))
        CFI (cfiCond173) V4 load(1, XDATA, add(CFA_XSP16, literal(-10)))
        CFI (cfiCond173) V5 load(1, XDATA, add(CFA_XSP16, literal(-9)))
        CFI (cfiCond173) V6 load(1, XDATA, add(CFA_XSP16, literal(-8)))
        CFI (cfiCond173) V7 load(1, XDATA, add(CFA_XSP16, literal(-7)))
        CFI (cfiCond173) R7 load(1, XDATA, add(CFA_XSP16, literal(-6)))
        CFI (cfiCond173) ?RET_LOW load(1, XDATA, add(CFA_XSP16, literal(-5)))
        CFI (cfiCond173) ?RET_HIGH load(1, XDATA, add(CFA_XSP16, literal(-4)))
        CFI (cfiCond173) ?BRET_EXT load(1, XDATA, add(CFA_XSP16, literal(-3)))
        CFI (cfiCond173) DPL0 load(1, XDATA, add(CFA_XSP16, literal(-2)))
        CFI (cfiCond173) DPH0 load(1, XDATA, add(CFA_XSP16, literal(-1)))
        CFI (cfiCond173) CFA_SP SP+0
        CFI (cfiCond173) CFA_XSP16 add(XSP16, 17)
        CFI Block cfiCond174 Using cfiCommon0
        CFI (cfiCond174) NoFunction
        CFI (cfiCond174) Conditional ??CrossCallReturnLabel_180
        CFI (cfiCond174) R6 load(1, XDATA, add(CFA_XSP16, literal(-15)))
        CFI (cfiCond174) VB load(1, XDATA, add(CFA_XSP16, literal(-14)))
        CFI (cfiCond174) V0 load(1, XDATA, add(CFA_XSP16, literal(-13)))
        CFI (cfiCond174) V1 load(1, XDATA, add(CFA_XSP16, literal(-12)))
        CFI (cfiCond174) V2 load(1, XDATA, add(CFA_XSP16, literal(-11)))
        CFI (cfiCond174) V3 load(1, XDATA, add(CFA_XSP16, literal(-10)))
        CFI (cfiCond174) V4 load(1, XDATA, add(CFA_XSP16, literal(-9)))
        CFI (cfiCond174) V5 load(1, XDATA, add(CFA_XSP16, literal(-8)))
        CFI (cfiCond174) V6 load(1, XDATA, add(CFA_XSP16, literal(-7)))
        CFI (cfiCond174) R7 load(1, XDATA, add(CFA_XSP16, literal(-6)))
        CFI (cfiCond174) ?RET_LOW load(1, XDATA, add(CFA_XSP16, literal(-5)))
        CFI (cfiCond174) ?RET_HIGH load(1, XDATA, add(CFA_XSP16, literal(-4)))
        CFI (cfiCond174) ?BRET_EXT load(1, XDATA, add(CFA_XSP16, literal(-3)))
        CFI (cfiCond174) DPL0 load(1, XDATA, add(CFA_XSP16, literal(-2)))
        CFI (cfiCond174) DPH0 load(1, XDATA, add(CFA_XSP16, literal(-1)))
        CFI (cfiCond174) CFA_SP SP+0
        CFI (cfiCond174) CFA_XSP16 add(XSP16, 15)
        CFI Block cfiCond175 Using cfiCommon0
        CFI (cfiCond175) NoFunction
        CFI (cfiCond175) Conditional ??CrossCallReturnLabel_181
        CFI (cfiCond175) R6 load(1, XDATA, add(CFA_XSP16, literal(-15)))
        CFI (cfiCond175) VB load(1, XDATA, add(CFA_XSP16, literal(-14)))
        CFI (cfiCond175) V0 load(1, XDATA, add(CFA_XSP16, literal(-13)))
        CFI (cfiCond175) V1 load(1, XDATA, add(CFA_XSP16, literal(-12)))
        CFI (cfiCond175) V2 load(1, XDATA, add(CFA_XSP16, literal(-11)))
        CFI (cfiCond175) V3 load(1, XDATA, add(CFA_XSP16, literal(-10)))
        CFI (cfiCond175) V4 load(1, XDATA, add(CFA_XSP16, literal(-9)))
        CFI (cfiCond175) V5 load(1, XDATA, add(CFA_XSP16, literal(-8)))
        CFI (cfiCond175) V6 load(1, XDATA, add(CFA_XSP16, literal(-7)))
        CFI (cfiCond175) R7 load(1, XDATA, add(CFA_XSP16, literal(-6)))
        CFI (cfiCond175) ?RET_LOW load(1, XDATA, add(CFA_XSP16, literal(-5)))
        CFI (cfiCond175) ?RET_HIGH load(1, XDATA, add(CFA_XSP16, literal(-4)))
        CFI (cfiCond175) ?BRET_EXT load(1, XDATA, add(CFA_XSP16, literal(-3)))
        CFI (cfiCond175) DPL0 load(1, XDATA, add(CFA_XSP16, literal(-2)))
        CFI (cfiCond175) DPH0 load(1, XDATA, add(CFA_XSP16, literal(-1)))
        CFI (cfiCond175) CFA_SP SP+0
        CFI (cfiCond175) CFA_XSP16 add(XSP16, 15)
        CFI Block cfiPicker176 Using cfiCommon1
        CFI (cfiPicker176) NoFunction
        CFI (cfiPicker176) Picker
        INC     DPTR
        INC     DPTR
        INC     DPTR
        INC     DPTR
        RET
        CFI EndBlock cfiCond172
        CFI EndBlock cfiCond173
        CFI EndBlock cfiCond174
        CFI EndBlock cfiCond175
        CFI EndBlock cfiPicker176

        RSEG BANKED_CODE:CODE:NOROOT(0)
?Subroutine19:
        CFI Block cfiCond177 Using cfiCommon0
        CFI NoFunction
        CFI Conditional ??CrossCallReturnLabel_54
        CFI R6 load(1, XDATA, add(CFA_XSP16, literal(-16)))
        CFI VB load(1, XDATA, add(CFA_XSP16, literal(-15)))
        CFI V0 load(1, XDATA, add(CFA_XSP16, literal(-14)))
        CFI V1 load(1, XDATA, add(CFA_XSP16, literal(-13)))
        CFI V2 load(1, XDATA, add(CFA_XSP16, literal(-12)))
        CFI V3 load(1, XDATA, add(CFA_XSP16, literal(-11)))
        CFI V4 load(1, XDATA, add(CFA_XSP16, literal(-10)))
        CFI V5 load(1, XDATA, add(CFA_XSP16, literal(-9)))
        CFI V6 load(1, XDATA, add(CFA_XSP16, literal(-8)))
        CFI V7 load(1, XDATA, add(CFA_XSP16, literal(-7)))
        CFI R7 load(1, XDATA, add(CFA_XSP16, literal(-6)))
        CFI ?RET_LOW load(1, XDATA, add(CFA_XSP16, literal(-5)))
        CFI ?RET_HIGH load(1, XDATA, add(CFA_XSP16, literal(-4)))
        CFI ?BRET_EXT load(1, XDATA, add(CFA_XSP16, literal(-3)))
        CFI DPL0 load(1, XDATA, add(CFA_XSP16, literal(-2)))
        CFI DPH0 load(1, XDATA, add(CFA_XSP16, literal(-1)))
        CFI CFA_SP SP+0
        CFI CFA_XSP16 add(XSP16, 17)
        CFI Block cfiCond178 Using cfiCommon0
        CFI (cfiCond178) NoFunction
        CFI (cfiCond178) Conditional ??CrossCallReturnLabel_55
        CFI (cfiCond178) R6 load(1, XDATA, add(CFA_XSP16, literal(-16)))
        CFI (cfiCond178) VB load(1, XDATA, add(CFA_XSP16, literal(-15)))
        CFI (cfiCond178) V0 load(1, XDATA, add(CFA_XSP16, literal(-14)))
        CFI (cfiCond178) V1 load(1, XDATA, add(CFA_XSP16, literal(-13)))
        CFI (cfiCond178) V2 load(1, XDATA, add(CFA_XSP16, literal(-12)))
        CFI (cfiCond178) V3 load(1, XDATA, add(CFA_XSP16, literal(-11)))
        CFI (cfiCond178) V4 load(1, XDATA, add(CFA_XSP16, literal(-10)))
        CFI (cfiCond178) V5 load(1, XDATA, add(CFA_XSP16, literal(-9)))
        CFI (cfiCond178) V6 load(1, XDATA, add(CFA_XSP16, literal(-8)))
        CFI (cfiCond178) V7 load(1, XDATA, add(CFA_XSP16, literal(-7)))
        CFI (cfiCond178) R7 load(1, XDATA, add(CFA_XSP16, literal(-6)))
        CFI (cfiCond178) ?RET_LOW load(1, XDATA, add(CFA_XSP16, literal(-5)))
        CFI (cfiCond178) ?RET_HIGH load(1, XDATA, add(CFA_XSP16, literal(-4)))
        CFI (cfiCond178) ?BRET_EXT load(1, XDATA, add(CFA_XSP16, literal(-3)))
        CFI (cfiCond178) DPL0 load(1, XDATA, add(CFA_XSP16, literal(-2)))
        CFI (cfiCond178) DPH0 load(1, XDATA, add(CFA_XSP16, literal(-1)))
        CFI (cfiCond178) CFA_SP SP+0
        CFI (cfiCond178) CFA_XSP16 add(XSP16, 17)
        CFI Block cfiPicker179 Using cfiCommon1
        CFI (cfiPicker179) NoFunction
        CFI (cfiPicker179) Picker
        MOVX    A,@DPTR
        MOV     R1,A
        MOV     A,R2
        MOV     B,#0x3c
        MUL     AB
        MOV     R0,A
        MOV     R2,B
        MOV     B,#0x3c
        MOV     A,R1
        MUL     AB
        ADD     A,R2
        MOV     R1,A
        RET
        CFI EndBlock cfiCond177
        CFI EndBlock cfiCond178
        CFI EndBlock cfiPicker179

        RSEG BANKED_CODE:CODE:NOROOT(0)
?Subroutine8:
        CFI Block cfiCond180 Using cfiCommon0
        CFI NoFunction
        CFI Conditional ??CrossCallReturnLabel_26
        CFI R6 load(1, XDATA, add(CFA_XSP16, literal(-16)))
        CFI VB load(1, XDATA, add(CFA_XSP16, literal(-15)))
        CFI V0 load(1, XDATA, add(CFA_XSP16, literal(-14)))
        CFI V1 load(1, XDATA, add(CFA_XSP16, literal(-13)))
        CFI V2 load(1, XDATA, add(CFA_XSP16, literal(-12)))
        CFI V3 load(1, XDATA, add(CFA_XSP16, literal(-11)))
        CFI V4 load(1, XDATA, add(CFA_XSP16, literal(-10)))
        CFI V5 load(1, XDATA, add(CFA_XSP16, literal(-9)))
        CFI V6 load(1, XDATA, add(CFA_XSP16, literal(-8)))
        CFI V7 load(1, XDATA, add(CFA_XSP16, literal(-7)))
        CFI R7 load(1, XDATA, add(CFA_XSP16, literal(-6)))
        CFI ?RET_LOW load(1, XDATA, add(CFA_XSP16, literal(-5)))
        CFI ?RET_HIGH load(1, XDATA, add(CFA_XSP16, literal(-4)))
        CFI ?BRET_EXT load(1, XDATA, add(CFA_XSP16, literal(-3)))
        CFI DPL0 load(1, XDATA, add(CFA_XSP16, literal(-2)))
        CFI DPH0 load(1, XDATA, add(CFA_XSP16, literal(-1)))
        CFI CFA_SP SP+0
        CFI CFA_XSP16 add(XSP16, 17)
        CFI Block cfiCond181 Using cfiCommon0
        CFI (cfiCond181) NoFunction
        CFI (cfiCond181) Conditional ??CrossCallReturnLabel_27
        CFI (cfiCond181) R6 load(1, XDATA, add(CFA_XSP16, literal(-16)))
        CFI (cfiCond181) VB load(1, XDATA, add(CFA_XSP16, literal(-15)))
        CFI (cfiCond181) V0 load(1, XDATA, add(CFA_XSP16, literal(-14)))
        CFI (cfiCond181) V1 load(1, XDATA, add(CFA_XSP16, literal(-13)))
        CFI (cfiCond181) V2 load(1, XDATA, add(CFA_XSP16, literal(-12)))
        CFI (cfiCond181) V3 load(1, XDATA, add(CFA_XSP16, literal(-11)))
        CFI (cfiCond181) V4 load(1, XDATA, add(CFA_XSP16, literal(-10)))
        CFI (cfiCond181) V5 load(1, XDATA, add(CFA_XSP16, literal(-9)))
        CFI (cfiCond181) V6 load(1, XDATA, add(CFA_XSP16, literal(-8)))
        CFI (cfiCond181) V7 load(1, XDATA, add(CFA_XSP16, literal(-7)))
        CFI (cfiCond181) R7 load(1, XDATA, add(CFA_XSP16, literal(-6)))
        CFI (cfiCond181) ?RET_LOW load(1, XDATA, add(CFA_XSP16, literal(-5)))
        CFI (cfiCond181) ?RET_HIGH load(1, XDATA, add(CFA_XSP16, literal(-4)))
        CFI (cfiCond181) ?BRET_EXT load(1, XDATA, add(CFA_XSP16, literal(-3)))
        CFI (cfiCond181) DPL0 load(1, XDATA, add(CFA_XSP16, literal(-2)))
        CFI (cfiCond181) DPH0 load(1, XDATA, add(CFA_XSP16, literal(-1)))
        CFI (cfiCond181) CFA_SP SP+0
        CFI (cfiCond181) CFA_XSP16 add(XSP16, 17)
        CFI Block cfiPicker182 Using cfiCommon1
        CFI (cfiPicker182) NoFunction
        CFI (cfiPicker182) Picker
        LCALL   ?Subroutine48 & 0xFFFF
??CrossCallReturnLabel_174:
        RET
        CFI EndBlock cfiCond180
        CFI EndBlock cfiCond181
        CFI EndBlock cfiPicker182

        RSEG BANKED_CODE:CODE:NOROOT(0)
?Subroutine0:
        CFI Block cfiCond183 Using cfiCommon0
        CFI NoFunction
        CFI Conditional ??CrossCallReturnLabel_0
        CFI R6 load(1, XDATA, add(CFA_XSP16, literal(-16)))
        CFI VB load(1, XDATA, add(CFA_XSP16, literal(-15)))
        CFI V0 load(1, XDATA, add(CFA_XSP16, literal(-14)))
        CFI V1 load(1, XDATA, add(CFA_XSP16, literal(-13)))
        CFI V2 load(1, XDATA, add(CFA_XSP16, literal(-12)))
        CFI V3 load(1, XDATA, add(CFA_XSP16, literal(-11)))
        CFI V4 load(1, XDATA, add(CFA_XSP16, literal(-10)))
        CFI V5 load(1, XDATA, add(CFA_XSP16, literal(-9)))
        CFI V6 load(1, XDATA, add(CFA_XSP16, literal(-8)))
        CFI V7 load(1, XDATA, add(CFA_XSP16, literal(-7)))
        CFI R7 load(1, XDATA, add(CFA_XSP16, literal(-6)))
        CFI ?RET_LOW load(1, XDATA, add(CFA_XSP16, literal(-5)))
        CFI ?RET_HIGH load(1, XDATA, add(CFA_XSP16, literal(-4)))
        CFI ?BRET_EXT load(1, XDATA, add(CFA_XSP16, literal(-3)))
        CFI DPL0 load(1, XDATA, add(CFA_XSP16, literal(-2)))
        CFI DPH0 load(1, XDATA, add(CFA_XSP16, literal(-1)))
        CFI CFA_SP SP+0
        CFI CFA_XSP16 add(XSP16, 17)
        CFI Block cfiCond184 Using cfiCommon0
        CFI (cfiCond184) NoFunction
        CFI (cfiCond184) Conditional ??CrossCallReturnLabel_1
        CFI (cfiCond184) R6 load(1, XDATA, add(CFA_XSP16, literal(-16)))
        CFI (cfiCond184) VB load(1, XDATA, add(CFA_XSP16, literal(-15)))
        CFI (cfiCond184) V0 load(1, XDATA, add(CFA_XSP16, literal(-14)))
        CFI (cfiCond184) V1 load(1, XDATA, add(CFA_XSP16, literal(-13)))
        CFI (cfiCond184) V2 load(1, XDATA, add(CFA_XSP16, literal(-12)))
        CFI (cfiCond184) V3 load(1, XDATA, add(CFA_XSP16, literal(-11)))
        CFI (cfiCond184) V4 load(1, XDATA, add(CFA_XSP16, literal(-10)))
        CFI (cfiCond184) V5 load(1, XDATA, add(CFA_XSP16, literal(-9)))
        CFI (cfiCond184) V6 load(1, XDATA, add(CFA_XSP16, literal(-8)))
        CFI (cfiCond184) V7 load(1, XDATA, add(CFA_XSP16, literal(-7)))
        CFI (cfiCond184) R7 load(1, XDATA, add(CFA_XSP16, literal(-6)))
        CFI (cfiCond184) ?RET_LOW load(1, XDATA, add(CFA_XSP16, literal(-5)))
        CFI (cfiCond184) ?RET_HIGH load(1, XDATA, add(CFA_XSP16, literal(-4)))
        CFI (cfiCond184) ?BRET_EXT load(1, XDATA, add(CFA_XSP16, literal(-3)))
        CFI (cfiCond184) DPL0 load(1, XDATA, add(CFA_XSP16, literal(-2)))
        CFI (cfiCond184) DPH0 load(1, XDATA, add(CFA_XSP16, literal(-1)))
        CFI (cfiCond184) CFA_SP SP+0
        CFI (cfiCond184) CFA_XSP16 add(XSP16, 17)
        CFI Block cfiPicker185 Using cfiCommon1
        CFI (cfiPicker185) NoFunction
        CFI (cfiPicker185) Picker
        MOVX    @DPTR,A
        INC     DPTR
        MOV     A,B
        CFI Block cfiCond186 Using cfiCommon0
        CFI (cfiCond186) NoFunction
        CFI (cfiCond186) Conditional ??CrossCallReturnLabel_2
        CFI (cfiCond186) R6 load(1, XDATA, add(CFA_XSP16, literal(-16)))
        CFI (cfiCond186) VB load(1, XDATA, add(CFA_XSP16, literal(-15)))
        CFI (cfiCond186) V0 load(1, XDATA, add(CFA_XSP16, literal(-14)))
        CFI (cfiCond186) V1 load(1, XDATA, add(CFA_XSP16, literal(-13)))
        CFI (cfiCond186) V2 load(1, XDATA, add(CFA_XSP16, literal(-12)))
        CFI (cfiCond186) V3 load(1, XDATA, add(CFA_XSP16, literal(-11)))
        CFI (cfiCond186) V4 load(1, XDATA, add(CFA_XSP16, literal(-10)))
        CFI (cfiCond186) V5 load(1, XDATA, add(CFA_XSP16, literal(-9)))
        CFI (cfiCond186) V6 load(1, XDATA, add(CFA_XSP16, literal(-8)))
        CFI (cfiCond186) V7 load(1, XDATA, add(CFA_XSP16, literal(-7)))
        CFI (cfiCond186) R7 load(1, XDATA, add(CFA_XSP16, literal(-6)))
        CFI (cfiCond186) ?RET_LOW load(1, XDATA, add(CFA_XSP16, literal(-5)))
        CFI (cfiCond186) ?RET_HIGH load(1, XDATA, add(CFA_XSP16, literal(-4)))
        CFI (cfiCond186) ?BRET_EXT load(1, XDATA, add(CFA_XSP16, literal(-3)))
        CFI (cfiCond186) DPL0 load(1, XDATA, add(CFA_XSP16, literal(-2)))
        CFI (cfiCond186) DPH0 load(1, XDATA, add(CFA_XSP16, literal(-1)))
        CFI (cfiCond186) CFA_SP SP+0
        CFI (cfiCond186) CFA_XSP16 add(XSP16, 17)
        CFI Block cfiCond187 Using cfiCommon0
        CFI (cfiCond187) NoFunction
        CFI (cfiCond187) Conditional ??CrossCallReturnLabel_3
        CFI (cfiCond187) R6 load(1, XDATA, add(CFA_XSP16, literal(-16)))
        CFI (cfiCond187) VB load(1, XDATA, add(CFA_XSP16, literal(-15)))
        CFI (cfiCond187) V0 load(1, XDATA, add(CFA_XSP16, literal(-14)))
        CFI (cfiCond187) V1 load(1, XDATA, add(CFA_XSP16, literal(-13)))
        CFI (cfiCond187) V2 load(1, XDATA, add(CFA_XSP16, literal(-12)))
        CFI (cfiCond187) V3 load(1, XDATA, add(CFA_XSP16, literal(-11)))
        CFI (cfiCond187) V4 load(1, XDATA, add(CFA_XSP16, literal(-10)))
        CFI (cfiCond187) V5 load(1, XDATA, add(CFA_XSP16, literal(-9)))
        CFI (cfiCond187) V6 load(1, XDATA, add(CFA_XSP16, literal(-8)))
        CFI (cfiCond187) V7 load(1, XDATA, add(CFA_XSP16, literal(-7)))
        CFI (cfiCond187) R7 load(1, XDATA, add(CFA_XSP16, literal(-6)))
        CFI (cfiCond187) ?RET_LOW load(1, XDATA, add(CFA_XSP16, literal(-5)))
        CFI (cfiCond187) ?RET_HIGH load(1, XDATA, add(CFA_XSP16, literal(-4)))
        CFI (cfiCond187) ?BRET_EXT load(1, XDATA, add(CFA_XSP16, literal(-3)))
        CFI (cfiCond187) DPL0 load(1, XDATA, add(CFA_XSP16, literal(-2)))
        CFI (cfiCond187) DPH0 load(1, XDATA, add(CFA_XSP16, literal(-1)))
        CFI (cfiCond187) CFA_SP SP+0
        CFI (cfiCond187) CFA_XSP16 add(XSP16, 17)
        CFI Block cfiCond188 Using cfiCommon0
        CFI (cfiCond188) NoFunction
        CFI (cfiCond188) Conditional ??CrossCallReturnLabel_4
        CFI (cfiCond188) R6 load(1, XDATA, add(CFA_XSP16, literal(-16)))
        CFI (cfiCond188) VB load(1, XDATA, add(CFA_XSP16, literal(-15)))
        CFI (cfiCond188) V0 load(1, XDATA, add(CFA_XSP16, literal(-14)))
        CFI (cfiCond188) V1 load(1, XDATA, add(CFA_XSP16, literal(-13)))
        CFI (cfiCond188) V2 load(1, XDATA, add(CFA_XSP16, literal(-12)))
        CFI (cfiCond188) V3 load(1, XDATA, add(CFA_XSP16, literal(-11)))
        CFI (cfiCond188) V4 load(1, XDATA, add(CFA_XSP16, literal(-10)))
        CFI (cfiCond188) V5 load(1, XDATA, add(CFA_XSP16, literal(-9)))
        CFI (cfiCond188) V6 load(1, XDATA, add(CFA_XSP16, literal(-8)))
        CFI (cfiCond188) V7 load(1, XDATA, add(CFA_XSP16, literal(-7)))
        CFI (cfiCond188) R7 load(1, XDATA, add(CFA_XSP16, literal(-6)))
        CFI (cfiCond188) ?RET_LOW load(1, XDATA, add(CFA_XSP16, literal(-5)))
        CFI (cfiCond188) ?RET_HIGH load(1, XDATA, add(CFA_XSP16, literal(-4)))
        CFI (cfiCond188) ?BRET_EXT load(1, XDATA, add(CFA_XSP16, literal(-3)))
        CFI (cfiCond188) DPL0 load(1, XDATA, add(CFA_XSP16, literal(-2)))
        CFI (cfiCond188) DPH0 load(1, XDATA, add(CFA_XSP16, literal(-1)))
        CFI (cfiCond188) CFA_SP SP+0
        CFI (cfiCond188) CFA_XSP16 add(XSP16, 17)
        CFI Block cfiCond189 Using cfiCommon0
        CFI (cfiCond189) NoFunction
        CFI (cfiCond189) Conditional ??CrossCallReturnLabel_5
        CFI (cfiCond189) R6 load(1, XDATA, add(CFA_XSP16, literal(-16)))
        CFI (cfiCond189) VB load(1, XDATA, add(CFA_XSP16, literal(-15)))
        CFI (cfiCond189) V0 load(1, XDATA, add(CFA_XSP16, literal(-14)))
        CFI (cfiCond189) V1 load(1, XDATA, add(CFA_XSP16, literal(-13)))
        CFI (cfiCond189) V2 load(1, XDATA, add(CFA_XSP16, literal(-12)))
        CFI (cfiCond189) V3 load(1, XDATA, add(CFA_XSP16, literal(-11)))
        CFI (cfiCond189) V4 load(1, XDATA, add(CFA_XSP16, literal(-10)))
        CFI (cfiCond189) V5 load(1, XDATA, add(CFA_XSP16, literal(-9)))
        CFI (cfiCond189) V6 load(1, XDATA, add(CFA_XSP16, literal(-8)))
        CFI (cfiCond189) V7 load(1, XDATA, add(CFA_XSP16, literal(-7)))
        CFI (cfiCond189) R7 load(1, XDATA, add(CFA_XSP16, literal(-6)))
        CFI (cfiCond189) ?RET_LOW load(1, XDATA, add(CFA_XSP16, literal(-5)))
        CFI (cfiCond189) ?RET_HIGH load(1, XDATA, add(CFA_XSP16, literal(-4)))
        CFI (cfiCond189) ?BRET_EXT load(1, XDATA, add(CFA_XSP16, literal(-3)))
        CFI (cfiCond189) DPL0 load(1, XDATA, add(CFA_XSP16, literal(-2)))
        CFI (cfiCond189) DPH0 load(1, XDATA, add(CFA_XSP16, literal(-1)))
        CFI (cfiCond189) CFA_SP SP+0
        CFI (cfiCond189) CFA_XSP16 add(XSP16, 17)
        CFI Block cfiCond190 Using cfiCommon0
        CFI (cfiCond190) NoFunction
        CFI (cfiCond190) Conditional ??CrossCallReturnLabel_6
        CFI (cfiCond190) R6 load(1, XDATA, add(CFA_XSP16, literal(-16)))
        CFI (cfiCond190) VB load(1, XDATA, add(CFA_XSP16, literal(-15)))
        CFI (cfiCond190) V0 load(1, XDATA, add(CFA_XSP16, literal(-14)))
        CFI (cfiCond190) V1 load(1, XDATA, add(CFA_XSP16, literal(-13)))
        CFI (cfiCond190) V2 load(1, XDATA, add(CFA_XSP16, literal(-12)))
        CFI (cfiCond190) V3 load(1, XDATA, add(CFA_XSP16, literal(-11)))
        CFI (cfiCond190) V4 load(1, XDATA, add(CFA_XSP16, literal(-10)))
        CFI (cfiCond190) V5 load(1, XDATA, add(CFA_XSP16, literal(-9)))
        CFI (cfiCond190) V6 load(1, XDATA, add(CFA_XSP16, literal(-8)))
        CFI (cfiCond190) V7 load(1, XDATA, add(CFA_XSP16, literal(-7)))
        CFI (cfiCond190) R7 load(1, XDATA, add(CFA_XSP16, literal(-6)))
        CFI (cfiCond190) ?RET_LOW load(1, XDATA, add(CFA_XSP16, literal(-5)))
        CFI (cfiCond190) ?RET_HIGH load(1, XDATA, add(CFA_XSP16, literal(-4)))
        CFI (cfiCond190) ?BRET_EXT load(1, XDATA, add(CFA_XSP16, literal(-3)))
        CFI (cfiCond190) DPL0 load(1, XDATA, add(CFA_XSP16, literal(-2)))
        CFI (cfiCond190) DPH0 load(1, XDATA, add(CFA_XSP16, literal(-1)))
        CFI (cfiCond190) CFA_SP SP+0
        CFI (cfiCond190) CFA_XSP16 add(XSP16, 17)
??Subroutine0_0:
        MOVX    @DPTR,A
        LCALL   ?Subroutine48 & 0xFFFF
??CrossCallReturnLabel_175:
        RET
        CFI EndBlock cfiCond183
        CFI EndBlock cfiCond184
        CFI EndBlock cfiPicker185
        CFI EndBlock cfiCond186
        CFI EndBlock cfiCond187
        CFI EndBlock cfiCond188
        CFI EndBlock cfiCond189
        CFI EndBlock cfiCond190

        RSEG BANKED_CODE:CODE:NOROOT(0)
?Subroutine48:
        CFI Block cfiCond191 Using cfiCommon0
        CFI NoFunction
        CFI Conditional ??CrossCallReturnLabel_174, ??CrossCallReturnLabel_26
        CFI R6 load(1, XDATA, add(CFA_XSP16, literal(-16)))
        CFI VB load(1, XDATA, add(CFA_XSP16, literal(-15)))
        CFI V0 load(1, XDATA, add(CFA_XSP16, literal(-14)))
        CFI V1 load(1, XDATA, add(CFA_XSP16, literal(-13)))
        CFI V2 load(1, XDATA, add(CFA_XSP16, literal(-12)))
        CFI V3 load(1, XDATA, add(CFA_XSP16, literal(-11)))
        CFI V4 load(1, XDATA, add(CFA_XSP16, literal(-10)))
        CFI V5 load(1, XDATA, add(CFA_XSP16, literal(-9)))
        CFI V6 load(1, XDATA, add(CFA_XSP16, literal(-8)))
        CFI V7 load(1, XDATA, add(CFA_XSP16, literal(-7)))
        CFI R7 load(1, XDATA, add(CFA_XSP16, literal(-6)))
        CFI ?RET_LOW load(1, XDATA, add(CFA_XSP16, literal(-5)))
        CFI ?RET_HIGH load(1, XDATA, add(CFA_XSP16, literal(-4)))
        CFI ?BRET_EXT load(1, XDATA, add(CFA_XSP16, literal(-3)))
        CFI DPL0 load(1, XDATA, add(CFA_XSP16, literal(-2)))
        CFI DPH0 load(1, XDATA, add(CFA_XSP16, literal(-1)))
        CFI CFA_SP SP+0
        CFI CFA_XSP16 add(XSP16, 17)
        CFI Block cfiCond192 Using cfiCommon0
        CFI (cfiCond192) NoFunction
        CFI (cfiCond192) Conditional ??CrossCallReturnLabel_174, ??CrossCallReturnLabel_27
        CFI (cfiCond192) R6 load(1, XDATA, add(CFA_XSP16, literal(-16)))
        CFI (cfiCond192) VB load(1, XDATA, add(CFA_XSP16, literal(-15)))
        CFI (cfiCond192) V0 load(1, XDATA, add(CFA_XSP16, literal(-14)))
        CFI (cfiCond192) V1 load(1, XDATA, add(CFA_XSP16, literal(-13)))
        CFI (cfiCond192) V2 load(1, XDATA, add(CFA_XSP16, literal(-12)))
        CFI (cfiCond192) V3 load(1, XDATA, add(CFA_XSP16, literal(-11)))
        CFI (cfiCond192) V4 load(1, XDATA, add(CFA_XSP16, literal(-10)))
        CFI (cfiCond192) V5 load(1, XDATA, add(CFA_XSP16, literal(-9)))
        CFI (cfiCond192) V6 load(1, XDATA, add(CFA_XSP16, literal(-8)))
        CFI (cfiCond192) V7 load(1, XDATA, add(CFA_XSP16, literal(-7)))
        CFI (cfiCond192) R7 load(1, XDATA, add(CFA_XSP16, literal(-6)))
        CFI (cfiCond192) ?RET_LOW load(1, XDATA, add(CFA_XSP16, literal(-5)))
        CFI (cfiCond192) ?RET_HIGH load(1, XDATA, add(CFA_XSP16, literal(-4)))
        CFI (cfiCond192) ?BRET_EXT load(1, XDATA, add(CFA_XSP16, literal(-3)))
        CFI (cfiCond192) DPL0 load(1, XDATA, add(CFA_XSP16, literal(-2)))
        CFI (cfiCond192) DPH0 load(1, XDATA, add(CFA_XSP16, literal(-1)))
        CFI (cfiCond192) CFA_SP SP+0
        CFI (cfiCond192) CFA_XSP16 add(XSP16, 17)
        CFI Block cfiCond193 Using cfiCommon0
        CFI (cfiCond193) NoFunction
        CFI (cfiCond193) Conditional ??CrossCallReturnLabel_175, ??CrossCallReturnLabel_0
        CFI (cfiCond193) R6 load(1, XDATA, add(CFA_XSP16, literal(-16)))
        CFI (cfiCond193) VB load(1, XDATA, add(CFA_XSP16, literal(-15)))
        CFI (cfiCond193) V0 load(1, XDATA, add(CFA_XSP16, literal(-14)))
        CFI (cfiCond193) V1 load(1, XDATA, add(CFA_XSP16, literal(-13)))
        CFI (cfiCond193) V2 load(1, XDATA, add(CFA_XSP16, literal(-12)))
        CFI (cfiCond193) V3 load(1, XDATA, add(CFA_XSP16, literal(-11)))
        CFI (cfiCond193) V4 load(1, XDATA, add(CFA_XSP16, literal(-10)))
        CFI (cfiCond193) V5 load(1, XDATA, add(CFA_XSP16, literal(-9)))
        CFI (cfiCond193) V6 load(1, XDATA, add(CFA_XSP16, literal(-8)))
        CFI (cfiCond193) V7 load(1, XDATA, add(CFA_XSP16, literal(-7)))
        CFI (cfiCond193) R7 load(1, XDATA, add(CFA_XSP16, literal(-6)))
        CFI (cfiCond193) ?RET_LOW load(1, XDATA, add(CFA_XSP16, literal(-5)))
        CFI (cfiCond193) ?RET_HIGH load(1, XDATA, add(CFA_XSP16, literal(-4)))
        CFI (cfiCond193) ?BRET_EXT load(1, XDATA, add(CFA_XSP16, literal(-3)))
        CFI (cfiCond193) DPL0 load(1, XDATA, add(CFA_XSP16, literal(-2)))
        CFI (cfiCond193) DPH0 load(1, XDATA, add(CFA_XSP16, literal(-1)))
        CFI (cfiCond193) CFA_SP SP+0
        CFI (cfiCond193) CFA_XSP16 add(XSP16, 17)
        CFI Block cfiCond194 Using cfiCommon0
        CFI (cfiCond194) NoFunction
        CFI (cfiCond194) Conditional ??CrossCallReturnLabel_175, ??CrossCallReturnLabel_1
        CFI (cfiCond194) R6 load(1, XDATA, add(CFA_XSP16, literal(-16)))
        CFI (cfiCond194) VB load(1, XDATA, add(CFA_XSP16, literal(-15)))
        CFI (cfiCond194) V0 load(1, XDATA, add(CFA_XSP16, literal(-14)))
        CFI (cfiCond194) V1 load(1, XDATA, add(CFA_XSP16, literal(-13)))
        CFI (cfiCond194) V2 load(1, XDATA, add(CFA_XSP16, literal(-12)))
        CFI (cfiCond194) V3 load(1, XDATA, add(CFA_XSP16, literal(-11)))
        CFI (cfiCond194) V4 load(1, XDATA, add(CFA_XSP16, literal(-10)))
        CFI (cfiCond194) V5 load(1, XDATA, add(CFA_XSP16, literal(-9)))
        CFI (cfiCond194) V6 load(1, XDATA, add(CFA_XSP16, literal(-8)))
        CFI (cfiCond194) V7 load(1, XDATA, add(CFA_XSP16, literal(-7)))
        CFI (cfiCond194) R7 load(1, XDATA, add(CFA_XSP16, literal(-6)))
        CFI (cfiCond194) ?RET_LOW load(1, XDATA, add(CFA_XSP16, literal(-5)))
        CFI (cfiCond194) ?RET_HIGH load(1, XDATA, add(CFA_XSP16, literal(-4)))
        CFI (cfiCond194) ?BRET_EXT load(1, XDATA, add(CFA_XSP16, literal(-3)))
        CFI (cfiCond194) DPL0 load(1, XDATA, add(CFA_XSP16, literal(-2)))
        CFI (cfiCond194) DPH0 load(1, XDATA, add(CFA_XSP16, literal(-1)))
        CFI (cfiCond194) CFA_SP SP+0
        CFI (cfiCond194) CFA_XSP16 add(XSP16, 17)
        CFI Block cfiCond195 Using cfiCommon0
        CFI (cfiCond195) NoFunction
        CFI (cfiCond195) Conditional ??CrossCallReturnLabel_175, ??CrossCallReturnLabel_2
        CFI (cfiCond195) R6 load(1, XDATA, add(CFA_XSP16, literal(-16)))
        CFI (cfiCond195) VB load(1, XDATA, add(CFA_XSP16, literal(-15)))
        CFI (cfiCond195) V0 load(1, XDATA, add(CFA_XSP16, literal(-14)))
        CFI (cfiCond195) V1 load(1, XDATA, add(CFA_XSP16, literal(-13)))
        CFI (cfiCond195) V2 load(1, XDATA, add(CFA_XSP16, literal(-12)))
        CFI (cfiCond195) V3 load(1, XDATA, add(CFA_XSP16, literal(-11)))
        CFI (cfiCond195) V4 load(1, XDATA, add(CFA_XSP16, literal(-10)))
        CFI (cfiCond195) V5 load(1, XDATA, add(CFA_XSP16, literal(-9)))
        CFI (cfiCond195) V6 load(1, XDATA, add(CFA_XSP16, literal(-8)))
        CFI (cfiCond195) V7 load(1, XDATA, add(CFA_XSP16, literal(-7)))
        CFI (cfiCond195) R7 load(1, XDATA, add(CFA_XSP16, literal(-6)))
        CFI (cfiCond195) ?RET_LOW load(1, XDATA, add(CFA_XSP16, literal(-5)))
        CFI (cfiCond195) ?RET_HIGH load(1, XDATA, add(CFA_XSP16, literal(-4)))
        CFI (cfiCond195) ?BRET_EXT load(1, XDATA, add(CFA_XSP16, literal(-3)))
        CFI (cfiCond195) DPL0 load(1, XDATA, add(CFA_XSP16, literal(-2)))
        CFI (cfiCond195) DPH0 load(1, XDATA, add(CFA_XSP16, literal(-1)))
        CFI (cfiCond195) CFA_SP SP+0
        CFI (cfiCond195) CFA_XSP16 add(XSP16, 17)
        CFI Block cfiCond196 Using cfiCommon0
        CFI (cfiCond196) NoFunction
        CFI (cfiCond196) Conditional ??CrossCallReturnLabel_175, ??CrossCallReturnLabel_3
        CFI (cfiCond196) R6 load(1, XDATA, add(CFA_XSP16, literal(-16)))
        CFI (cfiCond196) VB load(1, XDATA, add(CFA_XSP16, literal(-15)))
        CFI (cfiCond196) V0 load(1, XDATA, add(CFA_XSP16, literal(-14)))
        CFI (cfiCond196) V1 load(1, XDATA, add(CFA_XSP16, literal(-13)))
        CFI (cfiCond196) V2 load(1, XDATA, add(CFA_XSP16, literal(-12)))
        CFI (cfiCond196) V3 load(1, XDATA, add(CFA_XSP16, literal(-11)))
        CFI (cfiCond196) V4 load(1, XDATA, add(CFA_XSP16, literal(-10)))
        CFI (cfiCond196) V5 load(1, XDATA, add(CFA_XSP16, literal(-9)))
        CFI (cfiCond196) V6 load(1, XDATA, add(CFA_XSP16, literal(-8)))
        CFI (cfiCond196) V7 load(1, XDATA, add(CFA_XSP16, literal(-7)))
        CFI (cfiCond196) R7 load(1, XDATA, add(CFA_XSP16, literal(-6)))
        CFI (cfiCond196) ?RET_LOW load(1, XDATA, add(CFA_XSP16, literal(-5)))
        CFI (cfiCond196) ?RET_HIGH load(1, XDATA, add(CFA_XSP16, literal(-4)))
        CFI (cfiCond196) ?BRET_EXT load(1, XDATA, add(CFA_XSP16, literal(-3)))
        CFI (cfiCond196) DPL0 load(1, XDATA, add(CFA_XSP16, literal(-2)))
        CFI (cfiCond196) DPH0 load(1, XDATA, add(CFA_XSP16, literal(-1)))
        CFI (cfiCond196) CFA_SP SP+0
        CFI (cfiCond196) CFA_XSP16 add(XSP16, 17)
        CFI Block cfiCond197 Using cfiCommon0
        CFI (cfiCond197) NoFunction
        CFI (cfiCond197) Conditional ??CrossCallReturnLabel_175, ??CrossCallReturnLabel_4
        CFI (cfiCond197) R6 load(1, XDATA, add(CFA_XSP16, literal(-16)))
        CFI (cfiCond197) VB load(1, XDATA, add(CFA_XSP16, literal(-15)))
        CFI (cfiCond197) V0 load(1, XDATA, add(CFA_XSP16, literal(-14)))
        CFI (cfiCond197) V1 load(1, XDATA, add(CFA_XSP16, literal(-13)))
        CFI (cfiCond197) V2 load(1, XDATA, add(CFA_XSP16, literal(-12)))
        CFI (cfiCond197) V3 load(1, XDATA, add(CFA_XSP16, literal(-11)))
        CFI (cfiCond197) V4 load(1, XDATA, add(CFA_XSP16, literal(-10)))
        CFI (cfiCond197) V5 load(1, XDATA, add(CFA_XSP16, literal(-9)))
        CFI (cfiCond197) V6 load(1, XDATA, add(CFA_XSP16, literal(-8)))
        CFI (cfiCond197) V7 load(1, XDATA, add(CFA_XSP16, literal(-7)))
        CFI (cfiCond197) R7 load(1, XDATA, add(CFA_XSP16, literal(-6)))
        CFI (cfiCond197) ?RET_LOW load(1, XDATA, add(CFA_XSP16, literal(-5)))
        CFI (cfiCond197) ?RET_HIGH load(1, XDATA, add(CFA_XSP16, literal(-4)))
        CFI (cfiCond197) ?BRET_EXT load(1, XDATA, add(CFA_XSP16, literal(-3)))
        CFI (cfiCond197) DPL0 load(1, XDATA, add(CFA_XSP16, literal(-2)))
        CFI (cfiCond197) DPH0 load(1, XDATA, add(CFA_XSP16, literal(-1)))
        CFI (cfiCond197) CFA_SP SP+0
        CFI (cfiCond197) CFA_XSP16 add(XSP16, 17)
        CFI Block cfiCond198 Using cfiCommon0
        CFI (cfiCond198) NoFunction
        CFI (cfiCond198) Conditional ??CrossCallReturnLabel_175, ??CrossCallReturnLabel_5
        CFI (cfiCond198) R6 load(1, XDATA, add(CFA_XSP16, literal(-16)))
        CFI (cfiCond198) VB load(1, XDATA, add(CFA_XSP16, literal(-15)))
        CFI (cfiCond198) V0 load(1, XDATA, add(CFA_XSP16, literal(-14)))
        CFI (cfiCond198) V1 load(1, XDATA, add(CFA_XSP16, literal(-13)))
        CFI (cfiCond198) V2 load(1, XDATA, add(CFA_XSP16, literal(-12)))
        CFI (cfiCond198) V3 load(1, XDATA, add(CFA_XSP16, literal(-11)))
        CFI (cfiCond198) V4 load(1, XDATA, add(CFA_XSP16, literal(-10)))
        CFI (cfiCond198) V5 load(1, XDATA, add(CFA_XSP16, literal(-9)))
        CFI (cfiCond198) V6 load(1, XDATA, add(CFA_XSP16, literal(-8)))
        CFI (cfiCond198) V7 load(1, XDATA, add(CFA_XSP16, literal(-7)))
        CFI (cfiCond198) R7 load(1, XDATA, add(CFA_XSP16, literal(-6)))
        CFI (cfiCond198) ?RET_LOW load(1, XDATA, add(CFA_XSP16, literal(-5)))
        CFI (cfiCond198) ?RET_HIGH load(1, XDATA, add(CFA_XSP16, literal(-4)))
        CFI (cfiCond198) ?BRET_EXT load(1, XDATA, add(CFA_XSP16, literal(-3)))
        CFI (cfiCond198) DPL0 load(1, XDATA, add(CFA_XSP16, literal(-2)))
        CFI (cfiCond198) DPH0 load(1, XDATA, add(CFA_XSP16, literal(-1)))
        CFI (cfiCond198) CFA_SP SP+0
        CFI (cfiCond198) CFA_XSP16 add(XSP16, 17)
        CFI Block cfiCond199 Using cfiCommon0
        CFI (cfiCond199) NoFunction
        CFI (cfiCond199) Conditional ??CrossCallReturnLabel_175, ??CrossCallReturnLabel_6
        CFI (cfiCond199) R6 load(1, XDATA, add(CFA_XSP16, literal(-16)))
        CFI (cfiCond199) VB load(1, XDATA, add(CFA_XSP16, literal(-15)))
        CFI (cfiCond199) V0 load(1, XDATA, add(CFA_XSP16, literal(-14)))
        CFI (cfiCond199) V1 load(1, XDATA, add(CFA_XSP16, literal(-13)))
        CFI (cfiCond199) V2 load(1, XDATA, add(CFA_XSP16, literal(-12)))
        CFI (cfiCond199) V3 load(1, XDATA, add(CFA_XSP16, literal(-11)))
        CFI (cfiCond199) V4 load(1, XDATA, add(CFA_XSP16, literal(-10)))
        CFI (cfiCond199) V5 load(1, XDATA, add(CFA_XSP16, literal(-9)))
        CFI (cfiCond199) V6 load(1, XDATA, add(CFA_XSP16, literal(-8)))
        CFI (cfiCond199) V7 load(1, XDATA, add(CFA_XSP16, literal(-7)))
        CFI (cfiCond199) R7 load(1, XDATA, add(CFA_XSP16, literal(-6)))
        CFI (cfiCond199) ?RET_LOW load(1, XDATA, add(CFA_XSP16, literal(-5)))
        CFI (cfiCond199) ?RET_HIGH load(1, XDATA, add(CFA_XSP16, literal(-4)))
        CFI (cfiCond199) ?BRET_EXT load(1, XDATA, add(CFA_XSP16, literal(-3)))
        CFI (cfiCond199) DPL0 load(1, XDATA, add(CFA_XSP16, literal(-2)))
        CFI (cfiCond199) DPH0 load(1, XDATA, add(CFA_XSP16, literal(-1)))
        CFI (cfiCond199) CFA_SP SP+0
        CFI (cfiCond199) CFA_XSP16 add(XSP16, 17)
        CFI Block cfiPicker200 Using cfiCommon1
        CFI (cfiPicker200) NoFunction
        CFI (cfiPicker200) Picker
        MOV     DPL,R0
        MOV     DPH,R1
        MOVX    A,@DPTR
        ANL     A,#0xf0
        ORL     A,#0x3
        MOVX    @DPTR,A
        ; Setup parameters for call to function SendMsg
        ; Setup parameters for call to function SendMsg
        ; Setup parameters for call to function SendMsg
        ; Setup parameters for call to function SendMsg
        ; Setup parameters for call to function SendMsg
        ; Setup parameters for call to function SendMsg
        ; Setup parameters for call to function SendMsg
        ; Setup parameters for call to function SendMsg
        ; Setup parameters for call to function SendMsg
        MOV     ?V0 + 0,#0x2
        CFI EndBlock cfiCond191
        CFI EndBlock cfiCond192
        CFI EndBlock cfiCond193
        CFI EndBlock cfiCond194
        CFI EndBlock cfiCond195
        CFI EndBlock cfiCond196
        CFI EndBlock cfiCond197
        CFI EndBlock cfiCond198
        CFI EndBlock cfiCond199
        CFI EndBlock cfiPicker200
        REQUIRE ?Subroutine63
        ; // Fall through to label ?Subroutine63

        RSEG BANKED_CODE:CODE:NOROOT(0)
?Subroutine63:
        CFI Block cfiCond201 Using cfiCommon0
        CFI NoFunction
        CFI Conditional ??CrossCallReturnLabel_174, ??CrossCallReturnLabel_26
        CFI R6 load(1, XDATA, add(CFA_XSP16, literal(-16)))
        CFI VB load(1, XDATA, add(CFA_XSP16, literal(-15)))
        CFI V0 load(1, XDATA, add(CFA_XSP16, literal(-14)))
        CFI V1 load(1, XDATA, add(CFA_XSP16, literal(-13)))
        CFI V2 load(1, XDATA, add(CFA_XSP16, literal(-12)))
        CFI V3 load(1, XDATA, add(CFA_XSP16, literal(-11)))
        CFI V4 load(1, XDATA, add(CFA_XSP16, literal(-10)))
        CFI V5 load(1, XDATA, add(CFA_XSP16, literal(-9)))
        CFI V6 load(1, XDATA, add(CFA_XSP16, literal(-8)))
        CFI V7 load(1, XDATA, add(CFA_XSP16, literal(-7)))
        CFI R7 load(1, XDATA, add(CFA_XSP16, literal(-6)))
        CFI ?RET_LOW load(1, XDATA, add(CFA_XSP16, literal(-5)))
        CFI ?RET_HIGH load(1, XDATA, add(CFA_XSP16, literal(-4)))
        CFI ?BRET_EXT load(1, XDATA, add(CFA_XSP16, literal(-3)))
        CFI DPL0 load(1, XDATA, add(CFA_XSP16, literal(-2)))
        CFI DPH0 load(1, XDATA, add(CFA_XSP16, literal(-1)))
        CFI CFA_SP SP+0
        CFI CFA_XSP16 add(XSP16, 17)
        CFI Block cfiCond202 Using cfiCommon0
        CFI (cfiCond202) NoFunction
        CFI (cfiCond202) Conditional ??CrossCallReturnLabel_174, ??CrossCallReturnLabel_27
        CFI (cfiCond202) R6 load(1, XDATA, add(CFA_XSP16, literal(-16)))
        CFI (cfiCond202) VB load(1, XDATA, add(CFA_XSP16, literal(-15)))
        CFI (cfiCond202) V0 load(1, XDATA, add(CFA_XSP16, literal(-14)))
        CFI (cfiCond202) V1 load(1, XDATA, add(CFA_XSP16, literal(-13)))
        CFI (cfiCond202) V2 load(1, XDATA, add(CFA_XSP16, literal(-12)))
        CFI (cfiCond202) V3 load(1, XDATA, add(CFA_XSP16, literal(-11)))
        CFI (cfiCond202) V4 load(1, XDATA, add(CFA_XSP16, literal(-10)))
        CFI (cfiCond202) V5 load(1, XDATA, add(CFA_XSP16, literal(-9)))
        CFI (cfiCond202) V6 load(1, XDATA, add(CFA_XSP16, literal(-8)))
        CFI (cfiCond202) V7 load(1, XDATA, add(CFA_XSP16, literal(-7)))
        CFI (cfiCond202) R7 load(1, XDATA, add(CFA_XSP16, literal(-6)))
        CFI (cfiCond202) ?RET_LOW load(1, XDATA, add(CFA_XSP16, literal(-5)))
        CFI (cfiCond202) ?RET_HIGH load(1, XDATA, add(CFA_XSP16, literal(-4)))
        CFI (cfiCond202) ?BRET_EXT load(1, XDATA, add(CFA_XSP16, literal(-3)))
        CFI (cfiCond202) DPL0 load(1, XDATA, add(CFA_XSP16, literal(-2)))
        CFI (cfiCond202) DPH0 load(1, XDATA, add(CFA_XSP16, literal(-1)))
        CFI (cfiCond202) CFA_SP SP+0
        CFI (cfiCond202) CFA_XSP16 add(XSP16, 17)
        CFI Block cfiCond203 Using cfiCommon0
        CFI (cfiCond203) NoFunction
        CFI (cfiCond203) Conditional ??CrossCallReturnLabel_175, ??CrossCallReturnLabel_0
        CFI (cfiCond203) R6 load(1, XDATA, add(CFA_XSP16, literal(-16)))
        CFI (cfiCond203) VB load(1, XDATA, add(CFA_XSP16, literal(-15)))
        CFI (cfiCond203) V0 load(1, XDATA, add(CFA_XSP16, literal(-14)))
        CFI (cfiCond203) V1 load(1, XDATA, add(CFA_XSP16, literal(-13)))
        CFI (cfiCond203) V2 load(1, XDATA, add(CFA_XSP16, literal(-12)))
        CFI (cfiCond203) V3 load(1, XDATA, add(CFA_XSP16, literal(-11)))
        CFI (cfiCond203) V4 load(1, XDATA, add(CFA_XSP16, literal(-10)))
        CFI (cfiCond203) V5 load(1, XDATA, add(CFA_XSP16, literal(-9)))
        CFI (cfiCond203) V6 load(1, XDATA, add(CFA_XSP16, literal(-8)))
        CFI (cfiCond203) V7 load(1, XDATA, add(CFA_XSP16, literal(-7)))
        CFI (cfiCond203) R7 load(1, XDATA, add(CFA_XSP16, literal(-6)))
        CFI (cfiCond203) ?RET_LOW load(1, XDATA, add(CFA_XSP16, literal(-5)))
        CFI (cfiCond203) ?RET_HIGH load(1, XDATA, add(CFA_XSP16, literal(-4)))
        CFI (cfiCond203) ?BRET_EXT load(1, XDATA, add(CFA_XSP16, literal(-3)))
        CFI (cfiCond203) DPL0 load(1, XDATA, add(CFA_XSP16, literal(-2)))
        CFI (cfiCond203) DPH0 load(1, XDATA, add(CFA_XSP16, literal(-1)))
        CFI (cfiCond203) CFA_SP SP+0
        CFI (cfiCond203) CFA_XSP16 add(XSP16, 17)
        CFI Block cfiCond204 Using cfiCommon0
        CFI (cfiCond204) NoFunction
        CFI (cfiCond204) Conditional ??CrossCallReturnLabel_175, ??CrossCallReturnLabel_1
        CFI (cfiCond204) R6 load(1, XDATA, add(CFA_XSP16, literal(-16)))
        CFI (cfiCond204) VB load(1, XDATA, add(CFA_XSP16, literal(-15)))
        CFI (cfiCond204) V0 load(1, XDATA, add(CFA_XSP16, literal(-14)))
        CFI (cfiCond204) V1 load(1, XDATA, add(CFA_XSP16, literal(-13)))
        CFI (cfiCond204) V2 load(1, XDATA, add(CFA_XSP16, literal(-12)))
        CFI (cfiCond204) V3 load(1, XDATA, add(CFA_XSP16, literal(-11)))
        CFI (cfiCond204) V4 load(1, XDATA, add(CFA_XSP16, literal(-10)))
        CFI (cfiCond204) V5 load(1, XDATA, add(CFA_XSP16, literal(-9)))
        CFI (cfiCond204) V6 load(1, XDATA, add(CFA_XSP16, literal(-8)))
        CFI (cfiCond204) V7 load(1, XDATA, add(CFA_XSP16, literal(-7)))
        CFI (cfiCond204) R7 load(1, XDATA, add(CFA_XSP16, literal(-6)))
        CFI (cfiCond204) ?RET_LOW load(1, XDATA, add(CFA_XSP16, literal(-5)))
        CFI (cfiCond204) ?RET_HIGH load(1, XDATA, add(CFA_XSP16, literal(-4)))
        CFI (cfiCond204) ?BRET_EXT load(1, XDATA, add(CFA_XSP16, literal(-3)))
        CFI (cfiCond204) DPL0 load(1, XDATA, add(CFA_XSP16, literal(-2)))
        CFI (cfiCond204) DPH0 load(1, XDATA, add(CFA_XSP16, literal(-1)))
        CFI (cfiCond204) CFA_SP SP+0
        CFI (cfiCond204) CFA_XSP16 add(XSP16, 17)
        CFI Block cfiCond205 Using cfiCommon0
        CFI (cfiCond205) NoFunction
        CFI (cfiCond205) Conditional ??CrossCallReturnLabel_175, ??CrossCallReturnLabel_2
        CFI (cfiCond205) R6 load(1, XDATA, add(CFA_XSP16, literal(-16)))
        CFI (cfiCond205) VB load(1, XDATA, add(CFA_XSP16, literal(-15)))
        CFI (cfiCond205) V0 load(1, XDATA, add(CFA_XSP16, literal(-14)))
        CFI (cfiCond205) V1 load(1, XDATA, add(CFA_XSP16, literal(-13)))
        CFI (cfiCond205) V2 load(1, XDATA, add(CFA_XSP16, literal(-12)))
        CFI (cfiCond205) V3 load(1, XDATA, add(CFA_XSP16, literal(-11)))
        CFI (cfiCond205) V4 load(1, XDATA, add(CFA_XSP16, literal(-10)))
        CFI (cfiCond205) V5 load(1, XDATA, add(CFA_XSP16, literal(-9)))
        CFI (cfiCond205) V6 load(1, XDATA, add(CFA_XSP16, literal(-8)))
        CFI (cfiCond205) V7 load(1, XDATA, add(CFA_XSP16, literal(-7)))
        CFI (cfiCond205) R7 load(1, XDATA, add(CFA_XSP16, literal(-6)))
        CFI (cfiCond205) ?RET_LOW load(1, XDATA, add(CFA_XSP16, literal(-5)))
        CFI (cfiCond205) ?RET_HIGH load(1, XDATA, add(CFA_XSP16, literal(-4)))
        CFI (cfiCond205) ?BRET_EXT load(1, XDATA, add(CFA_XSP16, literal(-3)))
        CFI (cfiCond205) DPL0 load(1, XDATA, add(CFA_XSP16, literal(-2)))
        CFI (cfiCond205) DPH0 load(1, XDATA, add(CFA_XSP16, literal(-1)))
        CFI (cfiCond205) CFA_SP SP+0
        CFI (cfiCond205) CFA_XSP16 add(XSP16, 17)
        CFI Block cfiCond206 Using cfiCommon0
        CFI (cfiCond206) NoFunction
        CFI (cfiCond206) Conditional ??CrossCallReturnLabel_175, ??CrossCallReturnLabel_3
        CFI (cfiCond206) R6 load(1, XDATA, add(CFA_XSP16, literal(-16)))
        CFI (cfiCond206) VB load(1, XDATA, add(CFA_XSP16, literal(-15)))
        CFI (cfiCond206) V0 load(1, XDATA, add(CFA_XSP16, literal(-14)))
        CFI (cfiCond206) V1 load(1, XDATA, add(CFA_XSP16, literal(-13)))
        CFI (cfiCond206) V2 load(1, XDATA, add(CFA_XSP16, literal(-12)))
        CFI (cfiCond206) V3 load(1, XDATA, add(CFA_XSP16, literal(-11)))
        CFI (cfiCond206) V4 load(1, XDATA, add(CFA_XSP16, literal(-10)))
        CFI (cfiCond206) V5 load(1, XDATA, add(CFA_XSP16, literal(-9)))
        CFI (cfiCond206) V6 load(1, XDATA, add(CFA_XSP16, literal(-8)))
        CFI (cfiCond206) V7 load(1, XDATA, add(CFA_XSP16, literal(-7)))
        CFI (cfiCond206) R7 load(1, XDATA, add(CFA_XSP16, literal(-6)))
        CFI (cfiCond206) ?RET_LOW load(1, XDATA, add(CFA_XSP16, literal(-5)))
        CFI (cfiCond206) ?RET_HIGH load(1, XDATA, add(CFA_XSP16, literal(-4)))
        CFI (cfiCond206) ?BRET_EXT load(1, XDATA, add(CFA_XSP16, literal(-3)))
        CFI (cfiCond206) DPL0 load(1, XDATA, add(CFA_XSP16, literal(-2)))
        CFI (cfiCond206) DPH0 load(1, XDATA, add(CFA_XSP16, literal(-1)))
        CFI (cfiCond206) CFA_SP SP+0
        CFI (cfiCond206) CFA_XSP16 add(XSP16, 17)
        CFI Block cfiCond207 Using cfiCommon0
        CFI (cfiCond207) NoFunction
        CFI (cfiCond207) Conditional ??CrossCallReturnLabel_175, ??CrossCallReturnLabel_4
        CFI (cfiCond207) R6 load(1, XDATA, add(CFA_XSP16, literal(-16)))
        CFI (cfiCond207) VB load(1, XDATA, add(CFA_XSP16, literal(-15)))
        CFI (cfiCond207) V0 load(1, XDATA, add(CFA_XSP16, literal(-14)))
        CFI (cfiCond207) V1 load(1, XDATA, add(CFA_XSP16, literal(-13)))
        CFI (cfiCond207) V2 load(1, XDATA, add(CFA_XSP16, literal(-12)))
        CFI (cfiCond207) V3 load(1, XDATA, add(CFA_XSP16, literal(-11)))
        CFI (cfiCond207) V4 load(1, XDATA, add(CFA_XSP16, literal(-10)))
        CFI (cfiCond207) V5 load(1, XDATA, add(CFA_XSP16, literal(-9)))
        CFI (cfiCond207) V6 load(1, XDATA, add(CFA_XSP16, literal(-8)))
        CFI (cfiCond207) V7 load(1, XDATA, add(CFA_XSP16, literal(-7)))
        CFI (cfiCond207) R7 load(1, XDATA, add(CFA_XSP16, literal(-6)))
        CFI (cfiCond207) ?RET_LOW load(1, XDATA, add(CFA_XSP16, literal(-5)))
        CFI (cfiCond207) ?RET_HIGH load(1, XDATA, add(CFA_XSP16, literal(-4)))
        CFI (cfiCond207) ?BRET_EXT load(1, XDATA, add(CFA_XSP16, literal(-3)))
        CFI (cfiCond207) DPL0 load(1, XDATA, add(CFA_XSP16, literal(-2)))
        CFI (cfiCond207) DPH0 load(1, XDATA, add(CFA_XSP16, literal(-1)))
        CFI (cfiCond207) CFA_SP SP+0
        CFI (cfiCond207) CFA_XSP16 add(XSP16, 17)
        CFI Block cfiCond208 Using cfiCommon0
        CFI (cfiCond208) NoFunction
        CFI (cfiCond208) Conditional ??CrossCallReturnLabel_175, ??CrossCallReturnLabel_5
        CFI (cfiCond208) R6 load(1, XDATA, add(CFA_XSP16, literal(-16)))
        CFI (cfiCond208) VB load(1, XDATA, add(CFA_XSP16, literal(-15)))
        CFI (cfiCond208) V0 load(1, XDATA, add(CFA_XSP16, literal(-14)))
        CFI (cfiCond208) V1 load(1, XDATA, add(CFA_XSP16, literal(-13)))
        CFI (cfiCond208) V2 load(1, XDATA, add(CFA_XSP16, literal(-12)))
        CFI (cfiCond208) V3 load(1, XDATA, add(CFA_XSP16, literal(-11)))
        CFI (cfiCond208) V4 load(1, XDATA, add(CFA_XSP16, literal(-10)))
        CFI (cfiCond208) V5 load(1, XDATA, add(CFA_XSP16, literal(-9)))
        CFI (cfiCond208) V6 load(1, XDATA, add(CFA_XSP16, literal(-8)))
        CFI (cfiCond208) V7 load(1, XDATA, add(CFA_XSP16, literal(-7)))
        CFI (cfiCond208) R7 load(1, XDATA, add(CFA_XSP16, literal(-6)))
        CFI (cfiCond208) ?RET_LOW load(1, XDATA, add(CFA_XSP16, literal(-5)))
        CFI (cfiCond208) ?RET_HIGH load(1, XDATA, add(CFA_XSP16, literal(-4)))
        CFI (cfiCond208) ?BRET_EXT load(1, XDATA, add(CFA_XSP16, literal(-3)))
        CFI (cfiCond208) DPL0 load(1, XDATA, add(CFA_XSP16, literal(-2)))
        CFI (cfiCond208) DPH0 load(1, XDATA, add(CFA_XSP16, literal(-1)))
        CFI (cfiCond208) CFA_SP SP+0
        CFI (cfiCond208) CFA_XSP16 add(XSP16, 17)
        CFI Block cfiCond209 Using cfiCommon0
        CFI (cfiCond209) NoFunction
        CFI (cfiCond209) Conditional ??CrossCallReturnLabel_175, ??CrossCallReturnLabel_6
        CFI (cfiCond209) R6 load(1, XDATA, add(CFA_XSP16, literal(-16)))
        CFI (cfiCond209) VB load(1, XDATA, add(CFA_XSP16, literal(-15)))
        CFI (cfiCond209) V0 load(1, XDATA, add(CFA_XSP16, literal(-14)))
        CFI (cfiCond209) V1 load(1, XDATA, add(CFA_XSP16, literal(-13)))
        CFI (cfiCond209) V2 load(1, XDATA, add(CFA_XSP16, literal(-12)))
        CFI (cfiCond209) V3 load(1, XDATA, add(CFA_XSP16, literal(-11)))
        CFI (cfiCond209) V4 load(1, XDATA, add(CFA_XSP16, literal(-10)))
        CFI (cfiCond209) V5 load(1, XDATA, add(CFA_XSP16, literal(-9)))
        CFI (cfiCond209) V6 load(1, XDATA, add(CFA_XSP16, literal(-8)))
        CFI (cfiCond209) V7 load(1, XDATA, add(CFA_XSP16, literal(-7)))
        CFI (cfiCond209) R7 load(1, XDATA, add(CFA_XSP16, literal(-6)))
        CFI (cfiCond209) ?RET_LOW load(1, XDATA, add(CFA_XSP16, literal(-5)))
        CFI (cfiCond209) ?RET_HIGH load(1, XDATA, add(CFA_XSP16, literal(-4)))
        CFI (cfiCond209) ?BRET_EXT load(1, XDATA, add(CFA_XSP16, literal(-3)))
        CFI (cfiCond209) DPL0 load(1, XDATA, add(CFA_XSP16, literal(-2)))
        CFI (cfiCond209) DPH0 load(1, XDATA, add(CFA_XSP16, literal(-1)))
        CFI (cfiCond209) CFA_SP SP+0
        CFI (cfiCond209) CFA_XSP16 add(XSP16, 17)
        CFI Block cfiCond210 Using cfiCommon0
        CFI (cfiCond210) NoFunction
        CFI (cfiCond210) Conditional ??CrossCallReturnLabel_176
        CFI (cfiCond210) R6 load(1, XDATA, add(CFA_XSP16, literal(-16)))
        CFI (cfiCond210) VB load(1, XDATA, add(CFA_XSP16, literal(-15)))
        CFI (cfiCond210) V0 load(1, XDATA, add(CFA_XSP16, literal(-14)))
        CFI (cfiCond210) V1 load(1, XDATA, add(CFA_XSP16, literal(-13)))
        CFI (cfiCond210) V2 load(1, XDATA, add(CFA_XSP16, literal(-12)))
        CFI (cfiCond210) V3 load(1, XDATA, add(CFA_XSP16, literal(-11)))
        CFI (cfiCond210) V4 load(1, XDATA, add(CFA_XSP16, literal(-10)))
        CFI (cfiCond210) V5 load(1, XDATA, add(CFA_XSP16, literal(-9)))
        CFI (cfiCond210) V6 load(1, XDATA, add(CFA_XSP16, literal(-8)))
        CFI (cfiCond210) V7 load(1, XDATA, add(CFA_XSP16, literal(-7)))
        CFI (cfiCond210) R7 load(1, XDATA, add(CFA_XSP16, literal(-6)))
        CFI (cfiCond210) ?RET_LOW load(1, XDATA, add(CFA_XSP16, literal(-5)))
        CFI (cfiCond210) ?RET_HIGH load(1, XDATA, add(CFA_XSP16, literal(-4)))
        CFI (cfiCond210) ?BRET_EXT load(1, XDATA, add(CFA_XSP16, literal(-3)))
        CFI (cfiCond210) DPL0 load(1, XDATA, add(CFA_XSP16, literal(-2)))
        CFI (cfiCond210) DPH0 load(1, XDATA, add(CFA_XSP16, literal(-1)))
        CFI (cfiCond210) CFA_SP SP+0
        CFI (cfiCond210) CFA_XSP16 add(XSP16, 42)
        CFI Block cfiCond211 Using cfiCommon0
        CFI (cfiCond211) NoFunction
        CFI (cfiCond211) Conditional ??CrossCallReturnLabel_177
        CFI (cfiCond211) R6 load(1, XDATA, add(CFA_XSP16, literal(-16)))
        CFI (cfiCond211) VB load(1, XDATA, add(CFA_XSP16, literal(-15)))
        CFI (cfiCond211) V0 load(1, XDATA, add(CFA_XSP16, literal(-14)))
        CFI (cfiCond211) V1 load(1, XDATA, add(CFA_XSP16, literal(-13)))
        CFI (cfiCond211) V2 load(1, XDATA, add(CFA_XSP16, literal(-12)))
        CFI (cfiCond211) V3 load(1, XDATA, add(CFA_XSP16, literal(-11)))
        CFI (cfiCond211) V4 load(1, XDATA, add(CFA_XSP16, literal(-10)))
        CFI (cfiCond211) V5 load(1, XDATA, add(CFA_XSP16, literal(-9)))
        CFI (cfiCond211) V6 load(1, XDATA, add(CFA_XSP16, literal(-8)))
        CFI (cfiCond211) V7 load(1, XDATA, add(CFA_XSP16, literal(-7)))
        CFI (cfiCond211) R7 load(1, XDATA, add(CFA_XSP16, literal(-6)))
        CFI (cfiCond211) ?RET_LOW load(1, XDATA, add(CFA_XSP16, literal(-5)))
        CFI (cfiCond211) ?RET_HIGH load(1, XDATA, add(CFA_XSP16, literal(-4)))
        CFI (cfiCond211) ?BRET_EXT load(1, XDATA, add(CFA_XSP16, literal(-3)))
        CFI (cfiCond211) DPL0 load(1, XDATA, add(CFA_XSP16, literal(-2)))
        CFI (cfiCond211) DPH0 load(1, XDATA, add(CFA_XSP16, literal(-1)))
        CFI (cfiCond211) CFA_SP SP+0
        CFI (cfiCond211) CFA_XSP16 add(XSP16, 42)
        CFI Block cfiPicker212 Using cfiCommon1
        CFI (cfiPicker212) NoFunction
        CFI (cfiPicker212) Picker
        MOV     ?V0 + 1,#0x0
        MOV     R0,#?V0 + 0
        RET
        CFI EndBlock cfiCond201
        CFI EndBlock cfiCond202
        CFI EndBlock cfiCond203
        CFI EndBlock cfiCond204
        CFI EndBlock cfiCond205
        CFI EndBlock cfiCond206
        CFI EndBlock cfiCond207
        CFI EndBlock cfiCond208
        CFI EndBlock cfiCond209
        CFI EndBlock cfiCond210
        CFI EndBlock cfiCond211
        CFI EndBlock cfiPicker212
// 1648 
// 1649 /*********************************************************************
// 1650  * @fn      p2p_test_recv_RelationMsgclusterId
// 1651  *
// 1652  * @brief   
// 1653  *
// 1654  * @param   none
// 1655  *
// 1656  * @return  none
// 1657  */

        RSEG BANKED_CODE:CODE:NOROOT(0)
// 1658 void p2p_test_recv_RelationMsgclusterId(uint8 *pkt,uint8 length,uint16 srcaddr)
p2p_test_recv_RelationMsgclusterId:
        CFI Block cfiBlock213 Using cfiCommon0
        CFI Function p2p_test_recv_RelationMsgclusterId
// 1659 {
        FUNCALL p2p_test_recv_RelationMsgclusterId, osal_msg_allocate
        LOCFRAME ISTACK, 0, STACK
        LOCFRAME PSTACK, 0, STACK
        LOCFRAME XSTACK, 22, STACK
        LOCFRAME IOVERLAY, 0, STATIC
        LOCFRAME DOVERLAY, 0, STATIC
        ARGFRAME ISTACK, 0, STACK
        ARGFRAME PSTACK, 0, STACK
        ARGFRAME XSTACK, 22, STACK
        ARGFRAME IOVERLAY, 0, STATIC
        ARGFRAME DOVERLAY, 0, STATIC
        FUNCALL p2p_test_recv_RelationMsgclusterId, fill_AppHead
        LOCFRAME ISTACK, 0, STACK
        LOCFRAME PSTACK, 0, STACK
        LOCFRAME XSTACK, 24, STACK
        LOCFRAME IOVERLAY, 0, STATIC
        LOCFRAME DOVERLAY, 0, STATIC
        ARGFRAME ISTACK, 0, STACK
        ARGFRAME PSTACK, 0, STACK
        ARGFRAME XSTACK, 24, STACK
        ARGFRAME IOVERLAY, 0, STATIC
        ARGFRAME DOVERLAY, 0, STATIC
        FUNCALL p2p_test_recv_RelationMsgclusterId, search_RelationMap
        LOCFRAME ISTACK, 0, STACK
        LOCFRAME PSTACK, 0, STACK
        LOCFRAME XSTACK, 22, STACK
        LOCFRAME IOVERLAY, 0, STATIC
        LOCFRAME DOVERLAY, 0, STATIC
        ARGFRAME ISTACK, 0, STACK
        ARGFRAME PSTACK, 0, STACK
        ARGFRAME XSTACK, 22, STACK
        ARGFRAME IOVERLAY, 0, STATIC
        ARGFRAME DOVERLAY, 0, STATIC
        FUNCALL p2p_test_recv_RelationMsgclusterId, insert_RelationMap
        LOCFRAME ISTACK, 0, STACK
        LOCFRAME PSTACK, 0, STACK
        LOCFRAME XSTACK, 22, STACK
        LOCFRAME IOVERLAY, 0, STATIC
        LOCFRAME DOVERLAY, 0, STATIC
        ARGFRAME ISTACK, 0, STACK
        ARGFRAME PSTACK, 0, STACK
        ARGFRAME XSTACK, 22, STACK
        ARGFRAME IOVERLAY, 0, STATIC
        ARGFRAME DOVERLAY, 0, STATIC
        FUNCALL p2p_test_recv_RelationMsgclusterId, AF_DataRequest
        LOCFRAME ISTACK, 0, STACK
        LOCFRAME PSTACK, 0, STACK
        LOCFRAME XSTACK, 31, STACK
        LOCFRAME IOVERLAY, 0, STATIC
        LOCFRAME DOVERLAY, 0, STATIC
        ARGFRAME ISTACK, 0, STACK
        ARGFRAME PSTACK, 0, STACK
        ARGFRAME XSTACK, 31, STACK
        ARGFRAME IOVERLAY, 0, STATIC
        ARGFRAME DOVERLAY, 0, STATIC
        FUNCALL p2p_test_recv_RelationMsgclusterId, print_AssociatedDevList
        LOCFRAME ISTACK, 0, STACK
        LOCFRAME PSTACK, 0, STACK
        LOCFRAME XSTACK, 22, STACK
        LOCFRAME IOVERLAY, 0, STATIC
        LOCFRAME DOVERLAY, 0, STATIC
        ARGFRAME ISTACK, 0, STACK
        ARGFRAME PSTACK, 0, STACK
        ARGFRAME XSTACK, 22, STACK
        ARGFRAME IOVERLAY, 0, STATIC
        ARGFRAME DOVERLAY, 0, STATIC
        FUNCALL p2p_test_recv_RelationMsgclusterId, SendMsg
        LOCFRAME ISTACK, 0, STACK
        LOCFRAME PSTACK, 0, STACK
        LOCFRAME XSTACK, 28, STACK
        LOCFRAME IOVERLAY, 0, STATIC
        LOCFRAME DOVERLAY, 0, STATIC
        ARGFRAME ISTACK, 0, STACK
        ARGFRAME PSTACK, 0, STACK
        ARGFRAME XSTACK, 28, STACK
        ARGFRAME IOVERLAY, 0, STATIC
        ARGFRAME DOVERLAY, 0, STATIC
        FUNCALL p2p_test_recv_RelationMsgclusterId, osal_msg_deallocate
        LOCFRAME ISTACK, 0, STACK
        LOCFRAME PSTACK, 0, STACK
        LOCFRAME XSTACK, 22, STACK
        LOCFRAME IOVERLAY, 0, STATIC
        LOCFRAME DOVERLAY, 0, STATIC
        ARGFRAME ISTACK, 0, STACK
        ARGFRAME PSTACK, 0, STACK
        ARGFRAME XSTACK, 22, STACK
        ARGFRAME IOVERLAY, 0, STATIC
        ARGFRAME DOVERLAY, 0, STATIC
        FUNCALL p2p_test_recv_RelationMsgclusterId, osal_stop_timerEx
        LOCFRAME ISTACK, 0, STACK
        LOCFRAME PSTACK, 0, STACK
        LOCFRAME XSTACK, 22, STACK
        LOCFRAME IOVERLAY, 0, STATIC
        LOCFRAME DOVERLAY, 0, STATIC
        ARGFRAME ISTACK, 0, STACK
        ARGFRAME PSTACK, 0, STACK
        ARGFRAME XSTACK, 22, STACK
        ARGFRAME IOVERLAY, 0, STATIC
        ARGFRAME DOVERLAY, 0, STATIC
        MOV     A,#-0x10
        LCALL   ?BANKED_ENTER_XDATA
        CFI DPH0 load(1, XDATA, add(CFA_XSP16, literal(-1)))
        CFI DPL0 load(1, XDATA, add(CFA_XSP16, literal(-2)))
        CFI ?BRET_EXT load(1, XDATA, add(CFA_XSP16, literal(-3)))
        CFI ?RET_HIGH load(1, XDATA, add(CFA_XSP16, literal(-4)))
        CFI ?RET_LOW load(1, XDATA, add(CFA_XSP16, literal(-5)))
        CFI R7 load(1, XDATA, add(CFA_XSP16, literal(-6)))
        CFI V7 load(1, XDATA, add(CFA_XSP16, literal(-7)))
        CFI V6 load(1, XDATA, add(CFA_XSP16, literal(-8)))
        CFI V5 load(1, XDATA, add(CFA_XSP16, literal(-9)))
        CFI V4 load(1, XDATA, add(CFA_XSP16, literal(-10)))
        CFI V3 load(1, XDATA, add(CFA_XSP16, literal(-11)))
        CFI V2 load(1, XDATA, add(CFA_XSP16, literal(-12)))
        CFI V1 load(1, XDATA, add(CFA_XSP16, literal(-13)))
        CFI V0 load(1, XDATA, add(CFA_XSP16, literal(-14)))
        CFI VB load(1, XDATA, add(CFA_XSP16, literal(-15)))
        CFI R6 load(1, XDATA, add(CFA_XSP16, literal(-16)))
        CFI CFA_SP SP+0
        CFI CFA_XSP16 add(XSP16, 16)
        ; Saved register size: 16
        ; Auto size: 6
        MOV     A,#-0x6
        LCALL   ?ALLOC_XSTACK8
        CFI CFA_XSP16 add(XSP16, 22)
        MOV     DPL,?XSP + 0
        MOV     DPH,?XSP + 1
        MOV     A,R4
        MOVX    @DPTR,A
        INC     DPTR
        MOV     A,R5
        MOVX    @DPTR,A
        MOV     ?V0 + 0,R2
        MOV     ?V0 + 1,R3
        MOV     ?V0 + 2,R1
// 1660   AppHead_t *AppHead = (AppHead_t *)pkt;
// 1661   uint16 num;
// 1662   uint8 temp_Zigbee_ID;
// 1663   uint8 temp_ARM_ID;
// 1664   uint8 temp_ACK;
// 1665   uint8 SendOption;
// 1666   struct RelationMap_t *temp_map=NULL;
// 1667  // static uint8 acknum=0;
// 1668   //coord print
// 1669  // SendMsg((uint8 *)pkt, length, p2p_test_DstAddr, AF_DISCV_ROUTE,p2p_test_RelationMsg);
// 1670   if(AppHead->type==TYPE_MAINTAIN)//coord receive fronm commom node relation Msg Request
        MOV     DPL,R2
        MOV     DPH,R3
        MOVX    A,@DPTR
        ANL     A,#0xf
        XRL     A,#0x1
        JZ      $+5
        LJMP    ??p2p_test_recv_RelationMsgclusterId_0 & 0xFFFF
// 1671   {
// 1672     if(AppHead->TypeCode==RELATION_MSG_UP)
        INC     DPTR
        MOVX    A,@DPTR
        XRL     A,#0x1
        JZ      $+5
        LJMP    ??p2p_test_recv_RelationMsgclusterId_1 & 0xFFFF
// 1673     {
// 1674       num=BUILD_UINT16(pkt[5],pkt[4]);
        MOV     DPL,R2
        MOV     DPH,R3
        INC     DPTR
        INC     DPTR
        INC     DPTR
        INC     DPTR
        INC     DPTR
        MOVX    A,@DPTR
        MOV     R2,A
        MOV     DPL,?V0 + 0
        MOV     DPH,R3
        INC     DPTR
        INC     DPTR
        INC     DPTR
        INC     DPTR
        MOVX    A,@DPTR
        MOV     R1,A
        MOV     A,R2
        MOV     R6,A
        MOV     A,R1
        MOV     R7,A
// 1675       //SendMsg((uint8 *)pkt, length, p2p_test_DstAddr, AF_DISCV_ROUTE,p2p_test_RelationMsg);
// 1676    /*   if(AppHead->AckRequire)
// 1677       {
// 1678         SendOption = AF_DISCV_ROUTE|AF_ACK_REQUEST;
// 1679       }
// 1680       else
// 1681       {
// 1682         SendOption = AF_DISCV_ROUTE;
// 1683       } */
// 1684       AppHeadNodeId_t *AppHeadNodeId=(AppHeadNodeId_t *)osal_msg_allocate(sizeof(AppHeadNodeId_t));
        ; Setup parameters for call to function osal_msg_allocate
        MOV     R2,#0x6
        MOV     R3,#0x0
        LCALL   ??osal_msg_allocate?relay
        MOV     ?V0 + 6,R2
        MOV     ?V0 + 7,R3
// 1685       SendOption = AF_DISCV_ROUTE;
// 1686       if(0==num)
        MOV     A,R6
        JNZ     ??p2p_test_recv_RelationMsgclusterId_2
        MOV     A,R7
??p2p_test_recv_RelationMsgclusterId_2:
        JZ      $+5
        LJMP    ??p2p_test_recv_RelationMsgclusterId_3 & 0xFFFF
// 1687       {
// 1688         temp_ACK=ACK_YES;
// 1689         //SendMsg((uint8 *)pkt, length, p2p_test_DstAddr, AF_DISCV_ROUTE,p2p_test_RelationMsg);
// 1690         fill_AppHead((AppHead_t *)&AppHeadNodeId->AppHead, temp_ACK, MAIN_VERSION, SUB_VERSION, TYPE_ACK,RELATION_MSG_DOWN);
        ; Setup parameters for call to function fill_AppHead
        MOV     ?V0 + 0,#0x1
        MOV     R0,#?V0 + 0
        LCALL   ?PUSH_XSTACK_I_ONE
        CFI CFA_XSP16 add(XSP16, 23)
        MOV     ?V0 + 0,#0xf
        MOV     R0,#?V0 + 0
        LCALL   ?PUSH_XSTACK_I_ONE
        CFI CFA_XSP16 add(XSP16, 24)
        MOV     R5,#0x1
        MOV     R4,#0x0
        MOV     R1,#0x1
        LCALL   ??fill_AppHead?relay
        MOV     A,#0x2
        LCALL   ?DEALLOC_XSTACK8
        CFI CFA_XSP16 add(XSP16, 22)
// 1691         if(Zigbee_ID!=0)
        MOV     DPTR,#Zigbee_ID
        MOVX    A,@DPTR
        JNZ     $+5
        LJMP    ??p2p_test_recv_RelationMsgclusterId_4 & 0xFFFF
// 1692          {
// 1693            temp_Zigbee_ID=search_RelationMap(srcaddr);//check srcaddr is in the RelationMap
        ; Setup parameters for call to function search_RelationMap
        MOV     DPL,?XSP + 0
        MOV     DPH,?XSP + 1
        LCALL   ?Subroutine62 & 0xFFFF
??CrossCallReturnLabel_169:
        LCALL   ??search_RelationMap?relay
        MOV     A,R1
        MOV     R6,A
// 1694            p2p_test_EnddeviceAddr.addr.shortAddr = srcaddr;//add by yd
        MOV     DPL,?XSP + 0
        MOV     DPH,?XSP + 1
        LCALL   ??Subroutine27_0 & 0xFFFF
??CrossCallReturnLabel_73:
        MOV     DPTR,#p2p_test_EnddeviceAddr
        LCALL   ??Subroutine7_0 & 0xFFFF
// 1695           //  HalUARTWrite(0,(uint8 *)&temp_Zigbee_ID,sizeof(temp_Zigbee_ID));
// 1696           if(0==temp_Zigbee_ID)
??CrossCallReturnLabel_23:
        MOV     A,R6
        JNZ     ??p2p_test_recv_RelationMsgclusterId_5
// 1697           {
// 1698             uint8 i;
// 1699             uint16 temp_flag;
// 1700             temp_flag=FlagMap;
        MOV     DPTR,#FlagMap
        LCALL   ?Subroutine62 & 0xFFFF
// 1701             uint16 t;
// 1702             for(i=1;i<16;i++)
??CrossCallReturnLabel_170:
        MOV     R1,#0x1
// 1703             {
// 1704               t=(temp_flag>>(i-1))&0x0001;
// 1705               if(t==0)
??p2p_test_recv_RelationMsgclusterId_6:
        MOV     ?V0 + 0,R2
        MOV     ?V0 + 1,R3
        MOV     A,#-0x1
        ADD     A,R1
        MOV     R0,#?V0 + 0
        LCALL   ?US_SHR
        MOV     A,?V0 + 0
        MOV     C,0xE0 /* A   */.0
        JNC     ??p2p_test_recv_RelationMsgclusterId_7
// 1706                 break;
// 1707             }
        INC     R1
        MOV     A,R1
        CLR     C
        SUBB    A,#0x10
        JC      ??p2p_test_recv_RelationMsgclusterId_6
// 1708             FlagMap=ADDFLAG16(FlagMap,i);
??p2p_test_recv_RelationMsgclusterId_7:
        MOV     ?V0 + 0,#0x1
        MOV     ?V0 + 1,#0x0
        MOV     A,#-0x1
        ADD     A,R1
        MOV     R0,#?V0 + 0
        LCALL   ?S_SHL
        LCALL   ?Subroutine37 & 0xFFFF
??CrossCallReturnLabel_97:
        MOVX    @DPTR,A
// 1709             temp_Zigbee_ID=i;
        MOV     A,R1
        MOV     R6,A
// 1710             insert_RelationMap(temp_map,srcaddr,i); 
        ; Setup parameters for call to function insert_RelationMap
        MOV     DPL,?XSP + 0
        MOV     DPH,?XSP + 1
        LCALL   ?Subroutine52 & 0xFFFF
??CrossCallReturnLabel_140:
        MOV     R2,#0x0
        MOV     R3,#0x0
        LCALL   ??insert_RelationMap?relay
// 1711           }
// 1712           AppHeadNodeId->NodeId.r=RES;
??p2p_test_recv_RelationMsgclusterId_5:
        LCALL   ?Subroutine40 & 0xFFFF
??CrossCallReturnLabel_105:
        PUSH    A
        CFI CFA_SP SP+-1
        MOV     DPL,R0
        MOV     DPH,R1
        MOVX    A,@DPTR
        ANL     A,#0xf
        MOV     R2,A
        POP     A
        CFI CFA_SP SP+0
        LCALL   ?Subroutine44 & 0xFFFF
// 1713           AppHeadNodeId->NodeId.ARM_id=ARM_ID;
??CrossCallReturnLabel_127:
        PUSH    A
        CFI CFA_SP SP+-1
        MOV     A,#-0x10
        ANL     A,R2
        MOV     R2,A
        POP     A
        CFI CFA_SP SP+0
        ORL     A,R2
        MOV     DPL,R0
        MOV     DPH,R1
        MOVX    @DPTR,A
// 1714           AppHeadNodeId->NodeId.Zigbee_id= temp_Zigbee_ID;//
// 1715           AppHeadNodeId->NodeId.sensor_type=0x00;
        MOV     A,R6
        SWAP    A
        ANL     A,#0xf0
        MOV     DPL,?V0 + 6
        MOV     DPH,?V0 + 7
        INC     DPTR
        INC     DPTR
        INC     DPTR
        INC     DPTR
        INC     DPTR
        MOVX    @DPTR,A
// 1716          // SendMsg((uint8 *)AppHeadNodeId,sizeof(AppHeadNodeId_t), p2p_test_DstAddr, AF_DISCV_ROUTE,p2p_test_RelationMsg);
// 1717           afAddrType_t p2p_test_DstAddr_temp;
// 1718           p2p_test_DstAddr_temp.addrMode = (afAddrMode_t)Addr16Bit;
        MOV     A,#0x4
        LCALL   ?XSTACK_DISP0_8
        MOV     A,#0x2
        MOVX    @DPTR,A
// 1719           p2p_test_DstAddr_temp.endPoint = p2p_test_ENDPOINT;
        MOV     A,#0x5
        LCALL   ?XSTACK_DISP0_8
        MOV     A,#0xa
        LCALL   ?Subroutine12 & 0xFFFF
// 1720           p2p_test_DstAddr_temp.addr.shortAddr = srcaddr;  
??CrossCallReturnLabel_33:
        MOV     R0,A
        INC     DPTR
        MOVX    A,@DPTR
        MOV     R1,A
        MOV     A,#0x2
        LCALL   ?XSTACK_DISP0_8
        LCALL   ?Subroutine6 & 0xFFFF
// 1721           AF_DataRequest( &p2p_test_DstAddr_temp, &p2p_test_epDesc,
// 1722                                    p2p_test_RelationMsg,
// 1723                                    sizeof(AppHeadNodeId_t),
// 1724                                    (uint8*)AppHeadNodeId,
// 1725                                    &p2p_test_TransID,
// 1726                                    SendOption, AF_DEFAULT_RADIUS);
??CrossCallReturnLabel_15:
        LCALL   ?PUSH_XSTACK_I_ONE
        CFI CFA_XSP16 add(XSP16, 23)
        MOV     ?V0 + 0,#(p2p_test_TransID & 0xff)
        MOV     ?V0 + 1,#((p2p_test_TransID >> 8) & 0xff)
        MOV     R0,#?V0 + 0
        LCALL   ?PUSH_XSTACK_I_TWO
        CFI CFA_XSP16 add(XSP16, 25)
        MOV     R0,#?V0 + 6
        LCALL   ?PUSH_XSTACK_I_TWO
        CFI CFA_XSP16 add(XSP16, 27)
        MOV     ?V0 + 0,#0x6
        MOV     ?V0 + 1,#0x0
        MOV     R0,#?V0 + 0
        LCALL   ?PUSH_XSTACK_I_TWO
        CFI CFA_XSP16 add(XSP16, 29)
        MOV     ?V0 + 0,#0x4
        MOV     R0,#?V0 + 0
        LCALL   ?PUSH_XSTACK_I_TWO
        CFI CFA_XSP16 add(XSP16, 31)
        MOV     R1,#0x20
        MOV     R4,#(p2p_test_epDesc & 0xff)
        MOV     R5,#((p2p_test_epDesc >> 8) & 0xff)
        MOV     A,#0xb
        LCALL   ?XSTACK_DISP0_8
        MOV     R2,DPL
        MOV     R3,DPH
        LCALL   ??AF_DataRequest?relay
        MOV     A,#0x9
        LCALL   ?DEALLOC_XSTACK8
        CFI CFA_XSP16 add(XSP16, 22)
// 1727           
// 1728         }
// 1729 #if defined(RTR_NWK)      
// 1730         print_AssociatedDevList();
??p2p_test_recv_RelationMsgclusterId_4:
        ; Setup parameters for call to function print_AssociatedDevList
        LCALL   ??print_AssociatedDevList?relay
        SJMP    ??p2p_test_recv_RelationMsgclusterId_8
// 1731 #endif 
// 1732       }
// 1733       else if(Zigbee_ID!=0 && num!=0)//num!=0,then send to uart
??p2p_test_recv_RelationMsgclusterId_3:
        MOV     DPTR,#Zigbee_ID
        MOVX    A,@DPTR
        JZ      ??p2p_test_recv_RelationMsgclusterId_8
// 1734       {
// 1735         temp_ACK=ACK_YES;
// 1736         SendMsg((uint8 *)pkt, length, p2p_test_DstAddr, AF_DISCV_ROUTE,p2p_test_RelationMsg);
        ; Setup parameters for call to function SendMsg
        MOV     ?V0 + 4,#0x4
        MOV     ?V0 + 5,#0x0
        MOV     R0,#?V0 + 4
        LCALL   ?PUSH_XSTACK_I_TWO
        CFI CFA_XSP16 add(XSP16, 24)
        MOV     DPTR,#p2p_test_DstAddr
        MOV     A,#0x4
        LCALL   ?PUSH_XSTACK8_X
        CFI CFA_XSP16 add(XSP16, 28)
        MOV     R4,#0x20
        MOV     R1,?V0 + 2
        MOV     R2,?V0 + 0
        MOV     R3,?V0 + 1
        LCALL   ??Subroutine43_0 & 0xFFFF
??CrossCallReturnLabel_123:
        LCALL   ?DEALLOC_XSTACK8
        CFI CFA_XSP16 add(XSP16, 22)
// 1737       }
// 1738       //fill_AppHead((AppHead_t *)&temp_DownAckMsg.AppHead,temp_ACK,MAIN_VERSION,SUB_VERSION,TYPE_ACK,RELATION_MSG_DOWN);
// 1739       osal_msg_deallocate((uint8 *)AppHeadNodeId); 
??p2p_test_recv_RelationMsgclusterId_8:
        ; Setup parameters for call to function osal_msg_deallocate
        MOV     R2,?V0 + 6
        MOV     R3,?V0 + 7
        LCALL   ??osal_msg_deallocate?relay
        SJMP    ??p2p_test_recv_RelationMsgclusterId_1
// 1740     }    
// 1741   }
// 1742   else if(AppHead->type==TYPE_ACK)//only common node receive form coord node's ACK RelationMsg
??p2p_test_recv_RelationMsgclusterId_0:
        MOVX    A,@DPTR
        ANL     A,#0xf
        XRL     A,#0xf
        JNZ     ??p2p_test_recv_RelationMsgclusterId_1
// 1743   { 
// 1744     //print something as flag
// 1745    // uint16 A=0xAAAA;
// 1746    // HalUARTWrite(0,(uint8 *)A,sizeof(A));
// 1747     if(AppHead->TypeCode==RELATION_MSG_DOWN)
        INC     DPTR
        MOVX    A,@DPTR
        XRL     A,#0x1
        JNZ     ??p2p_test_recv_RelationMsgclusterId_1
// 1748     {
// 1749       temp_ARM_ID=pkt[4]&0x0f;
        MOV     DPL,R2
        MOV     DPH,R3
        INC     DPTR
        INC     DPTR
        INC     DPTR
        INC     DPTR
        MOVX    A,@DPTR
        ANL     A,#0xf
        MOV     R2,A
// 1750       temp_Zigbee_ID=(pkt[5]&0xf0)>>4;
        MOV     DPL,?V0 + 0
        MOV     DPH,R3
        INC     DPTR
        INC     DPTR
        INC     DPTR
        INC     DPTR
        INC     DPTR
        MOVX    A,@DPTR
        SWAP    A
        ANL     A,#0xf
        MOV     R6,A
// 1751       if(ARM_ID==0 && Zigbee_ID==0)
        MOV     DPTR,#ARM_ID
        MOVX    A,@DPTR
        JNZ     ??p2p_test_recv_RelationMsgclusterId_9
        MOV     DPTR,#Zigbee_ID
        MOVX    A,@DPTR
        JNZ     ??p2p_test_recv_RelationMsgclusterId_9
// 1752       {
// 1753         ARM_ID=temp_ARM_ID;
        MOV     A,R2
        MOV     DPTR,#ARM_ID
        MOVX    @DPTR,A
// 1754         Zigbee_ID=temp_Zigbee_ID;
        MOV     A,R6
        MOV     DPTR,#Zigbee_ID
        SJMP    ??CrossCallReturnLabel_81
// 1755        // acknum=1;
// 1756       }
// 1757       else if(Zigbee_ID!=0 && ARM_ID==temp_ARM_ID && Zigbee_ID==temp_Zigbee_ID)  //ARM_ID!=0,Zigbee_ID!=0
??p2p_test_recv_RelationMsgclusterId_9:
        MOV     DPTR,#Zigbee_ID
        MOVX    A,@DPTR
        JZ      ??p2p_test_recv_RelationMsgclusterId_1
        MOV     DPTR,#ARM_ID
        MOVX    A,@DPTR
        XRL     A,R2
        JNZ     ??p2p_test_recv_RelationMsgclusterId_1
        MOV     DPTR,#Zigbee_ID
        MOVX    A,@DPTR
        XRL     A,R6
        JNZ     ??p2p_test_recv_RelationMsgclusterId_1
// 1758       { 
// 1759         if(relation_done == 0)//解决多次收到ack影响数据采集时间的bug
        MOV     DPTR,#relation_done
        MOVX    A,@DPTR
        JNZ     ??p2p_test_recv_RelationMsgclusterId_1
// 1760         {
// 1761          osal_stop_timerEx( p2p_test_TaskID,p2p_test_SEND_MAINTAIN_MSG_EVT);
        ; Setup parameters for call to function osal_stop_timerEx
        LCALL   ?Subroutine29 & 0xFFFF
// 1762          p2p_test_StartDataSensorTimer();
// 1763          relation_done =1;
??CrossCallReturnLabel_81:
        MOVX    @DPTR,A
// 1764         }
// 1765       }
// 1766     }
// 1767   }
// 1768 }
??p2p_test_recv_RelationMsgclusterId_1:
        MOV     A,#0x6
        CFI EndBlock cfiBlock213
        REQUIRE ?Subroutine68
        ; // Fall through to label ?Subroutine68

        RSEG BANKED_CODE:CODE:NOROOT(0)
?Subroutine68:
        CFI Block cfiBlock214 Using cfiCommon0
        CFI NoFunction
        CFI CFA_SP SP+0
        CFI CFA_XSP16 add(XSP16, 52)
        CFI VB load(1, XDATA, add(CFA_XSP16, literal(-15)))
        CFI DPL0 load(1, XDATA, add(CFA_XSP16, literal(-2)))
        CFI DPH0 load(1, XDATA, add(CFA_XSP16, literal(-1)))
        CFI R6 load(1, XDATA, add(CFA_XSP16, literal(-16)))
        CFI R7 load(1, XDATA, add(CFA_XSP16, literal(-6)))
        CFI V0 load(1, XDATA, add(CFA_XSP16, literal(-14)))
        CFI V1 load(1, XDATA, add(CFA_XSP16, literal(-13)))
        CFI V2 load(1, XDATA, add(CFA_XSP16, literal(-12)))
        CFI V3 load(1, XDATA, add(CFA_XSP16, literal(-11)))
        CFI V4 load(1, XDATA, add(CFA_XSP16, literal(-10)))
        CFI V5 load(1, XDATA, add(CFA_XSP16, literal(-9)))
        CFI V6 load(1, XDATA, add(CFA_XSP16, literal(-8)))
        CFI V7 load(1, XDATA, add(CFA_XSP16, literal(-7)))
        CFI ?BRET_EXT load(1, XDATA, add(CFA_XSP16, literal(-3)))
        CFI ?RET_HIGH load(1, XDATA, add(CFA_XSP16, literal(-4)))
        CFI ?RET_LOW load(1, XDATA, add(CFA_XSP16, literal(-5)))
        CFI Invalid
        LCALL   ?DEALLOC_XSTACK8
        CFI CFA_XSP16 add(XSP16, 16)
        CFI Valid
??Subroutine68_0:
        MOV     R7,#0x8
        LJMP    ?BANKED_LEAVE_XDATA
        CFI EndBlock cfiBlock214

        RSEG BANKED_CODE:CODE:NOROOT(0)
?Subroutine52:
        CFI Block cfiCond215 Using cfiCommon0
        CFI NoFunction
        CFI Conditional ??CrossCallReturnLabel_142, ??CrossCallReturnLabel_48
        CFI DPL0 Frame(CFA_SP, 4)
        CFI DPH0 Frame(CFA_SP, 5)
        CFI CFA_SP SP+-5
        CFI CFA_XSP16 add(XSP16, 1)
        CFI Block cfiCond216 Using cfiCommon0
        CFI (cfiCond216) NoFunction
        CFI (cfiCond216) Conditional ??CrossCallReturnLabel_142, ??CrossCallReturnLabel_49
        CFI (cfiCond216) DPL0 Frame(CFA_SP, 4)
        CFI (cfiCond216) DPH0 Frame(CFA_SP, 5)
        CFI (cfiCond216) CFA_SP SP+-5
        CFI Block cfiCond217 Using cfiCommon0
        CFI (cfiCond217) NoFunction
        CFI (cfiCond217) Conditional ??CrossCallReturnLabel_139
        CFI (cfiCond217) R6 load(1, XDATA, add(CFA_XSP16, literal(-10)))
        CFI (cfiCond217) VB load(1, XDATA, add(CFA_XSP16, literal(-9)))
        CFI (cfiCond217) V0 load(1, XDATA, add(CFA_XSP16, literal(-8)))
        CFI (cfiCond217) V1 load(1, XDATA, add(CFA_XSP16, literal(-7)))
        CFI (cfiCond217) R7 load(1, XDATA, add(CFA_XSP16, literal(-6)))
        CFI (cfiCond217) ?RET_LOW load(1, XDATA, add(CFA_XSP16, literal(-5)))
        CFI (cfiCond217) ?RET_HIGH load(1, XDATA, add(CFA_XSP16, literal(-4)))
        CFI (cfiCond217) ?BRET_EXT load(1, XDATA, add(CFA_XSP16, literal(-3)))
        CFI (cfiCond217) DPL0 load(1, XDATA, add(CFA_XSP16, literal(-2)))
        CFI (cfiCond217) DPH0 load(1, XDATA, add(CFA_XSP16, literal(-1)))
        CFI (cfiCond217) CFA_SP SP+0
        CFI (cfiCond217) CFA_XSP16 add(XSP16, 10)
        CFI Block cfiCond218 Using cfiCommon0
        CFI (cfiCond218) NoFunction
        CFI (cfiCond218) Conditional ??CrossCallReturnLabel_140
        CFI (cfiCond218) R6 load(1, XDATA, add(CFA_XSP16, literal(-16)))
        CFI (cfiCond218) VB load(1, XDATA, add(CFA_XSP16, literal(-15)))
        CFI (cfiCond218) V0 load(1, XDATA, add(CFA_XSP16, literal(-14)))
        CFI (cfiCond218) V1 load(1, XDATA, add(CFA_XSP16, literal(-13)))
        CFI (cfiCond218) V2 load(1, XDATA, add(CFA_XSP16, literal(-12)))
        CFI (cfiCond218) V3 load(1, XDATA, add(CFA_XSP16, literal(-11)))
        CFI (cfiCond218) V4 load(1, XDATA, add(CFA_XSP16, literal(-10)))
        CFI (cfiCond218) V5 load(1, XDATA, add(CFA_XSP16, literal(-9)))
        CFI (cfiCond218) V6 load(1, XDATA, add(CFA_XSP16, literal(-8)))
        CFI (cfiCond218) V7 load(1, XDATA, add(CFA_XSP16, literal(-7)))
        CFI (cfiCond218) R7 load(1, XDATA, add(CFA_XSP16, literal(-6)))
        CFI (cfiCond218) ?RET_LOW load(1, XDATA, add(CFA_XSP16, literal(-5)))
        CFI (cfiCond218) ?RET_HIGH load(1, XDATA, add(CFA_XSP16, literal(-4)))
        CFI (cfiCond218) ?BRET_EXT load(1, XDATA, add(CFA_XSP16, literal(-3)))
        CFI (cfiCond218) DPL0 load(1, XDATA, add(CFA_XSP16, literal(-2)))
        CFI (cfiCond218) DPH0 load(1, XDATA, add(CFA_XSP16, literal(-1)))
        CFI (cfiCond218) CFA_SP SP+0
        CFI (cfiCond218) CFA_XSP16 add(XSP16, 22)
        CFI Block cfiCond219 Using cfiCommon0
        CFI (cfiCond219) NoFunction
        CFI (cfiCond219) Conditional ??CrossCallReturnLabel_141
        CFI (cfiCond219) R6 load(1, XDATA, add(CFA_XSP16, literal(-10)))
        CFI (cfiCond219) VB load(1, XDATA, add(CFA_XSP16, literal(-9)))
        CFI (cfiCond219) V0 load(1, XDATA, add(CFA_XSP16, literal(-8)))
        CFI (cfiCond219) V1 load(1, XDATA, add(CFA_XSP16, literal(-7)))
        CFI (cfiCond219) R7 load(1, XDATA, add(CFA_XSP16, literal(-6)))
        CFI (cfiCond219) ?RET_LOW load(1, XDATA, add(CFA_XSP16, literal(-5)))
        CFI (cfiCond219) ?RET_HIGH load(1, XDATA, add(CFA_XSP16, literal(-4)))
        CFI (cfiCond219) ?BRET_EXT load(1, XDATA, add(CFA_XSP16, literal(-3)))
        CFI (cfiCond219) DPL0 load(1, XDATA, add(CFA_XSP16, literal(-2)))
        CFI (cfiCond219) DPH0 load(1, XDATA, add(CFA_XSP16, literal(-1)))
        CFI (cfiCond219) CFA_SP SP+0
        CFI (cfiCond219) CFA_XSP16 add(XSP16, 10)
        CFI Block cfiPicker220 Using cfiCommon1
        CFI (cfiPicker220) NoFunction
        CFI (cfiPicker220) Picker
        MOVX    A,@DPTR
        MOV     R4,A
        INC     DPTR
        MOVX    A,@DPTR
        MOV     R5,A
        RET
        CFI EndBlock cfiCond215
        CFI EndBlock cfiCond216
        CFI EndBlock cfiCond217
        CFI EndBlock cfiCond218
        CFI EndBlock cfiCond219
        CFI EndBlock cfiPicker220

        RSEG BANKED_CODE:CODE:NOROOT(0)
?Subroutine44:
        CFI Block cfiCond221 Using cfiCommon0
        CFI NoFunction
        CFI Conditional ??CrossCallReturnLabel_126
        CFI R6 load(1, XDATA, add(CFA_XSP16, literal(-16)))
        CFI VB load(1, XDATA, add(CFA_XSP16, literal(-15)))
        CFI V0 load(1, XDATA, add(CFA_XSP16, literal(-14)))
        CFI V1 load(1, XDATA, add(CFA_XSP16, literal(-13)))
        CFI V2 load(1, XDATA, add(CFA_XSP16, literal(-12)))
        CFI V3 load(1, XDATA, add(CFA_XSP16, literal(-11)))
        CFI V4 load(1, XDATA, add(CFA_XSP16, literal(-10)))
        CFI V5 load(1, XDATA, add(CFA_XSP16, literal(-9)))
        CFI V6 load(1, XDATA, add(CFA_XSP16, literal(-8)))
        CFI V7 load(1, XDATA, add(CFA_XSP16, literal(-7)))
        CFI R7 load(1, XDATA, add(CFA_XSP16, literal(-6)))
        CFI ?RET_LOW load(1, XDATA, add(CFA_XSP16, literal(-5)))
        CFI ?RET_HIGH load(1, XDATA, add(CFA_XSP16, literal(-4)))
        CFI ?BRET_EXT load(1, XDATA, add(CFA_XSP16, literal(-3)))
        CFI DPL0 load(1, XDATA, add(CFA_XSP16, literal(-2)))
        CFI DPH0 load(1, XDATA, add(CFA_XSP16, literal(-1)))
        CFI CFA_SP SP+0
        CFI CFA_XSP16 add(XSP16, 17)
        CFI Block cfiCond222 Using cfiCommon0
        CFI (cfiCond222) NoFunction
        CFI (cfiCond222) Conditional ??CrossCallReturnLabel_127
        CFI (cfiCond222) R6 load(1, XDATA, add(CFA_XSP16, literal(-16)))
        CFI (cfiCond222) VB load(1, XDATA, add(CFA_XSP16, literal(-15)))
        CFI (cfiCond222) V0 load(1, XDATA, add(CFA_XSP16, literal(-14)))
        CFI (cfiCond222) V1 load(1, XDATA, add(CFA_XSP16, literal(-13)))
        CFI (cfiCond222) V2 load(1, XDATA, add(CFA_XSP16, literal(-12)))
        CFI (cfiCond222) V3 load(1, XDATA, add(CFA_XSP16, literal(-11)))
        CFI (cfiCond222) V4 load(1, XDATA, add(CFA_XSP16, literal(-10)))
        CFI (cfiCond222) V5 load(1, XDATA, add(CFA_XSP16, literal(-9)))
        CFI (cfiCond222) V6 load(1, XDATA, add(CFA_XSP16, literal(-8)))
        CFI (cfiCond222) V7 load(1, XDATA, add(CFA_XSP16, literal(-7)))
        CFI (cfiCond222) R7 load(1, XDATA, add(CFA_XSP16, literal(-6)))
        CFI (cfiCond222) ?RET_LOW load(1, XDATA, add(CFA_XSP16, literal(-5)))
        CFI (cfiCond222) ?RET_HIGH load(1, XDATA, add(CFA_XSP16, literal(-4)))
        CFI (cfiCond222) ?BRET_EXT load(1, XDATA, add(CFA_XSP16, literal(-3)))
        CFI (cfiCond222) DPL0 load(1, XDATA, add(CFA_XSP16, literal(-2)))
        CFI (cfiCond222) DPH0 load(1, XDATA, add(CFA_XSP16, literal(-1)))
        CFI (cfiCond222) CFA_SP SP+0
        CFI (cfiCond222) CFA_XSP16 add(XSP16, 22)
        CFI Block cfiPicker223 Using cfiCommon1
        CFI (cfiPicker223) NoFunction
        CFI (cfiPicker223) Picker
        ORL     A,R2
        MOV     R2,A
        MOVX    @DPTR,A
        MOV     DPTR,#ARM_ID
        MOVX    A,@DPTR
        ANL     A,#0xf
        RET
        CFI EndBlock cfiCond221
        CFI EndBlock cfiCond222
        CFI EndBlock cfiPicker223

        RSEG BANKED_CODE:CODE:NOROOT(0)
?Subroutine40:
        CFI Block cfiCond224 Using cfiCommon0
        CFI NoFunction
        CFI Conditional ??CrossCallReturnLabel_104
        CFI R6 load(1, XDATA, add(CFA_XSP16, literal(-16)))
        CFI VB load(1, XDATA, add(CFA_XSP16, literal(-15)))
        CFI V0 load(1, XDATA, add(CFA_XSP16, literal(-14)))
        CFI V1 load(1, XDATA, add(CFA_XSP16, literal(-13)))
        CFI V2 load(1, XDATA, add(CFA_XSP16, literal(-12)))
        CFI V3 load(1, XDATA, add(CFA_XSP16, literal(-11)))
        CFI V4 load(1, XDATA, add(CFA_XSP16, literal(-10)))
        CFI V5 load(1, XDATA, add(CFA_XSP16, literal(-9)))
        CFI V6 load(1, XDATA, add(CFA_XSP16, literal(-8)))
        CFI V7 load(1, XDATA, add(CFA_XSP16, literal(-7)))
        CFI R7 load(1, XDATA, add(CFA_XSP16, literal(-6)))
        CFI ?RET_LOW load(1, XDATA, add(CFA_XSP16, literal(-5)))
        CFI ?RET_HIGH load(1, XDATA, add(CFA_XSP16, literal(-4)))
        CFI ?BRET_EXT load(1, XDATA, add(CFA_XSP16, literal(-3)))
        CFI DPL0 load(1, XDATA, add(CFA_XSP16, literal(-2)))
        CFI DPH0 load(1, XDATA, add(CFA_XSP16, literal(-1)))
        CFI CFA_SP SP+0
        CFI CFA_XSP16 add(XSP16, 17)
        CFI Block cfiCond225 Using cfiCommon0
        CFI (cfiCond225) NoFunction
        CFI (cfiCond225) Conditional ??CrossCallReturnLabel_105
        CFI (cfiCond225) R6 load(1, XDATA, add(CFA_XSP16, literal(-16)))
        CFI (cfiCond225) VB load(1, XDATA, add(CFA_XSP16, literal(-15)))
        CFI (cfiCond225) V0 load(1, XDATA, add(CFA_XSP16, literal(-14)))
        CFI (cfiCond225) V1 load(1, XDATA, add(CFA_XSP16, literal(-13)))
        CFI (cfiCond225) V2 load(1, XDATA, add(CFA_XSP16, literal(-12)))
        CFI (cfiCond225) V3 load(1, XDATA, add(CFA_XSP16, literal(-11)))
        CFI (cfiCond225) V4 load(1, XDATA, add(CFA_XSP16, literal(-10)))
        CFI (cfiCond225) V5 load(1, XDATA, add(CFA_XSP16, literal(-9)))
        CFI (cfiCond225) V6 load(1, XDATA, add(CFA_XSP16, literal(-8)))
        CFI (cfiCond225) V7 load(1, XDATA, add(CFA_XSP16, literal(-7)))
        CFI (cfiCond225) R7 load(1, XDATA, add(CFA_XSP16, literal(-6)))
        CFI (cfiCond225) ?RET_LOW load(1, XDATA, add(CFA_XSP16, literal(-5)))
        CFI (cfiCond225) ?RET_HIGH load(1, XDATA, add(CFA_XSP16, literal(-4)))
        CFI (cfiCond225) ?BRET_EXT load(1, XDATA, add(CFA_XSP16, literal(-3)))
        CFI (cfiCond225) DPL0 load(1, XDATA, add(CFA_XSP16, literal(-2)))
        CFI (cfiCond225) DPH0 load(1, XDATA, add(CFA_XSP16, literal(-1)))
        CFI (cfiCond225) CFA_SP SP+0
        CFI (cfiCond225) CFA_XSP16 add(XSP16, 22)
        CFI Block cfiPicker226 Using cfiCommon1
        CFI (cfiPicker226) NoFunction
        CFI (cfiPicker226) Picker
        MOV     A,?V0 + 6
        ADD     A,#0x4
        MOV     R0,A
        MOV     A,?V0 + 7
        ADDC    A,#0x0
        MOV     R1,A
        MOV     DPTR,#RES
        MOVX    A,@DPTR
        SWAP    A
        ANL     A,#0xf0
        RET
        CFI EndBlock cfiCond224
        CFI EndBlock cfiCond225
        CFI EndBlock cfiPicker226

        RSEG BANKED_CODE:CODE:NOROOT(0)
?Subroutine12:
        CFI Block cfiCond227 Using cfiCommon0
        CFI NoFunction
        CFI Conditional ??CrossCallReturnLabel_32
        CFI R6 load(1, XDATA, add(CFA_XSP16, literal(-16)))
        CFI VB load(1, XDATA, add(CFA_XSP16, literal(-15)))
        CFI V0 load(1, XDATA, add(CFA_XSP16, literal(-14)))
        CFI V1 load(1, XDATA, add(CFA_XSP16, literal(-13)))
        CFI V2 load(1, XDATA, add(CFA_XSP16, literal(-12)))
        CFI V3 load(1, XDATA, add(CFA_XSP16, literal(-11)))
        CFI V4 load(1, XDATA, add(CFA_XSP16, literal(-10)))
        CFI V5 load(1, XDATA, add(CFA_XSP16, literal(-9)))
        CFI V6 load(1, XDATA, add(CFA_XSP16, literal(-8)))
        CFI V7 load(1, XDATA, add(CFA_XSP16, literal(-7)))
        CFI R7 load(1, XDATA, add(CFA_XSP16, literal(-6)))
        CFI ?RET_LOW load(1, XDATA, add(CFA_XSP16, literal(-5)))
        CFI ?RET_HIGH load(1, XDATA, add(CFA_XSP16, literal(-4)))
        CFI ?BRET_EXT load(1, XDATA, add(CFA_XSP16, literal(-3)))
        CFI DPL0 load(1, XDATA, add(CFA_XSP16, literal(-2)))
        CFI DPH0 load(1, XDATA, add(CFA_XSP16, literal(-1)))
        CFI CFA_SP SP+0
        CFI CFA_XSP16 add(XSP16, 17)
        CFI Block cfiCond228 Using cfiCommon0
        CFI (cfiCond228) NoFunction
        CFI (cfiCond228) Conditional ??CrossCallReturnLabel_33
        CFI (cfiCond228) R6 load(1, XDATA, add(CFA_XSP16, literal(-16)))
        CFI (cfiCond228) VB load(1, XDATA, add(CFA_XSP16, literal(-15)))
        CFI (cfiCond228) V0 load(1, XDATA, add(CFA_XSP16, literal(-14)))
        CFI (cfiCond228) V1 load(1, XDATA, add(CFA_XSP16, literal(-13)))
        CFI (cfiCond228) V2 load(1, XDATA, add(CFA_XSP16, literal(-12)))
        CFI (cfiCond228) V3 load(1, XDATA, add(CFA_XSP16, literal(-11)))
        CFI (cfiCond228) V4 load(1, XDATA, add(CFA_XSP16, literal(-10)))
        CFI (cfiCond228) V5 load(1, XDATA, add(CFA_XSP16, literal(-9)))
        CFI (cfiCond228) V6 load(1, XDATA, add(CFA_XSP16, literal(-8)))
        CFI (cfiCond228) V7 load(1, XDATA, add(CFA_XSP16, literal(-7)))
        CFI (cfiCond228) R7 load(1, XDATA, add(CFA_XSP16, literal(-6)))
        CFI (cfiCond228) ?RET_LOW load(1, XDATA, add(CFA_XSP16, literal(-5)))
        CFI (cfiCond228) ?RET_HIGH load(1, XDATA, add(CFA_XSP16, literal(-4)))
        CFI (cfiCond228) ?BRET_EXT load(1, XDATA, add(CFA_XSP16, literal(-3)))
        CFI (cfiCond228) DPL0 load(1, XDATA, add(CFA_XSP16, literal(-2)))
        CFI (cfiCond228) DPH0 load(1, XDATA, add(CFA_XSP16, literal(-1)))
        CFI (cfiCond228) CFA_SP SP+0
        CFI (cfiCond228) CFA_XSP16 add(XSP16, 22)
        CFI Block cfiPicker229 Using cfiCommon1
        CFI (cfiPicker229) NoFunction
        CFI (cfiPicker229) Picker
        MOVX    @DPTR,A
        MOV     DPL,?XSP + 0
        MOV     DPH,?XSP + 1
        MOVX    A,@DPTR
        RET
        CFI EndBlock cfiCond227
        CFI EndBlock cfiCond228
        CFI EndBlock cfiPicker229

        RSEG BANKED_CODE:CODE:NOROOT(0)
?Subroutine7:
        CFI Block cfiCond230 Using cfiCommon0
        CFI NoFunction
        CFI Conditional ??CrossCallReturnLabel_18
        CFI DPL0 Frame(CFA_SP, 4)
        CFI DPH0 Frame(CFA_SP, 5)
        CFI CFA_SP SP+-5
        CFI Block cfiCond231 Using cfiCommon0
        CFI (cfiCond231) NoFunction
        CFI (cfiCond231) Conditional ??CrossCallReturnLabel_25
        CFI (cfiCond231) R6 load(1, XDATA, add(CFA_XSP16, literal(-14)))
        CFI (cfiCond231) VB load(1, XDATA, add(CFA_XSP16, literal(-13)))
        CFI (cfiCond231) V0 load(1, XDATA, add(CFA_XSP16, literal(-12)))
        CFI (cfiCond231) V1 load(1, XDATA, add(CFA_XSP16, literal(-11)))
        CFI (cfiCond231) V2 load(1, XDATA, add(CFA_XSP16, literal(-10)))
        CFI (cfiCond231) V3 load(1, XDATA, add(CFA_XSP16, literal(-9)))
        CFI (cfiCond231) V4 load(1, XDATA, add(CFA_XSP16, literal(-8)))
        CFI (cfiCond231) V5 load(1, XDATA, add(CFA_XSP16, literal(-7)))
        CFI (cfiCond231) R7 load(1, XDATA, add(CFA_XSP16, literal(-6)))
        CFI (cfiCond231) ?RET_LOW load(1, XDATA, add(CFA_XSP16, literal(-5)))
        CFI (cfiCond231) ?RET_HIGH load(1, XDATA, add(CFA_XSP16, literal(-4)))
        CFI (cfiCond231) ?BRET_EXT load(1, XDATA, add(CFA_XSP16, literal(-3)))
        CFI (cfiCond231) DPL0 load(1, XDATA, add(CFA_XSP16, literal(-2)))
        CFI (cfiCond231) DPH0 load(1, XDATA, add(CFA_XSP16, literal(-1)))
        CFI (cfiCond231) CFA_SP SP+0
        CFI (cfiCond231) CFA_XSP16 add(XSP16, 14)
        CFI Block cfiPicker232 Using cfiCommon1
        CFI (cfiPicker232) NoFunction
        CFI (cfiPicker232) Picker
        MOV     DPTR,#Tail_Map
        CFI Block cfiCond233 Using cfiCommon0
        CFI (cfiCond233) NoFunction
        CFI (cfiCond233) Conditional ??CrossCallReturnLabel_17
        CFI (cfiCond233) DPL0 Frame(CFA_SP, 4)
        CFI (cfiCond233) DPH0 Frame(CFA_SP, 5)
        CFI (cfiCond233) CFA_SP SP+-5
        CFI Block cfiCond234 Using cfiCommon0
        CFI (cfiCond234) NoFunction
        CFI (cfiCond234) Conditional ??CrossCallReturnLabel_19
        CFI (cfiCond234) R6 load(1, XDATA, add(CFA_XSP16, literal(-10)))
        CFI (cfiCond234) VB load(1, XDATA, add(CFA_XSP16, literal(-9)))
        CFI (cfiCond234) V0 load(1, XDATA, add(CFA_XSP16, literal(-8)))
        CFI (cfiCond234) V1 load(1, XDATA, add(CFA_XSP16, literal(-7)))
        CFI (cfiCond234) R7 load(1, XDATA, add(CFA_XSP16, literal(-6)))
        CFI (cfiCond234) ?RET_LOW load(1, XDATA, add(CFA_XSP16, literal(-5)))
        CFI (cfiCond234) ?RET_HIGH load(1, XDATA, add(CFA_XSP16, literal(-4)))
        CFI (cfiCond234) ?BRET_EXT load(1, XDATA, add(CFA_XSP16, literal(-3)))
        CFI (cfiCond234) DPL0 load(1, XDATA, add(CFA_XSP16, literal(-2)))
        CFI (cfiCond234) DPH0 load(1, XDATA, add(CFA_XSP16, literal(-1)))
        CFI (cfiCond234) CFA_SP SP+0
        CFI (cfiCond234) CFA_XSP16 add(XSP16, 10)
        CFI Block cfiCond235 Using cfiCommon0
        CFI (cfiCond235) NoFunction
        CFI (cfiCond235) Conditional ??CrossCallReturnLabel_21
        CFI (cfiCond235) R6 load(1, XDATA, add(CFA_XSP16, literal(-16)))
        CFI (cfiCond235) VB load(1, XDATA, add(CFA_XSP16, literal(-15)))
        CFI (cfiCond235) V0 load(1, XDATA, add(CFA_XSP16, literal(-14)))
        CFI (cfiCond235) V1 load(1, XDATA, add(CFA_XSP16, literal(-13)))
        CFI (cfiCond235) V2 load(1, XDATA, add(CFA_XSP16, literal(-12)))
        CFI (cfiCond235) V3 load(1, XDATA, add(CFA_XSP16, literal(-11)))
        CFI (cfiCond235) V4 load(1, XDATA, add(CFA_XSP16, literal(-10)))
        CFI (cfiCond235) V5 load(1, XDATA, add(CFA_XSP16, literal(-9)))
        CFI (cfiCond235) V6 load(1, XDATA, add(CFA_XSP16, literal(-8)))
        CFI (cfiCond235) V7 load(1, XDATA, add(CFA_XSP16, literal(-7)))
        CFI (cfiCond235) R7 load(1, XDATA, add(CFA_XSP16, literal(-6)))
        CFI (cfiCond235) ?RET_LOW load(1, XDATA, add(CFA_XSP16, literal(-5)))
        CFI (cfiCond235) ?RET_HIGH load(1, XDATA, add(CFA_XSP16, literal(-4)))
        CFI (cfiCond235) ?BRET_EXT load(1, XDATA, add(CFA_XSP16, literal(-3)))
        CFI (cfiCond235) DPL0 load(1, XDATA, add(CFA_XSP16, literal(-2)))
        CFI (cfiCond235) DPH0 load(1, XDATA, add(CFA_XSP16, literal(-1)))
        CFI (cfiCond235) CFA_SP SP+0
        CFI (cfiCond235) CFA_XSP16 add(XSP16, 17)
        CFI Block cfiCond236 Using cfiCommon0
        CFI (cfiCond236) NoFunction
        CFI (cfiCond236) Conditional ??CrossCallReturnLabel_22
        CFI (cfiCond236) R6 load(1, XDATA, add(CFA_XSP16, literal(-16)))
        CFI (cfiCond236) VB load(1, XDATA, add(CFA_XSP16, literal(-15)))
        CFI (cfiCond236) V0 load(1, XDATA, add(CFA_XSP16, literal(-14)))
        CFI (cfiCond236) V1 load(1, XDATA, add(CFA_XSP16, literal(-13)))
        CFI (cfiCond236) V2 load(1, XDATA, add(CFA_XSP16, literal(-12)))
        CFI (cfiCond236) V3 load(1, XDATA, add(CFA_XSP16, literal(-11)))
        CFI (cfiCond236) V4 load(1, XDATA, add(CFA_XSP16, literal(-10)))
        CFI (cfiCond236) V5 load(1, XDATA, add(CFA_XSP16, literal(-9)))
        CFI (cfiCond236) V6 load(1, XDATA, add(CFA_XSP16, literal(-8)))
        CFI (cfiCond236) V7 load(1, XDATA, add(CFA_XSP16, literal(-7)))
        CFI (cfiCond236) R7 load(1, XDATA, add(CFA_XSP16, literal(-6)))
        CFI (cfiCond236) ?RET_LOW load(1, XDATA, add(CFA_XSP16, literal(-5)))
        CFI (cfiCond236) ?RET_HIGH load(1, XDATA, add(CFA_XSP16, literal(-4)))
        CFI (cfiCond236) ?BRET_EXT load(1, XDATA, add(CFA_XSP16, literal(-3)))
        CFI (cfiCond236) DPL0 load(1, XDATA, add(CFA_XSP16, literal(-2)))
        CFI (cfiCond236) DPH0 load(1, XDATA, add(CFA_XSP16, literal(-1)))
        CFI (cfiCond236) CFA_SP SP+0
        CFI (cfiCond236) CFA_XSP16 add(XSP16, 17)
        CFI Block cfiCond237 Using cfiCommon0
        CFI (cfiCond237) NoFunction
        CFI (cfiCond237) Conditional ??CrossCallReturnLabel_23
        CFI (cfiCond237) R6 load(1, XDATA, add(CFA_XSP16, literal(-16)))
        CFI (cfiCond237) VB load(1, XDATA, add(CFA_XSP16, literal(-15)))
        CFI (cfiCond237) V0 load(1, XDATA, add(CFA_XSP16, literal(-14)))
        CFI (cfiCond237) V1 load(1, XDATA, add(CFA_XSP16, literal(-13)))
        CFI (cfiCond237) V2 load(1, XDATA, add(CFA_XSP16, literal(-12)))
        CFI (cfiCond237) V3 load(1, XDATA, add(CFA_XSP16, literal(-11)))
        CFI (cfiCond237) V4 load(1, XDATA, add(CFA_XSP16, literal(-10)))
        CFI (cfiCond237) V5 load(1, XDATA, add(CFA_XSP16, literal(-9)))
        CFI (cfiCond237) V6 load(1, XDATA, add(CFA_XSP16, literal(-8)))
        CFI (cfiCond237) V7 load(1, XDATA, add(CFA_XSP16, literal(-7)))
        CFI (cfiCond237) R7 load(1, XDATA, add(CFA_XSP16, literal(-6)))
        CFI (cfiCond237) ?RET_LOW load(1, XDATA, add(CFA_XSP16, literal(-5)))
        CFI (cfiCond237) ?RET_HIGH load(1, XDATA, add(CFA_XSP16, literal(-4)))
        CFI (cfiCond237) ?BRET_EXT load(1, XDATA, add(CFA_XSP16, literal(-3)))
        CFI (cfiCond237) DPL0 load(1, XDATA, add(CFA_XSP16, literal(-2)))
        CFI (cfiCond237) DPH0 load(1, XDATA, add(CFA_XSP16, literal(-1)))
        CFI (cfiCond237) CFA_SP SP+0
        CFI (cfiCond237) CFA_XSP16 add(XSP16, 22)
        CFI Block cfiCond238 Using cfiCommon0
        CFI (cfiCond238) NoFunction
        CFI (cfiCond238) Conditional ??CrossCallReturnLabel_24
        CFI (cfiCond238) R6 load(1, XDATA, add(CFA_XSP16, literal(-14)))
        CFI (cfiCond238) VB load(1, XDATA, add(CFA_XSP16, literal(-13)))
        CFI (cfiCond238) V0 load(1, XDATA, add(CFA_XSP16, literal(-12)))
        CFI (cfiCond238) V1 load(1, XDATA, add(CFA_XSP16, literal(-11)))
        CFI (cfiCond238) V2 load(1, XDATA, add(CFA_XSP16, literal(-10)))
        CFI (cfiCond238) V3 load(1, XDATA, add(CFA_XSP16, literal(-9)))
        CFI (cfiCond238) V4 load(1, XDATA, add(CFA_XSP16, literal(-8)))
        CFI (cfiCond238) V5 load(1, XDATA, add(CFA_XSP16, literal(-7)))
        CFI (cfiCond238) R7 load(1, XDATA, add(CFA_XSP16, literal(-6)))
        CFI (cfiCond238) ?RET_LOW load(1, XDATA, add(CFA_XSP16, literal(-5)))
        CFI (cfiCond238) ?RET_HIGH load(1, XDATA, add(CFA_XSP16, literal(-4)))
        CFI (cfiCond238) ?BRET_EXT load(1, XDATA, add(CFA_XSP16, literal(-3)))
        CFI (cfiCond238) DPL0 load(1, XDATA, add(CFA_XSP16, literal(-2)))
        CFI (cfiCond238) DPH0 load(1, XDATA, add(CFA_XSP16, literal(-1)))
        CFI (cfiCond238) CFA_SP SP+0
        CFI (cfiCond238) CFA_XSP16 add(XSP16, 14)
??Subroutine7_0:
        MOV     A,R0
        CFI Block cfiCond239 Using cfiCommon0
        CFI (cfiCond239) NoFunction
        CFI (cfiCond239) Conditional ??CrossCallReturnLabel_20
        CFI (cfiCond239) R6 load(1, XDATA, add(CFA_XSP16, literal(-16)))
        CFI (cfiCond239) VB load(1, XDATA, add(CFA_XSP16, literal(-15)))
        CFI (cfiCond239) V0 load(1, XDATA, add(CFA_XSP16, literal(-14)))
        CFI (cfiCond239) V1 load(1, XDATA, add(CFA_XSP16, literal(-13)))
        CFI (cfiCond239) V2 load(1, XDATA, add(CFA_XSP16, literal(-12)))
        CFI (cfiCond239) V3 load(1, XDATA, add(CFA_XSP16, literal(-11)))
        CFI (cfiCond239) V4 load(1, XDATA, add(CFA_XSP16, literal(-10)))
        CFI (cfiCond239) V5 load(1, XDATA, add(CFA_XSP16, literal(-9)))
        CFI (cfiCond239) V6 load(1, XDATA, add(CFA_XSP16, literal(-8)))
        CFI (cfiCond239) V7 load(1, XDATA, add(CFA_XSP16, literal(-7)))
        CFI (cfiCond239) R7 load(1, XDATA, add(CFA_XSP16, literal(-6)))
        CFI (cfiCond239) ?RET_LOW load(1, XDATA, add(CFA_XSP16, literal(-5)))
        CFI (cfiCond239) ?RET_HIGH load(1, XDATA, add(CFA_XSP16, literal(-4)))
        CFI (cfiCond239) ?BRET_EXT load(1, XDATA, add(CFA_XSP16, literal(-3)))
        CFI (cfiCond239) DPL0 load(1, XDATA, add(CFA_XSP16, literal(-2)))
        CFI (cfiCond239) DPH0 load(1, XDATA, add(CFA_XSP16, literal(-1)))
        CFI (cfiCond239) CFA_SP SP+0
        CFI (cfiCond239) CFA_XSP16 add(XSP16, 17)
??Subroutine7_1:
        MOVX    @DPTR,A
        INC     DPTR
        MOV     A,R1
        MOVX    @DPTR,A
        RET
        CFI EndBlock cfiCond230
        CFI EndBlock cfiCond231
        CFI EndBlock cfiPicker232
        CFI EndBlock cfiCond233
        CFI EndBlock cfiCond234
        CFI EndBlock cfiCond235
        CFI EndBlock cfiCond236
        CFI EndBlock cfiCond237
        CFI EndBlock cfiCond238
        CFI EndBlock cfiCond239
// 1769 /*********************************************************************
// 1770  * @fn      p2p_test_RecvFromUart
// 1771  *
// 1772  * @brief   
// 1773  *
// 1774  * @param   none
// 1775  *
// 1776  * @return  none
// 1777  */

        RSEG BANKED_CODE:CODE:NOROOT(0)
// 1778 void p2p_test_RecvFromUart(uint8 *Msg)
p2p_test_RecvFromUart:
        CFI Block cfiBlock240 Using cfiCommon0
        CFI Function p2p_test_RecvFromUart
// 1779 {
        FUNCALL p2p_test_RecvFromUart, HalUARTWrite
        LOCFRAME ISTACK, 0, STACK
        LOCFRAME PSTACK, 0, STACK
        LOCFRAME XSTACK, 37, STACK
        LOCFRAME IOVERLAY, 0, STATIC
        LOCFRAME DOVERLAY, 0, STATIC
        ARGFRAME ISTACK, 0, STACK
        ARGFRAME PSTACK, 0, STACK
        ARGFRAME XSTACK, 37, STACK
        ARGFRAME IOVERLAY, 0, STATIC
        ARGFRAME DOVERLAY, 0, STATIC
        FUNCALL p2p_test_RecvFromUart, fill_AppHead
        LOCFRAME ISTACK, 0, STACK
        LOCFRAME PSTACK, 0, STACK
        LOCFRAME XSTACK, 39, STACK
        LOCFRAME IOVERLAY, 0, STATIC
        LOCFRAME DOVERLAY, 0, STATIC
        ARGFRAME ISTACK, 0, STACK
        ARGFRAME PSTACK, 0, STACK
        ARGFRAME XSTACK, 39, STACK
        ARGFRAME IOVERLAY, 0, STATIC
        ARGFRAME DOVERLAY, 0, STATIC
        FUNCALL p2p_test_RecvFromUart, fill_NodeId_time
        LOCFRAME ISTACK, 0, STACK
        LOCFRAME PSTACK, 0, STACK
        LOCFRAME XSTACK, 37, STACK
        LOCFRAME IOVERLAY, 0, STATIC
        LOCFRAME DOVERLAY, 0, STATIC
        ARGFRAME ISTACK, 0, STACK
        ARGFRAME PSTACK, 0, STACK
        ARGFRAME XSTACK, 37, STACK
        ARGFRAME IOVERLAY, 0, STATIC
        ARGFRAME DOVERLAY, 0, STATIC
        FUNCALL p2p_test_RecvFromUart, SendMsg
        LOCFRAME ISTACK, 0, STACK
        LOCFRAME PSTACK, 0, STACK
        LOCFRAME XSTACK, 43, STACK
        LOCFRAME IOVERLAY, 0, STATIC
        LOCFRAME DOVERLAY, 0, STATIC
        ARGFRAME ISTACK, 0, STACK
        ARGFRAME PSTACK, 0, STACK
        ARGFRAME XSTACK, 43, STACK
        ARGFRAME IOVERLAY, 0, STATIC
        ARGFRAME DOVERLAY, 0, STATIC
        FUNCALL p2p_test_RecvFromUart, HalUARTWrite
        LOCFRAME ISTACK, 0, STACK
        LOCFRAME PSTACK, 0, STACK
        LOCFRAME XSTACK, 37, STACK
        LOCFRAME IOVERLAY, 0, STATIC
        LOCFRAME DOVERLAY, 0, STATIC
        ARGFRAME ISTACK, 0, STACK
        ARGFRAME PSTACK, 0, STACK
        ARGFRAME XSTACK, 37, STACK
        ARGFRAME IOVERLAY, 0, STATIC
        ARGFRAME DOVERLAY, 0, STATIC
        FUNCALL p2p_test_RecvFromUart, HalUARTWrite
        LOCFRAME ISTACK, 0, STACK
        LOCFRAME PSTACK, 0, STACK
        LOCFRAME XSTACK, 37, STACK
        LOCFRAME IOVERLAY, 0, STATIC
        LOCFRAME DOVERLAY, 0, STATIC
        ARGFRAME ISTACK, 0, STACK
        ARGFRAME PSTACK, 0, STACK
        ARGFRAME XSTACK, 37, STACK
        ARGFRAME IOVERLAY, 0, STATIC
        ARGFRAME DOVERLAY, 0, STATIC
        FUNCALL p2p_test_RecvFromUart, HalUARTWrite
        LOCFRAME ISTACK, 0, STACK
        LOCFRAME PSTACK, 0, STACK
        LOCFRAME XSTACK, 37, STACK
        LOCFRAME IOVERLAY, 0, STATIC
        LOCFRAME DOVERLAY, 0, STATIC
        ARGFRAME ISTACK, 0, STACK
        ARGFRAME PSTACK, 0, STACK
        ARGFRAME XSTACK, 37, STACK
        ARGFRAME IOVERLAY, 0, STATIC
        ARGFRAME DOVERLAY, 0, STATIC
        FUNCALL p2p_test_RecvFromUart, HalUARTWrite
        LOCFRAME ISTACK, 0, STACK
        LOCFRAME PSTACK, 0, STACK
        LOCFRAME XSTACK, 37, STACK
        LOCFRAME IOVERLAY, 0, STATIC
        LOCFRAME DOVERLAY, 0, STATIC
        ARGFRAME ISTACK, 0, STACK
        ARGFRAME PSTACK, 0, STACK
        ARGFRAME XSTACK, 37, STACK
        ARGFRAME IOVERLAY, 0, STATIC
        ARGFRAME DOVERLAY, 0, STATIC
        FUNCALL p2p_test_RecvFromUart, HalUARTWrite_uint16
        LOCFRAME ISTACK, 0, STACK
        LOCFRAME PSTACK, 0, STACK
        LOCFRAME XSTACK, 37, STACK
        LOCFRAME IOVERLAY, 0, STATIC
        LOCFRAME DOVERLAY, 0, STATIC
        ARGFRAME ISTACK, 0, STACK
        ARGFRAME PSTACK, 0, STACK
        ARGFRAME XSTACK, 37, STACK
        ARGFRAME IOVERLAY, 0, STATIC
        ARGFRAME DOVERLAY, 0, STATIC
        FUNCALL p2p_test_RecvFromUart, HalUARTWrite
        LOCFRAME ISTACK, 0, STACK
        LOCFRAME PSTACK, 0, STACK
        LOCFRAME XSTACK, 37, STACK
        LOCFRAME IOVERLAY, 0, STATIC
        LOCFRAME DOVERLAY, 0, STATIC
        ARGFRAME ISTACK, 0, STACK
        ARGFRAME PSTACK, 0, STACK
        ARGFRAME XSTACK, 37, STACK
        ARGFRAME IOVERLAY, 0, STATIC
        ARGFRAME DOVERLAY, 0, STATIC
        FUNCALL p2p_test_RecvFromUart, HalUARTWrite
        LOCFRAME ISTACK, 0, STACK
        LOCFRAME PSTACK, 0, STACK
        LOCFRAME XSTACK, 37, STACK
        LOCFRAME IOVERLAY, 0, STATIC
        LOCFRAME DOVERLAY, 0, STATIC
        ARGFRAME ISTACK, 0, STACK
        ARGFRAME PSTACK, 0, STACK
        ARGFRAME XSTACK, 37, STACK
        ARGFRAME IOVERLAY, 0, STATIC
        ARGFRAME DOVERLAY, 0, STATIC
        FUNCALL p2p_test_RecvFromUart, HalUARTWrite
        LOCFRAME ISTACK, 0, STACK
        LOCFRAME PSTACK, 0, STACK
        LOCFRAME XSTACK, 37, STACK
        LOCFRAME IOVERLAY, 0, STATIC
        LOCFRAME DOVERLAY, 0, STATIC
        ARGFRAME ISTACK, 0, STACK
        ARGFRAME PSTACK, 0, STACK
        ARGFRAME XSTACK, 37, STACK
        ARGFRAME IOVERLAY, 0, STATIC
        ARGFRAME DOVERLAY, 0, STATIC
        FUNCALL p2p_test_RecvFromUart, HalUARTWrite
        LOCFRAME ISTACK, 0, STACK
        LOCFRAME PSTACK, 0, STACK
        LOCFRAME XSTACK, 37, STACK
        LOCFRAME IOVERLAY, 0, STATIC
        LOCFRAME DOVERLAY, 0, STATIC
        ARGFRAME ISTACK, 0, STACK
        ARGFRAME PSTACK, 0, STACK
        ARGFRAME XSTACK, 37, STACK
        ARGFRAME IOVERLAY, 0, STATIC
        ARGFRAME DOVERLAY, 0, STATIC
        FUNCALL p2p_test_RecvFromUart, HalUARTWrite_uint16
        LOCFRAME ISTACK, 0, STACK
        LOCFRAME PSTACK, 0, STACK
        LOCFRAME XSTACK, 37, STACK
        LOCFRAME IOVERLAY, 0, STATIC
        LOCFRAME DOVERLAY, 0, STATIC
        ARGFRAME ISTACK, 0, STACK
        ARGFRAME PSTACK, 0, STACK
        ARGFRAME XSTACK, 37, STACK
        ARGFRAME IOVERLAY, 0, STATIC
        ARGFRAME DOVERLAY, 0, STATIC
        FUNCALL p2p_test_RecvFromUart, Water_gage_forecastValue
        LOCFRAME ISTACK, 0, STACK
        LOCFRAME PSTACK, 0, STACK
        LOCFRAME XSTACK, 55, STACK
        LOCFRAME IOVERLAY, 0, STATIC
        LOCFRAME DOVERLAY, 0, STATIC
        ARGFRAME ISTACK, 0, STACK
        ARGFRAME PSTACK, 0, STACK
        ARGFRAME XSTACK, 55, STACK
        ARGFRAME IOVERLAY, 0, STATIC
        ARGFRAME DOVERLAY, 0, STATIC
        FUNCALL p2p_test_RecvFromUart, HalUARTWrite_uint16
        LOCFRAME ISTACK, 0, STACK
        LOCFRAME PSTACK, 0, STACK
        LOCFRAME XSTACK, 37, STACK
        LOCFRAME IOVERLAY, 0, STATIC
        LOCFRAME DOVERLAY, 0, STATIC
        ARGFRAME ISTACK, 0, STACK
        ARGFRAME PSTACK, 0, STACK
        ARGFRAME XSTACK, 37, STACK
        ARGFRAME IOVERLAY, 0, STATIC
        ARGFRAME DOVERLAY, 0, STATIC
        FUNCALL p2p_test_RecvFromUart, start_Water_gage_timer
        LOCFRAME ISTACK, 0, STACK
        LOCFRAME PSTACK, 0, STACK
        LOCFRAME XSTACK, 37, STACK
        LOCFRAME IOVERLAY, 0, STATIC
        LOCFRAME DOVERLAY, 0, STATIC
        ARGFRAME ISTACK, 0, STACK
        ARGFRAME PSTACK, 0, STACK
        ARGFRAME XSTACK, 37, STACK
        ARGFRAME IOVERLAY, 0, STATIC
        ARGFRAME DOVERLAY, 0, STATIC
        FUNCALL p2p_test_RecvFromUart, osal_stop_timerEx
        LOCFRAME ISTACK, 0, STACK
        LOCFRAME PSTACK, 0, STACK
        LOCFRAME XSTACK, 37, STACK
        LOCFRAME IOVERLAY, 0, STATIC
        LOCFRAME DOVERLAY, 0, STATIC
        ARGFRAME ISTACK, 0, STACK
        ARGFRAME PSTACK, 0, STACK
        ARGFRAME XSTACK, 37, STACK
        ARGFRAME IOVERLAY, 0, STATIC
        ARGFRAME DOVERLAY, 0, STATIC
        FUNCALL p2p_test_RecvFromUart, AF_DataRequest
        LOCFRAME ISTACK, 0, STACK
        LOCFRAME PSTACK, 0, STACK
        LOCFRAME XSTACK, 46, STACK
        LOCFRAME IOVERLAY, 0, STATIC
        LOCFRAME DOVERLAY, 0, STATIC
        ARGFRAME ISTACK, 0, STACK
        ARGFRAME PSTACK, 0, STACK
        ARGFRAME XSTACK, 46, STACK
        ARGFRAME IOVERLAY, 0, STATIC
        ARGFRAME DOVERLAY, 0, STATIC
        FUNCALL p2p_test_RecvFromUart, p2p_test_recv_108clusterId
        LOCFRAME ISTACK, 0, STACK
        LOCFRAME PSTACK, 0, STACK
        LOCFRAME XSTACK, 37, STACK
        LOCFRAME IOVERLAY, 0, STATIC
        LOCFRAME DOVERLAY, 0, STATIC
        ARGFRAME ISTACK, 0, STACK
        ARGFRAME PSTACK, 0, STACK
        ARGFRAME XSTACK, 37, STACK
        ARGFRAME IOVERLAY, 0, STATIC
        ARGFRAME DOVERLAY, 0, STATIC
        FUNCALL p2p_test_RecvFromUart, AF_DataRequest
        LOCFRAME ISTACK, 0, STACK
        LOCFRAME PSTACK, 0, STACK
        LOCFRAME XSTACK, 46, STACK
        LOCFRAME IOVERLAY, 0, STATIC
        LOCFRAME DOVERLAY, 0, STATIC
        ARGFRAME ISTACK, 0, STACK
        ARGFRAME PSTACK, 0, STACK
        ARGFRAME XSTACK, 46, STACK
        ARGFRAME IOVERLAY, 0, STATIC
        ARGFRAME DOVERLAY, 0, STATIC
        MOV     A,#-0x10
        LCALL   ?BANKED_ENTER_XDATA
        CFI DPH0 load(1, XDATA, add(CFA_XSP16, literal(-1)))
        CFI DPL0 load(1, XDATA, add(CFA_XSP16, literal(-2)))
        CFI ?BRET_EXT load(1, XDATA, add(CFA_XSP16, literal(-3)))
        CFI ?RET_HIGH load(1, XDATA, add(CFA_XSP16, literal(-4)))
        CFI ?RET_LOW load(1, XDATA, add(CFA_XSP16, literal(-5)))
        CFI R7 load(1, XDATA, add(CFA_XSP16, literal(-6)))
        CFI V7 load(1, XDATA, add(CFA_XSP16, literal(-7)))
        CFI V6 load(1, XDATA, add(CFA_XSP16, literal(-8)))
        CFI V5 load(1, XDATA, add(CFA_XSP16, literal(-9)))
        CFI V4 load(1, XDATA, add(CFA_XSP16, literal(-10)))
        CFI V3 load(1, XDATA, add(CFA_XSP16, literal(-11)))
        CFI V2 load(1, XDATA, add(CFA_XSP16, literal(-12)))
        CFI V1 load(1, XDATA, add(CFA_XSP16, literal(-13)))
        CFI V0 load(1, XDATA, add(CFA_XSP16, literal(-14)))
        CFI VB load(1, XDATA, add(CFA_XSP16, literal(-15)))
        CFI R6 load(1, XDATA, add(CFA_XSP16, literal(-16)))
        CFI CFA_SP SP+0
        CFI CFA_XSP16 add(XSP16, 16)
        ; Saved register size: 16
        ; Auto size: 21
        MOV     A,#-0x15
        LCALL   ?ALLOC_XSTACK8
        CFI CFA_XSP16 add(XSP16, 37)
        MOV     A,R2
        MOV     R6,A
        MOV     A,R3
        MOV     R7,A
// 1780   //Msg = 0xAA 0x55 LEN shortaddr0 shortaddr1 DATA (Not include check, add short addr)
// 1781   //temporarily not consider broadcast
// 1782   uint16 temp_shortaddr = p2p_test_EnddeviceAddr.addr.shortAddr;
        MOV     DPTR,#p2p_test_EnddeviceAddr
        LCALL   ??Subroutine27_0 & 0xFFFF
// 1783   static uint8 ack_num=0;
// 1784   if((0x01==Msg[0])&&(0x03==Msg[1]))
??CrossCallReturnLabel_74:
        MOV     DPL,R6
        MOV     DPH,R7
        MOVX    A,@DPTR
        XRL     A,#0x1
        JZ      $+5
        LJMP    ??p2p_test_RecvFromUart_0 & 0xFFFF
        INC     DPTR
        MOVX    A,@DPTR
        XRL     A,#0x3
        JZ      $+5
        LJMP    ??p2p_test_RecvFromUart_0 & 0xFFFF
// 1785   {
// 1786 #if DEBUG 
// 1787           uint8 x3 = 0xDD;
        MOV     A,#0x8
        LCALL   ?XSTACK_DISP0_8
        MOV     A,#-0x23
        LCALL   ??Subroutine1_0 & 0xFFFF
// 1788           HalUARTWrite(0,&x3, sizeof(x3));
// 1789 #endif     
// 1790     //Msg = 0x01 0x03 LEN DATA 
// 1791   //temporarily not consider broadcast
// 1792        no_charge_flag = 0;
??CrossCallReturnLabel_166:
        CLR     A
        MOV     DPTR,#no_charge_flag
        MOVX    @DPTR,A
// 1793        WaterGageFlag=1;
        MOV     A,#0x1
        MOV     DPTR,#WaterGageFlag
        MOVX    @DPTR,A
// 1794        Water_Gage_t  temp_water_gage;
// 1795   //temp_water_gage.water_gage_type[0]=HI_UINT16(WaterGageUnit);
// 1796   //temp_water_gage.water_gage_type[1]=LO_UINT16(WaterGageUnit);   
// 1797        temp_water_gage.water_gage_value[0]=Msg[3];
        LCALL   ?Subroutine57 & 0xFFFF
??CrossCallReturnLabel_150:
        MOV     DPL,?V0 + 0
        MOV     DPH,A
        MOVX    A,@DPTR
        PUSH    A
        CFI CFA_SP SP+-1
        MOV     A,#0x13
        LCALL   ?XSTACK_DISP0_8
        POP     A
        CFI CFA_SP SP+0
        MOVX    @DPTR,A
// 1798        temp_water_gage.water_gage_value[1]=Msg[4];
        MOV     A,R6
        ADD     A,#0x4
        MOV     R6,A
        MOV     A,R7
        LCALL   ?Subroutine42 & 0xFFFF
??CrossCallReturnLabel_113:
        PUSH    A
        CFI CFA_SP SP+-1
        MOV     A,#0x14
        LCALL   ?XSTACK_DISP0_8
        POP     A
        CFI CFA_SP SP+0
        MOVX    @DPTR,A
// 1799        fill_AppHead((AppHead_t *)&temp_water_gage.AppHead, ACK_NO, MAIN_VERSION, SUB_VERSION, TYPE_SENSOR, TYPE_CODE_SENSOR_WATER_GAGE);
        ; Setup parameters for call to function fill_AppHead
        MOV     ?V0 + 2,#0x3
        MOV     R0,#?V0 + 2
        LCALL   ?PUSH_XSTACK_I_ONE
        CFI CFA_XSP16 add(XSP16, 38)
        MOV     ?V0 + 2,#0x0
        MOV     R0,#?V0 + 2
        LCALL   ?PUSH_XSTACK_I_ONE
        CFI CFA_XSP16 add(XSP16, 39)
        MOV     R5,#0x1
        MOV     R4,#0x0
        MOV     R1,#0x0
        MOV     A,#0xb
        LCALL   ?XSTACK_DISP0_8
        MOV     R2,DPL
        MOV     R3,DPH
        LCALL   ??fill_AppHead?relay
        MOV     A,#0x2
        LCALL   ?DEALLOC_XSTACK8
        CFI CFA_XSP16 add(XSP16, 37)
// 1800        fill_NodeId_time((NodeIdAndTime_t *)&temp_water_gage.NodeIdAndTime,ARM_ID,Zigbee_ID,WATER_GAGE_ID);
        ; Setup parameters for call to function fill_NodeId_time
        MOV     R5,#0x3
        MOV     DPTR,#Zigbee_ID
        MOVX    A,@DPTR
        MOV     R4,A
        MOV     DPTR,#ARM_ID
        MOVX    A,@DPTR
        MOV     R1,A
        MOV     A,#0xd
        LCALL   ?XSTACK_DISP0_8
        MOV     R2,DPL
        MOV     R3,DPH
        LCALL   ??fill_NodeId_time?relay
// 1801        SendMsg((uint8 *)&temp_water_gage, sizeof(temp_water_gage), p2p_test_DstAddr, AF_DISCV_ROUTE,p2p_test_108ID);
        ; Setup parameters for call to function SendMsg
        MOV     ?V0 + 2,#0x2
        MOV     ?V0 + 3,#0x0
        MOV     R0,#?V0 + 2
        LCALL   ?PUSH_XSTACK_I_TWO
        CFI CFA_XSP16 add(XSP16, 39)
        MOV     DPTR,#p2p_test_DstAddr
        MOV     A,#0x4
        LCALL   ?PUSH_XSTACK8_X
        CFI CFA_XSP16 add(XSP16, 43)
        MOV     R4,#0x20
        MOV     R1,#0xc
        MOV     A,#0xf
        LCALL   ?XSTACK_DISP0_8
        MOV     R2,DPL
        MOV     R3,DPH
        LCALL   ??Subroutine43_0 & 0xFFFF
??CrossCallReturnLabel_124:
        LCALL   ?DEALLOC_XSTACK8
        CFI CFA_XSP16 add(XSP16, 37)
// 1802  
// 1803     
// 1804 //自己编写
// 1805   
// 1806        uint16 temp_Water_gage_data = BUILD_UINT16(Msg[4], Msg[3]);
        MOV     DPL,R6
        MOV     DPH,R7
        MOVX    A,@DPTR
        MOV     R2,A
        MOV     DPL,?V0 + 0
        MOV     DPH,?V0 + 1
        LCALL   ?Subroutine35 & 0xFFFF
// 1807   //HalUARTWrite(0,(uint8 *)&(temp_water_gage.water_gage_value),sizeof(temp_water_gage.water_gage_value));
// 1808   //uint16 data = BUILD_UINT16(Msg[3], Msg[4]);
// 1809   //HalUARTWrite(0,(uint8*)&data, sizeof(data));
// 1810 #if DEBUG
// 1811   //用于测试
// 1812      uint8 a1 =1;
??CrossCallReturnLabel_96:
        MOV     A,#0x1
        MOV     DPL,?XSP + 0
        MOV     DPH,?XSP + 1
        MOVX    @DPTR,A
// 1813      uint8 a2 =2;
        LCALL   ?XSTACK_DISP0_8
        MOV     A,#0x2
        MOVX    @DPTR,A
// 1814      uint8 a3 =3;
        LCALL   ?XSTACK_DISP0_8
        MOV     A,#0x3
        MOVX    @DPTR,A
// 1815      uint8 a4 =4;
        LCALL   ?XSTACK_DISP0_8
        MOV     A,#0x4
        MOVX    @DPTR,A
// 1816 #endif
// 1817  
// 1818      //以WaterGageUnit == 3为默认情况存入数据及预测
// 1819      if(WaterGageUnit == 0)
        MOV     DPTR,#WaterGageUnit
        MOVX    A,@DPTR
        JNZ     ??p2p_test_RecvFromUart_1
        INC     DPTR
        MOVX    A,@DPTR
??p2p_test_RecvFromUart_1:
        JNZ     ??p2p_test_RecvFromUart_2
// 1820      {
// 1821        Water_Gage_data_and_time.data[Water_gage_SerialNumber%3]=Water_gage_data_span - temp_Water_gage_data*10;
        LCALL   ?Subroutine17 & 0xFFFF
??CrossCallReturnLabel_50:
        LCALL   ?US_DIV_MOD
        MOV     ?V0 + 2,R2
        MOV     ?V0 + 3,R3
        MOV     A,?V0 + 0
        MOV     B,#0xa
        MUL     AB
        MOV     R0,A
        MOV     R4,B
        MOV     B,#0xa
        MOV     A,?V0 + 1
        MUL     AB
        ADD     A,R4
        MOV     R1,A
        MOV     A,#0x30
        CLR     C
        SUBB    A,R0
        MOV     R4,A
        MOV     A,#0x75
        SUBB    A,R1
??p2p_test_RecvFromUart_3:
        MOV     R5,A
        MOV     A,R2
        MOV     R0,A
        MOV     A,R3
        MOV     R1,A
        MOV     A,R0
        CLR     C
        LCALL   ?Subroutine47 & 0xFFFF
??CrossCallReturnLabel_130:
        MOV     A,R4
        MOVX    @DPTR,A
        INC     DPTR
        MOV     A,R5
        SJMP    ??p2p_test_RecvFromUart_4
// 1822        Water_Gage_data_and_time.time[Water_gage_SerialNumber%3]= now;
// 1823 #if DEBUG
// 1824       // HalUARTWrite(0,&a1, sizeof(a1));
// 1825 #endif
// 1826      }
// 1827      else if(WaterGageUnit == 1)
??p2p_test_RecvFromUart_2:
        MOV     DPTR,#WaterGageUnit
        MOVX    A,@DPTR
        XRL     A,#0x1
        JNZ     ??p2p_test_RecvFromUart_5
        INC     DPTR
        MOVX    A,@DPTR
??p2p_test_RecvFromUart_5:
        JNZ     ??p2p_test_RecvFromUart_6
// 1828      {
// 1829        Water_Gage_data_and_time.data[Water_gage_SerialNumber%3]=Water_gage_data_span - temp_Water_gage_data;
        LCALL   ?Subroutine17 & 0xFFFF
??CrossCallReturnLabel_51:
        LCALL   ?US_DIV_MOD
        MOV     ?V0 + 2,R2
        MOV     ?V0 + 3,R3
        MOV     A,#0x30
        SUBB    A,?V0 + 0
        MOV     R4,A
        MOV     A,#0x75
        SUBB    A,?V0 + 1
        SJMP    ??p2p_test_RecvFromUart_3
// 1830        Water_Gage_data_and_time.time[Water_gage_SerialNumber%3]= now;    
// 1831        //HalUARTWrite(0,&a2, sizeof(a2));
// 1832      }
// 1833      else if(WaterGageUnit == 2)
??p2p_test_RecvFromUart_6:
        MOV     DPTR,#WaterGageUnit
        MOVX    A,@DPTR
        XRL     A,#0x2
        JNZ     ??p2p_test_RecvFromUart_7
        INC     DPTR
        MOVX    A,@DPTR
??p2p_test_RecvFromUart_7:
        JNZ     ??p2p_test_RecvFromUart_8
// 1834      {
// 1835        Water_Gage_data_and_time.data[Water_gage_SerialNumber%3]=temp_Water_gage_data*10;
        LCALL   ?Subroutine17 & 0xFFFF
??CrossCallReturnLabel_52:
        LCALL   ?US_DIV_MOD
        MOV     ?V0 + 2,R2
        MOV     ?V0 + 3,R3
        MOV     A,?V0 + 0
        MOV     B,#0xa
        MUL     AB
        MOV     R4,A
        MOV     R6,B
        MOV     B,#0xa
        MOV     A,?V0 + 1
        MUL     AB
        ADD     A,R6
        SJMP    ??p2p_test_RecvFromUart_3
// 1836        Water_Gage_data_and_time.time[Water_gage_SerialNumber%3]= now;
// 1837        //HalUARTWrite(0,&a3, sizeof(a3));       
// 1838      }
// 1839      else if(WaterGageUnit == 3)
??p2p_test_RecvFromUart_8:
        MOV     DPTR,#WaterGageUnit
        MOVX    A,@DPTR
        XRL     A,#0x3
        JNZ     ??p2p_test_RecvFromUart_9
        INC     DPTR
        MOVX    A,@DPTR
??p2p_test_RecvFromUart_9:
        JNZ     ??p2p_test_RecvFromUart_10
// 1840      {
// 1841        Water_Gage_data_and_time.data[Water_gage_SerialNumber%3]=temp_Water_gage_data;
        LCALL   ?Subroutine17 & 0xFFFF
??CrossCallReturnLabel_53:
        LCALL   ?US_DIV_MOD
        MOV     ?V0 + 2,R2
        MOV     ?V0 + 3,R3
        MOV     A,R2
        MOV     R0,A
        MOV     A,R3
        MOV     R1,A
        MOV     A,R0
        LCALL   ?Subroutine47 & 0xFFFF
??CrossCallReturnLabel_131:
        MOV     A,?V0 + 0
        MOVX    @DPTR,A
        INC     DPTR
        MOV     A,?V0 + 1
??p2p_test_RecvFromUart_4:
        MOVX    @DPTR,A
// 1842        Water_Gage_data_and_time.time[Water_gage_SerialNumber%3]= now;  
        MOV     DPTR,#now
        MOV     R0,#?V0 + 4
        LCALL   ?L_MOV_X
        MOV     A,#0x2
        MOV     R0,#?V0 + 2
        LCALL   ?S_SHL
        MOV     A,?V0 + 2
        ADD     A,#((Water_Gage_data_and_time + 6) & 0xff)
        MOV     DPL,A
        MOV     A,?V0 + 3
        ADDC    A,#(((Water_Gage_data_and_time + 6) >> 8) & 0xff)
        MOV     DPH,A
        MOV     A,?V0 + 4
        MOVX    @DPTR,A
        INC     DPTR
        MOV     A,?V0 + 5
        MOVX    @DPTR,A
        INC     DPTR
        MOV     A,?V0 + 6
        MOVX    @DPTR,A
        INC     DPTR
        MOV     A,?V0 + 7
        MOVX    @DPTR,A
// 1843        //HalUARTWrite(0,&a4, sizeof(a4));
// 1844      }       
// 1845       // HalUARTWrite(0,(uint8*)&Water_Gage_data_and_time.time[0], sizeof(Water_Gage_data_and_time.time[0]));
// 1846       // HalUARTWrite(0,(uint8*)&Water_Gage_data_and_time.time[1], sizeof(Water_Gage_data_and_time.time[1]));
// 1847       // HalUARTWrite(0,(uint8*)&Water_Gage_data_and_time.time[2], sizeof(Water_Gage_data_and_time.time[2]));
// 1848        
// 1849      //  HalUARTWrite(0,(uint8*)& Water_Gage_data_and_time.data[Water_gage_SerialNumber%3], sizeof( Water_Gage_data_and_time.data[Water_gage_SerialNumber%3]));
// 1850        Water_gage_SerialNumber++;
??p2p_test_RecvFromUart_10:
        MOV     DPTR,#Water_gage_SerialNumber
        MOVX    A,@DPTR
        ADD     A,#0x1
        MOVX    @DPTR,A
        INC     DPTR
        MOVX    A,@DPTR
        ADDC    A,#0x0
        MOVX    @DPTR,A
// 1851   
// 1852   //根据预测值选择定时器时间
// 1853        if(Water_gage_SerialNumber >=4)
        MOV     DPTR,#Water_gage_SerialNumber
        CLR     C
        MOVX    A,@DPTR
        SUBB    A,#0x4
        INC     DPTR
        MOVX    A,@DPTR
        SUBB    A,#0x0
        JNC     $+5
        LJMP    ??p2p_test_RecvFromUart_11 & 0xFFFF
// 1854            {
// 1855             if(WaterGageUnit == 0)
        MOV     DPTR,#WaterGageUnit
        MOVX    A,@DPTR
        JNZ     ??p2p_test_RecvFromUart_12
        INC     DPTR
        MOVX    A,@DPTR
??p2p_test_RecvFromUart_12:
        JNZ     ??p2p_test_RecvFromUart_13
// 1856             {
// 1857              Water_gage_err = ((Water_gage_data_span - temp_Water_gage_data*10) >Water_gage_forValue )? 
// 1858                 ( (Water_gage_data_span - temp_Water_gage_data*10)- Water_gage_forValue) : 
// 1859                  (Water_gage_forValue -(Water_gage_data_span - temp_Water_gage_data*10));    
        MOV     DPTR,#Water_gage_forValue
        MOV     A,?V0 + 0
        MOV     B,#0xa
        MUL     AB
        MOV     R0,A
        MOV     R2,B
        MOV     B,#0xa
        MOV     A,?V0 + 1
        MUL     AB
        ADD     A,R2
        MOV     R1,A
        MOV     A,#0x30
        CLR     C
        SUBB    A,R0
        MOV     R0,A
        MOV     A,#0x75
        SUBB    A,R1
        LCALL   ?Subroutine34 & 0xFFFF
??CrossCallReturnLabel_91:
        JNC     ??p2p_test_RecvFromUart_14
        MOV     A,?V0 + 0
        MOV     B,#0xa
        MUL     AB
        MOV     ?V0 + 0,A
        MOV     B,#0xa
        MOV     A,?V0 + 1
        MUL     AB
        ADD     A,R2
        MOV     ?V0 + 1,A
        LCALL   ?Subroutine26 & 0xFFFF
??CrossCallReturnLabel_70:
        SJMP    ??CrossCallReturnLabel_56
??p2p_test_RecvFromUart_14:
        MOV     DPTR,#Water_gage_forValue
        MOV     A,?V0 + 0
        MOV     B,#0xa
        MUL     AB
        MOV     ?V0 + 0,A
        MOV     B,#0xa
        MOV     A,?V0 + 1
        MUL     AB
        ADD     A,R2
        MOV     ?V0 + 1,A
        LCALL   ?Subroutine20 & 0xFFFF
??CrossCallReturnLabel_56:
        MOV     R1,A
        MOV     DPTR,#Water_gage_err
        MOV     A,R0
        MOVX    @DPTR,A
        INC     DPTR
        MOV     A,R1
        LCALL   ?Subroutine4 & 0xFFFF
// 1860 #if DEBUG
// 1861                  HalUARTWrite(0,&a1, sizeof(a1));
??CrossCallReturnLabel_13:
        LJMP    ??p2p_test_RecvFromUart_15 & 0xFFFF
// 1862 #endif
// 1863             }
// 1864             else if(WaterGageUnit == 1)
??p2p_test_RecvFromUart_13:
        MOV     DPTR,#WaterGageUnit
        MOVX    A,@DPTR
        XRL     A,#0x1
        JNZ     ??p2p_test_RecvFromUart_16
        INC     DPTR
        MOVX    A,@DPTR
??p2p_test_RecvFromUart_16:
        JNZ     ??p2p_test_RecvFromUart_17
// 1865             {
// 1866              Water_gage_err = ((Water_gage_data_span - temp_Water_gage_data) >Water_gage_forValue )? 
// 1867                 ( (Water_gage_data_span - temp_Water_gage_data)- Water_gage_forValue) : 
// 1868                  (Water_gage_forValue -(Water_gage_data_span - temp_Water_gage_data));                 
        MOV     DPTR,#Water_gage_forValue
        MOV     A,#0x30
        CLR     C
        SUBB    A,?V0 + 0
        MOV     R0,A
        MOV     A,#0x75
        SUBB    A,?V0 + 1
        LCALL   ?Subroutine34 & 0xFFFF
??CrossCallReturnLabel_92:
        JNC     ??p2p_test_RecvFromUart_18
        LCALL   ?Subroutine26 & 0xFFFF
??CrossCallReturnLabel_71:
        SJMP    ??CrossCallReturnLabel_57
??p2p_test_RecvFromUart_18:
        MOV     DPTR,#Water_gage_forValue
        LCALL   ?Subroutine20 & 0xFFFF
??CrossCallReturnLabel_57:
        LCALL   ?Subroutine5 & 0xFFFF
// 1869 #if DEBUG
// 1870                  HalUARTWrite(0,&a2, sizeof(a2));
??CrossCallReturnLabel_186:
        MOV     A,R4
        LJMP    ??p2p_test_RecvFromUart_19 & 0xFFFF
// 1871 #endif
// 1872             }
// 1873             else if(WaterGageUnit == 2)
??p2p_test_RecvFromUart_17:
        MOV     DPTR,#WaterGageUnit
        MOVX    A,@DPTR
        XRL     A,#0x2
        JNZ     ??p2p_test_RecvFromUart_20
        INC     DPTR
        MOVX    A,@DPTR
??p2p_test_RecvFromUart_20:
        JNZ     ??p2p_test_RecvFromUart_21
// 1874             {
// 1875              Water_gage_err = (temp_Water_gage_data*10 >Water_gage_forValue )? 
// 1876                 (temp_Water_gage_data*10- Water_gage_forValue) : 
// 1877                  (Water_gage_forValue -temp_Water_gage_data*10);
        MOV     DPTR,#Water_gage_forValue
        MOV     A,?V0 + 0
        MOV     B,#0xa
        MUL     AB
        MOV     R0,A
        MOV     R2,B
        MOV     B,#0xa
        MOV     A,?V0 + 1
        MUL     AB
        ADD     A,R2
        LCALL   ?Subroutine34 & 0xFFFF
??CrossCallReturnLabel_93:
        JNC     ??p2p_test_RecvFromUart_22
        MOV     A,?V0 + 0
        MOV     B,#0xa
        MUL     AB
        MOV     ?V0 + 0,A
        MOV     B,#0xa
        MOV     A,?V0 + 1
        MUL     AB
        ADD     A,R2
        MOV     ?V0 + 1,A
        MOV     DPTR,#Water_gage_forValue
        LCALL   ??Subroutine27_0 & 0xFFFF
??CrossCallReturnLabel_75:
        MOV     A,?V0 + 0
        CLR     C
        SUBB    A,R0
        MOV     R0,A
        MOV     A,?V0 + 1
        SUBB    A,R1
        SJMP    ??p2p_test_RecvFromUart_23
??p2p_test_RecvFromUart_22:
        MOV     DPTR,#Water_gage_forValue
        MOV     A,?V0 + 0
        MOV     B,#0xa
        MUL     AB
        MOV     ?V0 + 0,A
        MOV     B,#0xa
        MOV     A,?V0 + 1
        MUL     AB
        ADD     A,R2
        MOV     ?V0 + 1,A
        MOVX    A,@DPTR
        CLR     C
        SUBB    A,?V0 + 0
        MOV     R0,A
        INC     DPTR
        MOVX    A,@DPTR
        SUBB    A,?V0 + 1
??p2p_test_RecvFromUart_23:
        LCALL   ?Subroutine5 & 0xFFFF
// 1878 #if DEBUG
// 1879                  HalUARTWrite(0,&a3, sizeof(a3));                 
??CrossCallReturnLabel_187:
        MOV     A,#0x2
        SJMP    ??p2p_test_RecvFromUart_19
// 1880 #endif
// 1881             } 
// 1882             else if(WaterGageUnit == 3)
??p2p_test_RecvFromUart_21:
        MOV     DPTR,#WaterGageUnit
        MOVX    A,@DPTR
        XRL     A,#0x3
        JNZ     ??p2p_test_RecvFromUart_24
        INC     DPTR
        MOVX    A,@DPTR
??p2p_test_RecvFromUart_24:
        JNZ     ??p2p_test_RecvFromUart_25
// 1883             {
// 1884              Water_gage_err = (temp_Water_gage_data >Water_gage_forValue )? 
// 1885                 (temp_Water_gage_data- Water_gage_forValue) : 
// 1886                  (Water_gage_forValue -temp_Water_gage_data); 
        MOV     DPTR,#Water_gage_forValue
        CLR     C
        MOVX    A,@DPTR
        SUBB    A,?V0 + 0
        INC     DPTR
        MOVX    A,@DPTR
        SUBB    A,?V0 + 1
        MOV     DPTR,#Water_gage_forValue
        MOVX    A,@DPTR
        JNC     ??p2p_test_RecvFromUart_26
        MOV     R0,A
        INC     DPTR
        MOVX    A,@DPTR
        MOV     R1,A
        MOV     A,?V0 + 0
        CLR     C
        SUBB    A,R0
        MOV     R0,A
        MOV     A,?V0 + 1
        SUBB    A,R1
        SJMP    ??p2p_test_RecvFromUart_27
??p2p_test_RecvFromUart_26:
        CLR     C
        SUBB    A,?V0 + 0
        MOV     R0,A
        INC     DPTR
        MOVX    A,@DPTR
        SUBB    A,?V0 + 1
??p2p_test_RecvFromUart_27:
        LCALL   ?Subroutine5 & 0xFFFF
// 1887 #if DEBUG
// 1888                  HalUARTWrite(0,&a4, sizeof(a4));
??CrossCallReturnLabel_188:
        MOV     A,#0x3
??p2p_test_RecvFromUart_19:
        LCALL   ?XSTACK_DISP0_8
??p2p_test_RecvFromUart_15:
        MOV     R2,DPL
        MOV     R3,DPH
        MOV     R1,#0x0
        LCALL   ??HalUARTWrite?relay
// 1889 #endif
// 1890             }     
// 1891             
// 1892 #if DEBUG
// 1893             HalUARTWrite_uint16(Water_gage_err);
??p2p_test_RecvFromUart_25:
        ; Setup parameters for call to function HalUARTWrite_uint16
        MOV     DPTR,#Water_gage_err
        LCALL   ??Subroutine23_0 & 0xFFFF
// 1894 #endif
// 1895             
// 1896             
// 1897             
// 1898             
// 1899              if( Water_gage_err < Water_gage_err_a )
??CrossCallReturnLabel_63:
        MOV     DPTR,#Water_gage_err_a
        LCALL   ?Subroutine15 & 0xFFFF
??CrossCallReturnLabel_45:
        JNC     ??p2p_test_RecvFromUart_28
// 1900              {
// 1901                SendWaterGageTimeFreq += 2*Water_gage_time;
        LCALL   ?Subroutine27 & 0xFFFF
??CrossCallReturnLabel_76:
        MOV     A,R0
        CLR     C
        RLC     A
        MOV     R0,A
        MOV     A,R1
        RLC     A
        MOV     R1,A
        MOV     DPTR,#SendWaterGageTimeFreq
        MOVX    A,@DPTR
        ADD     A,R0
        MOVX    @DPTR,A
        INC     DPTR
        MOVX    A,@DPTR
        ADDC    A,R1
        LCALL   ?Subroutine4 & 0xFFFF
// 1902 #if DEBUG
// 1903                HalUARTWrite(0,&a1, sizeof(a1));
??CrossCallReturnLabel_14:
        SJMP    ??p2p_test_RecvFromUart_29
// 1904 #endif
// 1905              }
// 1906 
// 1907              else if((Water_gage_err >= Water_gage_err_a) && ( Water_gage_err < Water_gage_err_b))  
??p2p_test_RecvFromUart_28:
        MOV     DPTR,#Water_gage_err_b
        LCALL   ?Subroutine15 & 0xFFFF
??CrossCallReturnLabel_46:
        JNC     ??p2p_test_RecvFromUart_30
// 1908              {
// 1909                SendWaterGageTimeFreq += Water_gage_time;
        LCALL   ?Subroutine27 & 0xFFFF
??CrossCallReturnLabel_77:
        MOV     DPTR,#SendWaterGageTimeFreq
        MOVX    A,@DPTR
        ADD     A,R0
        MOVX    @DPTR,A
        INC     DPTR
        MOVX    A,@DPTR
        ADDC    A,R1
        LCALL   ??Subroutine5_1 & 0xFFFF
// 1910 #if DEBUG
// 1911                HalUARTWrite(0,&a2, sizeof(a2));
??CrossCallReturnLabel_190:
        MOV     A,R4
        SJMP    ??p2p_test_RecvFromUart_31
// 1912 #endif
// 1913              }
// 1914             else if((Water_gage_err >= Water_gage_err_b) && ( Water_gage_err < Water_gage_err_c))
??p2p_test_RecvFromUart_30:
        MOV     DPTR,#Water_gage_err_c
        LCALL   ?Subroutine15 & 0xFFFF
??CrossCallReturnLabel_47:
        JNC     ??p2p_test_RecvFromUart_32
// 1915              {
// 1916                if(SendWaterGageTimeFreq >=Water_gage_time)
        LCALL   ?Subroutine27 & 0xFFFF
??CrossCallReturnLabel_78:
        MOV     DPH,#((SendWaterGageTimeFreq >> 8) & 0xff)
        MOV     DPL,#(SendWaterGageTimeFreq & 0xff)
        LCALL   ??Subroutine34_0 & 0xFFFF
??CrossCallReturnLabel_94:
        MOV     DPTR,#SendWaterGageTimeFreq
        JC      ??p2p_test_RecvFromUart_33
// 1917                  SendWaterGageTimeFreq -= Water_gage_time;
        CLR     C
        MOVX    A,@DPTR
        SUBB    A,R0
        MOVX    @DPTR,A
        INC     DPTR
        MOVX    A,@DPTR
        SUBB    A,R1
        SJMP    ??p2p_test_RecvFromUart_34
// 1918                else
// 1919                  SendWaterGageTimeFreq = 60;
??p2p_test_RecvFromUart_33:
        MOV     A,#0x3c
        MOVX    @DPTR,A
        INC     DPTR
        CLR     A
??p2p_test_RecvFromUart_34:
        LCALL   ??Subroutine5_1 & 0xFFFF
// 1920 #if DEBUG
// 1921                HalUARTWrite(0,&a3, sizeof(a3));
??CrossCallReturnLabel_191:
        MOV     A,#0x2
        SJMP    ??p2p_test_RecvFromUart_31
// 1922 #endif
// 1923              }
// 1924              else if (Water_gage_err >= Water_gage_err_c)
// 1925              {
// 1926                SendWaterGageTimeFreq = (SendWaterGageTimeFreq/2) ;
??p2p_test_RecvFromUart_32:
        MOV     DPTR,#SendWaterGageTimeFreq
        LCALL   ??Subroutine59_0 & 0xFFFF
??CrossCallReturnLabel_155:
        CLR     C
        RRC     A
        MOV     R1,A
        MOV     A,R0
        RRC     A
        MOV     DPTR,#SendWaterGageTimeFreq
        LCALL   ??Subroutine5_0 & 0xFFFF
// 1927 #if DEBUG
// 1928                HalUARTWrite(0,&a4, sizeof(a4));
??CrossCallReturnLabel_189:
        MOV     A,#0x3
??p2p_test_RecvFromUart_31:
        LCALL   ?XSTACK_DISP0_8
??p2p_test_RecvFromUart_29:
        MOV     R2,DPL
        MOV     R3,DPH
        MOV     R1,#0x0
        LCALL   ??HalUARTWrite?relay
// 1929 #endif
// 1930              }
// 1931            }
// 1932        // HalUARTWrite(0,(uint8*)&Water_gage_forValue, sizeof(Water_gage_forValue));
// 1933        // HalUARTWrite(0,(uint8*)&Water_gage_err, sizeof(Water_gage_err));      
// 1934        // HalUARTWrite(0,(uint8*)&SendWaterGageTimeFreq, sizeof(SendWaterGageTimeFreq));
// 1935        // HalUARTWrite(0,(uint8*)&UartHead, sizeof(UartHead))
// 1936        if ( SendWaterGageTimeFreq > 8*Water_gage_time )
??p2p_test_RecvFromUart_11:
        LCALL   ?Subroutine24 & 0xFFFF
??CrossCallReturnLabel_65:
        LCALL   ?S_SHL
        MOV     DPTR,#SendWaterGageTimeFreq
        LCALL   ??Subroutine27_0 & 0xFFFF
??CrossCallReturnLabel_79:
        CLR     C
        MOV     A,?V0 + 0
        SUBB    A,R0
        MOV     A,?V0 + 1
        SUBB    A,R1
        JNC     ??p2p_test_RecvFromUart_35
// 1937              SendWaterGageTimeFreq = 8*Water_gage_time;
        LCALL   ?Subroutine24 & 0xFFFF
??CrossCallReturnLabel_66:
        LCALL   ?S_SHL
        MOV     DPTR,#SendWaterGageTimeFreq
        MOV     A,?V0 + 0
        MOVX    @DPTR,A
        INC     DPTR
        MOV     A,?V0 + 1
        SJMP    ??p2p_test_RecvFromUart_36
// 1938        else if( SendWaterGageTimeFreq < 60)
??p2p_test_RecvFromUart_35:
        MOV     DPTR,#SendWaterGageTimeFreq
        CLR     C
        MOVX    A,@DPTR
        SUBB    A,#0x3c
        INC     DPTR
        MOVX    A,@DPTR
        SUBB    A,#0x0
        JNC     ??p2p_test_RecvFromUart_37
// 1939              SendWaterGageTimeFreq = 60;
        MOV     DPTR,#SendWaterGageTimeFreq
        MOV     A,#0x3c
        MOVX    @DPTR,A
        INC     DPTR
        CLR     A
??p2p_test_RecvFromUart_36:
        MOVX    @DPTR,A
// 1940         //HalUARTWrite(0,(uint8*)&SendWaterGageTimeFreq, sizeof(SendWaterGageTimeFreq));
// 1941 #if DEBUG
// 1942        HalUARTWrite_uint16(SendWaterGageTimeFreq);
??p2p_test_RecvFromUart_37:
        ; Setup parameters for call to function HalUARTWrite_uint16
        LCALL   ?Subroutine23 & 0xFFFF
// 1943 #endif
// 1944        
// 1945   //从收到第三个数据后开始预测下一个数据
// 1946        if(Water_gage_SerialNumber>=3)
??CrossCallReturnLabel_59:
        MOV     DPTR,#Water_gage_SerialNumber
        CLR     C
        MOVX    A,@DPTR
        SUBB    A,#0x3
        INC     DPTR
        MOVX    A,@DPTR
        SUBB    A,#0x0
        JC      ??CrossCallReturnLabel_64
// 1947          {
// 1948              Water_gage_forValue =Water_gage_forecastValue(Water_Gage_data_and_time);
        ; Setup parameters for call to function Water_gage_forecastValue
        MOV     DPTR,#Water_Gage_data_and_time
        MOV     A,#0x12
        LCALL   ?PUSH_XSTACK8_X
        CFI CFA_XSP16 add(XSP16, 55)
        LCALL   ??Water_gage_forecastValue?relay
        MOV     A,#0x12
        LCALL   ?DEALLOC_XSTACK8
        CFI CFA_XSP16 add(XSP16, 37)
        MOV     DPTR,#Water_gage_forValue
        MOV     A,R2
        MOVX    @DPTR,A
        INC     DPTR
        MOV     A,R3
        MOVX    @DPTR,A
// 1949               
// 1950              if (Water_gage_forValue > Water_gage_data_span)
        MOV     DPTR,#Water_gage_forValue
        CLR     C
        MOVX    A,@DPTR
        SUBB    A,#0x31
        INC     DPTR
        MOVX    A,@DPTR
        SUBB    A,#0x75
        JC      ??p2p_test_RecvFromUart_38
// 1951                Water_gage_forValue = Water_gage_data_span;
        MOV     DPTR,#Water_gage_forValue
        MOV     A,#0x30
        MOVX    @DPTR,A
        INC     DPTR
        MOV     A,#0x75
        MOVX    @DPTR,A
// 1952              //HalUARTWrite(0,(uint8*)&Water_gage_forValue, sizeof(Water_gage_forValue));
// 1953 #if DEBUG
// 1954              HalUARTWrite_uint16(Water_gage_forValue);
??p2p_test_RecvFromUart_38:
        ; Setup parameters for call to function HalUARTWrite_uint16
        MOV     DPTR,#Water_gage_forValue
        LCALL   ??Subroutine23_0 & 0xFFFF
// 1955 #endif
// 1956          } 
// 1957 
// 1958 //P1_1可用
// 1959        if(acceptance == 1)                    // 项目验收才关闭水位计
??CrossCallReturnLabel_64:
        MOV     DPTR,#acceptance
        MOVX    A,@DPTR
        XRL     A,#0x1
        JNZ     ??p2p_test_RecvFromUart_39
// 1960        {
// 1961          if(SendWaterGageTimeFreq >= 120)     //关闭水位计门的门限 2min
        MOV     DPTR,#SendWaterGageTimeFreq
        CLR     C
        MOVX    A,@DPTR
        SUBB    A,#0x78
        INC     DPTR
        MOVX    A,@DPTR
        SUBB    A,#0x0
        JC      ??p2p_test_RecvFromUart_39
// 1962          {
// 1963             P1_1 = 0;                           //关闭水位计
        CLR     0x90.1
// 1964          }
// 1965        }
// 1966        water_gage_on = 0;                     //逻辑关闭水位计
??p2p_test_RecvFromUart_39:
        CLR     A
        MOV     DPTR,#water_gage_on
        MOVX    @DPTR,A
// 1967        
// 1968        start_Water_gage_timer();
        ; Setup parameters for call to function start_Water_gage_timer
        LCALL   ??start_Water_gage_timer?relay
        LJMP    ??p2p_test_RecvFromUart_40 & 0xFFFF
// 1969   }
// 1970     
// 1971 
// 1972   else
// 1973   {// Msg=0xAA 0x55 LEN AppHead(receive from ARM's Relation ACK Msg)
// 1974     uint8 temp_arm_id,temp_zigbee_id,temp_res;
// 1975     AppHead_t *AppHead = (AppHead_t *)(Msg+3);
??p2p_test_RecvFromUart_0:
        MOV     A,R6
        ADD     A,#0x3
        MOV     DPL,A
        MOV     A,R7
        LCALL   ??Subroutine41_0 & 0xFFFF
// 1976       /*---------------------print-------------------*/
// 1977      // HalUARTWrite(0,Msg,10);
// 1978       /*********************************************/
// 1979       if(AppHead->type==TYPE_ACK)
??CrossCallReturnLabel_106:
        ANL     A,#0xf
        XRL     A,#0xf
        JZ      $+5
        LJMP    ??p2p_test_RecvFromUart_41 & 0xFFFF
// 1980       {
// 1981         if(AppHead->TypeCode==RELATION_MSG_DOWN)
        INC     DPTR
        MOVX    A,@DPTR
        XRL     A,#0x1
        JZ      $+5
        LJMP    ??p2p_test_RecvFromUart_40 & 0xFFFF
// 1982         {
// 1983           temp_res=(Msg[7]&0xf0)>>4;
        MOV     DPL,R6
        MOV     DPH,R7
        INC     DPTR
        INC     DPTR
        INC     DPTR
        INC     DPTR
        INC     DPTR
        INC     DPTR
        INC     DPTR
        MOVX    A,@DPTR
        MOV     R2,A
        SWAP    A
        ANL     A,#0xf
        MOV     R3,A
// 1984           temp_arm_id=(Msg[7]&0x0f);
        MOV     A,#0xf
        ANL     A,R2
        MOV     R2,A
// 1985           temp_zigbee_id=(Msg[8]&0xf0)>>4;
        MOV     DPL,R6
        MOV     DPH,R7
        INC     DPTR
        INC     DPTR
        INC     DPTR
        INC     DPTR
        INC     DPTR
        INC     DPTR
        INC     DPTR
        INC     DPTR
        MOVX    A,@DPTR
        SWAP    A
        ANL     A,#0xf
        MOV     R4,A
// 1986           if(Zigbee_ID==0 & ARM_ID==0)
        MOV     DPTR,#Zigbee_ID
        MOVX    A,@DPTR
        JNZ     ??p2p_test_RecvFromUart_42
        MOV     DPTR,#ARM_ID
        MOVX    A,@DPTR
        JNZ     ??p2p_test_RecvFromUart_42
// 1987           {
// 1988             ack_num=ack_num+1;
        MOV     DPTR,#??ack_num
        MOVX    A,@DPTR
        INC     A
        MOVX    @DPTR,A
// 1989             ARM_ID=temp_arm_id;
        MOV     A,R2
        MOV     DPTR,#ARM_ID
        MOVX    @DPTR,A
// 1990             Zigbee_ID= temp_zigbee_id;
        MOV     A,R4
        MOV     DPTR,#Zigbee_ID
        MOVX    @DPTR,A
// 1991             RES=temp_res;
        MOV     A,R3
        MOV     DPTR,#RES
        LCALL   ?Subroutine2 & 0xFFFF
// 1992             Head_Map->addr16=0x0000;
// 1993             Head_Map->Zigbee_id=Zigbee_ID;
??CrossCallReturnLabel_8:
        PUSH    A
        CFI CFA_SP SP+-1
        LCALL   ?Subroutine30 & 0xFFFF
??CrossCallReturnLabel_84:
        POP     A
        CFI CFA_SP SP+0
        MOVX    @DPTR,A
// 1994             FlagMap=ADDFLAG16(FlagMap,Zigbee_ID); 
        MOV     ?V0 + 0,#0x1
        MOV     ?V0 + 1,#0x0
        MOV     DPTR,#Zigbee_ID
        MOVX    A,@DPTR
        DEC     A
        MOV     R0,#?V0 + 0
        LCALL   ?S_SHL
        LCALL   ?Subroutine37 & 0xFFFF
??CrossCallReturnLabel_98:
        MOVX    @DPTR,A
        LJMP    ??p2p_test_RecvFromUart_40 & 0xFFFF
// 1995           }
// 1996           else if(ARM_ID==temp_arm_id && Zigbee_ID== temp_zigbee_id )
??p2p_test_RecvFromUart_42:
        MOV     DPTR,#ARM_ID
        MOVX    A,@DPTR
        XRL     A,R2
        JNZ     ??p2p_test_RecvFromUart_43
        MOV     DPTR,#Zigbee_ID
        MOVX    A,@DPTR
        XRL     A,R4
        JNZ     ??p2p_test_RecvFromUart_43
// 1997           { 
// 1998             if(Zigbee_ID!=0)
        MOVX    A,@DPTR
        JNZ     $+5
        LJMP    ??p2p_test_RecvFromUart_40 & 0xFFFF
// 1999             {
// 2000               if(relation_done == 0)
        MOV     DPTR,#relation_done
        MOVX    A,@DPTR
        JZ      $+5
        LJMP    ??p2p_test_RecvFromUart_40 & 0xFFFF
// 2001               {
// 2002                 osal_stop_timerEx( p2p_test_TaskID,p2p_test_SEND_MAINTAIN_MSG_EVT);
        ; Setup parameters for call to function osal_stop_timerEx
        LCALL   ?Subroutine29 & 0xFFFF
// 2003                 p2p_test_StartDataSensorTimer();
// 2004                 relation_done =1;
??CrossCallReturnLabel_82:
        SJMP    ??CrossCallReturnLabel_98
// 2005               }
// 2006             }
// 2007           }
// 2008           else
// 2009           {
// 2010             afAddrType_t p2p_test_DstAddr_temp;
// 2011             p2p_test_DstAddr_temp.addrMode = (afAddrMode_t) Addr16Bit;
??p2p_test_RecvFromUart_43:
        MOV     A,#0x6
        LCALL   ?XSTACK_DISP0_8
        MOV     A,#0x2
        MOVX    @DPTR,A
// 2012             p2p_test_DstAddr_temp.endPoint = p2p_test_ENDPOINT;
        MOV     A,#0x7
        LCALL   ?XSTACK_DISP0_8
        MOV     A,#0xa
        MOVX    @DPTR,A
// 2013             p2p_test_DstAddr_temp.addr.shortAddr = temp_shortaddr;
        MOV     A,#0x4
        LCALL   ?XSTACK_DISP0_8
        LCALL   ?Subroutine6 & 0xFFFF
// 2014             AF_DataRequest( &p2p_test_DstAddr_temp, &p2p_test_epDesc,
// 2015                                p2p_test_RelationMsg,
// 2016                                Msg[2],
// 2017                                Msg+3,
// 2018                                &p2p_test_TransID,
// 2019                                AF_DISCV_ROUTE, AF_DEFAULT_RADIUS);
??CrossCallReturnLabel_16:
        LCALL   ?PUSH_XSTACK_I_ONE
        CFI CFA_XSP16 add(XSP16, 38)
        MOV     ?V0 + 0,#(p2p_test_TransID & 0xff)
        MOV     ?V0 + 1,#((p2p_test_TransID >> 8) & 0xff)
        MOV     R0,#?V0 + 0
        LCALL   ?PUSH_XSTACK_I_TWO
        CFI CFA_XSP16 add(XSP16, 40)
        LCALL   ?Subroutine46 & 0xFFFF
??CrossCallReturnLabel_128:
        LCALL   ?PUSH_XSTACK_I_TWO
        CFI CFA_XSP16 add(XSP16, 42)
        LCALL   ?Subroutine36 & 0xFFFF
??CrossCallReturnLabel_176:
        LCALL   ?PUSH_XSTACK_I_TWO
        CFI CFA_XSP16 add(XSP16, 44)
        MOV     ?V0 + 0,#0x4
        LJMP    ??p2p_test_RecvFromUart_44 & 0xFFFF
        CFI CFA_XSP16 add(XSP16, 37)
// 2020           
// 2021           }
// 2022         }
// 2023       }
// 2024       else if(AppHead->type==TYPE_COMMAND )
??p2p_test_RecvFromUart_41:
        MOVX    A,@DPTR
        ANL     A,#0xf
        XRL     A,#0x8
        JZ      $+5
        LJMP    ??p2p_test_RecvFromUart_40 & 0xFFFF
// 2025       {
// 2026         temp_arm_id=(Msg[7]&0x0f);
// 2027         temp_zigbee_id=(Msg[8]&0xf0)>>4;
        MOV     DPL,R6
        MOV     DPH,R7
        INC     DPTR
        INC     DPTR
        INC     DPTR
        INC     DPTR
        INC     DPTR
        INC     DPTR
        INC     DPTR
        INC     DPTR
        MOVX    A,@DPTR
        SWAP    A
        ANL     A,#0xf
        MOV     R4,A
// 2028         if(temp_arm_id==ARM_ID && temp_zigbee_id==Zigbee_ID)
        MOV     DPL,R6
        MOV     DPH,R7
        INC     DPTR
        INC     DPTR
        INC     DPTR
        INC     DPTR
        INC     DPTR
        INC     DPTR
        INC     DPTR
        MOVX    A,@DPTR
        ANL     A,#0xf
        MOV     R2,A
        MOV     DPTR,#ARM_ID
        MOVX    A,@DPTR
        XRL     A,R2
        JNZ     ??p2p_test_RecvFromUart_45
        MOV     DPTR,#Zigbee_ID
        MOVX    A,@DPTR
        XRL     A,R4
        JNZ     ??p2p_test_RecvFromUart_45
// 2029           p2p_test_recv_108clusterId(Msg+3, Msg[2]);
        ; Setup parameters for call to function p2p_test_recv_108clusterId
        MOV     DPL,R6
        MOV     DPH,R7
        INC     DPTR
        INC     DPTR
        MOVX    A,@DPTR
        MOV     R1,A
        MOV     A,R6
        ADD     A,#0x3
        MOV     R2,A
        MOV     A,R7
        ADDC    A,#0x0
        MOV     R3,A
        LCALL   ??p2p_test_recv_108clusterId?relay
        SJMP    ??p2p_test_RecvFromUart_40
// 2030         else
// 2031         {
// 2032             afAddrType_t p2p_test_DstAddr_temp;
// 2033             p2p_test_DstAddr_temp.addrMode = (afAddrMode_t) Addr16Bit;
??p2p_test_RecvFromUart_45:
        MOV     A,#0x6
        LCALL   ?XSTACK_DISP0_8
        MOV     A,#0x2
        MOVX    @DPTR,A
// 2034             p2p_test_DstAddr_temp.endPoint = p2p_test_ENDPOINT;
        MOV     A,#0x7
        LCALL   ?XSTACK_DISP0_8
        MOV     A,#0xa
        MOVX    @DPTR,A
// 2035             p2p_test_DstAddr_temp.addr.shortAddr = 0xFFFF;
        MOV     A,#0x4
        LCALL   ?XSTACK_DISP0_8
        MOV     A,#-0x1
        MOVX    @DPTR,A
        INC     DPTR
        MOVX    @DPTR,A
// 2036             AF_DataRequest( &p2p_test_DstAddr_temp, &p2p_test_epDesc,
// 2037                                p2p_test_108ID,
// 2038                                Msg[2],
// 2039                                Msg+3,
// 2040                                &p2p_test_TransID,
// 2041                                AF_DISCV_ROUTE, AF_DEFAULT_RADIUS);
        ; Setup parameters for call to function AF_DataRequest
        MOV     ?V0 + 0,#0xa
        MOV     R0,#?V0 + 0
        LCALL   ?PUSH_XSTACK_I_ONE
        CFI CFA_XSP16 add(XSP16, 38)
        MOV     ?V0 + 0,#(p2p_test_TransID & 0xff)
        MOV     ?V0 + 1,#((p2p_test_TransID >> 8) & 0xff)
        MOV     R0,#?V0 + 0
        LCALL   ?PUSH_XSTACK_I_TWO
        CFI CFA_XSP16 add(XSP16, 40)
        LCALL   ?Subroutine46 & 0xFFFF
??CrossCallReturnLabel_129:
        LCALL   ?PUSH_XSTACK_I_TWO
        CFI CFA_XSP16 add(XSP16, 42)
        LCALL   ?Subroutine36 & 0xFFFF
??CrossCallReturnLabel_177:
        LCALL   ?PUSH_XSTACK_I_TWO
        CFI CFA_XSP16 add(XSP16, 44)
        MOV     ?V0 + 0,#0x2
??p2p_test_RecvFromUart_44:
        MOV     R0,#?V0 + 0
        LCALL   ?PUSH_XSTACK_I_TWO
        CFI CFA_XSP16 add(XSP16, 46)
        MOV     R1,#0x20
        MOV     R4,#(p2p_test_epDesc & 0xff)
        MOV     R5,#((p2p_test_epDesc >> 8) & 0xff)
        MOV     A,#0xd
        LCALL   ?XSTACK_DISP0_8
        MOV     R2,DPL
        MOV     R3,DPH
        LCALL   ??AF_DataRequest?relay
        MOV     A,#0x9
        LCALL   ?DEALLOC_XSTACK8
        CFI CFA_XSP16 add(XSP16, 37)
// 2042           
// 2043         }
// 2044           
// 2045       }
// 2046 
// 2047     
// 2048     
// 2049     //Msg = 0xAA 0x55 LEN shortaddr0 shortaddr1 DATA (Not include check, add short addr)
// 2050   //temporarily not consider broadcast
// 2051     /*
// 2052         uint16 shortAddr_temp = BUILD_UINT16(Msg[4], Msg[3]);
// 2053         AppHead_t *AppHead = (AppHead_t *)(Msg+5);
// 2054         uint8 SendOption;
// 2055         if(AppHead->AckRequire)
// 2056         {
// 2057               SendOption = AF_DISCV_ROUTE|AF_ACK_REQUEST;
// 2058         }
// 2059         else
// 2060         {
// 2061               SendOption = AF_DISCV_ROUTE;
// 2062         }
// 2063         
// 2064         if ( p2p_test_NwkState == DEV_ZB_COORD )
// 2065         {
// 2066           if(shortAddr_temp == 0x0000)
// 2067           {
// 2068             //maybe we will ack to arm if ack is required
// 2069             p2p_test_recv_108clusterId(Msg+5, Msg[2]-2);
// 2070           }
// 2071           else
// 2072           {
// 2073             afAddrType_t p2p_test_DstAddr_temp;
// 2074             p2p_test_DstAddr_temp.addrMode = (afAddrMode_t)Addr16Bit;
// 2075             p2p_test_DstAddr_temp.endPoint = p2p_test_ENDPOINT;
// 2076             p2p_test_DstAddr_temp.addr.shortAddr = shortAddr_temp;
// 2077           
// 2078             AF_DataRequest( &p2p_test_DstAddr_temp, &p2p_test_epDesc,
// 2079                                p2p_test_108ID,
// 2080                                Msg[2]-2,
// 2081                                Msg+5,
// 2082                                &p2p_test_TransID,
// 2083                                SendOption, AF_DEFAULT_RADIUS);//need ack
// 2084       
// 2085           }
// 2086         }
// 2087     */
// 2088     
// 2089    }
// 2090 }
??p2p_test_RecvFromUart_40:
        MOV     A,#0x15
        LJMP    ?Subroutine68 & 0xFFFF
        CFI EndBlock cfiBlock240
        REQUIRE _A_P1

        RSEG BANKED_CODE:CODE:NOROOT(0)
?Subroutine47:
        CFI Block cfiCond241 Using cfiCommon0
        CFI NoFunction
        CFI Conditional ??CrossCallReturnLabel_130
        CFI R6 load(1, XDATA, add(CFA_XSP16, literal(-16)))
        CFI VB load(1, XDATA, add(CFA_XSP16, literal(-15)))
        CFI V0 load(1, XDATA, add(CFA_XSP16, literal(-14)))
        CFI V1 load(1, XDATA, add(CFA_XSP16, literal(-13)))
        CFI V2 load(1, XDATA, add(CFA_XSP16, literal(-12)))
        CFI V3 load(1, XDATA, add(CFA_XSP16, literal(-11)))
        CFI V4 load(1, XDATA, add(CFA_XSP16, literal(-10)))
        CFI V5 load(1, XDATA, add(CFA_XSP16, literal(-9)))
        CFI V6 load(1, XDATA, add(CFA_XSP16, literal(-8)))
        CFI V7 load(1, XDATA, add(CFA_XSP16, literal(-7)))
        CFI R7 load(1, XDATA, add(CFA_XSP16, literal(-6)))
        CFI ?RET_LOW load(1, XDATA, add(CFA_XSP16, literal(-5)))
        CFI ?RET_HIGH load(1, XDATA, add(CFA_XSP16, literal(-4)))
        CFI ?BRET_EXT load(1, XDATA, add(CFA_XSP16, literal(-3)))
        CFI DPL0 load(1, XDATA, add(CFA_XSP16, literal(-2)))
        CFI DPH0 load(1, XDATA, add(CFA_XSP16, literal(-1)))
        CFI CFA_SP SP+0
        CFI CFA_XSP16 add(XSP16, 37)
        CFI Block cfiCond242 Using cfiCommon0
        CFI (cfiCond242) NoFunction
        CFI (cfiCond242) Conditional ??CrossCallReturnLabel_131
        CFI (cfiCond242) R6 load(1, XDATA, add(CFA_XSP16, literal(-16)))
        CFI (cfiCond242) VB load(1, XDATA, add(CFA_XSP16, literal(-15)))
        CFI (cfiCond242) V0 load(1, XDATA, add(CFA_XSP16, literal(-14)))
        CFI (cfiCond242) V1 load(1, XDATA, add(CFA_XSP16, literal(-13)))
        CFI (cfiCond242) V2 load(1, XDATA, add(CFA_XSP16, literal(-12)))
        CFI (cfiCond242) V3 load(1, XDATA, add(CFA_XSP16, literal(-11)))
        CFI (cfiCond242) V4 load(1, XDATA, add(CFA_XSP16, literal(-10)))
        CFI (cfiCond242) V5 load(1, XDATA, add(CFA_XSP16, literal(-9)))
        CFI (cfiCond242) V6 load(1, XDATA, add(CFA_XSP16, literal(-8)))
        CFI (cfiCond242) V7 load(1, XDATA, add(CFA_XSP16, literal(-7)))
        CFI (cfiCond242) R7 load(1, XDATA, add(CFA_XSP16, literal(-6)))
        CFI (cfiCond242) ?RET_LOW load(1, XDATA, add(CFA_XSP16, literal(-5)))
        CFI (cfiCond242) ?RET_HIGH load(1, XDATA, add(CFA_XSP16, literal(-4)))
        CFI (cfiCond242) ?BRET_EXT load(1, XDATA, add(CFA_XSP16, literal(-3)))
        CFI (cfiCond242) DPL0 load(1, XDATA, add(CFA_XSP16, literal(-2)))
        CFI (cfiCond242) DPH0 load(1, XDATA, add(CFA_XSP16, literal(-1)))
        CFI (cfiCond242) CFA_SP SP+0
        CFI (cfiCond242) CFA_XSP16 add(XSP16, 37)
        CFI Block cfiPicker243 Using cfiCommon1
        CFI (cfiPicker243) NoFunction
        CFI (cfiPicker243) Picker
        RLC     A
        MOV     R0,A
        MOV     A,R1
        RLC     A
        MOV     R1,A
        MOV     A,R0
        ADD     A,#(Water_Gage_data_and_time & 0xff)
        MOV     DPL,A
        MOV     A,R1
        ADDC    A,#((Water_Gage_data_and_time >> 8) & 0xff)
        MOV     DPH,A
        RET
        CFI EndBlock cfiCond241
        CFI EndBlock cfiCond242
        CFI EndBlock cfiPicker243

        RSEG BANKED_CODE:CODE:NOROOT(0)
?Subroutine46:
        CFI Block cfiCond244 Using cfiCommon0
        CFI NoFunction
        CFI Conditional ??CrossCallReturnLabel_128
        CFI R6 load(1, XDATA, add(CFA_XSP16, literal(-16)))
        CFI VB load(1, XDATA, add(CFA_XSP16, literal(-15)))
        CFI V0 load(1, XDATA, add(CFA_XSP16, literal(-14)))
        CFI V1 load(1, XDATA, add(CFA_XSP16, literal(-13)))
        CFI V2 load(1, XDATA, add(CFA_XSP16, literal(-12)))
        CFI V3 load(1, XDATA, add(CFA_XSP16, literal(-11)))
        CFI V4 load(1, XDATA, add(CFA_XSP16, literal(-10)))
        CFI V5 load(1, XDATA, add(CFA_XSP16, literal(-9)))
        CFI V6 load(1, XDATA, add(CFA_XSP16, literal(-8)))
        CFI V7 load(1, XDATA, add(CFA_XSP16, literal(-7)))
        CFI R7 load(1, XDATA, add(CFA_XSP16, literal(-6)))
        CFI ?RET_LOW load(1, XDATA, add(CFA_XSP16, literal(-5)))
        CFI ?RET_HIGH load(1, XDATA, add(CFA_XSP16, literal(-4)))
        CFI ?BRET_EXT load(1, XDATA, add(CFA_XSP16, literal(-3)))
        CFI DPL0 load(1, XDATA, add(CFA_XSP16, literal(-2)))
        CFI DPH0 load(1, XDATA, add(CFA_XSP16, literal(-1)))
        CFI CFA_SP SP+0
        CFI CFA_XSP16 add(XSP16, 40)
        CFI Block cfiCond245 Using cfiCommon0
        CFI (cfiCond245) NoFunction
        CFI (cfiCond245) Conditional ??CrossCallReturnLabel_129
        CFI (cfiCond245) R6 load(1, XDATA, add(CFA_XSP16, literal(-16)))
        CFI (cfiCond245) VB load(1, XDATA, add(CFA_XSP16, literal(-15)))
        CFI (cfiCond245) V0 load(1, XDATA, add(CFA_XSP16, literal(-14)))
        CFI (cfiCond245) V1 load(1, XDATA, add(CFA_XSP16, literal(-13)))
        CFI (cfiCond245) V2 load(1, XDATA, add(CFA_XSP16, literal(-12)))
        CFI (cfiCond245) V3 load(1, XDATA, add(CFA_XSP16, literal(-11)))
        CFI (cfiCond245) V4 load(1, XDATA, add(CFA_XSP16, literal(-10)))
        CFI (cfiCond245) V5 load(1, XDATA, add(CFA_XSP16, literal(-9)))
        CFI (cfiCond245) V6 load(1, XDATA, add(CFA_XSP16, literal(-8)))
        CFI (cfiCond245) V7 load(1, XDATA, add(CFA_XSP16, literal(-7)))
        CFI (cfiCond245) R7 load(1, XDATA, add(CFA_XSP16, literal(-6)))
        CFI (cfiCond245) ?RET_LOW load(1, XDATA, add(CFA_XSP16, literal(-5)))
        CFI (cfiCond245) ?RET_HIGH load(1, XDATA, add(CFA_XSP16, literal(-4)))
        CFI (cfiCond245) ?BRET_EXT load(1, XDATA, add(CFA_XSP16, literal(-3)))
        CFI (cfiCond245) DPL0 load(1, XDATA, add(CFA_XSP16, literal(-2)))
        CFI (cfiCond245) DPH0 load(1, XDATA, add(CFA_XSP16, literal(-1)))
        CFI (cfiCond245) CFA_SP SP+0
        CFI (cfiCond245) CFA_XSP16 add(XSP16, 40)
        CFI Block cfiPicker246 Using cfiCommon1
        CFI (cfiPicker246) NoFunction
        CFI (cfiPicker246) Picker
        LCALL   ?Subroutine57 & 0xFFFF
??CrossCallReturnLabel_151:
        MOV     R0,#?V0 + 0
        RET
        CFI EndBlock cfiCond244
        CFI EndBlock cfiCond245
        CFI EndBlock cfiPicker246

        RSEG BANKED_CODE:CODE:NOROOT(0)
?Subroutine57:
        CFI Block cfiCond247 Using cfiCommon0
        CFI NoFunction
        CFI Conditional ??CrossCallReturnLabel_150
        CFI R6 load(1, XDATA, add(CFA_XSP16, literal(-16)))
        CFI VB load(1, XDATA, add(CFA_XSP16, literal(-15)))
        CFI V0 load(1, XDATA, add(CFA_XSP16, literal(-14)))
        CFI V1 load(1, XDATA, add(CFA_XSP16, literal(-13)))
        CFI V2 load(1, XDATA, add(CFA_XSP16, literal(-12)))
        CFI V3 load(1, XDATA, add(CFA_XSP16, literal(-11)))
        CFI V4 load(1, XDATA, add(CFA_XSP16, literal(-10)))
        CFI V5 load(1, XDATA, add(CFA_XSP16, literal(-9)))
        CFI V6 load(1, XDATA, add(CFA_XSP16, literal(-8)))
        CFI V7 load(1, XDATA, add(CFA_XSP16, literal(-7)))
        CFI R7 load(1, XDATA, add(CFA_XSP16, literal(-6)))
        CFI ?RET_LOW load(1, XDATA, add(CFA_XSP16, literal(-5)))
        CFI ?RET_HIGH load(1, XDATA, add(CFA_XSP16, literal(-4)))
        CFI ?BRET_EXT load(1, XDATA, add(CFA_XSP16, literal(-3)))
        CFI DPL0 load(1, XDATA, add(CFA_XSP16, literal(-2)))
        CFI DPH0 load(1, XDATA, add(CFA_XSP16, literal(-1)))
        CFI CFA_SP SP+0
        CFI CFA_XSP16 add(XSP16, 37)
        CFI Block cfiCond248 Using cfiCommon0
        CFI (cfiCond248) NoFunction
        CFI (cfiCond248) Conditional ??CrossCallReturnLabel_151, ??CrossCallReturnLabel_128
        CFI (cfiCond248) R6 load(1, XDATA, add(CFA_XSP16, literal(-16)))
        CFI (cfiCond248) VB load(1, XDATA, add(CFA_XSP16, literal(-15)))
        CFI (cfiCond248) V0 load(1, XDATA, add(CFA_XSP16, literal(-14)))
        CFI (cfiCond248) V1 load(1, XDATA, add(CFA_XSP16, literal(-13)))
        CFI (cfiCond248) V2 load(1, XDATA, add(CFA_XSP16, literal(-12)))
        CFI (cfiCond248) V3 load(1, XDATA, add(CFA_XSP16, literal(-11)))
        CFI (cfiCond248) V4 load(1, XDATA, add(CFA_XSP16, literal(-10)))
        CFI (cfiCond248) V5 load(1, XDATA, add(CFA_XSP16, literal(-9)))
        CFI (cfiCond248) V6 load(1, XDATA, add(CFA_XSP16, literal(-8)))
        CFI (cfiCond248) V7 load(1, XDATA, add(CFA_XSP16, literal(-7)))
        CFI (cfiCond248) R7 load(1, XDATA, add(CFA_XSP16, literal(-6)))
        CFI (cfiCond248) ?RET_LOW load(1, XDATA, add(CFA_XSP16, literal(-5)))
        CFI (cfiCond248) ?RET_HIGH load(1, XDATA, add(CFA_XSP16, literal(-4)))
        CFI (cfiCond248) ?BRET_EXT load(1, XDATA, add(CFA_XSP16, literal(-3)))
        CFI (cfiCond248) DPL0 load(1, XDATA, add(CFA_XSP16, literal(-2)))
        CFI (cfiCond248) DPH0 load(1, XDATA, add(CFA_XSP16, literal(-1)))
        CFI (cfiCond248) CFA_SP SP+0
        CFI (cfiCond248) CFA_XSP16 add(XSP16, 40)
        CFI Block cfiCond249 Using cfiCommon0
        CFI (cfiCond249) NoFunction
        CFI (cfiCond249) Conditional ??CrossCallReturnLabel_151, ??CrossCallReturnLabel_129
        CFI (cfiCond249) R6 load(1, XDATA, add(CFA_XSP16, literal(-16)))
        CFI (cfiCond249) VB load(1, XDATA, add(CFA_XSP16, literal(-15)))
        CFI (cfiCond249) V0 load(1, XDATA, add(CFA_XSP16, literal(-14)))
        CFI (cfiCond249) V1 load(1, XDATA, add(CFA_XSP16, literal(-13)))
        CFI (cfiCond249) V2 load(1, XDATA, add(CFA_XSP16, literal(-12)))
        CFI (cfiCond249) V3 load(1, XDATA, add(CFA_XSP16, literal(-11)))
        CFI (cfiCond249) V4 load(1, XDATA, add(CFA_XSP16, literal(-10)))
        CFI (cfiCond249) V5 load(1, XDATA, add(CFA_XSP16, literal(-9)))
        CFI (cfiCond249) V6 load(1, XDATA, add(CFA_XSP16, literal(-8)))
        CFI (cfiCond249) V7 load(1, XDATA, add(CFA_XSP16, literal(-7)))
        CFI (cfiCond249) R7 load(1, XDATA, add(CFA_XSP16, literal(-6)))
        CFI (cfiCond249) ?RET_LOW load(1, XDATA, add(CFA_XSP16, literal(-5)))
        CFI (cfiCond249) ?RET_HIGH load(1, XDATA, add(CFA_XSP16, literal(-4)))
        CFI (cfiCond249) ?BRET_EXT load(1, XDATA, add(CFA_XSP16, literal(-3)))
        CFI (cfiCond249) DPL0 load(1, XDATA, add(CFA_XSP16, literal(-2)))
        CFI (cfiCond249) DPH0 load(1, XDATA, add(CFA_XSP16, literal(-1)))
        CFI (cfiCond249) CFA_SP SP+0
        CFI (cfiCond249) CFA_XSP16 add(XSP16, 40)
        CFI Block cfiPicker250 Using cfiCommon1
        CFI (cfiPicker250) NoFunction
        CFI (cfiPicker250) Picker
        MOV     A,R6
        ADD     A,#0x3
        MOV     ?V0 + 0,A
        MOV     A,R7
        ADDC    A,#0x0
        MOV     ?V0 + 1,A
        RET
        CFI EndBlock cfiCond247
        CFI EndBlock cfiCond248
        CFI EndBlock cfiCond249
        CFI EndBlock cfiPicker250

        RSEG BANKED_CODE:CODE:NOROOT(0)
?Subroutine42:
        CFI Block cfiCond251 Using cfiCommon0
        CFI NoFunction
        CFI Conditional ??CrossCallReturnLabel_112
        CFI R6 load(1, XDATA, add(CFA_XSP16, literal(-16)))
        CFI VB load(1, XDATA, add(CFA_XSP16, literal(-15)))
        CFI V0 load(1, XDATA, add(CFA_XSP16, literal(-14)))
        CFI V1 load(1, XDATA, add(CFA_XSP16, literal(-13)))
        CFI V2 load(1, XDATA, add(CFA_XSP16, literal(-12)))
        CFI V3 load(1, XDATA, add(CFA_XSP16, literal(-11)))
        CFI V4 load(1, XDATA, add(CFA_XSP16, literal(-10)))
        CFI V5 load(1, XDATA, add(CFA_XSP16, literal(-9)))
        CFI V6 load(1, XDATA, add(CFA_XSP16, literal(-8)))
        CFI V7 load(1, XDATA, add(CFA_XSP16, literal(-7)))
        CFI R7 load(1, XDATA, add(CFA_XSP16, literal(-6)))
        CFI ?RET_LOW load(1, XDATA, add(CFA_XSP16, literal(-5)))
        CFI ?RET_HIGH load(1, XDATA, add(CFA_XSP16, literal(-4)))
        CFI ?BRET_EXT load(1, XDATA, add(CFA_XSP16, literal(-3)))
        CFI DPL0 load(1, XDATA, add(CFA_XSP16, literal(-2)))
        CFI DPH0 load(1, XDATA, add(CFA_XSP16, literal(-1)))
        CFI CFA_SP SP+0
        CFI CFA_XSP16 add(XSP16, 17)
        CFI Block cfiCond252 Using cfiCommon0
        CFI (cfiCond252) NoFunction
        CFI (cfiCond252) Conditional ??CrossCallReturnLabel_113
        CFI (cfiCond252) R6 load(1, XDATA, add(CFA_XSP16, literal(-16)))
        CFI (cfiCond252) VB load(1, XDATA, add(CFA_XSP16, literal(-15)))
        CFI (cfiCond252) V0 load(1, XDATA, add(CFA_XSP16, literal(-14)))
        CFI (cfiCond252) V1 load(1, XDATA, add(CFA_XSP16, literal(-13)))
        CFI (cfiCond252) V2 load(1, XDATA, add(CFA_XSP16, literal(-12)))
        CFI (cfiCond252) V3 load(1, XDATA, add(CFA_XSP16, literal(-11)))
        CFI (cfiCond252) V4 load(1, XDATA, add(CFA_XSP16, literal(-10)))
        CFI (cfiCond252) V5 load(1, XDATA, add(CFA_XSP16, literal(-9)))
        CFI (cfiCond252) V6 load(1, XDATA, add(CFA_XSP16, literal(-8)))
        CFI (cfiCond252) V7 load(1, XDATA, add(CFA_XSP16, literal(-7)))
        CFI (cfiCond252) R7 load(1, XDATA, add(CFA_XSP16, literal(-6)))
        CFI (cfiCond252) ?RET_LOW load(1, XDATA, add(CFA_XSP16, literal(-5)))
        CFI (cfiCond252) ?RET_HIGH load(1, XDATA, add(CFA_XSP16, literal(-4)))
        CFI (cfiCond252) ?BRET_EXT load(1, XDATA, add(CFA_XSP16, literal(-3)))
        CFI (cfiCond252) DPL0 load(1, XDATA, add(CFA_XSP16, literal(-2)))
        CFI (cfiCond252) DPH0 load(1, XDATA, add(CFA_XSP16, literal(-1)))
        CFI (cfiCond252) CFA_SP SP+0
        CFI (cfiCond252) CFA_XSP16 add(XSP16, 37)
        CFI Block cfiPicker253 Using cfiCommon1
        CFI (cfiPicker253) NoFunction
        CFI (cfiPicker253) Picker
        ADDC    A,#0x0
        MOV     R7,A
        MOV     DPL,R6
        MOV     DPH,R7
        MOVX    A,@DPTR
        RET
        CFI EndBlock cfiCond251
        CFI EndBlock cfiCond252
        CFI EndBlock cfiPicker253

        RSEG BANKED_CODE:CODE:NOROOT(0)
?Subroutine41:
        CFI Block cfiCond254 Using cfiCommon0
        CFI NoFunction
        CFI Conditional ??CrossCallReturnLabel_108
        CFI R6 load(1, XDATA, add(CFA_XSP16, literal(-16)))
        CFI VB load(1, XDATA, add(CFA_XSP16, literal(-15)))
        CFI V0 load(1, XDATA, add(CFA_XSP16, literal(-14)))
        CFI V1 load(1, XDATA, add(CFA_XSP16, literal(-13)))
        CFI V2 load(1, XDATA, add(CFA_XSP16, literal(-12)))
        CFI V3 load(1, XDATA, add(CFA_XSP16, literal(-11)))
        CFI V4 load(1, XDATA, add(CFA_XSP16, literal(-10)))
        CFI V5 load(1, XDATA, add(CFA_XSP16, literal(-9)))
        CFI V6 load(1, XDATA, add(CFA_XSP16, literal(-8)))
        CFI V7 load(1, XDATA, add(CFA_XSP16, literal(-7)))
        CFI R7 load(1, XDATA, add(CFA_XSP16, literal(-6)))
        CFI ?RET_LOW load(1, XDATA, add(CFA_XSP16, literal(-5)))
        CFI ?RET_HIGH load(1, XDATA, add(CFA_XSP16, literal(-4)))
        CFI ?BRET_EXT load(1, XDATA, add(CFA_XSP16, literal(-3)))
        CFI DPL0 load(1, XDATA, add(CFA_XSP16, literal(-2)))
        CFI DPH0 load(1, XDATA, add(CFA_XSP16, literal(-1)))
        CFI CFA_SP SP+0
        CFI CFA_XSP16 add(XSP16, 17)
        CFI Block cfiCond255 Using cfiCommon0
        CFI (cfiCond255) NoFunction
        CFI (cfiCond255) Conditional ??CrossCallReturnLabel_109
        CFI (cfiCond255) R6 load(1, XDATA, add(CFA_XSP16, literal(-16)))
        CFI (cfiCond255) VB load(1, XDATA, add(CFA_XSP16, literal(-15)))
        CFI (cfiCond255) V0 load(1, XDATA, add(CFA_XSP16, literal(-14)))
        CFI (cfiCond255) V1 load(1, XDATA, add(CFA_XSP16, literal(-13)))
        CFI (cfiCond255) V2 load(1, XDATA, add(CFA_XSP16, literal(-12)))
        CFI (cfiCond255) V3 load(1, XDATA, add(CFA_XSP16, literal(-11)))
        CFI (cfiCond255) V4 load(1, XDATA, add(CFA_XSP16, literal(-10)))
        CFI (cfiCond255) V5 load(1, XDATA, add(CFA_XSP16, literal(-9)))
        CFI (cfiCond255) V6 load(1, XDATA, add(CFA_XSP16, literal(-8)))
        CFI (cfiCond255) V7 load(1, XDATA, add(CFA_XSP16, literal(-7)))
        CFI (cfiCond255) R7 load(1, XDATA, add(CFA_XSP16, literal(-6)))
        CFI (cfiCond255) ?RET_LOW load(1, XDATA, add(CFA_XSP16, literal(-5)))
        CFI (cfiCond255) ?RET_HIGH load(1, XDATA, add(CFA_XSP16, literal(-4)))
        CFI (cfiCond255) ?BRET_EXT load(1, XDATA, add(CFA_XSP16, literal(-3)))
        CFI (cfiCond255) DPL0 load(1, XDATA, add(CFA_XSP16, literal(-2)))
        CFI (cfiCond255) DPH0 load(1, XDATA, add(CFA_XSP16, literal(-1)))
        CFI (cfiCond255) CFA_SP SP+0
        CFI (cfiCond255) CFA_XSP16 add(XSP16, 17)
        CFI Block cfiCond256 Using cfiCommon0
        CFI (cfiCond256) NoFunction
        CFI (cfiCond256) Conditional ??CrossCallReturnLabel_110
        CFI (cfiCond256) R6 load(1, XDATA, add(CFA_XSP16, literal(-16)))
        CFI (cfiCond256) VB load(1, XDATA, add(CFA_XSP16, literal(-15)))
        CFI (cfiCond256) V0 load(1, XDATA, add(CFA_XSP16, literal(-14)))
        CFI (cfiCond256) V1 load(1, XDATA, add(CFA_XSP16, literal(-13)))
        CFI (cfiCond256) V2 load(1, XDATA, add(CFA_XSP16, literal(-12)))
        CFI (cfiCond256) V3 load(1, XDATA, add(CFA_XSP16, literal(-11)))
        CFI (cfiCond256) V4 load(1, XDATA, add(CFA_XSP16, literal(-10)))
        CFI (cfiCond256) V5 load(1, XDATA, add(CFA_XSP16, literal(-9)))
        CFI (cfiCond256) V6 load(1, XDATA, add(CFA_XSP16, literal(-8)))
        CFI (cfiCond256) V7 load(1, XDATA, add(CFA_XSP16, literal(-7)))
        CFI (cfiCond256) R7 load(1, XDATA, add(CFA_XSP16, literal(-6)))
        CFI (cfiCond256) ?RET_LOW load(1, XDATA, add(CFA_XSP16, literal(-5)))
        CFI (cfiCond256) ?RET_HIGH load(1, XDATA, add(CFA_XSP16, literal(-4)))
        CFI (cfiCond256) ?BRET_EXT load(1, XDATA, add(CFA_XSP16, literal(-3)))
        CFI (cfiCond256) DPL0 load(1, XDATA, add(CFA_XSP16, literal(-2)))
        CFI (cfiCond256) DPH0 load(1, XDATA, add(CFA_XSP16, literal(-1)))
        CFI (cfiCond256) CFA_SP SP+0
        CFI (cfiCond256) CFA_XSP16 add(XSP16, 17)
        CFI Block cfiCond257 Using cfiCommon0
        CFI (cfiCond257) NoFunction
        CFI (cfiCond257) Conditional ??CrossCallReturnLabel_111
        CFI (cfiCond257) R6 load(1, XDATA, add(CFA_XSP16, literal(-16)))
        CFI (cfiCond257) VB load(1, XDATA, add(CFA_XSP16, literal(-15)))
        CFI (cfiCond257) V0 load(1, XDATA, add(CFA_XSP16, literal(-14)))
        CFI (cfiCond257) V1 load(1, XDATA, add(CFA_XSP16, literal(-13)))
        CFI (cfiCond257) V2 load(1, XDATA, add(CFA_XSP16, literal(-12)))
        CFI (cfiCond257) V3 load(1, XDATA, add(CFA_XSP16, literal(-11)))
        CFI (cfiCond257) V4 load(1, XDATA, add(CFA_XSP16, literal(-10)))
        CFI (cfiCond257) V5 load(1, XDATA, add(CFA_XSP16, literal(-9)))
        CFI (cfiCond257) V6 load(1, XDATA, add(CFA_XSP16, literal(-8)))
        CFI (cfiCond257) V7 load(1, XDATA, add(CFA_XSP16, literal(-7)))
        CFI (cfiCond257) R7 load(1, XDATA, add(CFA_XSP16, literal(-6)))
        CFI (cfiCond257) ?RET_LOW load(1, XDATA, add(CFA_XSP16, literal(-5)))
        CFI (cfiCond257) ?RET_HIGH load(1, XDATA, add(CFA_XSP16, literal(-4)))
        CFI (cfiCond257) ?BRET_EXT load(1, XDATA, add(CFA_XSP16, literal(-3)))
        CFI (cfiCond257) DPL0 load(1, XDATA, add(CFA_XSP16, literal(-2)))
        CFI (cfiCond257) DPH0 load(1, XDATA, add(CFA_XSP16, literal(-1)))
        CFI (cfiCond257) CFA_SP SP+0
        CFI (cfiCond257) CFA_XSP16 add(XSP16, 17)
        CFI Block cfiPicker258 Using cfiCommon1
        CFI (cfiPicker258) NoFunction
        CFI (cfiPicker258) Picker
        MOV     DPL,A
        MOV     A,?V0 + 3
        CFI Block cfiCond259 Using cfiCommon0
        CFI (cfiCond259) NoFunction
        CFI (cfiCond259) Conditional ??CrossCallReturnLabel_107
        CFI (cfiCond259) R6 load(1, XDATA, add(CFA_XSP16, literal(-10)))
        CFI (cfiCond259) VB load(1, XDATA, add(CFA_XSP16, literal(-9)))
        CFI (cfiCond259) V0 load(1, XDATA, add(CFA_XSP16, literal(-8)))
        CFI (cfiCond259) V1 load(1, XDATA, add(CFA_XSP16, literal(-7)))
        CFI (cfiCond259) R7 load(1, XDATA, add(CFA_XSP16, literal(-6)))
        CFI (cfiCond259) ?RET_LOW load(1, XDATA, add(CFA_XSP16, literal(-5)))
        CFI (cfiCond259) ?RET_HIGH load(1, XDATA, add(CFA_XSP16, literal(-4)))
        CFI (cfiCond259) ?BRET_EXT load(1, XDATA, add(CFA_XSP16, literal(-3)))
        CFI (cfiCond259) DPL0 load(1, XDATA, add(CFA_XSP16, literal(-2)))
        CFI (cfiCond259) DPH0 load(1, XDATA, add(CFA_XSP16, literal(-1)))
        CFI (cfiCond259) CFA_SP SP+0
        CFI (cfiCond259) CFA_XSP16 add(XSP16, 10)
        CFI Block cfiCond260 Using cfiCommon0
        CFI (cfiCond260) NoFunction
        CFI (cfiCond260) Conditional ??CrossCallReturnLabel_106
        CFI (cfiCond260) R6 load(1, XDATA, add(CFA_XSP16, literal(-16)))
        CFI (cfiCond260) VB load(1, XDATA, add(CFA_XSP16, literal(-15)))
        CFI (cfiCond260) V0 load(1, XDATA, add(CFA_XSP16, literal(-14)))
        CFI (cfiCond260) V1 load(1, XDATA, add(CFA_XSP16, literal(-13)))
        CFI (cfiCond260) V2 load(1, XDATA, add(CFA_XSP16, literal(-12)))
        CFI (cfiCond260) V3 load(1, XDATA, add(CFA_XSP16, literal(-11)))
        CFI (cfiCond260) V4 load(1, XDATA, add(CFA_XSP16, literal(-10)))
        CFI (cfiCond260) V5 load(1, XDATA, add(CFA_XSP16, literal(-9)))
        CFI (cfiCond260) V6 load(1, XDATA, add(CFA_XSP16, literal(-8)))
        CFI (cfiCond260) V7 load(1, XDATA, add(CFA_XSP16, literal(-7)))
        CFI (cfiCond260) R7 load(1, XDATA, add(CFA_XSP16, literal(-6)))
        CFI (cfiCond260) ?RET_LOW load(1, XDATA, add(CFA_XSP16, literal(-5)))
        CFI (cfiCond260) ?RET_HIGH load(1, XDATA, add(CFA_XSP16, literal(-4)))
        CFI (cfiCond260) ?BRET_EXT load(1, XDATA, add(CFA_XSP16, literal(-3)))
        CFI (cfiCond260) DPL0 load(1, XDATA, add(CFA_XSP16, literal(-2)))
        CFI (cfiCond260) DPH0 load(1, XDATA, add(CFA_XSP16, literal(-1)))
        CFI (cfiCond260) CFA_SP SP+0
        CFI (cfiCond260) CFA_XSP16 add(XSP16, 37)
??Subroutine41_0:
        ADDC    A,#0x0
        MOV     DPH,A
        MOVX    A,@DPTR
        RET
        CFI EndBlock cfiCond254
        CFI EndBlock cfiCond255
        CFI EndBlock cfiCond256
        CFI EndBlock cfiCond257
        CFI EndBlock cfiPicker258
        CFI EndBlock cfiCond259
        CFI EndBlock cfiCond260

        RSEG BANKED_CODE:CODE:NOROOT(0)
?Subroutine37:
        CFI Block cfiCond261 Using cfiCommon0
        CFI NoFunction
        CFI Conditional ??CrossCallReturnLabel_97
        CFI R6 load(1, XDATA, add(CFA_XSP16, literal(-16)))
        CFI VB load(1, XDATA, add(CFA_XSP16, literal(-15)))
        CFI V0 load(1, XDATA, add(CFA_XSP16, literal(-14)))
        CFI V1 load(1, XDATA, add(CFA_XSP16, literal(-13)))
        CFI V2 load(1, XDATA, add(CFA_XSP16, literal(-12)))
        CFI V3 load(1, XDATA, add(CFA_XSP16, literal(-11)))
        CFI V4 load(1, XDATA, add(CFA_XSP16, literal(-10)))
        CFI V5 load(1, XDATA, add(CFA_XSP16, literal(-9)))
        CFI V6 load(1, XDATA, add(CFA_XSP16, literal(-8)))
        CFI V7 load(1, XDATA, add(CFA_XSP16, literal(-7)))
        CFI R7 load(1, XDATA, add(CFA_XSP16, literal(-6)))
        CFI ?RET_LOW load(1, XDATA, add(CFA_XSP16, literal(-5)))
        CFI ?RET_HIGH load(1, XDATA, add(CFA_XSP16, literal(-4)))
        CFI ?BRET_EXT load(1, XDATA, add(CFA_XSP16, literal(-3)))
        CFI DPL0 load(1, XDATA, add(CFA_XSP16, literal(-2)))
        CFI DPH0 load(1, XDATA, add(CFA_XSP16, literal(-1)))
        CFI CFA_SP SP+0
        CFI CFA_XSP16 add(XSP16, 22)
        CFI Block cfiCond262 Using cfiCommon0
        CFI (cfiCond262) NoFunction
        CFI (cfiCond262) Conditional ??CrossCallReturnLabel_98
        CFI (cfiCond262) R6 load(1, XDATA, add(CFA_XSP16, literal(-16)))
        CFI (cfiCond262) VB load(1, XDATA, add(CFA_XSP16, literal(-15)))
        CFI (cfiCond262) V0 load(1, XDATA, add(CFA_XSP16, literal(-14)))
        CFI (cfiCond262) V1 load(1, XDATA, add(CFA_XSP16, literal(-13)))
        CFI (cfiCond262) V2 load(1, XDATA, add(CFA_XSP16, literal(-12)))
        CFI (cfiCond262) V3 load(1, XDATA, add(CFA_XSP16, literal(-11)))
        CFI (cfiCond262) V4 load(1, XDATA, add(CFA_XSP16, literal(-10)))
        CFI (cfiCond262) V5 load(1, XDATA, add(CFA_XSP16, literal(-9)))
        CFI (cfiCond262) V6 load(1, XDATA, add(CFA_XSP16, literal(-8)))
        CFI (cfiCond262) V7 load(1, XDATA, add(CFA_XSP16, literal(-7)))
        CFI (cfiCond262) R7 load(1, XDATA, add(CFA_XSP16, literal(-6)))
        CFI (cfiCond262) ?RET_LOW load(1, XDATA, add(CFA_XSP16, literal(-5)))
        CFI (cfiCond262) ?RET_HIGH load(1, XDATA, add(CFA_XSP16, literal(-4)))
        CFI (cfiCond262) ?BRET_EXT load(1, XDATA, add(CFA_XSP16, literal(-3)))
        CFI (cfiCond262) DPL0 load(1, XDATA, add(CFA_XSP16, literal(-2)))
        CFI (cfiCond262) DPH0 load(1, XDATA, add(CFA_XSP16, literal(-1)))
        CFI (cfiCond262) CFA_SP SP+0
        CFI (cfiCond262) CFA_XSP16 add(XSP16, 37)
        CFI Block cfiPicker263 Using cfiCommon1
        CFI (cfiPicker263) NoFunction
        CFI (cfiPicker263) Picker
        MOV     DPTR,#FlagMap
        MOVX    A,@DPTR
        ORL     A,?V0 + 0
        MOVX    @DPTR,A
        INC     DPTR
        MOVX    A,@DPTR
        ORL     A,?V0 + 1
        RET
        CFI EndBlock cfiCond261
        CFI EndBlock cfiCond262
        CFI EndBlock cfiPicker263

        RSEG BANKED_CODE:CODE:NOROOT(0)
?Subroutine36:
        CFI Block cfiCond264 Using cfiCommon0
        CFI NoFunction
        CFI Conditional ??CrossCallReturnLabel_176
        CFI R6 load(1, XDATA, add(CFA_XSP16, literal(-16)))
        CFI VB load(1, XDATA, add(CFA_XSP16, literal(-15)))
        CFI V0 load(1, XDATA, add(CFA_XSP16, literal(-14)))
        CFI V1 load(1, XDATA, add(CFA_XSP16, literal(-13)))
        CFI V2 load(1, XDATA, add(CFA_XSP16, literal(-12)))
        CFI V3 load(1, XDATA, add(CFA_XSP16, literal(-11)))
        CFI V4 load(1, XDATA, add(CFA_XSP16, literal(-10)))
        CFI V5 load(1, XDATA, add(CFA_XSP16, literal(-9)))
        CFI V6 load(1, XDATA, add(CFA_XSP16, literal(-8)))
        CFI V7 load(1, XDATA, add(CFA_XSP16, literal(-7)))
        CFI R7 load(1, XDATA, add(CFA_XSP16, literal(-6)))
        CFI ?RET_LOW load(1, XDATA, add(CFA_XSP16, literal(-5)))
        CFI ?RET_HIGH load(1, XDATA, add(CFA_XSP16, literal(-4)))
        CFI ?BRET_EXT load(1, XDATA, add(CFA_XSP16, literal(-3)))
        CFI DPL0 load(1, XDATA, add(CFA_XSP16, literal(-2)))
        CFI DPH0 load(1, XDATA, add(CFA_XSP16, literal(-1)))
        CFI CFA_SP SP+0
        CFI CFA_XSP16 add(XSP16, 42)
        CFI Block cfiCond265 Using cfiCommon0
        CFI (cfiCond265) NoFunction
        CFI (cfiCond265) Conditional ??CrossCallReturnLabel_177
        CFI (cfiCond265) R6 load(1, XDATA, add(CFA_XSP16, literal(-16)))
        CFI (cfiCond265) VB load(1, XDATA, add(CFA_XSP16, literal(-15)))
        CFI (cfiCond265) V0 load(1, XDATA, add(CFA_XSP16, literal(-14)))
        CFI (cfiCond265) V1 load(1, XDATA, add(CFA_XSP16, literal(-13)))
        CFI (cfiCond265) V2 load(1, XDATA, add(CFA_XSP16, literal(-12)))
        CFI (cfiCond265) V3 load(1, XDATA, add(CFA_XSP16, literal(-11)))
        CFI (cfiCond265) V4 load(1, XDATA, add(CFA_XSP16, literal(-10)))
        CFI (cfiCond265) V5 load(1, XDATA, add(CFA_XSP16, literal(-9)))
        CFI (cfiCond265) V6 load(1, XDATA, add(CFA_XSP16, literal(-8)))
        CFI (cfiCond265) V7 load(1, XDATA, add(CFA_XSP16, literal(-7)))
        CFI (cfiCond265) R7 load(1, XDATA, add(CFA_XSP16, literal(-6)))
        CFI (cfiCond265) ?RET_LOW load(1, XDATA, add(CFA_XSP16, literal(-5)))
        CFI (cfiCond265) ?RET_HIGH load(1, XDATA, add(CFA_XSP16, literal(-4)))
        CFI (cfiCond265) ?BRET_EXT load(1, XDATA, add(CFA_XSP16, literal(-3)))
        CFI (cfiCond265) DPL0 load(1, XDATA, add(CFA_XSP16, literal(-2)))
        CFI (cfiCond265) DPH0 load(1, XDATA, add(CFA_XSP16, literal(-1)))
        CFI (cfiCond265) CFA_SP SP+0
        CFI (cfiCond265) CFA_XSP16 add(XSP16, 42)
        CFI Block cfiPicker266 Using cfiCommon1
        CFI (cfiPicker266) NoFunction
        CFI (cfiPicker266) Picker
        MOV     DPL,R6
        MOV     DPH,R7
        INC     DPTR
        INC     DPTR
        MOVX    A,@DPTR
        MOV     ?V0 + 0,A
        LJMP    ?Subroutine63 & 0xFFFF
        CFI EndBlock cfiCond264
        CFI EndBlock cfiCond265
        CFI EndBlock cfiPicker266

        RSEG BANKED_CODE:CODE:NOROOT(0)
?Subroutine35:
        CFI Block cfiCond267 Using cfiCommon0
        CFI NoFunction
        CFI Conditional ??CrossCallReturnLabel_95
        CFI R6 load(1, XDATA, add(CFA_XSP16, literal(-16)))
        CFI VB load(1, XDATA, add(CFA_XSP16, literal(-15)))
        CFI V0 load(1, XDATA, add(CFA_XSP16, literal(-14)))
        CFI V1 load(1, XDATA, add(CFA_XSP16, literal(-13)))
        CFI V2 load(1, XDATA, add(CFA_XSP16, literal(-12)))
        CFI V3 load(1, XDATA, add(CFA_XSP16, literal(-11)))
        CFI V4 load(1, XDATA, add(CFA_XSP16, literal(-10)))
        CFI V5 load(1, XDATA, add(CFA_XSP16, literal(-9)))
        CFI V6 load(1, XDATA, add(CFA_XSP16, literal(-8)))
        CFI V7 load(1, XDATA, add(CFA_XSP16, literal(-7)))
        CFI R7 load(1, XDATA, add(CFA_XSP16, literal(-6)))
        CFI ?RET_LOW load(1, XDATA, add(CFA_XSP16, literal(-5)))
        CFI ?RET_HIGH load(1, XDATA, add(CFA_XSP16, literal(-4)))
        CFI ?BRET_EXT load(1, XDATA, add(CFA_XSP16, literal(-3)))
        CFI DPL0 load(1, XDATA, add(CFA_XSP16, literal(-2)))
        CFI DPH0 load(1, XDATA, add(CFA_XSP16, literal(-1)))
        CFI CFA_SP SP+0
        CFI CFA_XSP16 add(XSP16, 17)
        CFI Block cfiCond268 Using cfiCommon0
        CFI (cfiCond268) NoFunction
        CFI (cfiCond268) Conditional ??CrossCallReturnLabel_96
        CFI (cfiCond268) R6 load(1, XDATA, add(CFA_XSP16, literal(-16)))
        CFI (cfiCond268) VB load(1, XDATA, add(CFA_XSP16, literal(-15)))
        CFI (cfiCond268) V0 load(1, XDATA, add(CFA_XSP16, literal(-14)))
        CFI (cfiCond268) V1 load(1, XDATA, add(CFA_XSP16, literal(-13)))
        CFI (cfiCond268) V2 load(1, XDATA, add(CFA_XSP16, literal(-12)))
        CFI (cfiCond268) V3 load(1, XDATA, add(CFA_XSP16, literal(-11)))
        CFI (cfiCond268) V4 load(1, XDATA, add(CFA_XSP16, literal(-10)))
        CFI (cfiCond268) V5 load(1, XDATA, add(CFA_XSP16, literal(-9)))
        CFI (cfiCond268) V6 load(1, XDATA, add(CFA_XSP16, literal(-8)))
        CFI (cfiCond268) V7 load(1, XDATA, add(CFA_XSP16, literal(-7)))
        CFI (cfiCond268) R7 load(1, XDATA, add(CFA_XSP16, literal(-6)))
        CFI (cfiCond268) ?RET_LOW load(1, XDATA, add(CFA_XSP16, literal(-5)))
        CFI (cfiCond268) ?RET_HIGH load(1, XDATA, add(CFA_XSP16, literal(-4)))
        CFI (cfiCond268) ?BRET_EXT load(1, XDATA, add(CFA_XSP16, literal(-3)))
        CFI (cfiCond268) DPL0 load(1, XDATA, add(CFA_XSP16, literal(-2)))
        CFI (cfiCond268) DPH0 load(1, XDATA, add(CFA_XSP16, literal(-1)))
        CFI (cfiCond268) CFA_SP SP+0
        CFI (cfiCond268) CFA_XSP16 add(XSP16, 37)
        CFI Block cfiPicker269 Using cfiCommon1
        CFI (cfiPicker269) NoFunction
        CFI (cfiPicker269) Picker
        MOVX    A,@DPTR
        MOV     R1,A
        MOV     A,R2
        MOV     ?V0 + 0,A
        MOV     A,R1
        MOV     ?V0 + 1,A
        RET
        CFI EndBlock cfiCond267
        CFI EndBlock cfiCond268
        CFI EndBlock cfiPicker269

        RSEG BANKED_CODE:CODE:NOROOT(0)
?Subroutine34:
        CFI Block cfiCond270 Using cfiCommon0
        CFI NoFunction
        CFI Conditional ??CrossCallReturnLabel_91
        CFI R6 load(1, XDATA, add(CFA_XSP16, literal(-16)))
        CFI VB load(1, XDATA, add(CFA_XSP16, literal(-15)))
        CFI V0 load(1, XDATA, add(CFA_XSP16, literal(-14)))
        CFI V1 load(1, XDATA, add(CFA_XSP16, literal(-13)))
        CFI V2 load(1, XDATA, add(CFA_XSP16, literal(-12)))
        CFI V3 load(1, XDATA, add(CFA_XSP16, literal(-11)))
        CFI V4 load(1, XDATA, add(CFA_XSP16, literal(-10)))
        CFI V5 load(1, XDATA, add(CFA_XSP16, literal(-9)))
        CFI V6 load(1, XDATA, add(CFA_XSP16, literal(-8)))
        CFI V7 load(1, XDATA, add(CFA_XSP16, literal(-7)))
        CFI R7 load(1, XDATA, add(CFA_XSP16, literal(-6)))
        CFI ?RET_LOW load(1, XDATA, add(CFA_XSP16, literal(-5)))
        CFI ?RET_HIGH load(1, XDATA, add(CFA_XSP16, literal(-4)))
        CFI ?BRET_EXT load(1, XDATA, add(CFA_XSP16, literal(-3)))
        CFI DPL0 load(1, XDATA, add(CFA_XSP16, literal(-2)))
        CFI DPH0 load(1, XDATA, add(CFA_XSP16, literal(-1)))
        CFI CFA_SP SP+0
        CFI CFA_XSP16 add(XSP16, 37)
        CFI Block cfiCond271 Using cfiCommon0
        CFI (cfiCond271) NoFunction
        CFI (cfiCond271) Conditional ??CrossCallReturnLabel_92
        CFI (cfiCond271) R6 load(1, XDATA, add(CFA_XSP16, literal(-16)))
        CFI (cfiCond271) VB load(1, XDATA, add(CFA_XSP16, literal(-15)))
        CFI (cfiCond271) V0 load(1, XDATA, add(CFA_XSP16, literal(-14)))
        CFI (cfiCond271) V1 load(1, XDATA, add(CFA_XSP16, literal(-13)))
        CFI (cfiCond271) V2 load(1, XDATA, add(CFA_XSP16, literal(-12)))
        CFI (cfiCond271) V3 load(1, XDATA, add(CFA_XSP16, literal(-11)))
        CFI (cfiCond271) V4 load(1, XDATA, add(CFA_XSP16, literal(-10)))
        CFI (cfiCond271) V5 load(1, XDATA, add(CFA_XSP16, literal(-9)))
        CFI (cfiCond271) V6 load(1, XDATA, add(CFA_XSP16, literal(-8)))
        CFI (cfiCond271) V7 load(1, XDATA, add(CFA_XSP16, literal(-7)))
        CFI (cfiCond271) R7 load(1, XDATA, add(CFA_XSP16, literal(-6)))
        CFI (cfiCond271) ?RET_LOW load(1, XDATA, add(CFA_XSP16, literal(-5)))
        CFI (cfiCond271) ?RET_HIGH load(1, XDATA, add(CFA_XSP16, literal(-4)))
        CFI (cfiCond271) ?BRET_EXT load(1, XDATA, add(CFA_XSP16, literal(-3)))
        CFI (cfiCond271) DPL0 load(1, XDATA, add(CFA_XSP16, literal(-2)))
        CFI (cfiCond271) DPH0 load(1, XDATA, add(CFA_XSP16, literal(-1)))
        CFI (cfiCond271) CFA_SP SP+0
        CFI (cfiCond271) CFA_XSP16 add(XSP16, 37)
        CFI Block cfiCond272 Using cfiCommon0
        CFI (cfiCond272) NoFunction
        CFI (cfiCond272) Conditional ??CrossCallReturnLabel_93
        CFI (cfiCond272) R6 load(1, XDATA, add(CFA_XSP16, literal(-16)))
        CFI (cfiCond272) VB load(1, XDATA, add(CFA_XSP16, literal(-15)))
        CFI (cfiCond272) V0 load(1, XDATA, add(CFA_XSP16, literal(-14)))
        CFI (cfiCond272) V1 load(1, XDATA, add(CFA_XSP16, literal(-13)))
        CFI (cfiCond272) V2 load(1, XDATA, add(CFA_XSP16, literal(-12)))
        CFI (cfiCond272) V3 load(1, XDATA, add(CFA_XSP16, literal(-11)))
        CFI (cfiCond272) V4 load(1, XDATA, add(CFA_XSP16, literal(-10)))
        CFI (cfiCond272) V5 load(1, XDATA, add(CFA_XSP16, literal(-9)))
        CFI (cfiCond272) V6 load(1, XDATA, add(CFA_XSP16, literal(-8)))
        CFI (cfiCond272) V7 load(1, XDATA, add(CFA_XSP16, literal(-7)))
        CFI (cfiCond272) R7 load(1, XDATA, add(CFA_XSP16, literal(-6)))
        CFI (cfiCond272) ?RET_LOW load(1, XDATA, add(CFA_XSP16, literal(-5)))
        CFI (cfiCond272) ?RET_HIGH load(1, XDATA, add(CFA_XSP16, literal(-4)))
        CFI (cfiCond272) ?BRET_EXT load(1, XDATA, add(CFA_XSP16, literal(-3)))
        CFI (cfiCond272) DPL0 load(1, XDATA, add(CFA_XSP16, literal(-2)))
        CFI (cfiCond272) DPH0 load(1, XDATA, add(CFA_XSP16, literal(-1)))
        CFI (cfiCond272) CFA_SP SP+0
        CFI (cfiCond272) CFA_XSP16 add(XSP16, 37)
        CFI Block cfiPicker273 Using cfiCommon1
        CFI (cfiPicker273) NoFunction
        CFI (cfiPicker273) Picker
        MOV     R1,A
        CFI Block cfiCond274 Using cfiCommon0
        CFI (cfiCond274) NoFunction
        CFI (cfiCond274) Conditional ??CrossCallReturnLabel_94
        CFI (cfiCond274) R6 load(1, XDATA, add(CFA_XSP16, literal(-16)))
        CFI (cfiCond274) VB load(1, XDATA, add(CFA_XSP16, literal(-15)))
        CFI (cfiCond274) V0 load(1, XDATA, add(CFA_XSP16, literal(-14)))
        CFI (cfiCond274) V1 load(1, XDATA, add(CFA_XSP16, literal(-13)))
        CFI (cfiCond274) V2 load(1, XDATA, add(CFA_XSP16, literal(-12)))
        CFI (cfiCond274) V3 load(1, XDATA, add(CFA_XSP16, literal(-11)))
        CFI (cfiCond274) V4 load(1, XDATA, add(CFA_XSP16, literal(-10)))
        CFI (cfiCond274) V5 load(1, XDATA, add(CFA_XSP16, literal(-9)))
        CFI (cfiCond274) V6 load(1, XDATA, add(CFA_XSP16, literal(-8)))
        CFI (cfiCond274) V7 load(1, XDATA, add(CFA_XSP16, literal(-7)))
        CFI (cfiCond274) R7 load(1, XDATA, add(CFA_XSP16, literal(-6)))
        CFI (cfiCond274) ?RET_LOW load(1, XDATA, add(CFA_XSP16, literal(-5)))
        CFI (cfiCond274) ?RET_HIGH load(1, XDATA, add(CFA_XSP16, literal(-4)))
        CFI (cfiCond274) ?BRET_EXT load(1, XDATA, add(CFA_XSP16, literal(-3)))
        CFI (cfiCond274) DPL0 load(1, XDATA, add(CFA_XSP16, literal(-2)))
        CFI (cfiCond274) DPH0 load(1, XDATA, add(CFA_XSP16, literal(-1)))
        CFI (cfiCond274) CFA_SP SP+0
        CFI (cfiCond274) CFA_XSP16 add(XSP16, 37)
??Subroutine34_0:
        CLR     C
        MOVX    A,@DPTR
        SUBB    A,R0
        INC     DPTR
        MOVX    A,@DPTR
        SUBB    A,R1
        RET
        CFI EndBlock cfiCond270
        CFI EndBlock cfiCond271
        CFI EndBlock cfiCond272
        CFI EndBlock cfiPicker273
        CFI EndBlock cfiCond274

        RSEG BANKED_CODE:CODE:NOROOT(0)
?Subroutine30:
        CFI Block cfiCond275 Using cfiCommon0
        CFI NoFunction
        CFI Conditional ??CrossCallReturnLabel_83
        CFI DPL0 Frame(CFA_SP, 4)
        CFI DPH0 Frame(CFA_SP, 5)
        CFI CFA_SP SP+-6
        CFI Block cfiCond276 Using cfiCommon0
        CFI (cfiCond276) NoFunction
        CFI (cfiCond276) Conditional ??CrossCallReturnLabel_84
        CFI (cfiCond276) R6 load(1, XDATA, add(CFA_XSP16, literal(-16)))
        CFI (cfiCond276) VB load(1, XDATA, add(CFA_XSP16, literal(-15)))
        CFI (cfiCond276) V0 load(1, XDATA, add(CFA_XSP16, literal(-14)))
        CFI (cfiCond276) V1 load(1, XDATA, add(CFA_XSP16, literal(-13)))
        CFI (cfiCond276) V2 load(1, XDATA, add(CFA_XSP16, literal(-12)))
        CFI (cfiCond276) V3 load(1, XDATA, add(CFA_XSP16, literal(-11)))
        CFI (cfiCond276) V4 load(1, XDATA, add(CFA_XSP16, literal(-10)))
        CFI (cfiCond276) V5 load(1, XDATA, add(CFA_XSP16, literal(-9)))
        CFI (cfiCond276) V6 load(1, XDATA, add(CFA_XSP16, literal(-8)))
        CFI (cfiCond276) V7 load(1, XDATA, add(CFA_XSP16, literal(-7)))
        CFI (cfiCond276) R7 load(1, XDATA, add(CFA_XSP16, literal(-6)))
        CFI (cfiCond276) ?RET_LOW load(1, XDATA, add(CFA_XSP16, literal(-5)))
        CFI (cfiCond276) ?RET_HIGH load(1, XDATA, add(CFA_XSP16, literal(-4)))
        CFI (cfiCond276) ?BRET_EXT load(1, XDATA, add(CFA_XSP16, literal(-3)))
        CFI (cfiCond276) DPL0 load(1, XDATA, add(CFA_XSP16, literal(-2)))
        CFI (cfiCond276) DPH0 load(1, XDATA, add(CFA_XSP16, literal(-1)))
        CFI (cfiCond276) CFA_SP SP+-1
        CFI (cfiCond276) CFA_XSP16 add(XSP16, 37)
        CFI Block cfiPicker277 Using cfiCommon1
        CFI (cfiPicker277) NoFunction
        CFI (cfiPicker277) Picker
        LCALL   ?Subroutine59 & 0xFFFF
??CrossCallReturnLabel_159:
        MOV     DPH,A
        MOV     DPL,R0
        INC     DPTR
        INC     DPTR
        RET
        CFI EndBlock cfiCond275
        CFI EndBlock cfiCond276
        CFI EndBlock cfiPicker277

        RSEG BANKED_CODE:CODE:NOROOT(0)
?Subroutine29:
        CFI Block cfiCond278 Using cfiCommon0
        CFI NoFunction
        CFI Conditional ??CrossCallReturnLabel_81
        CFI R6 load(1, XDATA, add(CFA_XSP16, literal(-16)))
        CFI VB load(1, XDATA, add(CFA_XSP16, literal(-15)))
        CFI V0 load(1, XDATA, add(CFA_XSP16, literal(-14)))
        CFI V1 load(1, XDATA, add(CFA_XSP16, literal(-13)))
        CFI V2 load(1, XDATA, add(CFA_XSP16, literal(-12)))
        CFI V3 load(1, XDATA, add(CFA_XSP16, literal(-11)))
        CFI V4 load(1, XDATA, add(CFA_XSP16, literal(-10)))
        CFI V5 load(1, XDATA, add(CFA_XSP16, literal(-9)))
        CFI V6 load(1, XDATA, add(CFA_XSP16, literal(-8)))
        CFI V7 load(1, XDATA, add(CFA_XSP16, literal(-7)))
        CFI R7 load(1, XDATA, add(CFA_XSP16, literal(-6)))
        CFI ?RET_LOW load(1, XDATA, add(CFA_XSP16, literal(-5)))
        CFI ?RET_HIGH load(1, XDATA, add(CFA_XSP16, literal(-4)))
        CFI ?BRET_EXT load(1, XDATA, add(CFA_XSP16, literal(-3)))
        CFI DPL0 load(1, XDATA, add(CFA_XSP16, literal(-2)))
        CFI DPH0 load(1, XDATA, add(CFA_XSP16, literal(-1)))
        CFI CFA_SP SP+0
        CFI CFA_XSP16 add(XSP16, 22)
        CFI Block cfiCond279 Using cfiCommon0
        CFI (cfiCond279) NoFunction
        CFI (cfiCond279) Conditional ??CrossCallReturnLabel_82
        CFI (cfiCond279) R6 load(1, XDATA, add(CFA_XSP16, literal(-16)))
        CFI (cfiCond279) VB load(1, XDATA, add(CFA_XSP16, literal(-15)))
        CFI (cfiCond279) V0 load(1, XDATA, add(CFA_XSP16, literal(-14)))
        CFI (cfiCond279) V1 load(1, XDATA, add(CFA_XSP16, literal(-13)))
        CFI (cfiCond279) V2 load(1, XDATA, add(CFA_XSP16, literal(-12)))
        CFI (cfiCond279) V3 load(1, XDATA, add(CFA_XSP16, literal(-11)))
        CFI (cfiCond279) V4 load(1, XDATA, add(CFA_XSP16, literal(-10)))
        CFI (cfiCond279) V5 load(1, XDATA, add(CFA_XSP16, literal(-9)))
        CFI (cfiCond279) V6 load(1, XDATA, add(CFA_XSP16, literal(-8)))
        CFI (cfiCond279) V7 load(1, XDATA, add(CFA_XSP16, literal(-7)))
        CFI (cfiCond279) R7 load(1, XDATA, add(CFA_XSP16, literal(-6)))
        CFI (cfiCond279) ?RET_LOW load(1, XDATA, add(CFA_XSP16, literal(-5)))
        CFI (cfiCond279) ?RET_HIGH load(1, XDATA, add(CFA_XSP16, literal(-4)))
        CFI (cfiCond279) ?BRET_EXT load(1, XDATA, add(CFA_XSP16, literal(-3)))
        CFI (cfiCond279) DPL0 load(1, XDATA, add(CFA_XSP16, literal(-2)))
        CFI (cfiCond279) DPH0 load(1, XDATA, add(CFA_XSP16, literal(-1)))
        CFI (cfiCond279) CFA_SP SP+0
        CFI (cfiCond279) CFA_XSP16 add(XSP16, 37)
        CFI Block cfiPicker280 Using cfiCommon1
        CFI (cfiPicker280) NoFunction
        CFI (cfiPicker280) Picker
        MOV     R2,#0x1
        LCALL   ?Subroutine54 & 0xFFFF
??CrossCallReturnLabel_146:
        MOV     A,#0x1
        MOV     DPTR,#relation_done
        RET
        CFI EndBlock cfiCond278
        CFI EndBlock cfiCond279
        CFI EndBlock cfiPicker280

        RSEG BANKED_CODE:CODE:NOROOT(0)
?Subroutine54:
        CFI Block cfiCond281 Using cfiCommon0
        CFI NoFunction
        CFI Conditional ??CrossCallReturnLabel_145
        CFI R6 load(1, XDATA, add(CFA_XSP16, literal(-12)))
        CFI VB load(1, XDATA, add(CFA_XSP16, literal(-11)))
        CFI V0 load(1, XDATA, add(CFA_XSP16, literal(-10)))
        CFI V1 load(1, XDATA, add(CFA_XSP16, literal(-9)))
        CFI V2 load(1, XDATA, add(CFA_XSP16, literal(-8)))
        CFI V3 load(1, XDATA, add(CFA_XSP16, literal(-7)))
        CFI R7 load(1, XDATA, add(CFA_XSP16, literal(-6)))
        CFI ?RET_LOW load(1, XDATA, add(CFA_XSP16, literal(-5)))
        CFI ?RET_HIGH load(1, XDATA, add(CFA_XSP16, literal(-4)))
        CFI ?BRET_EXT load(1, XDATA, add(CFA_XSP16, literal(-3)))
        CFI DPL0 load(1, XDATA, add(CFA_XSP16, literal(-2)))
        CFI DPH0 load(1, XDATA, add(CFA_XSP16, literal(-1)))
        CFI CFA_SP SP+0
        CFI CFA_XSP16 add(XSP16, 23)
        CFI Block cfiCond282 Using cfiCommon0
        CFI (cfiCond282) NoFunction
        CFI (cfiCond282) Conditional ??CrossCallReturnLabel_146, ??CrossCallReturnLabel_81
        CFI (cfiCond282) R6 load(1, XDATA, add(CFA_XSP16, literal(-16)))
        CFI (cfiCond282) VB load(1, XDATA, add(CFA_XSP16, literal(-15)))
        CFI (cfiCond282) V0 load(1, XDATA, add(CFA_XSP16, literal(-14)))
        CFI (cfiCond282) V1 load(1, XDATA, add(CFA_XSP16, literal(-13)))
        CFI (cfiCond282) V2 load(1, XDATA, add(CFA_XSP16, literal(-12)))
        CFI (cfiCond282) V3 load(1, XDATA, add(CFA_XSP16, literal(-11)))
        CFI (cfiCond282) V4 load(1, XDATA, add(CFA_XSP16, literal(-10)))
        CFI (cfiCond282) V5 load(1, XDATA, add(CFA_XSP16, literal(-9)))
        CFI (cfiCond282) V6 load(1, XDATA, add(CFA_XSP16, literal(-8)))
        CFI (cfiCond282) V7 load(1, XDATA, add(CFA_XSP16, literal(-7)))
        CFI (cfiCond282) R7 load(1, XDATA, add(CFA_XSP16, literal(-6)))
        CFI (cfiCond282) ?RET_LOW load(1, XDATA, add(CFA_XSP16, literal(-5)))
        CFI (cfiCond282) ?RET_HIGH load(1, XDATA, add(CFA_XSP16, literal(-4)))
        CFI (cfiCond282) ?BRET_EXT load(1, XDATA, add(CFA_XSP16, literal(-3)))
        CFI (cfiCond282) DPL0 load(1, XDATA, add(CFA_XSP16, literal(-2)))
        CFI (cfiCond282) DPH0 load(1, XDATA, add(CFA_XSP16, literal(-1)))
        CFI (cfiCond282) CFA_SP SP+0
        CFI (cfiCond282) CFA_XSP16 add(XSP16, 22)
        CFI Block cfiCond283 Using cfiCommon0
        CFI (cfiCond283) NoFunction
        CFI (cfiCond283) Conditional ??CrossCallReturnLabel_146, ??CrossCallReturnLabel_82
        CFI (cfiCond283) R6 load(1, XDATA, add(CFA_XSP16, literal(-16)))
        CFI (cfiCond283) VB load(1, XDATA, add(CFA_XSP16, literal(-15)))
        CFI (cfiCond283) V0 load(1, XDATA, add(CFA_XSP16, literal(-14)))
        CFI (cfiCond283) V1 load(1, XDATA, add(CFA_XSP16, literal(-13)))
        CFI (cfiCond283) V2 load(1, XDATA, add(CFA_XSP16, literal(-12)))
        CFI (cfiCond283) V3 load(1, XDATA, add(CFA_XSP16, literal(-11)))
        CFI (cfiCond283) V4 load(1, XDATA, add(CFA_XSP16, literal(-10)))
        CFI (cfiCond283) V5 load(1, XDATA, add(CFA_XSP16, literal(-9)))
        CFI (cfiCond283) V6 load(1, XDATA, add(CFA_XSP16, literal(-8)))
        CFI (cfiCond283) V7 load(1, XDATA, add(CFA_XSP16, literal(-7)))
        CFI (cfiCond283) R7 load(1, XDATA, add(CFA_XSP16, literal(-6)))
        CFI (cfiCond283) ?RET_LOW load(1, XDATA, add(CFA_XSP16, literal(-5)))
        CFI (cfiCond283) ?RET_HIGH load(1, XDATA, add(CFA_XSP16, literal(-4)))
        CFI (cfiCond283) ?BRET_EXT load(1, XDATA, add(CFA_XSP16, literal(-3)))
        CFI (cfiCond283) DPL0 load(1, XDATA, add(CFA_XSP16, literal(-2)))
        CFI (cfiCond283) DPH0 load(1, XDATA, add(CFA_XSP16, literal(-1)))
        CFI (cfiCond283) CFA_SP SP+0
        CFI (cfiCond283) CFA_XSP16 add(XSP16, 37)
        CFI Block cfiPicker284 Using cfiCommon1
        CFI (cfiPicker284) NoFunction
        CFI (cfiPicker284) Picker
        MOV     R3,#0x0
        CFI Block cfiCond285 Using cfiCommon0
        CFI (cfiCond285) NoFunction
        CFI (cfiCond285) Conditional ??CrossCallReturnLabel_147
        CFI (cfiCond285) R6 load(1, XDATA, add(CFA_XSP16, literal(-12)))
        CFI (cfiCond285) VB load(1, XDATA, add(CFA_XSP16, literal(-11)))
        CFI (cfiCond285) V0 load(1, XDATA, add(CFA_XSP16, literal(-10)))
        CFI (cfiCond285) V1 load(1, XDATA, add(CFA_XSP16, literal(-9)))
        CFI (cfiCond285) V2 load(1, XDATA, add(CFA_XSP16, literal(-8)))
        CFI (cfiCond285) V3 load(1, XDATA, add(CFA_XSP16, literal(-7)))
        CFI (cfiCond285) R7 load(1, XDATA, add(CFA_XSP16, literal(-6)))
        CFI (cfiCond285) ?RET_LOW load(1, XDATA, add(CFA_XSP16, literal(-5)))
        CFI (cfiCond285) ?RET_HIGH load(1, XDATA, add(CFA_XSP16, literal(-4)))
        CFI (cfiCond285) ?BRET_EXT load(1, XDATA, add(CFA_XSP16, literal(-3)))
        CFI (cfiCond285) DPL0 load(1, XDATA, add(CFA_XSP16, literal(-2)))
        CFI (cfiCond285) DPH0 load(1, XDATA, add(CFA_XSP16, literal(-1)))
        CFI (cfiCond285) CFA_SP SP+0
        CFI (cfiCond285) CFA_XSP16 add(XSP16, 23)
??Subroutine54_0:
        MOV     DPTR,#p2p_test_TaskID
        MOVX    A,@DPTR
        MOV     R1,A
        LCALL   ??osal_stop_timerEx?relay
        RET
        CFI EndBlock cfiCond281
        CFI EndBlock cfiCond282
        CFI EndBlock cfiCond283
        CFI EndBlock cfiPicker284
        CFI EndBlock cfiCond285

        RSEG BANKED_CODE:CODE:NOROOT(0)
?Subroutine27:
        CFI Block cfiCond286 Using cfiCommon0
        CFI NoFunction
        CFI Conditional ??CrossCallReturnLabel_76
        CFI R6 load(1, XDATA, add(CFA_XSP16, literal(-16)))
        CFI VB load(1, XDATA, add(CFA_XSP16, literal(-15)))
        CFI V0 load(1, XDATA, add(CFA_XSP16, literal(-14)))
        CFI V1 load(1, XDATA, add(CFA_XSP16, literal(-13)))
        CFI V2 load(1, XDATA, add(CFA_XSP16, literal(-12)))
        CFI V3 load(1, XDATA, add(CFA_XSP16, literal(-11)))
        CFI V4 load(1, XDATA, add(CFA_XSP16, literal(-10)))
        CFI V5 load(1, XDATA, add(CFA_XSP16, literal(-9)))
        CFI V6 load(1, XDATA, add(CFA_XSP16, literal(-8)))
        CFI V7 load(1, XDATA, add(CFA_XSP16, literal(-7)))
        CFI R7 load(1, XDATA, add(CFA_XSP16, literal(-6)))
        CFI ?RET_LOW load(1, XDATA, add(CFA_XSP16, literal(-5)))
        CFI ?RET_HIGH load(1, XDATA, add(CFA_XSP16, literal(-4)))
        CFI ?BRET_EXT load(1, XDATA, add(CFA_XSP16, literal(-3)))
        CFI DPL0 load(1, XDATA, add(CFA_XSP16, literal(-2)))
        CFI DPH0 load(1, XDATA, add(CFA_XSP16, literal(-1)))
        CFI CFA_SP SP+0
        CFI CFA_XSP16 add(XSP16, 37)
        CFI Block cfiCond287 Using cfiCommon0
        CFI (cfiCond287) NoFunction
        CFI (cfiCond287) Conditional ??CrossCallReturnLabel_77
        CFI (cfiCond287) R6 load(1, XDATA, add(CFA_XSP16, literal(-16)))
        CFI (cfiCond287) VB load(1, XDATA, add(CFA_XSP16, literal(-15)))
        CFI (cfiCond287) V0 load(1, XDATA, add(CFA_XSP16, literal(-14)))
        CFI (cfiCond287) V1 load(1, XDATA, add(CFA_XSP16, literal(-13)))
        CFI (cfiCond287) V2 load(1, XDATA, add(CFA_XSP16, literal(-12)))
        CFI (cfiCond287) V3 load(1, XDATA, add(CFA_XSP16, literal(-11)))
        CFI (cfiCond287) V4 load(1, XDATA, add(CFA_XSP16, literal(-10)))
        CFI (cfiCond287) V5 load(1, XDATA, add(CFA_XSP16, literal(-9)))
        CFI (cfiCond287) V6 load(1, XDATA, add(CFA_XSP16, literal(-8)))
        CFI (cfiCond287) V7 load(1, XDATA, add(CFA_XSP16, literal(-7)))
        CFI (cfiCond287) R7 load(1, XDATA, add(CFA_XSP16, literal(-6)))
        CFI (cfiCond287) ?RET_LOW load(1, XDATA, add(CFA_XSP16, literal(-5)))
        CFI (cfiCond287) ?RET_HIGH load(1, XDATA, add(CFA_XSP16, literal(-4)))
        CFI (cfiCond287) ?BRET_EXT load(1, XDATA, add(CFA_XSP16, literal(-3)))
        CFI (cfiCond287) DPL0 load(1, XDATA, add(CFA_XSP16, literal(-2)))
        CFI (cfiCond287) DPH0 load(1, XDATA, add(CFA_XSP16, literal(-1)))
        CFI (cfiCond287) CFA_SP SP+0
        CFI (cfiCond287) CFA_XSP16 add(XSP16, 37)
        CFI Block cfiCond288 Using cfiCommon0
        CFI (cfiCond288) NoFunction
        CFI (cfiCond288) Conditional ??CrossCallReturnLabel_78
        CFI (cfiCond288) R6 load(1, XDATA, add(CFA_XSP16, literal(-16)))
        CFI (cfiCond288) VB load(1, XDATA, add(CFA_XSP16, literal(-15)))
        CFI (cfiCond288) V0 load(1, XDATA, add(CFA_XSP16, literal(-14)))
        CFI (cfiCond288) V1 load(1, XDATA, add(CFA_XSP16, literal(-13)))
        CFI (cfiCond288) V2 load(1, XDATA, add(CFA_XSP16, literal(-12)))
        CFI (cfiCond288) V3 load(1, XDATA, add(CFA_XSP16, literal(-11)))
        CFI (cfiCond288) V4 load(1, XDATA, add(CFA_XSP16, literal(-10)))
        CFI (cfiCond288) V5 load(1, XDATA, add(CFA_XSP16, literal(-9)))
        CFI (cfiCond288) V6 load(1, XDATA, add(CFA_XSP16, literal(-8)))
        CFI (cfiCond288) V7 load(1, XDATA, add(CFA_XSP16, literal(-7)))
        CFI (cfiCond288) R7 load(1, XDATA, add(CFA_XSP16, literal(-6)))
        CFI (cfiCond288) ?RET_LOW load(1, XDATA, add(CFA_XSP16, literal(-5)))
        CFI (cfiCond288) ?RET_HIGH load(1, XDATA, add(CFA_XSP16, literal(-4)))
        CFI (cfiCond288) ?BRET_EXT load(1, XDATA, add(CFA_XSP16, literal(-3)))
        CFI (cfiCond288) DPL0 load(1, XDATA, add(CFA_XSP16, literal(-2)))
        CFI (cfiCond288) DPH0 load(1, XDATA, add(CFA_XSP16, literal(-1)))
        CFI (cfiCond288) CFA_SP SP+0
        CFI (cfiCond288) CFA_XSP16 add(XSP16, 37)
        CFI Block cfiPicker289 Using cfiCommon1
        CFI (cfiPicker289) NoFunction
        CFI (cfiPicker289) Picker
        MOV     DPTR,#Water_gage_time
        CFI Block cfiCond290 Using cfiCommon0
        CFI (cfiCond290) NoFunction
        CFI (cfiCond290) Conditional ??CrossCallReturnLabel_72
        CFI (cfiCond290) R6 load(1, XDATA, add(CFA_XSP16, literal(-10)))
        CFI (cfiCond290) VB load(1, XDATA, add(CFA_XSP16, literal(-9)))
        CFI (cfiCond290) V0 load(1, XDATA, add(CFA_XSP16, literal(-8)))
        CFI (cfiCond290) V1 load(1, XDATA, add(CFA_XSP16, literal(-7)))
        CFI (cfiCond290) R7 load(1, XDATA, add(CFA_XSP16, literal(-6)))
        CFI (cfiCond290) ?RET_LOW load(1, XDATA, add(CFA_XSP16, literal(-5)))
        CFI (cfiCond290) ?RET_HIGH load(1, XDATA, add(CFA_XSP16, literal(-4)))
        CFI (cfiCond290) ?BRET_EXT load(1, XDATA, add(CFA_XSP16, literal(-3)))
        CFI (cfiCond290) DPL0 load(1, XDATA, add(CFA_XSP16, literal(-2)))
        CFI (cfiCond290) DPH0 load(1, XDATA, add(CFA_XSP16, literal(-1)))
        CFI (cfiCond290) CFA_SP SP+0
        CFI (cfiCond290) CFA_XSP16 add(XSP16, 10)
        CFI Block cfiCond291 Using cfiCommon0
        CFI (cfiCond291) NoFunction
        CFI (cfiCond291) Conditional ??CrossCallReturnLabel_73
        CFI (cfiCond291) R6 load(1, XDATA, add(CFA_XSP16, literal(-16)))
        CFI (cfiCond291) VB load(1, XDATA, add(CFA_XSP16, literal(-15)))
        CFI (cfiCond291) V0 load(1, XDATA, add(CFA_XSP16, literal(-14)))
        CFI (cfiCond291) V1 load(1, XDATA, add(CFA_XSP16, literal(-13)))
        CFI (cfiCond291) V2 load(1, XDATA, add(CFA_XSP16, literal(-12)))
        CFI (cfiCond291) V3 load(1, XDATA, add(CFA_XSP16, literal(-11)))
        CFI (cfiCond291) V4 load(1, XDATA, add(CFA_XSP16, literal(-10)))
        CFI (cfiCond291) V5 load(1, XDATA, add(CFA_XSP16, literal(-9)))
        CFI (cfiCond291) V6 load(1, XDATA, add(CFA_XSP16, literal(-8)))
        CFI (cfiCond291) V7 load(1, XDATA, add(CFA_XSP16, literal(-7)))
        CFI (cfiCond291) R7 load(1, XDATA, add(CFA_XSP16, literal(-6)))
        CFI (cfiCond291) ?RET_LOW load(1, XDATA, add(CFA_XSP16, literal(-5)))
        CFI (cfiCond291) ?RET_HIGH load(1, XDATA, add(CFA_XSP16, literal(-4)))
        CFI (cfiCond291) ?BRET_EXT load(1, XDATA, add(CFA_XSP16, literal(-3)))
        CFI (cfiCond291) DPL0 load(1, XDATA, add(CFA_XSP16, literal(-2)))
        CFI (cfiCond291) DPH0 load(1, XDATA, add(CFA_XSP16, literal(-1)))
        CFI (cfiCond291) CFA_SP SP+0
        CFI (cfiCond291) CFA_XSP16 add(XSP16, 22)
        CFI Block cfiCond292 Using cfiCommon0
        CFI (cfiCond292) NoFunction
        CFI (cfiCond292) Conditional ??CrossCallReturnLabel_74
        CFI (cfiCond292) R6 load(1, XDATA, add(CFA_XSP16, literal(-16)))
        CFI (cfiCond292) VB load(1, XDATA, add(CFA_XSP16, literal(-15)))
        CFI (cfiCond292) V0 load(1, XDATA, add(CFA_XSP16, literal(-14)))
        CFI (cfiCond292) V1 load(1, XDATA, add(CFA_XSP16, literal(-13)))
        CFI (cfiCond292) V2 load(1, XDATA, add(CFA_XSP16, literal(-12)))
        CFI (cfiCond292) V3 load(1, XDATA, add(CFA_XSP16, literal(-11)))
        CFI (cfiCond292) V4 load(1, XDATA, add(CFA_XSP16, literal(-10)))
        CFI (cfiCond292) V5 load(1, XDATA, add(CFA_XSP16, literal(-9)))
        CFI (cfiCond292) V6 load(1, XDATA, add(CFA_XSP16, literal(-8)))
        CFI (cfiCond292) V7 load(1, XDATA, add(CFA_XSP16, literal(-7)))
        CFI (cfiCond292) R7 load(1, XDATA, add(CFA_XSP16, literal(-6)))
        CFI (cfiCond292) ?RET_LOW load(1, XDATA, add(CFA_XSP16, literal(-5)))
        CFI (cfiCond292) ?RET_HIGH load(1, XDATA, add(CFA_XSP16, literal(-4)))
        CFI (cfiCond292) ?BRET_EXT load(1, XDATA, add(CFA_XSP16, literal(-3)))
        CFI (cfiCond292) DPL0 load(1, XDATA, add(CFA_XSP16, literal(-2)))
        CFI (cfiCond292) DPH0 load(1, XDATA, add(CFA_XSP16, literal(-1)))
        CFI (cfiCond292) CFA_SP SP+0
        CFI (cfiCond292) CFA_XSP16 add(XSP16, 37)
        CFI Block cfiCond293 Using cfiCommon0
        CFI (cfiCond293) NoFunction
        CFI (cfiCond293) Conditional ??CrossCallReturnLabel_75
        CFI (cfiCond293) R6 load(1, XDATA, add(CFA_XSP16, literal(-16)))
        CFI (cfiCond293) VB load(1, XDATA, add(CFA_XSP16, literal(-15)))
        CFI (cfiCond293) V0 load(1, XDATA, add(CFA_XSP16, literal(-14)))
        CFI (cfiCond293) V1 load(1, XDATA, add(CFA_XSP16, literal(-13)))
        CFI (cfiCond293) V2 load(1, XDATA, add(CFA_XSP16, literal(-12)))
        CFI (cfiCond293) V3 load(1, XDATA, add(CFA_XSP16, literal(-11)))
        CFI (cfiCond293) V4 load(1, XDATA, add(CFA_XSP16, literal(-10)))
        CFI (cfiCond293) V5 load(1, XDATA, add(CFA_XSP16, literal(-9)))
        CFI (cfiCond293) V6 load(1, XDATA, add(CFA_XSP16, literal(-8)))
        CFI (cfiCond293) V7 load(1, XDATA, add(CFA_XSP16, literal(-7)))
        CFI (cfiCond293) R7 load(1, XDATA, add(CFA_XSP16, literal(-6)))
        CFI (cfiCond293) ?RET_LOW load(1, XDATA, add(CFA_XSP16, literal(-5)))
        CFI (cfiCond293) ?RET_HIGH load(1, XDATA, add(CFA_XSP16, literal(-4)))
        CFI (cfiCond293) ?BRET_EXT load(1, XDATA, add(CFA_XSP16, literal(-3)))
        CFI (cfiCond293) DPL0 load(1, XDATA, add(CFA_XSP16, literal(-2)))
        CFI (cfiCond293) DPH0 load(1, XDATA, add(CFA_XSP16, literal(-1)))
        CFI (cfiCond293) CFA_SP SP+0
        CFI (cfiCond293) CFA_XSP16 add(XSP16, 37)
        CFI Block cfiCond294 Using cfiCommon0
        CFI (cfiCond294) NoFunction
        CFI (cfiCond294) Conditional ??CrossCallReturnLabel_79
        CFI (cfiCond294) R6 load(1, XDATA, add(CFA_XSP16, literal(-16)))
        CFI (cfiCond294) VB load(1, XDATA, add(CFA_XSP16, literal(-15)))
        CFI (cfiCond294) V0 load(1, XDATA, add(CFA_XSP16, literal(-14)))
        CFI (cfiCond294) V1 load(1, XDATA, add(CFA_XSP16, literal(-13)))
        CFI (cfiCond294) V2 load(1, XDATA, add(CFA_XSP16, literal(-12)))
        CFI (cfiCond294) V3 load(1, XDATA, add(CFA_XSP16, literal(-11)))
        CFI (cfiCond294) V4 load(1, XDATA, add(CFA_XSP16, literal(-10)))
        CFI (cfiCond294) V5 load(1, XDATA, add(CFA_XSP16, literal(-9)))
        CFI (cfiCond294) V6 load(1, XDATA, add(CFA_XSP16, literal(-8)))
        CFI (cfiCond294) V7 load(1, XDATA, add(CFA_XSP16, literal(-7)))
        CFI (cfiCond294) R7 load(1, XDATA, add(CFA_XSP16, literal(-6)))
        CFI (cfiCond294) ?RET_LOW load(1, XDATA, add(CFA_XSP16, literal(-5)))
        CFI (cfiCond294) ?RET_HIGH load(1, XDATA, add(CFA_XSP16, literal(-4)))
        CFI (cfiCond294) ?BRET_EXT load(1, XDATA, add(CFA_XSP16, literal(-3)))
        CFI (cfiCond294) DPL0 load(1, XDATA, add(CFA_XSP16, literal(-2)))
        CFI (cfiCond294) DPH0 load(1, XDATA, add(CFA_XSP16, literal(-1)))
        CFI (cfiCond294) CFA_SP SP+0
        CFI (cfiCond294) CFA_XSP16 add(XSP16, 37)
        CFI Block cfiCond295 Using cfiCommon0
        CFI (cfiCond295) NoFunction
        CFI (cfiCond295) Conditional ??CrossCallReturnLabel_80
        CFI (cfiCond295) DPL0 Frame(CFA_SP, 4)
        CFI (cfiCond295) DPH0 Frame(CFA_SP, 5)
        CFI (cfiCond295) CFA_SP SP+-5
??Subroutine27_0:
        LCALL   ??Subroutine59_0 & 0xFFFF
??CrossCallReturnLabel_158:
        MOV     R1,A
        RET
        CFI EndBlock cfiCond286
        CFI EndBlock cfiCond287
        CFI EndBlock cfiCond288
        CFI EndBlock cfiPicker289
        CFI EndBlock cfiCond290
        CFI EndBlock cfiCond291
        CFI EndBlock cfiCond292
        CFI EndBlock cfiCond293
        CFI EndBlock cfiCond294
        CFI EndBlock cfiCond295

        RSEG BANKED_CODE:CODE:NOROOT(0)
?Subroutine26:
        CFI Block cfiCond296 Using cfiCommon0
        CFI NoFunction
        CFI Conditional ??CrossCallReturnLabel_70
        CFI R6 load(1, XDATA, add(CFA_XSP16, literal(-16)))
        CFI VB load(1, XDATA, add(CFA_XSP16, literal(-15)))
        CFI V0 load(1, XDATA, add(CFA_XSP16, literal(-14)))
        CFI V1 load(1, XDATA, add(CFA_XSP16, literal(-13)))
        CFI V2 load(1, XDATA, add(CFA_XSP16, literal(-12)))
        CFI V3 load(1, XDATA, add(CFA_XSP16, literal(-11)))
        CFI V4 load(1, XDATA, add(CFA_XSP16, literal(-10)))
        CFI V5 load(1, XDATA, add(CFA_XSP16, literal(-9)))
        CFI V6 load(1, XDATA, add(CFA_XSP16, literal(-8)))
        CFI V7 load(1, XDATA, add(CFA_XSP16, literal(-7)))
        CFI R7 load(1, XDATA, add(CFA_XSP16, literal(-6)))
        CFI ?RET_LOW load(1, XDATA, add(CFA_XSP16, literal(-5)))
        CFI ?RET_HIGH load(1, XDATA, add(CFA_XSP16, literal(-4)))
        CFI ?BRET_EXT load(1, XDATA, add(CFA_XSP16, literal(-3)))
        CFI DPL0 load(1, XDATA, add(CFA_XSP16, literal(-2)))
        CFI DPH0 load(1, XDATA, add(CFA_XSP16, literal(-1)))
        CFI CFA_SP SP+0
        CFI CFA_XSP16 add(XSP16, 37)
        CFI Block cfiCond297 Using cfiCommon0
        CFI (cfiCond297) NoFunction
        CFI (cfiCond297) Conditional ??CrossCallReturnLabel_71
        CFI (cfiCond297) R6 load(1, XDATA, add(CFA_XSP16, literal(-16)))
        CFI (cfiCond297) VB load(1, XDATA, add(CFA_XSP16, literal(-15)))
        CFI (cfiCond297) V0 load(1, XDATA, add(CFA_XSP16, literal(-14)))
        CFI (cfiCond297) V1 load(1, XDATA, add(CFA_XSP16, literal(-13)))
        CFI (cfiCond297) V2 load(1, XDATA, add(CFA_XSP16, literal(-12)))
        CFI (cfiCond297) V3 load(1, XDATA, add(CFA_XSP16, literal(-11)))
        CFI (cfiCond297) V4 load(1, XDATA, add(CFA_XSP16, literal(-10)))
        CFI (cfiCond297) V5 load(1, XDATA, add(CFA_XSP16, literal(-9)))
        CFI (cfiCond297) V6 load(1, XDATA, add(CFA_XSP16, literal(-8)))
        CFI (cfiCond297) V7 load(1, XDATA, add(CFA_XSP16, literal(-7)))
        CFI (cfiCond297) R7 load(1, XDATA, add(CFA_XSP16, literal(-6)))
        CFI (cfiCond297) ?RET_LOW load(1, XDATA, add(CFA_XSP16, literal(-5)))
        CFI (cfiCond297) ?RET_HIGH load(1, XDATA, add(CFA_XSP16, literal(-4)))
        CFI (cfiCond297) ?BRET_EXT load(1, XDATA, add(CFA_XSP16, literal(-3)))
        CFI (cfiCond297) DPL0 load(1, XDATA, add(CFA_XSP16, literal(-2)))
        CFI (cfiCond297) DPH0 load(1, XDATA, add(CFA_XSP16, literal(-1)))
        CFI (cfiCond297) CFA_SP SP+0
        CFI (cfiCond297) CFA_XSP16 add(XSP16, 37)
        CFI Block cfiPicker298 Using cfiCommon1
        CFI (cfiPicker298) NoFunction
        CFI (cfiPicker298) Picker
        MOV     A,#0x30
        CLR     C
        SUBB    A,?V0 + 0
        MOV     R2,A
        MOV     A,#0x75
        SUBB    A,?V0 + 1
        MOV     R3,A
        MOV     DPTR,#Water_gage_forValue
        LCALL   ??Subroutine59_0 & 0xFFFF
??CrossCallReturnLabel_157:
        MOV     R1,A
        MOV     A,R2
        CLR     C
        SUBB    A,R0
        MOV     R0,A
        MOV     A,R3
        SUBB    A,R1
        RET
        CFI EndBlock cfiCond296
        CFI EndBlock cfiCond297
        CFI EndBlock cfiPicker298

        RSEG BANKED_CODE:CODE:NOROOT(0)
?Subroutine24:
        CFI Block cfiCond299 Using cfiCommon0
        CFI NoFunction
        CFI Conditional ??CrossCallReturnLabel_65
        CFI R6 load(1, XDATA, add(CFA_XSP16, literal(-16)))
        CFI VB load(1, XDATA, add(CFA_XSP16, literal(-15)))
        CFI V0 load(1, XDATA, add(CFA_XSP16, literal(-14)))
        CFI V1 load(1, XDATA, add(CFA_XSP16, literal(-13)))
        CFI V2 load(1, XDATA, add(CFA_XSP16, literal(-12)))
        CFI V3 load(1, XDATA, add(CFA_XSP16, literal(-11)))
        CFI V4 load(1, XDATA, add(CFA_XSP16, literal(-10)))
        CFI V5 load(1, XDATA, add(CFA_XSP16, literal(-9)))
        CFI V6 load(1, XDATA, add(CFA_XSP16, literal(-8)))
        CFI V7 load(1, XDATA, add(CFA_XSP16, literal(-7)))
        CFI R7 load(1, XDATA, add(CFA_XSP16, literal(-6)))
        CFI ?RET_LOW load(1, XDATA, add(CFA_XSP16, literal(-5)))
        CFI ?RET_HIGH load(1, XDATA, add(CFA_XSP16, literal(-4)))
        CFI ?BRET_EXT load(1, XDATA, add(CFA_XSP16, literal(-3)))
        CFI DPL0 load(1, XDATA, add(CFA_XSP16, literal(-2)))
        CFI DPH0 load(1, XDATA, add(CFA_XSP16, literal(-1)))
        CFI CFA_SP SP+0
        CFI CFA_XSP16 add(XSP16, 37)
        CFI Block cfiCond300 Using cfiCommon0
        CFI (cfiCond300) NoFunction
        CFI (cfiCond300) Conditional ??CrossCallReturnLabel_66
        CFI (cfiCond300) R6 load(1, XDATA, add(CFA_XSP16, literal(-16)))
        CFI (cfiCond300) VB load(1, XDATA, add(CFA_XSP16, literal(-15)))
        CFI (cfiCond300) V0 load(1, XDATA, add(CFA_XSP16, literal(-14)))
        CFI (cfiCond300) V1 load(1, XDATA, add(CFA_XSP16, literal(-13)))
        CFI (cfiCond300) V2 load(1, XDATA, add(CFA_XSP16, literal(-12)))
        CFI (cfiCond300) V3 load(1, XDATA, add(CFA_XSP16, literal(-11)))
        CFI (cfiCond300) V4 load(1, XDATA, add(CFA_XSP16, literal(-10)))
        CFI (cfiCond300) V5 load(1, XDATA, add(CFA_XSP16, literal(-9)))
        CFI (cfiCond300) V6 load(1, XDATA, add(CFA_XSP16, literal(-8)))
        CFI (cfiCond300) V7 load(1, XDATA, add(CFA_XSP16, literal(-7)))
        CFI (cfiCond300) R7 load(1, XDATA, add(CFA_XSP16, literal(-6)))
        CFI (cfiCond300) ?RET_LOW load(1, XDATA, add(CFA_XSP16, literal(-5)))
        CFI (cfiCond300) ?RET_HIGH load(1, XDATA, add(CFA_XSP16, literal(-4)))
        CFI (cfiCond300) ?BRET_EXT load(1, XDATA, add(CFA_XSP16, literal(-3)))
        CFI (cfiCond300) DPL0 load(1, XDATA, add(CFA_XSP16, literal(-2)))
        CFI (cfiCond300) DPH0 load(1, XDATA, add(CFA_XSP16, literal(-1)))
        CFI (cfiCond300) CFA_SP SP+0
        CFI (cfiCond300) CFA_XSP16 add(XSP16, 37)
        CFI Block cfiPicker301 Using cfiCommon1
        CFI (cfiPicker301) NoFunction
        CFI (cfiPicker301) Picker
        MOV     DPTR,#Water_gage_time
        LCALL   ?Subroutine51 & 0xFFFF
??CrossCallReturnLabel_137:
        MOV     A,#0x3
        MOV     R0,#?V0 + 0
        RET
        CFI EndBlock cfiCond299
        CFI EndBlock cfiCond300
        CFI EndBlock cfiPicker301

        RSEG BANKED_CODE:CODE:NOROOT(0)
?Subroutine20:
        CFI Block cfiCond302 Using cfiCommon0
        CFI NoFunction
        CFI Conditional ??CrossCallReturnLabel_56
        CFI R6 load(1, XDATA, add(CFA_XSP16, literal(-16)))
        CFI VB load(1, XDATA, add(CFA_XSP16, literal(-15)))
        CFI V0 load(1, XDATA, add(CFA_XSP16, literal(-14)))
        CFI V1 load(1, XDATA, add(CFA_XSP16, literal(-13)))
        CFI V2 load(1, XDATA, add(CFA_XSP16, literal(-12)))
        CFI V3 load(1, XDATA, add(CFA_XSP16, literal(-11)))
        CFI V4 load(1, XDATA, add(CFA_XSP16, literal(-10)))
        CFI V5 load(1, XDATA, add(CFA_XSP16, literal(-9)))
        CFI V6 load(1, XDATA, add(CFA_XSP16, literal(-8)))
        CFI V7 load(1, XDATA, add(CFA_XSP16, literal(-7)))
        CFI R7 load(1, XDATA, add(CFA_XSP16, literal(-6)))
        CFI ?RET_LOW load(1, XDATA, add(CFA_XSP16, literal(-5)))
        CFI ?RET_HIGH load(1, XDATA, add(CFA_XSP16, literal(-4)))
        CFI ?BRET_EXT load(1, XDATA, add(CFA_XSP16, literal(-3)))
        CFI DPL0 load(1, XDATA, add(CFA_XSP16, literal(-2)))
        CFI DPH0 load(1, XDATA, add(CFA_XSP16, literal(-1)))
        CFI CFA_SP SP+0
        CFI CFA_XSP16 add(XSP16, 37)
        CFI Block cfiCond303 Using cfiCommon0
        CFI (cfiCond303) NoFunction
        CFI (cfiCond303) Conditional ??CrossCallReturnLabel_57
        CFI (cfiCond303) R6 load(1, XDATA, add(CFA_XSP16, literal(-16)))
        CFI (cfiCond303) VB load(1, XDATA, add(CFA_XSP16, literal(-15)))
        CFI (cfiCond303) V0 load(1, XDATA, add(CFA_XSP16, literal(-14)))
        CFI (cfiCond303) V1 load(1, XDATA, add(CFA_XSP16, literal(-13)))
        CFI (cfiCond303) V2 load(1, XDATA, add(CFA_XSP16, literal(-12)))
        CFI (cfiCond303) V3 load(1, XDATA, add(CFA_XSP16, literal(-11)))
        CFI (cfiCond303) V4 load(1, XDATA, add(CFA_XSP16, literal(-10)))
        CFI (cfiCond303) V5 load(1, XDATA, add(CFA_XSP16, literal(-9)))
        CFI (cfiCond303) V6 load(1, XDATA, add(CFA_XSP16, literal(-8)))
        CFI (cfiCond303) V7 load(1, XDATA, add(CFA_XSP16, literal(-7)))
        CFI (cfiCond303) R7 load(1, XDATA, add(CFA_XSP16, literal(-6)))
        CFI (cfiCond303) ?RET_LOW load(1, XDATA, add(CFA_XSP16, literal(-5)))
        CFI (cfiCond303) ?RET_HIGH load(1, XDATA, add(CFA_XSP16, literal(-4)))
        CFI (cfiCond303) ?BRET_EXT load(1, XDATA, add(CFA_XSP16, literal(-3)))
        CFI (cfiCond303) DPL0 load(1, XDATA, add(CFA_XSP16, literal(-2)))
        CFI (cfiCond303) DPH0 load(1, XDATA, add(CFA_XSP16, literal(-1)))
        CFI (cfiCond303) CFA_SP SP+0
        CFI (cfiCond303) CFA_XSP16 add(XSP16, 37)
        CFI Block cfiPicker304 Using cfiCommon1
        CFI (cfiPicker304) NoFunction
        CFI (cfiPicker304) Picker
        MOVX    A,@DPTR
        ADD     A,?V0 + 0
        MOV     R0,A
        INC     DPTR
        MOVX    A,@DPTR
        ADDC    A,?V0 + 1
        MOV     R1,A
        MOV     A,#-0x30
        ADD     A,R0
        MOV     R0,A
        MOV     A,#-0x76
        ADDC    A,R1
        RET
        CFI EndBlock cfiCond302
        CFI EndBlock cfiCond303
        CFI EndBlock cfiPicker304

        RSEG BANKED_CODE:CODE:NOROOT(0)
?Subroutine17:
        CFI Block cfiCond305 Using cfiCommon0
        CFI NoFunction
        CFI Conditional ??CrossCallReturnLabel_50
        CFI R6 load(1, XDATA, add(CFA_XSP16, literal(-16)))
        CFI VB load(1, XDATA, add(CFA_XSP16, literal(-15)))
        CFI V0 load(1, XDATA, add(CFA_XSP16, literal(-14)))
        CFI V1 load(1, XDATA, add(CFA_XSP16, literal(-13)))
        CFI V2 load(1, XDATA, add(CFA_XSP16, literal(-12)))
        CFI V3 load(1, XDATA, add(CFA_XSP16, literal(-11)))
        CFI V4 load(1, XDATA, add(CFA_XSP16, literal(-10)))
        CFI V5 load(1, XDATA, add(CFA_XSP16, literal(-9)))
        CFI V6 load(1, XDATA, add(CFA_XSP16, literal(-8)))
        CFI V7 load(1, XDATA, add(CFA_XSP16, literal(-7)))
        CFI R7 load(1, XDATA, add(CFA_XSP16, literal(-6)))
        CFI ?RET_LOW load(1, XDATA, add(CFA_XSP16, literal(-5)))
        CFI ?RET_HIGH load(1, XDATA, add(CFA_XSP16, literal(-4)))
        CFI ?BRET_EXT load(1, XDATA, add(CFA_XSP16, literal(-3)))
        CFI DPL0 load(1, XDATA, add(CFA_XSP16, literal(-2)))
        CFI DPH0 load(1, XDATA, add(CFA_XSP16, literal(-1)))
        CFI CFA_SP SP+0
        CFI CFA_XSP16 add(XSP16, 37)
        CFI Block cfiCond306 Using cfiCommon0
        CFI (cfiCond306) NoFunction
        CFI (cfiCond306) Conditional ??CrossCallReturnLabel_51
        CFI (cfiCond306) R6 load(1, XDATA, add(CFA_XSP16, literal(-16)))
        CFI (cfiCond306) VB load(1, XDATA, add(CFA_XSP16, literal(-15)))
        CFI (cfiCond306) V0 load(1, XDATA, add(CFA_XSP16, literal(-14)))
        CFI (cfiCond306) V1 load(1, XDATA, add(CFA_XSP16, literal(-13)))
        CFI (cfiCond306) V2 load(1, XDATA, add(CFA_XSP16, literal(-12)))
        CFI (cfiCond306) V3 load(1, XDATA, add(CFA_XSP16, literal(-11)))
        CFI (cfiCond306) V4 load(1, XDATA, add(CFA_XSP16, literal(-10)))
        CFI (cfiCond306) V5 load(1, XDATA, add(CFA_XSP16, literal(-9)))
        CFI (cfiCond306) V6 load(1, XDATA, add(CFA_XSP16, literal(-8)))
        CFI (cfiCond306) V7 load(1, XDATA, add(CFA_XSP16, literal(-7)))
        CFI (cfiCond306) R7 load(1, XDATA, add(CFA_XSP16, literal(-6)))
        CFI (cfiCond306) ?RET_LOW load(1, XDATA, add(CFA_XSP16, literal(-5)))
        CFI (cfiCond306) ?RET_HIGH load(1, XDATA, add(CFA_XSP16, literal(-4)))
        CFI (cfiCond306) ?BRET_EXT load(1, XDATA, add(CFA_XSP16, literal(-3)))
        CFI (cfiCond306) DPL0 load(1, XDATA, add(CFA_XSP16, literal(-2)))
        CFI (cfiCond306) DPH0 load(1, XDATA, add(CFA_XSP16, literal(-1)))
        CFI (cfiCond306) CFA_SP SP+0
        CFI (cfiCond306) CFA_XSP16 add(XSP16, 37)
        CFI Block cfiCond307 Using cfiCommon0
        CFI (cfiCond307) NoFunction
        CFI (cfiCond307) Conditional ??CrossCallReturnLabel_52
        CFI (cfiCond307) R6 load(1, XDATA, add(CFA_XSP16, literal(-16)))
        CFI (cfiCond307) VB load(1, XDATA, add(CFA_XSP16, literal(-15)))
        CFI (cfiCond307) V0 load(1, XDATA, add(CFA_XSP16, literal(-14)))
        CFI (cfiCond307) V1 load(1, XDATA, add(CFA_XSP16, literal(-13)))
        CFI (cfiCond307) V2 load(1, XDATA, add(CFA_XSP16, literal(-12)))
        CFI (cfiCond307) V3 load(1, XDATA, add(CFA_XSP16, literal(-11)))
        CFI (cfiCond307) V4 load(1, XDATA, add(CFA_XSP16, literal(-10)))
        CFI (cfiCond307) V5 load(1, XDATA, add(CFA_XSP16, literal(-9)))
        CFI (cfiCond307) V6 load(1, XDATA, add(CFA_XSP16, literal(-8)))
        CFI (cfiCond307) V7 load(1, XDATA, add(CFA_XSP16, literal(-7)))
        CFI (cfiCond307) R7 load(1, XDATA, add(CFA_XSP16, literal(-6)))
        CFI (cfiCond307) ?RET_LOW load(1, XDATA, add(CFA_XSP16, literal(-5)))
        CFI (cfiCond307) ?RET_HIGH load(1, XDATA, add(CFA_XSP16, literal(-4)))
        CFI (cfiCond307) ?BRET_EXT load(1, XDATA, add(CFA_XSP16, literal(-3)))
        CFI (cfiCond307) DPL0 load(1, XDATA, add(CFA_XSP16, literal(-2)))
        CFI (cfiCond307) DPH0 load(1, XDATA, add(CFA_XSP16, literal(-1)))
        CFI (cfiCond307) CFA_SP SP+0
        CFI (cfiCond307) CFA_XSP16 add(XSP16, 37)
        CFI Block cfiCond308 Using cfiCommon0
        CFI (cfiCond308) NoFunction
        CFI (cfiCond308) Conditional ??CrossCallReturnLabel_53
        CFI (cfiCond308) R6 load(1, XDATA, add(CFA_XSP16, literal(-16)))
        CFI (cfiCond308) VB load(1, XDATA, add(CFA_XSP16, literal(-15)))
        CFI (cfiCond308) V0 load(1, XDATA, add(CFA_XSP16, literal(-14)))
        CFI (cfiCond308) V1 load(1, XDATA, add(CFA_XSP16, literal(-13)))
        CFI (cfiCond308) V2 load(1, XDATA, add(CFA_XSP16, literal(-12)))
        CFI (cfiCond308) V3 load(1, XDATA, add(CFA_XSP16, literal(-11)))
        CFI (cfiCond308) V4 load(1, XDATA, add(CFA_XSP16, literal(-10)))
        CFI (cfiCond308) V5 load(1, XDATA, add(CFA_XSP16, literal(-9)))
        CFI (cfiCond308) V6 load(1, XDATA, add(CFA_XSP16, literal(-8)))
        CFI (cfiCond308) V7 load(1, XDATA, add(CFA_XSP16, literal(-7)))
        CFI (cfiCond308) R7 load(1, XDATA, add(CFA_XSP16, literal(-6)))
        CFI (cfiCond308) ?RET_LOW load(1, XDATA, add(CFA_XSP16, literal(-5)))
        CFI (cfiCond308) ?RET_HIGH load(1, XDATA, add(CFA_XSP16, literal(-4)))
        CFI (cfiCond308) ?BRET_EXT load(1, XDATA, add(CFA_XSP16, literal(-3)))
        CFI (cfiCond308) DPL0 load(1, XDATA, add(CFA_XSP16, literal(-2)))
        CFI (cfiCond308) DPH0 load(1, XDATA, add(CFA_XSP16, literal(-1)))
        CFI (cfiCond308) CFA_SP SP+0
        CFI (cfiCond308) CFA_XSP16 add(XSP16, 37)
        CFI Block cfiPicker309 Using cfiCommon1
        CFI (cfiPicker309) NoFunction
        CFI (cfiPicker309) Picker
        MOV     DPTR,#Water_gage_SerialNumber
        LCALL   ??Subroutine59_0 & 0xFFFF
??CrossCallReturnLabel_156:
        MOV     R1,A
        MOV     R2,#0x3
        MOV     R3,#0x0
        RET
        CFI EndBlock cfiCond305
        CFI EndBlock cfiCond306
        CFI EndBlock cfiCond307
        CFI EndBlock cfiCond308
        CFI EndBlock cfiPicker309

        RSEG BANKED_CODE:CODE:NOROOT(0)
?Subroutine15:
        CFI Block cfiCond310 Using cfiCommon0
        CFI NoFunction
        CFI Conditional ??CrossCallReturnLabel_45
        CFI R6 load(1, XDATA, add(CFA_XSP16, literal(-16)))
        CFI VB load(1, XDATA, add(CFA_XSP16, literal(-15)))
        CFI V0 load(1, XDATA, add(CFA_XSP16, literal(-14)))
        CFI V1 load(1, XDATA, add(CFA_XSP16, literal(-13)))
        CFI V2 load(1, XDATA, add(CFA_XSP16, literal(-12)))
        CFI V3 load(1, XDATA, add(CFA_XSP16, literal(-11)))
        CFI V4 load(1, XDATA, add(CFA_XSP16, literal(-10)))
        CFI V5 load(1, XDATA, add(CFA_XSP16, literal(-9)))
        CFI V6 load(1, XDATA, add(CFA_XSP16, literal(-8)))
        CFI V7 load(1, XDATA, add(CFA_XSP16, literal(-7)))
        CFI R7 load(1, XDATA, add(CFA_XSP16, literal(-6)))
        CFI ?RET_LOW load(1, XDATA, add(CFA_XSP16, literal(-5)))
        CFI ?RET_HIGH load(1, XDATA, add(CFA_XSP16, literal(-4)))
        CFI ?BRET_EXT load(1, XDATA, add(CFA_XSP16, literal(-3)))
        CFI DPL0 load(1, XDATA, add(CFA_XSP16, literal(-2)))
        CFI DPH0 load(1, XDATA, add(CFA_XSP16, literal(-1)))
        CFI CFA_SP SP+0
        CFI CFA_XSP16 add(XSP16, 37)
        CFI Block cfiCond311 Using cfiCommon0
        CFI (cfiCond311) NoFunction
        CFI (cfiCond311) Conditional ??CrossCallReturnLabel_46
        CFI (cfiCond311) R6 load(1, XDATA, add(CFA_XSP16, literal(-16)))
        CFI (cfiCond311) VB load(1, XDATA, add(CFA_XSP16, literal(-15)))
        CFI (cfiCond311) V0 load(1, XDATA, add(CFA_XSP16, literal(-14)))
        CFI (cfiCond311) V1 load(1, XDATA, add(CFA_XSP16, literal(-13)))
        CFI (cfiCond311) V2 load(1, XDATA, add(CFA_XSP16, literal(-12)))
        CFI (cfiCond311) V3 load(1, XDATA, add(CFA_XSP16, literal(-11)))
        CFI (cfiCond311) V4 load(1, XDATA, add(CFA_XSP16, literal(-10)))
        CFI (cfiCond311) V5 load(1, XDATA, add(CFA_XSP16, literal(-9)))
        CFI (cfiCond311) V6 load(1, XDATA, add(CFA_XSP16, literal(-8)))
        CFI (cfiCond311) V7 load(1, XDATA, add(CFA_XSP16, literal(-7)))
        CFI (cfiCond311) R7 load(1, XDATA, add(CFA_XSP16, literal(-6)))
        CFI (cfiCond311) ?RET_LOW load(1, XDATA, add(CFA_XSP16, literal(-5)))
        CFI (cfiCond311) ?RET_HIGH load(1, XDATA, add(CFA_XSP16, literal(-4)))
        CFI (cfiCond311) ?BRET_EXT load(1, XDATA, add(CFA_XSP16, literal(-3)))
        CFI (cfiCond311) DPL0 load(1, XDATA, add(CFA_XSP16, literal(-2)))
        CFI (cfiCond311) DPH0 load(1, XDATA, add(CFA_XSP16, literal(-1)))
        CFI (cfiCond311) CFA_SP SP+0
        CFI (cfiCond311) CFA_XSP16 add(XSP16, 37)
        CFI Block cfiCond312 Using cfiCommon0
        CFI (cfiCond312) NoFunction
        CFI (cfiCond312) Conditional ??CrossCallReturnLabel_47
        CFI (cfiCond312) R6 load(1, XDATA, add(CFA_XSP16, literal(-16)))
        CFI (cfiCond312) VB load(1, XDATA, add(CFA_XSP16, literal(-15)))
        CFI (cfiCond312) V0 load(1, XDATA, add(CFA_XSP16, literal(-14)))
        CFI (cfiCond312) V1 load(1, XDATA, add(CFA_XSP16, literal(-13)))
        CFI (cfiCond312) V2 load(1, XDATA, add(CFA_XSP16, literal(-12)))
        CFI (cfiCond312) V3 load(1, XDATA, add(CFA_XSP16, literal(-11)))
        CFI (cfiCond312) V4 load(1, XDATA, add(CFA_XSP16, literal(-10)))
        CFI (cfiCond312) V5 load(1, XDATA, add(CFA_XSP16, literal(-9)))
        CFI (cfiCond312) V6 load(1, XDATA, add(CFA_XSP16, literal(-8)))
        CFI (cfiCond312) V7 load(1, XDATA, add(CFA_XSP16, literal(-7)))
        CFI (cfiCond312) R7 load(1, XDATA, add(CFA_XSP16, literal(-6)))
        CFI (cfiCond312) ?RET_LOW load(1, XDATA, add(CFA_XSP16, literal(-5)))
        CFI (cfiCond312) ?RET_HIGH load(1, XDATA, add(CFA_XSP16, literal(-4)))
        CFI (cfiCond312) ?BRET_EXT load(1, XDATA, add(CFA_XSP16, literal(-3)))
        CFI (cfiCond312) DPL0 load(1, XDATA, add(CFA_XSP16, literal(-2)))
        CFI (cfiCond312) DPH0 load(1, XDATA, add(CFA_XSP16, literal(-1)))
        CFI (cfiCond312) CFA_SP SP+0
        CFI (cfiCond312) CFA_XSP16 add(XSP16, 37)
        CFI Block cfiPicker313 Using cfiCommon1
        CFI (cfiPicker313) NoFunction
        CFI (cfiPicker313) Picker
        MOVX    A,@DPTR
        MOV     R0,A
        MOV     DPH,#((Water_gage_err >> 8) & 0xff)
        MOV     DPL,#(Water_gage_err & 0xff)
        CLR     C
        MOVX    A,@DPTR
        SUBB    A,R0
        INC     DPTR
        MOVX    A,@DPTR
        SUBB    A,#0x0
        RET
        CFI EndBlock cfiCond310
        CFI EndBlock cfiCond311
        CFI EndBlock cfiCond312
        CFI EndBlock cfiPicker313

        RSEG BANKED_CODE:CODE:NOROOT(0)
?Subroutine6:
        CFI Block cfiCond314 Using cfiCommon0
        CFI NoFunction
        CFI Conditional ??CrossCallReturnLabel_15
        CFI R6 load(1, XDATA, add(CFA_XSP16, literal(-16)))
        CFI VB load(1, XDATA, add(CFA_XSP16, literal(-15)))
        CFI V0 load(1, XDATA, add(CFA_XSP16, literal(-14)))
        CFI V1 load(1, XDATA, add(CFA_XSP16, literal(-13)))
        CFI V2 load(1, XDATA, add(CFA_XSP16, literal(-12)))
        CFI V3 load(1, XDATA, add(CFA_XSP16, literal(-11)))
        CFI V4 load(1, XDATA, add(CFA_XSP16, literal(-10)))
        CFI V5 load(1, XDATA, add(CFA_XSP16, literal(-9)))
        CFI V6 load(1, XDATA, add(CFA_XSP16, literal(-8)))
        CFI V7 load(1, XDATA, add(CFA_XSP16, literal(-7)))
        CFI R7 load(1, XDATA, add(CFA_XSP16, literal(-6)))
        CFI ?RET_LOW load(1, XDATA, add(CFA_XSP16, literal(-5)))
        CFI ?RET_HIGH load(1, XDATA, add(CFA_XSP16, literal(-4)))
        CFI ?BRET_EXT load(1, XDATA, add(CFA_XSP16, literal(-3)))
        CFI DPL0 load(1, XDATA, add(CFA_XSP16, literal(-2)))
        CFI DPH0 load(1, XDATA, add(CFA_XSP16, literal(-1)))
        CFI CFA_SP SP+0
        CFI CFA_XSP16 add(XSP16, 22)
        CFI Block cfiCond315 Using cfiCommon0
        CFI (cfiCond315) NoFunction
        CFI (cfiCond315) Conditional ??CrossCallReturnLabel_16
        CFI (cfiCond315) R6 load(1, XDATA, add(CFA_XSP16, literal(-16)))
        CFI (cfiCond315) VB load(1, XDATA, add(CFA_XSP16, literal(-15)))
        CFI (cfiCond315) V0 load(1, XDATA, add(CFA_XSP16, literal(-14)))
        CFI (cfiCond315) V1 load(1, XDATA, add(CFA_XSP16, literal(-13)))
        CFI (cfiCond315) V2 load(1, XDATA, add(CFA_XSP16, literal(-12)))
        CFI (cfiCond315) V3 load(1, XDATA, add(CFA_XSP16, literal(-11)))
        CFI (cfiCond315) V4 load(1, XDATA, add(CFA_XSP16, literal(-10)))
        CFI (cfiCond315) V5 load(1, XDATA, add(CFA_XSP16, literal(-9)))
        CFI (cfiCond315) V6 load(1, XDATA, add(CFA_XSP16, literal(-8)))
        CFI (cfiCond315) V7 load(1, XDATA, add(CFA_XSP16, literal(-7)))
        CFI (cfiCond315) R7 load(1, XDATA, add(CFA_XSP16, literal(-6)))
        CFI (cfiCond315) ?RET_LOW load(1, XDATA, add(CFA_XSP16, literal(-5)))
        CFI (cfiCond315) ?RET_HIGH load(1, XDATA, add(CFA_XSP16, literal(-4)))
        CFI (cfiCond315) ?BRET_EXT load(1, XDATA, add(CFA_XSP16, literal(-3)))
        CFI (cfiCond315) DPL0 load(1, XDATA, add(CFA_XSP16, literal(-2)))
        CFI (cfiCond315) DPH0 load(1, XDATA, add(CFA_XSP16, literal(-1)))
        CFI (cfiCond315) CFA_SP SP+0
        CFI (cfiCond315) CFA_XSP16 add(XSP16, 37)
        CFI Block cfiPicker316 Using cfiCommon1
        CFI (cfiPicker316) NoFunction
        CFI (cfiPicker316) Picker
        MOV     A,R0
        MOVX    @DPTR,A
        INC     DPTR
        MOV     A,R1
        MOVX    @DPTR,A
        ; Setup parameters for call to function AF_DataRequest
        ; Setup parameters for call to function AF_DataRequest
        MOV     ?V0 + 0,#0xa
        MOV     R0,#?V0 + 0
        RET
        CFI EndBlock cfiCond314
        CFI EndBlock cfiCond315
        CFI EndBlock cfiPicker316

        RSEG BANKED_CODE:CODE:NOROOT(0)
?Subroutine5:
        CFI Block cfiCond317 Using cfiCommon0
        CFI NoFunction
        CFI Conditional ??CrossCallReturnLabel_186
        CFI R6 load(1, XDATA, add(CFA_XSP16, literal(-16)))
        CFI VB load(1, XDATA, add(CFA_XSP16, literal(-15)))
        CFI V0 load(1, XDATA, add(CFA_XSP16, literal(-14)))
        CFI V1 load(1, XDATA, add(CFA_XSP16, literal(-13)))
        CFI V2 load(1, XDATA, add(CFA_XSP16, literal(-12)))
        CFI V3 load(1, XDATA, add(CFA_XSP16, literal(-11)))
        CFI V4 load(1, XDATA, add(CFA_XSP16, literal(-10)))
        CFI V5 load(1, XDATA, add(CFA_XSP16, literal(-9)))
        CFI V6 load(1, XDATA, add(CFA_XSP16, literal(-8)))
        CFI V7 load(1, XDATA, add(CFA_XSP16, literal(-7)))
        CFI R7 load(1, XDATA, add(CFA_XSP16, literal(-6)))
        CFI ?RET_LOW load(1, XDATA, add(CFA_XSP16, literal(-5)))
        CFI ?RET_HIGH load(1, XDATA, add(CFA_XSP16, literal(-4)))
        CFI ?BRET_EXT load(1, XDATA, add(CFA_XSP16, literal(-3)))
        CFI DPL0 load(1, XDATA, add(CFA_XSP16, literal(-2)))
        CFI DPH0 load(1, XDATA, add(CFA_XSP16, literal(-1)))
        CFI CFA_SP SP+0
        CFI CFA_XSP16 add(XSP16, 37)
        CFI Block cfiCond318 Using cfiCommon0
        CFI (cfiCond318) NoFunction
        CFI (cfiCond318) Conditional ??CrossCallReturnLabel_187
        CFI (cfiCond318) R6 load(1, XDATA, add(CFA_XSP16, literal(-16)))
        CFI (cfiCond318) VB load(1, XDATA, add(CFA_XSP16, literal(-15)))
        CFI (cfiCond318) V0 load(1, XDATA, add(CFA_XSP16, literal(-14)))
        CFI (cfiCond318) V1 load(1, XDATA, add(CFA_XSP16, literal(-13)))
        CFI (cfiCond318) V2 load(1, XDATA, add(CFA_XSP16, literal(-12)))
        CFI (cfiCond318) V3 load(1, XDATA, add(CFA_XSP16, literal(-11)))
        CFI (cfiCond318) V4 load(1, XDATA, add(CFA_XSP16, literal(-10)))
        CFI (cfiCond318) V5 load(1, XDATA, add(CFA_XSP16, literal(-9)))
        CFI (cfiCond318) V6 load(1, XDATA, add(CFA_XSP16, literal(-8)))
        CFI (cfiCond318) V7 load(1, XDATA, add(CFA_XSP16, literal(-7)))
        CFI (cfiCond318) R7 load(1, XDATA, add(CFA_XSP16, literal(-6)))
        CFI (cfiCond318) ?RET_LOW load(1, XDATA, add(CFA_XSP16, literal(-5)))
        CFI (cfiCond318) ?RET_HIGH load(1, XDATA, add(CFA_XSP16, literal(-4)))
        CFI (cfiCond318) ?BRET_EXT load(1, XDATA, add(CFA_XSP16, literal(-3)))
        CFI (cfiCond318) DPL0 load(1, XDATA, add(CFA_XSP16, literal(-2)))
        CFI (cfiCond318) DPH0 load(1, XDATA, add(CFA_XSP16, literal(-1)))
        CFI (cfiCond318) CFA_SP SP+0
        CFI (cfiCond318) CFA_XSP16 add(XSP16, 37)
        CFI Block cfiCond319 Using cfiCommon0
        CFI (cfiCond319) NoFunction
        CFI (cfiCond319) Conditional ??CrossCallReturnLabel_188
        CFI (cfiCond319) R6 load(1, XDATA, add(CFA_XSP16, literal(-16)))
        CFI (cfiCond319) VB load(1, XDATA, add(CFA_XSP16, literal(-15)))
        CFI (cfiCond319) V0 load(1, XDATA, add(CFA_XSP16, literal(-14)))
        CFI (cfiCond319) V1 load(1, XDATA, add(CFA_XSP16, literal(-13)))
        CFI (cfiCond319) V2 load(1, XDATA, add(CFA_XSP16, literal(-12)))
        CFI (cfiCond319) V3 load(1, XDATA, add(CFA_XSP16, literal(-11)))
        CFI (cfiCond319) V4 load(1, XDATA, add(CFA_XSP16, literal(-10)))
        CFI (cfiCond319) V5 load(1, XDATA, add(CFA_XSP16, literal(-9)))
        CFI (cfiCond319) V6 load(1, XDATA, add(CFA_XSP16, literal(-8)))
        CFI (cfiCond319) V7 load(1, XDATA, add(CFA_XSP16, literal(-7)))
        CFI (cfiCond319) R7 load(1, XDATA, add(CFA_XSP16, literal(-6)))
        CFI (cfiCond319) ?RET_LOW load(1, XDATA, add(CFA_XSP16, literal(-5)))
        CFI (cfiCond319) ?RET_HIGH load(1, XDATA, add(CFA_XSP16, literal(-4)))
        CFI (cfiCond319) ?BRET_EXT load(1, XDATA, add(CFA_XSP16, literal(-3)))
        CFI (cfiCond319) DPL0 load(1, XDATA, add(CFA_XSP16, literal(-2)))
        CFI (cfiCond319) DPH0 load(1, XDATA, add(CFA_XSP16, literal(-1)))
        CFI (cfiCond319) CFA_SP SP+0
        CFI (cfiCond319) CFA_XSP16 add(XSP16, 37)
        CFI Block cfiPicker320 Using cfiCommon1
        CFI (cfiPicker320) NoFunction
        CFI (cfiPicker320) Picker
        MOV     R1,A
        MOV     DPTR,#Water_gage_err
        MOV     A,R0
        CFI Block cfiCond321 Using cfiCommon0
        CFI (cfiCond321) NoFunction
        CFI (cfiCond321) Conditional ??CrossCallReturnLabel_189
        CFI (cfiCond321) R6 load(1, XDATA, add(CFA_XSP16, literal(-16)))
        CFI (cfiCond321) VB load(1, XDATA, add(CFA_XSP16, literal(-15)))
        CFI (cfiCond321) V0 load(1, XDATA, add(CFA_XSP16, literal(-14)))
        CFI (cfiCond321) V1 load(1, XDATA, add(CFA_XSP16, literal(-13)))
        CFI (cfiCond321) V2 load(1, XDATA, add(CFA_XSP16, literal(-12)))
        CFI (cfiCond321) V3 load(1, XDATA, add(CFA_XSP16, literal(-11)))
        CFI (cfiCond321) V4 load(1, XDATA, add(CFA_XSP16, literal(-10)))
        CFI (cfiCond321) V5 load(1, XDATA, add(CFA_XSP16, literal(-9)))
        CFI (cfiCond321) V6 load(1, XDATA, add(CFA_XSP16, literal(-8)))
        CFI (cfiCond321) V7 load(1, XDATA, add(CFA_XSP16, literal(-7)))
        CFI (cfiCond321) R7 load(1, XDATA, add(CFA_XSP16, literal(-6)))
        CFI (cfiCond321) ?RET_LOW load(1, XDATA, add(CFA_XSP16, literal(-5)))
        CFI (cfiCond321) ?RET_HIGH load(1, XDATA, add(CFA_XSP16, literal(-4)))
        CFI (cfiCond321) ?BRET_EXT load(1, XDATA, add(CFA_XSP16, literal(-3)))
        CFI (cfiCond321) DPL0 load(1, XDATA, add(CFA_XSP16, literal(-2)))
        CFI (cfiCond321) DPH0 load(1, XDATA, add(CFA_XSP16, literal(-1)))
        CFI (cfiCond321) CFA_SP SP+0
        CFI (cfiCond321) CFA_XSP16 add(XSP16, 37)
??Subroutine5_0:
        MOVX    @DPTR,A
        INC     DPTR
        MOV     A,R1
        CFI Block cfiCond322 Using cfiCommon0
        CFI (cfiCond322) NoFunction
        CFI (cfiCond322) Conditional ??CrossCallReturnLabel_190
        CFI (cfiCond322) R6 load(1, XDATA, add(CFA_XSP16, literal(-16)))
        CFI (cfiCond322) VB load(1, XDATA, add(CFA_XSP16, literal(-15)))
        CFI (cfiCond322) V0 load(1, XDATA, add(CFA_XSP16, literal(-14)))
        CFI (cfiCond322) V1 load(1, XDATA, add(CFA_XSP16, literal(-13)))
        CFI (cfiCond322) V2 load(1, XDATA, add(CFA_XSP16, literal(-12)))
        CFI (cfiCond322) V3 load(1, XDATA, add(CFA_XSP16, literal(-11)))
        CFI (cfiCond322) V4 load(1, XDATA, add(CFA_XSP16, literal(-10)))
        CFI (cfiCond322) V5 load(1, XDATA, add(CFA_XSP16, literal(-9)))
        CFI (cfiCond322) V6 load(1, XDATA, add(CFA_XSP16, literal(-8)))
        CFI (cfiCond322) V7 load(1, XDATA, add(CFA_XSP16, literal(-7)))
        CFI (cfiCond322) R7 load(1, XDATA, add(CFA_XSP16, literal(-6)))
        CFI (cfiCond322) ?RET_LOW load(1, XDATA, add(CFA_XSP16, literal(-5)))
        CFI (cfiCond322) ?RET_HIGH load(1, XDATA, add(CFA_XSP16, literal(-4)))
        CFI (cfiCond322) ?BRET_EXT load(1, XDATA, add(CFA_XSP16, literal(-3)))
        CFI (cfiCond322) DPL0 load(1, XDATA, add(CFA_XSP16, literal(-2)))
        CFI (cfiCond322) DPH0 load(1, XDATA, add(CFA_XSP16, literal(-1)))
        CFI (cfiCond322) CFA_SP SP+0
        CFI (cfiCond322) CFA_XSP16 add(XSP16, 37)
        CFI Block cfiCond323 Using cfiCommon0
        CFI (cfiCond323) NoFunction
        CFI (cfiCond323) Conditional ??CrossCallReturnLabel_191
        CFI (cfiCond323) R6 load(1, XDATA, add(CFA_XSP16, literal(-16)))
        CFI (cfiCond323) VB load(1, XDATA, add(CFA_XSP16, literal(-15)))
        CFI (cfiCond323) V0 load(1, XDATA, add(CFA_XSP16, literal(-14)))
        CFI (cfiCond323) V1 load(1, XDATA, add(CFA_XSP16, literal(-13)))
        CFI (cfiCond323) V2 load(1, XDATA, add(CFA_XSP16, literal(-12)))
        CFI (cfiCond323) V3 load(1, XDATA, add(CFA_XSP16, literal(-11)))
        CFI (cfiCond323) V4 load(1, XDATA, add(CFA_XSP16, literal(-10)))
        CFI (cfiCond323) V5 load(1, XDATA, add(CFA_XSP16, literal(-9)))
        CFI (cfiCond323) V6 load(1, XDATA, add(CFA_XSP16, literal(-8)))
        CFI (cfiCond323) V7 load(1, XDATA, add(CFA_XSP16, literal(-7)))
        CFI (cfiCond323) R7 load(1, XDATA, add(CFA_XSP16, literal(-6)))
        CFI (cfiCond323) ?RET_LOW load(1, XDATA, add(CFA_XSP16, literal(-5)))
        CFI (cfiCond323) ?RET_HIGH load(1, XDATA, add(CFA_XSP16, literal(-4)))
        CFI (cfiCond323) ?BRET_EXT load(1, XDATA, add(CFA_XSP16, literal(-3)))
        CFI (cfiCond323) DPL0 load(1, XDATA, add(CFA_XSP16, literal(-2)))
        CFI (cfiCond323) DPH0 load(1, XDATA, add(CFA_XSP16, literal(-1)))
        CFI (cfiCond323) CFA_SP SP+0
        CFI (cfiCond323) CFA_XSP16 add(XSP16, 37)
??Subroutine5_1:
        MOVX    @DPTR,A
        ; Setup parameters for call to function HalUARTWrite
        ; Setup parameters for call to function HalUARTWrite
        ; Setup parameters for call to function HalUARTWrite
        ; Setup parameters for call to function HalUARTWrite
        ; Setup parameters for call to function HalUARTWrite
        ; Setup parameters for call to function HalUARTWrite
        LJMP    ?Subroutine66 & 0xFFFF
        CFI EndBlock cfiCond317
        CFI EndBlock cfiCond318
        CFI EndBlock cfiCond319
        CFI EndBlock cfiPicker320
        CFI EndBlock cfiCond321
        CFI EndBlock cfiCond322
        CFI EndBlock cfiCond323

        RSEG BANKED_CODE:CODE:NOROOT(0)
?Subroutine4:
        CFI Block cfiCond324 Using cfiCommon0
        CFI NoFunction
        CFI Conditional ??CrossCallReturnLabel_13
        CFI R6 load(1, XDATA, add(CFA_XSP16, literal(-16)))
        CFI VB load(1, XDATA, add(CFA_XSP16, literal(-15)))
        CFI V0 load(1, XDATA, add(CFA_XSP16, literal(-14)))
        CFI V1 load(1, XDATA, add(CFA_XSP16, literal(-13)))
        CFI V2 load(1, XDATA, add(CFA_XSP16, literal(-12)))
        CFI V3 load(1, XDATA, add(CFA_XSP16, literal(-11)))
        CFI V4 load(1, XDATA, add(CFA_XSP16, literal(-10)))
        CFI V5 load(1, XDATA, add(CFA_XSP16, literal(-9)))
        CFI V6 load(1, XDATA, add(CFA_XSP16, literal(-8)))
        CFI V7 load(1, XDATA, add(CFA_XSP16, literal(-7)))
        CFI R7 load(1, XDATA, add(CFA_XSP16, literal(-6)))
        CFI ?RET_LOW load(1, XDATA, add(CFA_XSP16, literal(-5)))
        CFI ?RET_HIGH load(1, XDATA, add(CFA_XSP16, literal(-4)))
        CFI ?BRET_EXT load(1, XDATA, add(CFA_XSP16, literal(-3)))
        CFI DPL0 load(1, XDATA, add(CFA_XSP16, literal(-2)))
        CFI DPH0 load(1, XDATA, add(CFA_XSP16, literal(-1)))
        CFI CFA_SP SP+0
        CFI CFA_XSP16 add(XSP16, 37)
        CFI Block cfiCond325 Using cfiCommon0
        CFI (cfiCond325) NoFunction
        CFI (cfiCond325) Conditional ??CrossCallReturnLabel_14
        CFI (cfiCond325) R6 load(1, XDATA, add(CFA_XSP16, literal(-16)))
        CFI (cfiCond325) VB load(1, XDATA, add(CFA_XSP16, literal(-15)))
        CFI (cfiCond325) V0 load(1, XDATA, add(CFA_XSP16, literal(-14)))
        CFI (cfiCond325) V1 load(1, XDATA, add(CFA_XSP16, literal(-13)))
        CFI (cfiCond325) V2 load(1, XDATA, add(CFA_XSP16, literal(-12)))
        CFI (cfiCond325) V3 load(1, XDATA, add(CFA_XSP16, literal(-11)))
        CFI (cfiCond325) V4 load(1, XDATA, add(CFA_XSP16, literal(-10)))
        CFI (cfiCond325) V5 load(1, XDATA, add(CFA_XSP16, literal(-9)))
        CFI (cfiCond325) V6 load(1, XDATA, add(CFA_XSP16, literal(-8)))
        CFI (cfiCond325) V7 load(1, XDATA, add(CFA_XSP16, literal(-7)))
        CFI (cfiCond325) R7 load(1, XDATA, add(CFA_XSP16, literal(-6)))
        CFI (cfiCond325) ?RET_LOW load(1, XDATA, add(CFA_XSP16, literal(-5)))
        CFI (cfiCond325) ?RET_HIGH load(1, XDATA, add(CFA_XSP16, literal(-4)))
        CFI (cfiCond325) ?BRET_EXT load(1, XDATA, add(CFA_XSP16, literal(-3)))
        CFI (cfiCond325) DPL0 load(1, XDATA, add(CFA_XSP16, literal(-2)))
        CFI (cfiCond325) DPH0 load(1, XDATA, add(CFA_XSP16, literal(-1)))
        CFI (cfiCond325) CFA_SP SP+0
        CFI (cfiCond325) CFA_XSP16 add(XSP16, 37)
        CFI Block cfiPicker326 Using cfiCommon1
        CFI (cfiPicker326) NoFunction
        CFI (cfiPicker326) Picker
        MOVX    @DPTR,A
        ; Setup parameters for call to function HalUARTWrite
        ; Setup parameters for call to function HalUARTWrite
        MOV     R4,#0x1
        MOV     R5,#0x0
        MOV     DPL,?XSP + 0
        MOV     DPH,?XSP + 1
        RET
        CFI EndBlock cfiCond324
        CFI EndBlock cfiCond325
        CFI EndBlock cfiPicker326

        RSEG BANKED_CODE:CODE:NOROOT(0)
?Subroutine2:
        CFI Block cfiCond327 Using cfiCommon0
        CFI NoFunction
        CFI Conditional ??CrossCallReturnLabel_7
        CFI DPL0 Frame(CFA_SP, 4)
        CFI DPH0 Frame(CFA_SP, 5)
        CFI CFA_SP SP+-5
        CFI Block cfiCond328 Using cfiCommon0
        CFI (cfiCond328) NoFunction
        CFI (cfiCond328) Conditional ??CrossCallReturnLabel_8
        CFI (cfiCond328) R6 load(1, XDATA, add(CFA_XSP16, literal(-16)))
        CFI (cfiCond328) VB load(1, XDATA, add(CFA_XSP16, literal(-15)))
        CFI (cfiCond328) V0 load(1, XDATA, add(CFA_XSP16, literal(-14)))
        CFI (cfiCond328) V1 load(1, XDATA, add(CFA_XSP16, literal(-13)))
        CFI (cfiCond328) V2 load(1, XDATA, add(CFA_XSP16, literal(-12)))
        CFI (cfiCond328) V3 load(1, XDATA, add(CFA_XSP16, literal(-11)))
        CFI (cfiCond328) V4 load(1, XDATA, add(CFA_XSP16, literal(-10)))
        CFI (cfiCond328) V5 load(1, XDATA, add(CFA_XSP16, literal(-9)))
        CFI (cfiCond328) V6 load(1, XDATA, add(CFA_XSP16, literal(-8)))
        CFI (cfiCond328) V7 load(1, XDATA, add(CFA_XSP16, literal(-7)))
        CFI (cfiCond328) R7 load(1, XDATA, add(CFA_XSP16, literal(-6)))
        CFI (cfiCond328) ?RET_LOW load(1, XDATA, add(CFA_XSP16, literal(-5)))
        CFI (cfiCond328) ?RET_HIGH load(1, XDATA, add(CFA_XSP16, literal(-4)))
        CFI (cfiCond328) ?BRET_EXT load(1, XDATA, add(CFA_XSP16, literal(-3)))
        CFI (cfiCond328) DPL0 load(1, XDATA, add(CFA_XSP16, literal(-2)))
        CFI (cfiCond328) DPH0 load(1, XDATA, add(CFA_XSP16, literal(-1)))
        CFI (cfiCond328) CFA_SP SP+0
        CFI (cfiCond328) CFA_XSP16 add(XSP16, 37)
        CFI Block cfiPicker329 Using cfiCommon1
        CFI (cfiPicker329) NoFunction
        CFI (cfiPicker329) Picker
        LCALL   ?Subroutine49 & 0xFFFF
??CrossCallReturnLabel_133:
        MOV     DPH,A
        MOV     DPL,R0
        CLR     A
        MOVX    @DPTR,A
        INC     DPTR
        MOVX    @DPTR,A
        MOV     DPTR,#Zigbee_ID
        MOVX    A,@DPTR
        RET
        CFI EndBlock cfiCond327
        CFI EndBlock cfiCond328
        CFI EndBlock cfiPicker329

        RSEG XDATA_Z:XDATA:NOROOT(0)
??ack_num:
        DS 1
        REQUIRE __INIT_XDATA_Z
// 2091 
// 2092 /*********************************************************************
// 2093  * @fn      p2p_test_SendToUart
// 2094  *
// 2095  * @brief   
// 2096  *
// 2097  * @param   none
// 2098  *
// 2099  * @return  none
// 2100  */

        RSEG BANKED_CODE:CODE:NOROOT(0)
// 2101 void p2p_test_SendToUart(uint8 *Data, uint8 DataLength)
p2p_test_SendToUart:
        CFI Block cfiBlock330 Using cfiCommon0
        CFI Function p2p_test_SendToUart
// 2102 {  
        FUNCALL p2p_test_SendToUart, SPIMgr_CalcFCS
        LOCFRAME ISTACK, 0, STACK
        LOCFRAME PSTACK, 0, STACK
        LOCFRAME XSTACK, 17, STACK
        LOCFRAME IOVERLAY, 0, STATIC
        LOCFRAME DOVERLAY, 0, STATIC
        ARGFRAME ISTACK, 0, STACK
        ARGFRAME PSTACK, 0, STACK
        ARGFRAME XSTACK, 17, STACK
        ARGFRAME IOVERLAY, 0, STATIC
        ARGFRAME DOVERLAY, 0, STATIC
        FUNCALL p2p_test_SendToUart, SPIMgr_CalcFCS
        LOCFRAME ISTACK, 0, STACK
        LOCFRAME PSTACK, 0, STACK
        LOCFRAME XSTACK, 17, STACK
        LOCFRAME IOVERLAY, 0, STATIC
        LOCFRAME DOVERLAY, 0, STATIC
        ARGFRAME ISTACK, 0, STACK
        ARGFRAME PSTACK, 0, STACK
        ARGFRAME XSTACK, 17, STACK
        ARGFRAME IOVERLAY, 0, STATIC
        ARGFRAME DOVERLAY, 0, STATIC
        FUNCALL p2p_test_SendToUart, SPIMgr_CalcFCS
        LOCFRAME ISTACK, 0, STACK
        LOCFRAME PSTACK, 0, STACK
        LOCFRAME XSTACK, 17, STACK
        LOCFRAME IOVERLAY, 0, STATIC
        LOCFRAME DOVERLAY, 0, STATIC
        ARGFRAME ISTACK, 0, STACK
        ARGFRAME PSTACK, 0, STACK
        ARGFRAME XSTACK, 17, STACK
        ARGFRAME IOVERLAY, 0, STATIC
        ARGFRAME DOVERLAY, 0, STATIC
        FUNCALL p2p_test_SendToUart, HalUARTWrite
        LOCFRAME ISTACK, 0, STACK
        LOCFRAME PSTACK, 0, STACK
        LOCFRAME XSTACK, 17, STACK
        LOCFRAME IOVERLAY, 0, STATIC
        LOCFRAME DOVERLAY, 0, STATIC
        ARGFRAME ISTACK, 0, STACK
        ARGFRAME PSTACK, 0, STACK
        ARGFRAME XSTACK, 17, STACK
        ARGFRAME IOVERLAY, 0, STATIC
        ARGFRAME DOVERLAY, 0, STATIC
        FUNCALL p2p_test_SendToUart, HalUARTWrite
        LOCFRAME ISTACK, 0, STACK
        LOCFRAME PSTACK, 0, STACK
        LOCFRAME XSTACK, 17, STACK
        LOCFRAME IOVERLAY, 0, STATIC
        LOCFRAME DOVERLAY, 0, STATIC
        ARGFRAME ISTACK, 0, STACK
        ARGFRAME PSTACK, 0, STACK
        ARGFRAME XSTACK, 17, STACK
        ARGFRAME IOVERLAY, 0, STATIC
        ARGFRAME DOVERLAY, 0, STATIC
        FUNCALL p2p_test_SendToUart, HalUARTWrite
        LOCFRAME ISTACK, 0, STACK
        LOCFRAME PSTACK, 0, STACK
        LOCFRAME XSTACK, 17, STACK
        LOCFRAME IOVERLAY, 0, STATIC
        LOCFRAME DOVERLAY, 0, STATIC
        ARGFRAME ISTACK, 0, STACK
        ARGFRAME PSTACK, 0, STACK
        ARGFRAME XSTACK, 17, STACK
        ARGFRAME IOVERLAY, 0, STATIC
        ARGFRAME DOVERLAY, 0, STATIC
        MOV     A,#-0xb
        LCALL   ?BANKED_ENTER_XDATA
        CFI DPH0 load(1, XDATA, add(CFA_XSP16, literal(-1)))
        CFI DPL0 load(1, XDATA, add(CFA_XSP16, literal(-2)))
        CFI ?BRET_EXT load(1, XDATA, add(CFA_XSP16, literal(-3)))
        CFI ?RET_HIGH load(1, XDATA, add(CFA_XSP16, literal(-4)))
        CFI ?RET_LOW load(1, XDATA, add(CFA_XSP16, literal(-5)))
        CFI R7 load(1, XDATA, add(CFA_XSP16, literal(-6)))
        CFI V2 load(1, XDATA, add(CFA_XSP16, literal(-7)))
        CFI V1 load(1, XDATA, add(CFA_XSP16, literal(-8)))
        CFI V0 load(1, XDATA, add(CFA_XSP16, literal(-9)))
        CFI VB load(1, XDATA, add(CFA_XSP16, literal(-10)))
        CFI R6 load(1, XDATA, add(CFA_XSP16, literal(-11)))
        CFI CFA_SP SP+0
        CFI CFA_XSP16 add(XSP16, 11)
        ; Saved register size: 11
        ; Auto size: 6
        MOV     A,#-0x6
        LCALL   ?ALLOC_XSTACK8
        CFI CFA_XSP16 add(XSP16, 17)
        MOV     ?V0 + 0,R2
        MOV     ?V0 + 1,R3
        MOV     A,R1
        MOV     R6,A
// 2103   UartHeadMsg_t UartHead;
// 2104   uint8 check[2],checksum;
// 2105   
// 2106   UartHead.head[0] = 0xAA;
        MOV     A,#0x1
        LCALL   ?XSTACK_DISP0_8
        MOV     A,#-0x56
        MOVX    @DPTR,A
// 2107   UartHead.head[1] = 0x55;
        MOV     A,#0x2
        LCALL   ?XSTACK_DISP0_8
        MOV     A,#0x55
        MOVX    @DPTR,A
// 2108   UartHead.len = DataLength;
        MOV     A,#0x3
        LCALL   ?XSTACK_DISP0_8
        MOV     A,R1
        MOVX    @DPTR,A
// 2109   check[0] = SPIMgr_CalcFCS((uint8*)&UartHead,3);  
        ; Setup parameters for call to function SPIMgr_CalcFCS
        MOV     R1,#0x3
        MOV     A,#0x1
        LCALL   ?XSTACK_DISP0_8
        MOV     R2,DPL
        MOV     R3,DPH
        LCALL   ??SPIMgr_CalcFCS?relay
        MOV     A,#0x4
        LCALL   ?XSTACK_DISP0_8
        MOV     A,R1
        MOVX    @DPTR,A
// 2110   check[1] = SPIMgr_CalcFCS(Data,DataLength);
        ; Setup parameters for call to function SPIMgr_CalcFCS
        MOV     A,R6
        MOV     R1,A
        MOV     R2,?V0 + 0
        MOV     R3,?V0 + 1
        LCALL   ??SPIMgr_CalcFCS?relay
        MOV     A,#0x5
        LCALL   ?XSTACK_DISP0_8
        MOV     A,R1
        MOVX    @DPTR,A
// 2111   checksum = SPIMgr_CalcFCS(check,2);
        ; Setup parameters for call to function SPIMgr_CalcFCS
        MOV     R1,#0x2
        MOV     A,#0x4
        LCALL   ?XSTACK_DISP0_8
        MOV     R2,DPL
        MOV     R3,DPH
        LCALL   ??SPIMgr_CalcFCS?relay
        MOV     A,R1
        MOV     DPL,?XSP + 0
        MOV     DPH,?XSP + 1
        MOVX    @DPTR,A
// 2112   
// 2113   HalUARTWrite(0,(uint8*)&UartHead, sizeof(UartHead));
        ; Setup parameters for call to function HalUARTWrite
        MOV     R4,#0x3
        MOV     R5,#0x0
        MOV     A,#0x1
        LCALL   ?XSTACK_DISP0_8
        MOV     R2,DPL
        MOV     R3,DPH
        MOV     R1,#0x0
        LCALL   ??HalUARTWrite?relay
// 2114   HalUARTWrite(0, Data, DataLength);
        ; Setup parameters for call to function HalUARTWrite
        MOV     A,R6
        MOV     R4,A
        MOV     R5,#0x0
        MOV     R2,?V0 + 0
        MOV     R3,?V0 + 1
        LCALL   ?Subroutine39 & 0xFFFF
// 2115   HalUARTWrite(0, (uint8*)&checksum, 1);
// 2116 }
??CrossCallReturnLabel_162:
        MOV     A,#0x6
        LCALL   ?DEALLOC_XSTACK8
        CFI CFA_XSP16 add(XSP16, 11)
        MOV     R7,#0x3
        LJMP    ?BANKED_LEAVE_XDATA
        CFI EndBlock cfiBlock330

        RSEG BANKED_CODE:CODE:NOROOT(0)
?Subroutine39:
        CFI Block cfiCond331 Using cfiCommon0
        CFI NoFunction
        CFI Conditional ??CrossCallReturnLabel_161
        CFI R6 load(1, XDATA, add(CFA_XSP16, literal(-10)))
        CFI VB load(1, XDATA, add(CFA_XSP16, literal(-9)))
        CFI V0 load(1, XDATA, add(CFA_XSP16, literal(-8)))
        CFI V1 load(1, XDATA, add(CFA_XSP16, literal(-7)))
        CFI R7 load(1, XDATA, add(CFA_XSP16, literal(-6)))
        CFI ?RET_LOW load(1, XDATA, add(CFA_XSP16, literal(-5)))
        CFI ?RET_HIGH load(1, XDATA, add(CFA_XSP16, literal(-4)))
        CFI ?BRET_EXT load(1, XDATA, add(CFA_XSP16, literal(-3)))
        CFI DPL0 load(1, XDATA, add(CFA_XSP16, literal(-2)))
        CFI DPH0 load(1, XDATA, add(CFA_XSP16, literal(-1)))
        CFI CFA_SP SP+0
        CFI CFA_XSP16 add(XSP16, 11)
        CFI Block cfiCond332 Using cfiCommon0
        CFI (cfiCond332) NoFunction
        CFI (cfiCond332) Conditional ??CrossCallReturnLabel_162
        CFI (cfiCond332) R6 load(1, XDATA, add(CFA_XSP16, literal(-11)))
        CFI (cfiCond332) VB load(1, XDATA, add(CFA_XSP16, literal(-10)))
        CFI (cfiCond332) V0 load(1, XDATA, add(CFA_XSP16, literal(-9)))
        CFI (cfiCond332) V1 load(1, XDATA, add(CFA_XSP16, literal(-8)))
        CFI (cfiCond332) V2 load(1, XDATA, add(CFA_XSP16, literal(-7)))
        CFI (cfiCond332) R7 load(1, XDATA, add(CFA_XSP16, literal(-6)))
        CFI (cfiCond332) ?RET_LOW load(1, XDATA, add(CFA_XSP16, literal(-5)))
        CFI (cfiCond332) ?RET_HIGH load(1, XDATA, add(CFA_XSP16, literal(-4)))
        CFI (cfiCond332) ?BRET_EXT load(1, XDATA, add(CFA_XSP16, literal(-3)))
        CFI (cfiCond332) DPL0 load(1, XDATA, add(CFA_XSP16, literal(-2)))
        CFI (cfiCond332) DPH0 load(1, XDATA, add(CFA_XSP16, literal(-1)))
        CFI (cfiCond332) CFA_SP SP+0
        CFI (cfiCond332) CFA_XSP16 add(XSP16, 17)
        CFI Block cfiPicker333 Using cfiCommon1
        CFI (cfiPicker333) NoFunction
        CFI (cfiPicker333) Picker
        LCALL   ?Subroutine55 & 0xFFFF
??CrossCallReturnLabel_196:
        MOV     DPL,?XSP + 0
        MOV     DPH,?XSP + 1
        LJMP    ?Subroutine61 & 0xFFFF
        CFI EndBlock cfiCond331
        CFI EndBlock cfiCond332
        CFI EndBlock cfiPicker333
// 2117 
// 2118 /*********************************************************************
// 2119  * @fn      fill_AppHead
// 2120  *
// 2121  * @brief   
// 2122  *
// 2123  * @param   none
// 2124  *
// 2125  * @return  none
// 2126  */

        RSEG BANKED_CODE:CODE:NOROOT(0)
// 2127 void fill_AppHead(AppHead_t *AppHead, uint8 AckRequire, uint8 MainVersion, uint8 SubVersion, uint8 type, uint8 TypeCode)
fill_AppHead:
        CFI Block cfiBlock334 Using cfiCommon0
        CFI Function fill_AppHead
// 2128 {
        MOV     A,#-0x9
        LCALL   ?BANKED_ENTER_XDATA
        CFI DPH0 load(1, XDATA, add(CFA_XSP16, literal(-1)))
        CFI DPL0 load(1, XDATA, add(CFA_XSP16, literal(-2)))
        CFI ?BRET_EXT load(1, XDATA, add(CFA_XSP16, literal(-3)))
        CFI ?RET_HIGH load(1, XDATA, add(CFA_XSP16, literal(-4)))
        CFI ?RET_LOW load(1, XDATA, add(CFA_XSP16, literal(-5)))
        CFI R7 load(1, XDATA, add(CFA_XSP16, literal(-6)))
        CFI V0 load(1, XDATA, add(CFA_XSP16, literal(-7)))
        CFI VB load(1, XDATA, add(CFA_XSP16, literal(-8)))
        CFI R6 load(1, XDATA, add(CFA_XSP16, literal(-9)))
        CFI CFA_SP SP+0
        CFI CFA_XSP16 add(XSP16, 9)
        ; Saved register size: 9
        ; Auto size: 0
        MOV     A,#0x9
        LCALL   ?XSTACK_DISP0_8
        MOVX    A,@DPTR
        MOV     R6,A
        MOV     A,#0xa
        LCALL   ?XSTACK_DISP0_8
        MOVX    A,@DPTR
        MOV     R7,A
// 2129   AppHead->AckRequire = AckRequire;
// 2130   AppHead->MainVersion = MainVersion;
// 2131   AppHead->SubVersion = SubVersion;
// 2132   AppHead->type = type;
        MOV     A,#0xf
        ANL     A,R6
        PUSH    A
        CFI CFA_SP SP+-1
        MOV     A,R5
        MOV     C,0xE0 /* A   */.0
        CLR     A
        MOV     0xE0 /* A   */.0,C
        SWAP    A
        PUSH    A
        CFI CFA_SP SP+-2
        MOV     A,R4
        SWAP    A
        RLC     A
        ANL     A,#0xe0
        ANL     A,#0x60
        PUSH    A
        CFI CFA_SP SP+-3
        MOV     A,R1
        MOV     C,0xE0 /* A   */.0
        CLR     A
        MOV     0xE0 /* A   */.0,C
        RRC     A
        RRC     A
        ANL     A,#0x80
        MOV     R4,A
        POP     A
        CFI CFA_SP SP+-2
        ORL     A,R4
        MOV     R4,A
        POP     A
        CFI CFA_SP SP+-1
        ORL     A,R4
        MOV     R4,A
        POP     A
        CFI CFA_SP SP+0
        ORL     A,R4
        MOV     DPL,R2
        MOV     DPH,R3
        MOVX    @DPTR,A
// 2133   AppHead->TypeCode = TypeCode;
        MOV     A,R7
        LCALL   ?Subroutine10 & 0xFFFF
// 2134   //SerialNumber++;
// 2135   uint16 SerialNumber = 0;
// 2136   
// 2137   AppHead->sn[0] = HI_UINT16(SerialNumber);
??CrossCallReturnLabel_182:
        LCALL   ?Subroutine13 & 0xFFFF
// 2138   AppHead->sn[1] = LO_UINT16(SerialNumber);  
??CrossCallReturnLabel_34:
        MOVX    @DPTR,A
        CFI EndBlock cfiBlock334
// 2139 }
        REQUIRE ?Subroutine70
        ; // Fall through to label ?Subroutine70

        RSEG BANKED_CODE:CODE:NOROOT(0)
?Subroutine70:
        CFI Block cfiBlock335 Using cfiCommon0
        CFI NoFunction
        CFI CFA_SP SP+0
        CFI CFA_XSP16 add(XSP16, 9)
        CFI VB load(1, XDATA, add(CFA_XSP16, literal(-8)))
        CFI DPL0 load(1, XDATA, add(CFA_XSP16, literal(-2)))
        CFI DPH0 load(1, XDATA, add(CFA_XSP16, literal(-1)))
        CFI R6 load(1, XDATA, add(CFA_XSP16, literal(-9)))
        CFI R7 load(1, XDATA, add(CFA_XSP16, literal(-6)))
        CFI V0 load(1, XDATA, add(CFA_XSP16, literal(-7)))
        CFI ?BRET_EXT load(1, XDATA, add(CFA_XSP16, literal(-3)))
        CFI ?RET_HIGH load(1, XDATA, add(CFA_XSP16, literal(-4)))
        CFI ?RET_LOW load(1, XDATA, add(CFA_XSP16, literal(-5)))
        MOV     R7,#0x1
        LJMP    ?BANKED_LEAVE_XDATA
        CFI EndBlock cfiBlock335
// 2140 //带序列号的ack的头部

        RSEG BANKED_CODE:CODE:NOROOT(0)
// 2141 void fill_AppHead_sn(AppHead_t *AppHead, uint8 AckRequire, uint8 MainVersion, uint8 SubVersion, uint8 type, uint8 TypeCode,uint16 SerialNumber)
fill_AppHead_sn:
        CFI Block cfiBlock336 Using cfiCommon0
        CFI Function fill_AppHead_sn
// 2142 {
        MOV     A,#-0xa
        LCALL   ?BANKED_ENTER_XDATA
        CFI DPH0 load(1, XDATA, add(CFA_XSP16, literal(-1)))
        CFI DPL0 load(1, XDATA, add(CFA_XSP16, literal(-2)))
        CFI ?BRET_EXT load(1, XDATA, add(CFA_XSP16, literal(-3)))
        CFI ?RET_HIGH load(1, XDATA, add(CFA_XSP16, literal(-4)))
        CFI ?RET_LOW load(1, XDATA, add(CFA_XSP16, literal(-5)))
        CFI R7 load(1, XDATA, add(CFA_XSP16, literal(-6)))
        CFI V1 load(1, XDATA, add(CFA_XSP16, literal(-7)))
        CFI V0 load(1, XDATA, add(CFA_XSP16, literal(-8)))
        CFI VB load(1, XDATA, add(CFA_XSP16, literal(-9)))
        CFI R6 load(1, XDATA, add(CFA_XSP16, literal(-10)))
        CFI CFA_SP SP+0
        CFI CFA_XSP16 add(XSP16, 10)
        ; Saved register size: 10
        ; Auto size: 0
        MOV     A,R4
        MOV     R6,A
        MOV     A,R5
        MOV     R7,A
        MOV     A,#0xa
        LCALL   ?XSTACK_DISP0_8
        MOVX    A,@DPTR
        MOV     ?V0 + 0,A
        MOV     A,#0xb
        LCALL   ?XSTACK_DISP0_8
        MOVX    A,@DPTR
        MOV     ?V0 + 1,A
        MOV     A,#0xc
        LCALL   ?XSTACK_DISP0_8
        LCALL   ?Subroutine52 & 0xFFFF
// 2143   AppHead->AckRequire = AckRequire;
// 2144   AppHead->MainVersion = MainVersion;
// 2145   AppHead->SubVersion = SubVersion;
// 2146   AppHead->type = type;
??CrossCallReturnLabel_141:
        MOV     A,#0xf
        ANL     A,?V0 + 0
        PUSH    A
        CFI CFA_SP SP+-1
        MOV     A,R7
        MOV     C,0xE0 /* A   */.0
        CLR     A
        MOV     0xE0 /* A   */.0,C
        SWAP    A
        PUSH    A
        CFI CFA_SP SP+-2
        MOV     A,R6
        SWAP    A
        RLC     A
        ANL     A,#0xe0
        ANL     A,#0x60
        PUSH    A
        CFI CFA_SP SP+-3
        MOV     A,R1
        MOV     C,0xE0 /* A   */.0
        CLR     A
        MOV     0xE0 /* A   */.0,C
        RRC     A
        RRC     A
        ANL     A,#0x80
        MOV     R6,A
        POP     A
        CFI CFA_SP SP+-2
        ORL     A,R6
        MOV     R6,A
        POP     A
        CFI CFA_SP SP+-1
        ORL     A,R6
        MOV     R6,A
        POP     A
        CFI CFA_SP SP+0
        ORL     A,R6
        MOV     DPL,R2
        MOV     DPH,R3
        MOVX    @DPTR,A
// 2147   AppHead->TypeCode = TypeCode;
        INC     DPTR
        MOV     A,?V0 + 1
        MOVX    @DPTR,A
// 2148   AppHead->sn[0] = HI_UINT16(SerialNumber);
        MOV     A,R5
        MOV     DPL,R2
        MOV     DPH,R3
        INC     DPTR
        INC     DPTR
        MOVX    @DPTR,A
// 2149   AppHead->sn[1] = LO_UINT16(SerialNumber);  
        MOV     A,R4
        MOV     DPL,R2
        MOV     DPH,R3
        INC     DPTR
        INC     DPTR
        INC     DPTR
        MOVX    @DPTR,A
// 2150 }
        LJMP    ??Subroutine60_0 & 0xFFFF
        CFI EndBlock cfiBlock336
// 2151 /*********************************************************************
// 2152  * @fn      fill_NodeId_time
// 2153  *
// 2154  * @brief   
// 2155  *
// 2156  * @param   none
// 2157  *
// 2158  * @return  none
// 2159  */

        RSEG BANKED_CODE:CODE:NOROOT(0)
// 2160 void fill_NodeId_time(NodeIdAndTime_t *NodeIdAndTime,uint8 ARM_Id,uint8 Zigbee_Id,uint8 sensor_type)
fill_NodeId_time:
        CFI Block cfiBlock337 Using cfiCommon0
        CFI Function fill_NodeId_time
// 2161 {
        FUNCALL fill_NodeId_time, osal_GetSystemClock
        LOCFRAME ISTACK, 0, STACK
        LOCFRAME PSTACK, 0, STACK
        LOCFRAME XSTACK, 15, STACK
        LOCFRAME IOVERLAY, 0, STATIC
        LOCFRAME DOVERLAY, 0, STATIC
        ARGFRAME ISTACK, 0, STACK
        ARGFRAME PSTACK, 0, STACK
        ARGFRAME XSTACK, 15, STACK
        ARGFRAME IOVERLAY, 0, STATIC
        ARGFRAME DOVERLAY, 0, STATIC
        MOV     A,#-0xf
        LCALL   ?BANKED_ENTER_XDATA
        CFI DPH0 load(1, XDATA, add(CFA_XSP16, literal(-1)))
        CFI DPL0 load(1, XDATA, add(CFA_XSP16, literal(-2)))
        CFI ?BRET_EXT load(1, XDATA, add(CFA_XSP16, literal(-3)))
        CFI ?RET_HIGH load(1, XDATA, add(CFA_XSP16, literal(-4)))
        CFI ?RET_LOW load(1, XDATA, add(CFA_XSP16, literal(-5)))
        CFI R7 load(1, XDATA, add(CFA_XSP16, literal(-6)))
        CFI V6 load(1, XDATA, add(CFA_XSP16, literal(-7)))
        CFI V5 load(1, XDATA, add(CFA_XSP16, literal(-8)))
        CFI V4 load(1, XDATA, add(CFA_XSP16, literal(-9)))
        CFI V3 load(1, XDATA, add(CFA_XSP16, literal(-10)))
        CFI V2 load(1, XDATA, add(CFA_XSP16, literal(-11)))
        CFI V1 load(1, XDATA, add(CFA_XSP16, literal(-12)))
        CFI V0 load(1, XDATA, add(CFA_XSP16, literal(-13)))
        CFI VB load(1, XDATA, add(CFA_XSP16, literal(-14)))
        CFI R6 load(1, XDATA, add(CFA_XSP16, literal(-15)))
        CFI CFA_SP SP+0
        CFI CFA_XSP16 add(XSP16, 15)
        ; Saved register size: 15
        ; Auto size: 0
        MOV     A,R2
        MOV     R6,A
        MOV     A,R3
        MOV     R7,A
        MOV     ?V0 + 6,R1
        MOV     ?V0 + 5,R4
        MOV     ?V0 + 4,R5
// 2162   /*uint32*/ now = osal_GetSystemClock();  
        ; Setup parameters for call to function osal_GetSystemClock
        LCALL   ??osal_GetSystemClock?relay
        MOV     DPTR,#now
        MOV     A,R2
        MOVX    @DPTR,A
        INC     DPTR
        MOV     A,R3
        MOVX    @DPTR,A
        INC     DPTR
        MOV     A,R4
        MOVX    @DPTR,A
        INC     DPTR
        LCALL   ?Subroutine3 & 0xFFFF
// 2163   NodeIdAndTime->time[0] = BREAK_UINT32(now, 3);
??CrossCallReturnLabel_9:
        LCALL   ?L_MOV_X
        MOV     DPL,R6
        MOV     DPH,R7
        LCALL   ?Subroutine3 & 0xFFFF
// 2164   NodeIdAndTime->time[1] = BREAK_UINT32(now, 2);
??CrossCallReturnLabel_10:
        LCALL   ?L_MOV_X
        MOV     A,#0x10
        MOV     R0,#?V0 + 0
        LCALL   ?UL_SHR
        MOV     DPL,R6
        MOV     DPH,R7
        INC     DPTR
        MOV     A,?V0 + 0
        LCALL   ??Subroutine3_0 & 0xFFFF
// 2165   NodeIdAndTime->time[2] = BREAK_UINT32(now, 1);
??CrossCallReturnLabel_11:
        LCALL   ?L_MOV_X
        MOV     A,?V0 + 1
        MOV     DPL,R6
        MOV     DPH,R7
        INC     DPTR
        INC     DPTR
        LCALL   ??Subroutine3_0 & 0xFFFF
// 2166   NodeIdAndTime->time[3] = BREAK_UINT32(now, 0); 
??CrossCallReturnLabel_12:
        LCALL   ?L_MOV_X
        MOV     DPL,R6
        MOV     DPH,R7
        INC     DPTR
        INC     DPTR
        INC     DPTR
        MOV     A,?V0 + 0
        MOVX    @DPTR,A
// 2167   NodeIdAndTime->NodeId.r=RES;
// 2168   NodeIdAndTime->NodeId.ARM_id=ARM_Id;
        MOV     A,#0xf
        ANL     A,?V0 + 6
        PUSH    A
        CFI CFA_SP SP+-1
        MOV     DPTR,#RES
        MOVX    A,@DPTR
        SWAP    A
        ANL     A,#0xf0
        MOV     R2,A
        POP     A
        CFI CFA_SP SP+0
        LCALL   ?Subroutine45 & 0xFFFF
??CrossCallReturnLabel_180:
        MOVX    @DPTR,A
// 2169   NodeIdAndTime->NodeId.Zigbee_id = Zigbee_Id;
// 2170   NodeIdAndTime->NodeId.sensor_type=sensor_type;
        MOV     A,#0xf
        ANL     A,?V0 + 4
        PUSH    A
        CFI CFA_SP SP+-1
        MOV     A,?V0 + 5
        SWAP    A
        ANL     A,#0xf0
        MOV     R2,A
        POP     A
        CFI CFA_SP SP+0
        LCALL   ?Subroutine45 & 0xFFFF
??CrossCallReturnLabel_181:
        INC     DPTR
        MOVX    @DPTR,A
// 2171 }
        MOV     R7,#0x7
        LJMP    ?BANKED_LEAVE_XDATA
        CFI EndBlock cfiBlock337

        RSEG BANKED_CODE:CODE:NOROOT(0)
?Subroutine45:
        CFI Block cfiCond338 Using cfiCommon0
        CFI NoFunction
        CFI Conditional ??CrossCallReturnLabel_180
        CFI R6 load(1, XDATA, add(CFA_XSP16, literal(-15)))
        CFI VB load(1, XDATA, add(CFA_XSP16, literal(-14)))
        CFI V0 load(1, XDATA, add(CFA_XSP16, literal(-13)))
        CFI V1 load(1, XDATA, add(CFA_XSP16, literal(-12)))
        CFI V2 load(1, XDATA, add(CFA_XSP16, literal(-11)))
        CFI V3 load(1, XDATA, add(CFA_XSP16, literal(-10)))
        CFI V4 load(1, XDATA, add(CFA_XSP16, literal(-9)))
        CFI V5 load(1, XDATA, add(CFA_XSP16, literal(-8)))
        CFI V6 load(1, XDATA, add(CFA_XSP16, literal(-7)))
        CFI R7 load(1, XDATA, add(CFA_XSP16, literal(-6)))
        CFI ?RET_LOW load(1, XDATA, add(CFA_XSP16, literal(-5)))
        CFI ?RET_HIGH load(1, XDATA, add(CFA_XSP16, literal(-4)))
        CFI ?BRET_EXT load(1, XDATA, add(CFA_XSP16, literal(-3)))
        CFI DPL0 load(1, XDATA, add(CFA_XSP16, literal(-2)))
        CFI DPH0 load(1, XDATA, add(CFA_XSP16, literal(-1)))
        CFI CFA_SP SP+0
        CFI CFA_XSP16 add(XSP16, 15)
        CFI Block cfiCond339 Using cfiCommon0
        CFI (cfiCond339) NoFunction
        CFI (cfiCond339) Conditional ??CrossCallReturnLabel_181
        CFI (cfiCond339) R6 load(1, XDATA, add(CFA_XSP16, literal(-15)))
        CFI (cfiCond339) VB load(1, XDATA, add(CFA_XSP16, literal(-14)))
        CFI (cfiCond339) V0 load(1, XDATA, add(CFA_XSP16, literal(-13)))
        CFI (cfiCond339) V1 load(1, XDATA, add(CFA_XSP16, literal(-12)))
        CFI (cfiCond339) V2 load(1, XDATA, add(CFA_XSP16, literal(-11)))
        CFI (cfiCond339) V3 load(1, XDATA, add(CFA_XSP16, literal(-10)))
        CFI (cfiCond339) V4 load(1, XDATA, add(CFA_XSP16, literal(-9)))
        CFI (cfiCond339) V5 load(1, XDATA, add(CFA_XSP16, literal(-8)))
        CFI (cfiCond339) V6 load(1, XDATA, add(CFA_XSP16, literal(-7)))
        CFI (cfiCond339) R7 load(1, XDATA, add(CFA_XSP16, literal(-6)))
        CFI (cfiCond339) ?RET_LOW load(1, XDATA, add(CFA_XSP16, literal(-5)))
        CFI (cfiCond339) ?RET_HIGH load(1, XDATA, add(CFA_XSP16, literal(-4)))
        CFI (cfiCond339) ?BRET_EXT load(1, XDATA, add(CFA_XSP16, literal(-3)))
        CFI (cfiCond339) DPL0 load(1, XDATA, add(CFA_XSP16, literal(-2)))
        CFI (cfiCond339) DPH0 load(1, XDATA, add(CFA_XSP16, literal(-1)))
        CFI (cfiCond339) CFA_SP SP+0
        CFI (cfiCond339) CFA_XSP16 add(XSP16, 15)
        CFI Block cfiPicker340 Using cfiCommon1
        CFI (cfiPicker340) NoFunction
        CFI (cfiPicker340) Picker
        ORL     A,R2
        MOV     DPL,R6
        MOV     DPH,R7
        LJMP    ?Subroutine64 & 0xFFFF
        CFI EndBlock cfiCond338
        CFI EndBlock cfiCond339
        CFI EndBlock cfiPicker340

        RSEG BANKED_CODE:CODE:NOROOT(0)
?Subroutine3:
        CFI Block cfiCond341 Using cfiCommon0
        CFI NoFunction
        CFI Conditional ??CrossCallReturnLabel_9
        CFI R6 load(1, XDATA, add(CFA_XSP16, literal(-15)))
        CFI VB load(1, XDATA, add(CFA_XSP16, literal(-14)))
        CFI V0 load(1, XDATA, add(CFA_XSP16, literal(-13)))
        CFI V1 load(1, XDATA, add(CFA_XSP16, literal(-12)))
        CFI V2 load(1, XDATA, add(CFA_XSP16, literal(-11)))
        CFI V3 load(1, XDATA, add(CFA_XSP16, literal(-10)))
        CFI V4 load(1, XDATA, add(CFA_XSP16, literal(-9)))
        CFI V5 load(1, XDATA, add(CFA_XSP16, literal(-8)))
        CFI V6 load(1, XDATA, add(CFA_XSP16, literal(-7)))
        CFI R7 load(1, XDATA, add(CFA_XSP16, literal(-6)))
        CFI ?RET_LOW load(1, XDATA, add(CFA_XSP16, literal(-5)))
        CFI ?RET_HIGH load(1, XDATA, add(CFA_XSP16, literal(-4)))
        CFI ?BRET_EXT load(1, XDATA, add(CFA_XSP16, literal(-3)))
        CFI DPL0 load(1, XDATA, add(CFA_XSP16, literal(-2)))
        CFI DPH0 load(1, XDATA, add(CFA_XSP16, literal(-1)))
        CFI CFA_SP SP+0
        CFI CFA_XSP16 add(XSP16, 15)
        CFI Block cfiCond342 Using cfiCommon0
        CFI (cfiCond342) NoFunction
        CFI (cfiCond342) Conditional ??CrossCallReturnLabel_10
        CFI (cfiCond342) R6 load(1, XDATA, add(CFA_XSP16, literal(-15)))
        CFI (cfiCond342) VB load(1, XDATA, add(CFA_XSP16, literal(-14)))
        CFI (cfiCond342) V0 load(1, XDATA, add(CFA_XSP16, literal(-13)))
        CFI (cfiCond342) V1 load(1, XDATA, add(CFA_XSP16, literal(-12)))
        CFI (cfiCond342) V2 load(1, XDATA, add(CFA_XSP16, literal(-11)))
        CFI (cfiCond342) V3 load(1, XDATA, add(CFA_XSP16, literal(-10)))
        CFI (cfiCond342) V4 load(1, XDATA, add(CFA_XSP16, literal(-9)))
        CFI (cfiCond342) V5 load(1, XDATA, add(CFA_XSP16, literal(-8)))
        CFI (cfiCond342) V6 load(1, XDATA, add(CFA_XSP16, literal(-7)))
        CFI (cfiCond342) R7 load(1, XDATA, add(CFA_XSP16, literal(-6)))
        CFI (cfiCond342) ?RET_LOW load(1, XDATA, add(CFA_XSP16, literal(-5)))
        CFI (cfiCond342) ?RET_HIGH load(1, XDATA, add(CFA_XSP16, literal(-4)))
        CFI (cfiCond342) ?BRET_EXT load(1, XDATA, add(CFA_XSP16, literal(-3)))
        CFI (cfiCond342) DPL0 load(1, XDATA, add(CFA_XSP16, literal(-2)))
        CFI (cfiCond342) DPH0 load(1, XDATA, add(CFA_XSP16, literal(-1)))
        CFI (cfiCond342) CFA_SP SP+0
        CFI (cfiCond342) CFA_XSP16 add(XSP16, 15)
        CFI Block cfiPicker343 Using cfiCommon1
        CFI (cfiPicker343) NoFunction
        CFI (cfiPicker343) Picker
        MOV     A,R5
        CFI Block cfiCond344 Using cfiCommon0
        CFI (cfiCond344) NoFunction
        CFI (cfiCond344) Conditional ??CrossCallReturnLabel_11
        CFI (cfiCond344) R6 load(1, XDATA, add(CFA_XSP16, literal(-15)))
        CFI (cfiCond344) VB load(1, XDATA, add(CFA_XSP16, literal(-14)))
        CFI (cfiCond344) V0 load(1, XDATA, add(CFA_XSP16, literal(-13)))
        CFI (cfiCond344) V1 load(1, XDATA, add(CFA_XSP16, literal(-12)))
        CFI (cfiCond344) V2 load(1, XDATA, add(CFA_XSP16, literal(-11)))
        CFI (cfiCond344) V3 load(1, XDATA, add(CFA_XSP16, literal(-10)))
        CFI (cfiCond344) V4 load(1, XDATA, add(CFA_XSP16, literal(-9)))
        CFI (cfiCond344) V5 load(1, XDATA, add(CFA_XSP16, literal(-8)))
        CFI (cfiCond344) V6 load(1, XDATA, add(CFA_XSP16, literal(-7)))
        CFI (cfiCond344) R7 load(1, XDATA, add(CFA_XSP16, literal(-6)))
        CFI (cfiCond344) ?RET_LOW load(1, XDATA, add(CFA_XSP16, literal(-5)))
        CFI (cfiCond344) ?RET_HIGH load(1, XDATA, add(CFA_XSP16, literal(-4)))
        CFI (cfiCond344) ?BRET_EXT load(1, XDATA, add(CFA_XSP16, literal(-3)))
        CFI (cfiCond344) DPL0 load(1, XDATA, add(CFA_XSP16, literal(-2)))
        CFI (cfiCond344) DPH0 load(1, XDATA, add(CFA_XSP16, literal(-1)))
        CFI (cfiCond344) CFA_SP SP+0
        CFI (cfiCond344) CFA_XSP16 add(XSP16, 15)
        CFI Block cfiCond345 Using cfiCommon0
        CFI (cfiCond345) NoFunction
        CFI (cfiCond345) Conditional ??CrossCallReturnLabel_12
        CFI (cfiCond345) R6 load(1, XDATA, add(CFA_XSP16, literal(-15)))
        CFI (cfiCond345) VB load(1, XDATA, add(CFA_XSP16, literal(-14)))
        CFI (cfiCond345) V0 load(1, XDATA, add(CFA_XSP16, literal(-13)))
        CFI (cfiCond345) V1 load(1, XDATA, add(CFA_XSP16, literal(-12)))
        CFI (cfiCond345) V2 load(1, XDATA, add(CFA_XSP16, literal(-11)))
        CFI (cfiCond345) V3 load(1, XDATA, add(CFA_XSP16, literal(-10)))
        CFI (cfiCond345) V4 load(1, XDATA, add(CFA_XSP16, literal(-9)))
        CFI (cfiCond345) V5 load(1, XDATA, add(CFA_XSP16, literal(-8)))
        CFI (cfiCond345) V6 load(1, XDATA, add(CFA_XSP16, literal(-7)))
        CFI (cfiCond345) R7 load(1, XDATA, add(CFA_XSP16, literal(-6)))
        CFI (cfiCond345) ?RET_LOW load(1, XDATA, add(CFA_XSP16, literal(-5)))
        CFI (cfiCond345) ?RET_HIGH load(1, XDATA, add(CFA_XSP16, literal(-4)))
        CFI (cfiCond345) ?BRET_EXT load(1, XDATA, add(CFA_XSP16, literal(-3)))
        CFI (cfiCond345) DPL0 load(1, XDATA, add(CFA_XSP16, literal(-2)))
        CFI (cfiCond345) DPH0 load(1, XDATA, add(CFA_XSP16, literal(-1)))
        CFI (cfiCond345) CFA_SP SP+0
        CFI (cfiCond345) CFA_XSP16 add(XSP16, 15)
??Subroutine3_0:
        MOVX    @DPTR,A
        MOV     DPTR,#now
        MOV     R0,#?V0 + 0
        RET
        CFI EndBlock cfiCond341
        CFI EndBlock cfiCond342
        CFI EndBlock cfiPicker343
        CFI EndBlock cfiCond344
        CFI EndBlock cfiCond345
// 2172 
// 2173 /*********************************************************************
// 2174  * @fn      SendMsg
// 2175  *
// 2176  * @brief   
// 2177  *
// 2178  * @param   none
// 2179  *
// 2180  * @return  none
// 2181  */

        RSEG BANKED_CODE:CODE:NOROOT(0)
// 2182 void SendMsg(uint8 *msg, uint8 MsgSize, afAddrType_t Dst, uint8 options,uint16 cID)
SendMsg:
        CFI Block cfiBlock346 Using cfiCommon0
        CFI Function SendMsg
// 2183 {
        FUNCALL SendMsg, p2p_test_SendToUart
        LOCFRAME ISTACK, 0, STACK
        LOCFRAME PSTACK, 0, STACK
        LOCFRAME XSTACK, 12, STACK
        LOCFRAME IOVERLAY, 0, STATIC
        LOCFRAME DOVERLAY, 0, STATIC
        ARGFRAME ISTACK, 0, STACK
        ARGFRAME PSTACK, 0, STACK
        ARGFRAME XSTACK, 12, STACK
        ARGFRAME IOVERLAY, 0, STATIC
        ARGFRAME DOVERLAY, 0, STATIC
        FUNCALL SendMsg, AF_DataRequest
        LOCFRAME ISTACK, 0, STACK
        LOCFRAME PSTACK, 0, STACK
        LOCFRAME XSTACK, 21, STACK
        LOCFRAME IOVERLAY, 0, STATIC
        LOCFRAME DOVERLAY, 0, STATIC
        ARGFRAME ISTACK, 0, STACK
        ARGFRAME PSTACK, 0, STACK
        ARGFRAME XSTACK, 21, STACK
        ARGFRAME IOVERLAY, 0, STATIC
        ARGFRAME DOVERLAY, 0, STATIC
        MOV     A,#-0xc
        LCALL   ?BANKED_ENTER_XDATA
        CFI DPH0 load(1, XDATA, add(CFA_XSP16, literal(-1)))
        CFI DPL0 load(1, XDATA, add(CFA_XSP16, literal(-2)))
        CFI ?BRET_EXT load(1, XDATA, add(CFA_XSP16, literal(-3)))
        CFI ?RET_HIGH load(1, XDATA, add(CFA_XSP16, literal(-4)))
        CFI ?RET_LOW load(1, XDATA, add(CFA_XSP16, literal(-5)))
        CFI R7 load(1, XDATA, add(CFA_XSP16, literal(-6)))
        CFI V3 load(1, XDATA, add(CFA_XSP16, literal(-7)))
        CFI V2 load(1, XDATA, add(CFA_XSP16, literal(-8)))
        CFI V1 load(1, XDATA, add(CFA_XSP16, literal(-9)))
        CFI V0 load(1, XDATA, add(CFA_XSP16, literal(-10)))
        CFI VB load(1, XDATA, add(CFA_XSP16, literal(-11)))
        CFI R6 load(1, XDATA, add(CFA_XSP16, literal(-12)))
        CFI CFA_SP SP+0
        CFI CFA_XSP16 add(XSP16, 12)
        ; Saved register size: 12
        ; Auto size: 0
        MOV     ?V0 + 0,R2
        MOV     ?V0 + 1,R3
        MOV     A,R1
        MOV     R6,A
        MOV     A,R4
        MOV     R1,A
        MOV     A,#0x10
        LCALL   ?XSTACK_DISP0_8
        LCALL   ?Subroutine62 & 0xFFFF
// 2184   if ( p2p_test_NwkState == DEV_ZB_COORD )
??CrossCallReturnLabel_171:
        MOV     DPTR,#p2p_test_NwkState
        MOVX    A,@DPTR
        XRL     A,#0x9
        JNZ     ??SendMsg_0
// 2185   {
// 2186     p2p_test_SendToUart(msg, MsgSize);
??SendMsg_1:
        ; Setup parameters for call to function p2p_test_SendToUart
        MOV     A,R6
        MOV     R1,A
        MOV     R2,?V0 + 0
        MOV     R3,?V0 + 1
        LCALL   ??p2p_test_SendToUart?relay
// 2187   }
// 2188   else
// 2189   {
// 2190     AF_DataRequest( &Dst, &p2p_test_epDesc,
// 2191                        cID,
// 2192                        MsgSize,
// 2193                        msg,
// 2194                        &p2p_test_TransID,
// 2195                        options, AF_DEFAULT_RADIUS );
// 2196 #if DEBUG
// 2197           p2p_test_SendToUart(msg, MsgSize);//添加部分 普通发串口
// 2198 #endif
// 2199   }  
// 2200 }
        LJMP    ??Subroutine69_0 & 0xFFFF
??SendMsg_0:
        ; Setup parameters for call to function AF_DataRequest
        MOV     ?V0 + 2,#0xa
        MOV     R0,#?V0 + 2
        LCALL   ?PUSH_XSTACK_I_ONE
        CFI CFA_XSP16 add(XSP16, 13)
        MOV     ?V0 + 2,#(p2p_test_TransID & 0xff)
        MOV     ?V0 + 3,#((p2p_test_TransID >> 8) & 0xff)
        MOV     R0,#?V0 + 2
        LCALL   ?PUSH_XSTACK_I_TWO
        CFI CFA_XSP16 add(XSP16, 15)
        MOV     R0,#?V0 + 0
        LCALL   ?PUSH_XSTACK_I_TWO
        CFI CFA_XSP16 add(XSP16, 17)
        MOV     ?V0 + 2,R6
        MOV     ?V0 + 3,#0x0
        MOV     R0,#?V0 + 2
        LCALL   ?PUSH_XSTACK_I_TWO
        CFI CFA_XSP16 add(XSP16, 19)
        MOV     ?V0 + 2,R2
        MOV     ?V0 + 3,R3
        MOV     R0,#?V0 + 2
        LCALL   ?PUSH_XSTACK_I_TWO
        CFI CFA_XSP16 add(XSP16, 21)
        MOV     R4,#(p2p_test_epDesc & 0xff)
        MOV     R5,#((p2p_test_epDesc >> 8) & 0xff)
        MOV     A,#0x15
        LCALL   ?XSTACK_DISP0_8
        MOV     R2,DPL
        MOV     R3,DPH
        LCALL   ??AF_DataRequest?relay
        MOV     A,#0x9
        LCALL   ?DEALLOC_XSTACK8
        CFI CFA_XSP16 add(XSP16, 12)
        SJMP    ??SendMsg_1
        CFI EndBlock cfiBlock346
// 2201 
// 2202 /*********************************************************************
// 2203  * @fn      p2p_test_SendResetRelativeTime
// 2204  *
// 2205  * @brief   
// 2206  *
// 2207  * @param   none
// 2208  *
// 2209  * @return  none
// 2210  */
// 2211 //void p2p_test_SendResetRelativeTime( void )
// 2212 //{
// 2213   /*
// 2214   ResetTimeMsg_t ResetTimeMsg;
// 2215   
// 2216   fill_AppHead((AppHead_t *)&ResetTimeMsg.AppHead, ACK_YES, MAIN_VERSION, SUB_VERSION, TYPE_MAINTAIN, TYPE_CODE_MAINTAIN_RESET_TIME);
// 2217   fill_NodeId_time((NodeIdAndTime_t *)&temp_water_gage.NodeIdAndTime,ARM_ID,Zigbee_ID,0);//start from load 
// 2218   
// 2219   SendMsg((uint8 *)&ResetTimeMsg, sizeof(ResetTimeMsg), p2p_test_DstAddr, AF_DISCV_ROUTE|AF_ACK_REQUEST,p2p_test_RealtionMsg);//need ack 
// 2220   */
// 2221 //}
// 2222 
// 2223 /*********************************************************************
// 2224  * @fn      p2p_test_SendRelationPkt
// 2225  *
// 2226  * @brief   
// 2227  *
// 2228  * @param   none
// 2229  *
// 2230  * @return  none
// 2231  */

        RSEG BANKED_CODE:CODE:NOROOT(0)
// 2232 void p2p_test_SendRelationPkt()
p2p_test_SendRelationPkt:
        CFI Block cfiBlock347 Using cfiCommon0
        CFI Function p2p_test_SendRelationPkt
// 2233 {
        FUNCALL p2p_test_SendRelationPkt, osal_start_timerEx
        LOCFRAME ISTACK, 0, STACK
        LOCFRAME PSTACK, 0, STACK
        LOCFRAME XSTACK, 32, STACK
        LOCFRAME IOVERLAY, 0, STATIC
        LOCFRAME DOVERLAY, 0, STATIC
        ARGFRAME ISTACK, 0, STACK
        ARGFRAME PSTACK, 0, STACK
        ARGFRAME XSTACK, 32, STACK
        ARGFRAME IOVERLAY, 0, STATIC
        ARGFRAME DOVERLAY, 0, STATIC
        FUNCALL p2p_test_SendRelationPkt, fill_AppHead
        LOCFRAME ISTACK, 0, STACK
        LOCFRAME PSTACK, 0, STACK
        LOCFRAME XSTACK, 34, STACK
        LOCFRAME IOVERLAY, 0, STATIC
        LOCFRAME DOVERLAY, 0, STATIC
        ARGFRAME ISTACK, 0, STACK
        ARGFRAME PSTACK, 0, STACK
        ARGFRAME XSTACK, 34, STACK
        ARGFRAME IOVERLAY, 0, STATIC
        ARGFRAME DOVERLAY, 0, STATIC
        FUNCALL p2p_test_SendRelationPkt, SendMsg
        LOCFRAME ISTACK, 0, STACK
        LOCFRAME PSTACK, 0, STACK
        LOCFRAME XSTACK, 38, STACK
        LOCFRAME IOVERLAY, 0, STATIC
        LOCFRAME DOVERLAY, 0, STATIC
        ARGFRAME ISTACK, 0, STACK
        ARGFRAME PSTACK, 0, STACK
        ARGFRAME XSTACK, 38, STACK
        ARGFRAME IOVERLAY, 0, STATIC
        ARGFRAME DOVERLAY, 0, STATIC
        FUNCALL p2p_test_SendRelationPkt, SendMsg
        LOCFRAME ISTACK, 0, STACK
        LOCFRAME PSTACK, 0, STACK
        LOCFRAME XSTACK, 38, STACK
        LOCFRAME IOVERLAY, 0, STATIC
        LOCFRAME DOVERLAY, 0, STATIC
        ARGFRAME ISTACK, 0, STACK
        ARGFRAME PSTACK, 0, STACK
        ARGFRAME XSTACK, 38, STACK
        ARGFRAME IOVERLAY, 0, STATIC
        ARGFRAME DOVERLAY, 0, STATIC
        MOV     A,#-0xa
        LCALL   ?BANKED_ENTER_XDATA
        CFI DPH0 load(1, XDATA, add(CFA_XSP16, literal(-1)))
        CFI DPL0 load(1, XDATA, add(CFA_XSP16, literal(-2)))
        CFI ?BRET_EXT load(1, XDATA, add(CFA_XSP16, literal(-3)))
        CFI ?RET_HIGH load(1, XDATA, add(CFA_XSP16, literal(-4)))
        CFI ?RET_LOW load(1, XDATA, add(CFA_XSP16, literal(-5)))
        CFI R7 load(1, XDATA, add(CFA_XSP16, literal(-6)))
        CFI V1 load(1, XDATA, add(CFA_XSP16, literal(-7)))
        CFI V0 load(1, XDATA, add(CFA_XSP16, literal(-8)))
        CFI VB load(1, XDATA, add(CFA_XSP16, literal(-9)))
        CFI R6 load(1, XDATA, add(CFA_XSP16, literal(-10)))
        CFI CFA_SP SP+0
        CFI CFA_XSP16 add(XSP16, 10)
        ; Saved register size: 10
        ; Auto size: 22
        MOV     A,#-0x16
        LCALL   ?ALLOC_XSTACK8
        CFI CFA_XSP16 add(XSP16, 32)
// 2234   osal_start_timerEx( p2p_test_TaskID,
// 2235                      p2p_test_SEND_MAINTAIN_MSG_EVT,10000);  //10s一次关联报文
        ; Setup parameters for call to function osal_start_timerEx
        MOV     R4,#0x10
        MOV     R5,#0x27
        MOV     R2,#0x1
        LCALL   ??Subroutine32_0 & 0xFFFF
// 2236   RelationMsg_t RelationMsg;
// 2237   uint16 num;
// 2238   num=0;
// 2239   //zigbee's own id
// 2240   RelationMsg.NodeId[0].r=0x00;
// 2241   RelationMsg.NodeId[0].ARM_id=ARM_ID;
??CrossCallReturnLabel_89:
        MOV     DPTR,#ARM_ID
        MOVX    A,@DPTR
        ANL     A,#0xf
        PUSH    A
        CFI CFA_SP SP+-1
        MOV     A,#0x6
        LCALL   ?XSTACK_DISP0_8
        POP     A
        CFI CFA_SP SP+0
        MOVX    @DPTR,A
// 2242   RelationMsg.NodeId[0].Zigbee_id=Zigbee_ID;
// 2243   RelationMsg.NodeId[0].sensor_type=0;
        MOV     DPTR,#Zigbee_ID
        MOVX    A,@DPTR
        SWAP    A
        ANL     A,#0xf0
        PUSH    A
        CFI CFA_SP SP+-1
        MOV     A,#0x7
        LCALL   ?XSTACK_DISP0_8
        POP     A
        CFI CFA_SP SP+0
        MOVX    @DPTR,A
// 2244   #if RAIN_FLAG!=0
// 2245      num++;
// 2246      RelationMsg.NodeId[num].sensor_type=RAIN_ID;
// 2247   #endif
// 2248   #if SOIL_FLAG!=0
// 2249      num++;
// 2250      RelationMsg.NodeId[num].sensor_type=SOIL_ID;
// 2251   #endif
// 2252   #if WATER_GAGE_FLAG!=0
// 2253      num++;
// 2254      RelationMsg.NodeId[num].sensor_type=WATER_GAGE_ID;
// 2255   #endif
// 2256   #if EARTHQUAKE_FLAG!=0
// 2257      num++;
// 2258      RelationMsg.NodeId[num].sensor_type=EARTHQUAKE_ID;
// 2259   #endif
// 2260   #if PORE_FLAG!=0
// 2261      num++;
// 2262      RelationMsg.NodeId[num].sensor_type=PORE_ID;
// 2263   #endif
// 2264   
// 2265   uint8 i;
// 2266   for(i=1;i<=num;i++)
// 2267   {
// 2268     RelationMsg.NodeId[i].r=0;
// 2269     RelationMsg.NodeId[i].ARM_id=ARM_ID;
// 2270     RelationMsg.NodeId[i].Zigbee_id=Zigbee_ID;
// 2271   }
// 2272   fill_AppHead((AppHead_t *)&RelationMsg.AppHead, ACK_YES, MAIN_VERSION, SUB_VERSION, TYPE_MAINTAIN,RELATION_MSG_UP);
        ; Setup parameters for call to function fill_AppHead
        MOV     ?V0 + 0,#0x1
        MOV     R0,#?V0 + 0
        LCALL   ?PUSH_XSTACK_I_ONE
        CFI CFA_XSP16 add(XSP16, 33)
        MOV     R0,#?V0 + 0
        LCALL   ?PUSH_XSTACK_I_ONE
        CFI CFA_XSP16 add(XSP16, 34)
        MOV     R5,#0x1
        MOV     R4,#0x0
        MOV     R1,#0x1
        MOV     A,#0x2
        LCALL   ?XSTACK_DISP0_8
        MOV     R2,DPL
        MOV     R3,DPH
        LCALL   ??fill_AppHead?relay
        MOV     A,#0x2
        LCALL   ?DEALLOC_XSTACK8
        CFI CFA_XSP16 add(XSP16, 32)
// 2273   if(0==Zigbee_ID)//first send RelationMsg
        MOV     DPTR,#Zigbee_ID
        MOVX    A,@DPTR
        JNZ     ??p2p_test_SendRelationPkt_0
// 2274   {
// 2275     
// 2276     RelationMsg.Num[0]=0x00;
        MOV     A,#0x4
        LCALL   ?XSTACK_DISP0_8
        CLR     A
        MOVX    @DPTR,A
// 2277     RelationMsg.Num[1]=0x00;
        MOV     A,#0x5
        LCALL   ?XSTACK_DISP0_8
        CLR     A
        MOVX    @DPTR,A
// 2278    // SendMsg((uint8 *)&RelationMsg, sizeof(RelationMsg)-2*(MAX_ID-0), p2p_test_DstAddr, AF_DISCV_ROUTE,p2p_test_RelationMsg);//need ack
// 2279     //EndDevice print
// 2280    // HalUARTWrite(0,&Zigbee_ID,1);
// 2281     SendMsg((uint8 *)&RelationMsg, sizeof(RelationMsg), p2p_test_DstAddr, AF_DISCV_ROUTE,p2p_test_RelationMsg);
        ; Setup parameters for call to function SendMsg
        MOV     ?V0 + 0,#0x4
        MOV     ?V0 + 1,A
        SJMP    ??p2p_test_SendRelationPkt_1
// 2282   }
// 2283   else      //second send RElationMsg
// 2284   {
// 2285     RelationMsg.Num[0]=HI_UINT16(num+1);
??p2p_test_SendRelationPkt_0:
        MOV     A,#0x4
        LCALL   ?XSTACK_DISP0_8
        CLR     A
        MOVX    @DPTR,A
// 2286     RelationMsg.Num[1]=LO_UINT16(num+1);
        MOV     A,#0x5
        LCALL   ?XSTACK_DISP0_8
        MOV     A,#0x1
        MOVX    @DPTR,A
// 2287   //  SendMsg((uint8 *)&RelationMsg, sizeof(RelationMsg)-2*(MAX_ID-num-1), p2p_test_DstAddr, AF_DISCV_ROUTE,p2p_test_RelationMsg);//need ack
// 2288     SendMsg((uint8 *)&RelationMsg, sizeof(RelationMsg), p2p_test_DstAddr, AF_DISCV_ROUTE,p2p_test_RelationMsg);
        ; Setup parameters for call to function SendMsg
        MOV     ?V0 + 0,#0x4
        MOV     ?V0 + 1,#0x0
??p2p_test_SendRelationPkt_1:
        MOV     R0,#?V0 + 0
        LCALL   ?PUSH_XSTACK_I_TWO
        CFI CFA_XSP16 add(XSP16, 34)
        MOV     DPTR,#p2p_test_DstAddr
        MOV     A,#0x4
        LCALL   ?PUSH_XSTACK8_X
        CFI CFA_XSP16 add(XSP16, 38)
        MOV     R4,#0x20
        MOV     R1,#0x16
        MOV     A,#0x6
        LCALL   ?XSTACK_DISP0_8
        MOV     R2,DPL
        MOV     R3,DPH
        LCALL   ??Subroutine43_0 & 0xFFFF
??CrossCallReturnLabel_125:
        LCALL   ?DEALLOC_XSTACK8
        CFI CFA_XSP16 add(XSP16, 32)
// 2289     //EndDevice print
// 2290    //HalUARTWrite(0,&Zigbee_ID,1);
// 2291   }
// 2292 
// 2293   
// 2294  // shortaddr = NLME_GetShortAddr();
// 2295   //RelationMsg.ShortAddr[0] = HI_UINT16(shortaddr);
// 2296  // RelationMsg.ShortAddr[1] = LO_UINT16(shortaddr);
// 2297     
// 2298 }
        MOV     A,#0x16
        LJMP    ?Subroutine60 & 0xFFFF
        CFI EndBlock cfiBlock347

        RSEG BANKED_CODE:CODE:NOROOT(0)
?Subroutine43:
        CFI Block cfiCond348 Using cfiCommon0
        CFI NoFunction
        CFI Conditional ??CrossCallReturnLabel_114
        CFI R6 load(1, XDATA, add(CFA_XSP16, literal(-16)))
        CFI VB load(1, XDATA, add(CFA_XSP16, literal(-15)))
        CFI V0 load(1, XDATA, add(CFA_XSP16, literal(-14)))
        CFI V1 load(1, XDATA, add(CFA_XSP16, literal(-13)))
        CFI V2 load(1, XDATA, add(CFA_XSP16, literal(-12)))
        CFI V3 load(1, XDATA, add(CFA_XSP16, literal(-11)))
        CFI V4 load(1, XDATA, add(CFA_XSP16, literal(-10)))
        CFI V5 load(1, XDATA, add(CFA_XSP16, literal(-9)))
        CFI V6 load(1, XDATA, add(CFA_XSP16, literal(-8)))
        CFI V7 load(1, XDATA, add(CFA_XSP16, literal(-7)))
        CFI R7 load(1, XDATA, add(CFA_XSP16, literal(-6)))
        CFI ?RET_LOW load(1, XDATA, add(CFA_XSP16, literal(-5)))
        CFI ?RET_HIGH load(1, XDATA, add(CFA_XSP16, literal(-4)))
        CFI ?BRET_EXT load(1, XDATA, add(CFA_XSP16, literal(-3)))
        CFI DPL0 load(1, XDATA, add(CFA_XSP16, literal(-2)))
        CFI DPH0 load(1, XDATA, add(CFA_XSP16, literal(-1)))
        CFI CFA_SP SP+0
        CFI CFA_XSP16 add(XSP16, 23)
        CFI Block cfiCond349 Using cfiCommon0
        CFI (cfiCond349) NoFunction
        CFI (cfiCond349) Conditional ??CrossCallReturnLabel_115
        CFI (cfiCond349) R6 load(1, XDATA, add(CFA_XSP16, literal(-16)))
        CFI (cfiCond349) VB load(1, XDATA, add(CFA_XSP16, literal(-15)))
        CFI (cfiCond349) V0 load(1, XDATA, add(CFA_XSP16, literal(-14)))
        CFI (cfiCond349) V1 load(1, XDATA, add(CFA_XSP16, literal(-13)))
        CFI (cfiCond349) V2 load(1, XDATA, add(CFA_XSP16, literal(-12)))
        CFI (cfiCond349) V3 load(1, XDATA, add(CFA_XSP16, literal(-11)))
        CFI (cfiCond349) V4 load(1, XDATA, add(CFA_XSP16, literal(-10)))
        CFI (cfiCond349) V5 load(1, XDATA, add(CFA_XSP16, literal(-9)))
        CFI (cfiCond349) V6 load(1, XDATA, add(CFA_XSP16, literal(-8)))
        CFI (cfiCond349) V7 load(1, XDATA, add(CFA_XSP16, literal(-7)))
        CFI (cfiCond349) R7 load(1, XDATA, add(CFA_XSP16, literal(-6)))
        CFI (cfiCond349) ?RET_LOW load(1, XDATA, add(CFA_XSP16, literal(-5)))
        CFI (cfiCond349) ?RET_HIGH load(1, XDATA, add(CFA_XSP16, literal(-4)))
        CFI (cfiCond349) ?BRET_EXT load(1, XDATA, add(CFA_XSP16, literal(-3)))
        CFI (cfiCond349) DPL0 load(1, XDATA, add(CFA_XSP16, literal(-2)))
        CFI (cfiCond349) DPH0 load(1, XDATA, add(CFA_XSP16, literal(-1)))
        CFI (cfiCond349) CFA_SP SP+0
        CFI (cfiCond349) CFA_XSP16 add(XSP16, 23)
        CFI Block cfiCond350 Using cfiCommon0
        CFI (cfiCond350) NoFunction
        CFI (cfiCond350) Conditional ??CrossCallReturnLabel_116
        CFI (cfiCond350) R6 load(1, XDATA, add(CFA_XSP16, literal(-16)))
        CFI (cfiCond350) VB load(1, XDATA, add(CFA_XSP16, literal(-15)))
        CFI (cfiCond350) V0 load(1, XDATA, add(CFA_XSP16, literal(-14)))
        CFI (cfiCond350) V1 load(1, XDATA, add(CFA_XSP16, literal(-13)))
        CFI (cfiCond350) V2 load(1, XDATA, add(CFA_XSP16, literal(-12)))
        CFI (cfiCond350) V3 load(1, XDATA, add(CFA_XSP16, literal(-11)))
        CFI (cfiCond350) V4 load(1, XDATA, add(CFA_XSP16, literal(-10)))
        CFI (cfiCond350) V5 load(1, XDATA, add(CFA_XSP16, literal(-9)))
        CFI (cfiCond350) V6 load(1, XDATA, add(CFA_XSP16, literal(-8)))
        CFI (cfiCond350) V7 load(1, XDATA, add(CFA_XSP16, literal(-7)))
        CFI (cfiCond350) R7 load(1, XDATA, add(CFA_XSP16, literal(-6)))
        CFI (cfiCond350) ?RET_LOW load(1, XDATA, add(CFA_XSP16, literal(-5)))
        CFI (cfiCond350) ?RET_HIGH load(1, XDATA, add(CFA_XSP16, literal(-4)))
        CFI (cfiCond350) ?BRET_EXT load(1, XDATA, add(CFA_XSP16, literal(-3)))
        CFI (cfiCond350) DPL0 load(1, XDATA, add(CFA_XSP16, literal(-2)))
        CFI (cfiCond350) DPH0 load(1, XDATA, add(CFA_XSP16, literal(-1)))
        CFI (cfiCond350) CFA_SP SP+0
        CFI (cfiCond350) CFA_XSP16 add(XSP16, 23)
        CFI Block cfiCond351 Using cfiCommon0
        CFI (cfiCond351) NoFunction
        CFI (cfiCond351) Conditional ??CrossCallReturnLabel_117
        CFI (cfiCond351) R6 load(1, XDATA, add(CFA_XSP16, literal(-16)))
        CFI (cfiCond351) VB load(1, XDATA, add(CFA_XSP16, literal(-15)))
        CFI (cfiCond351) V0 load(1, XDATA, add(CFA_XSP16, literal(-14)))
        CFI (cfiCond351) V1 load(1, XDATA, add(CFA_XSP16, literal(-13)))
        CFI (cfiCond351) V2 load(1, XDATA, add(CFA_XSP16, literal(-12)))
        CFI (cfiCond351) V3 load(1, XDATA, add(CFA_XSP16, literal(-11)))
        CFI (cfiCond351) V4 load(1, XDATA, add(CFA_XSP16, literal(-10)))
        CFI (cfiCond351) V5 load(1, XDATA, add(CFA_XSP16, literal(-9)))
        CFI (cfiCond351) V6 load(1, XDATA, add(CFA_XSP16, literal(-8)))
        CFI (cfiCond351) V7 load(1, XDATA, add(CFA_XSP16, literal(-7)))
        CFI (cfiCond351) R7 load(1, XDATA, add(CFA_XSP16, literal(-6)))
        CFI (cfiCond351) ?RET_LOW load(1, XDATA, add(CFA_XSP16, literal(-5)))
        CFI (cfiCond351) ?RET_HIGH load(1, XDATA, add(CFA_XSP16, literal(-4)))
        CFI (cfiCond351) ?BRET_EXT load(1, XDATA, add(CFA_XSP16, literal(-3)))
        CFI (cfiCond351) DPL0 load(1, XDATA, add(CFA_XSP16, literal(-2)))
        CFI (cfiCond351) DPH0 load(1, XDATA, add(CFA_XSP16, literal(-1)))
        CFI (cfiCond351) CFA_SP SP+0
        CFI (cfiCond351) CFA_XSP16 add(XSP16, 23)
        CFI Block cfiCond352 Using cfiCommon0
        CFI (cfiCond352) NoFunction
        CFI (cfiCond352) Conditional ??CrossCallReturnLabel_118
        CFI (cfiCond352) R6 load(1, XDATA, add(CFA_XSP16, literal(-16)))
        CFI (cfiCond352) VB load(1, XDATA, add(CFA_XSP16, literal(-15)))
        CFI (cfiCond352) V0 load(1, XDATA, add(CFA_XSP16, literal(-14)))
        CFI (cfiCond352) V1 load(1, XDATA, add(CFA_XSP16, literal(-13)))
        CFI (cfiCond352) V2 load(1, XDATA, add(CFA_XSP16, literal(-12)))
        CFI (cfiCond352) V3 load(1, XDATA, add(CFA_XSP16, literal(-11)))
        CFI (cfiCond352) V4 load(1, XDATA, add(CFA_XSP16, literal(-10)))
        CFI (cfiCond352) V5 load(1, XDATA, add(CFA_XSP16, literal(-9)))
        CFI (cfiCond352) V6 load(1, XDATA, add(CFA_XSP16, literal(-8)))
        CFI (cfiCond352) V7 load(1, XDATA, add(CFA_XSP16, literal(-7)))
        CFI (cfiCond352) R7 load(1, XDATA, add(CFA_XSP16, literal(-6)))
        CFI (cfiCond352) ?RET_LOW load(1, XDATA, add(CFA_XSP16, literal(-5)))
        CFI (cfiCond352) ?RET_HIGH load(1, XDATA, add(CFA_XSP16, literal(-4)))
        CFI (cfiCond352) ?BRET_EXT load(1, XDATA, add(CFA_XSP16, literal(-3)))
        CFI (cfiCond352) DPL0 load(1, XDATA, add(CFA_XSP16, literal(-2)))
        CFI (cfiCond352) DPH0 load(1, XDATA, add(CFA_XSP16, literal(-1)))
        CFI (cfiCond352) CFA_SP SP+0
        CFI (cfiCond352) CFA_XSP16 add(XSP16, 23)
        CFI Block cfiCond353 Using cfiCommon0
        CFI (cfiCond353) NoFunction
        CFI (cfiCond353) Conditional ??CrossCallReturnLabel_119
        CFI (cfiCond353) R6 load(1, XDATA, add(CFA_XSP16, literal(-16)))
        CFI (cfiCond353) VB load(1, XDATA, add(CFA_XSP16, literal(-15)))
        CFI (cfiCond353) V0 load(1, XDATA, add(CFA_XSP16, literal(-14)))
        CFI (cfiCond353) V1 load(1, XDATA, add(CFA_XSP16, literal(-13)))
        CFI (cfiCond353) V2 load(1, XDATA, add(CFA_XSP16, literal(-12)))
        CFI (cfiCond353) V3 load(1, XDATA, add(CFA_XSP16, literal(-11)))
        CFI (cfiCond353) V4 load(1, XDATA, add(CFA_XSP16, literal(-10)))
        CFI (cfiCond353) V5 load(1, XDATA, add(CFA_XSP16, literal(-9)))
        CFI (cfiCond353) V6 load(1, XDATA, add(CFA_XSP16, literal(-8)))
        CFI (cfiCond353) V7 load(1, XDATA, add(CFA_XSP16, literal(-7)))
        CFI (cfiCond353) R7 load(1, XDATA, add(CFA_XSP16, literal(-6)))
        CFI (cfiCond353) ?RET_LOW load(1, XDATA, add(CFA_XSP16, literal(-5)))
        CFI (cfiCond353) ?RET_HIGH load(1, XDATA, add(CFA_XSP16, literal(-4)))
        CFI (cfiCond353) ?BRET_EXT load(1, XDATA, add(CFA_XSP16, literal(-3)))
        CFI (cfiCond353) DPL0 load(1, XDATA, add(CFA_XSP16, literal(-2)))
        CFI (cfiCond353) DPH0 load(1, XDATA, add(CFA_XSP16, literal(-1)))
        CFI (cfiCond353) CFA_SP SP+0
        CFI (cfiCond353) CFA_XSP16 add(XSP16, 23)
        CFI Block cfiCond354 Using cfiCommon0
        CFI (cfiCond354) NoFunction
        CFI (cfiCond354) Conditional ??CrossCallReturnLabel_120
        CFI (cfiCond354) R6 load(1, XDATA, add(CFA_XSP16, literal(-16)))
        CFI (cfiCond354) VB load(1, XDATA, add(CFA_XSP16, literal(-15)))
        CFI (cfiCond354) V0 load(1, XDATA, add(CFA_XSP16, literal(-14)))
        CFI (cfiCond354) V1 load(1, XDATA, add(CFA_XSP16, literal(-13)))
        CFI (cfiCond354) V2 load(1, XDATA, add(CFA_XSP16, literal(-12)))
        CFI (cfiCond354) V3 load(1, XDATA, add(CFA_XSP16, literal(-11)))
        CFI (cfiCond354) V4 load(1, XDATA, add(CFA_XSP16, literal(-10)))
        CFI (cfiCond354) V5 load(1, XDATA, add(CFA_XSP16, literal(-9)))
        CFI (cfiCond354) V6 load(1, XDATA, add(CFA_XSP16, literal(-8)))
        CFI (cfiCond354) V7 load(1, XDATA, add(CFA_XSP16, literal(-7)))
        CFI (cfiCond354) R7 load(1, XDATA, add(CFA_XSP16, literal(-6)))
        CFI (cfiCond354) ?RET_LOW load(1, XDATA, add(CFA_XSP16, literal(-5)))
        CFI (cfiCond354) ?RET_HIGH load(1, XDATA, add(CFA_XSP16, literal(-4)))
        CFI (cfiCond354) ?BRET_EXT load(1, XDATA, add(CFA_XSP16, literal(-3)))
        CFI (cfiCond354) DPL0 load(1, XDATA, add(CFA_XSP16, literal(-2)))
        CFI (cfiCond354) DPH0 load(1, XDATA, add(CFA_XSP16, literal(-1)))
        CFI (cfiCond354) CFA_SP SP+0
        CFI (cfiCond354) CFA_XSP16 add(XSP16, 23)
        CFI Block cfiCond355 Using cfiCommon0
        CFI (cfiCond355) NoFunction
        CFI (cfiCond355) Conditional ??CrossCallReturnLabel_121
        CFI (cfiCond355) R6 load(1, XDATA, add(CFA_XSP16, literal(-16)))
        CFI (cfiCond355) VB load(1, XDATA, add(CFA_XSP16, literal(-15)))
        CFI (cfiCond355) V0 load(1, XDATA, add(CFA_XSP16, literal(-14)))
        CFI (cfiCond355) V1 load(1, XDATA, add(CFA_XSP16, literal(-13)))
        CFI (cfiCond355) V2 load(1, XDATA, add(CFA_XSP16, literal(-12)))
        CFI (cfiCond355) V3 load(1, XDATA, add(CFA_XSP16, literal(-11)))
        CFI (cfiCond355) V4 load(1, XDATA, add(CFA_XSP16, literal(-10)))
        CFI (cfiCond355) V5 load(1, XDATA, add(CFA_XSP16, literal(-9)))
        CFI (cfiCond355) V6 load(1, XDATA, add(CFA_XSP16, literal(-8)))
        CFI (cfiCond355) V7 load(1, XDATA, add(CFA_XSP16, literal(-7)))
        CFI (cfiCond355) R7 load(1, XDATA, add(CFA_XSP16, literal(-6)))
        CFI (cfiCond355) ?RET_LOW load(1, XDATA, add(CFA_XSP16, literal(-5)))
        CFI (cfiCond355) ?RET_HIGH load(1, XDATA, add(CFA_XSP16, literal(-4)))
        CFI (cfiCond355) ?BRET_EXT load(1, XDATA, add(CFA_XSP16, literal(-3)))
        CFI (cfiCond355) DPL0 load(1, XDATA, add(CFA_XSP16, literal(-2)))
        CFI (cfiCond355) DPH0 load(1, XDATA, add(CFA_XSP16, literal(-1)))
        CFI (cfiCond355) CFA_SP SP+0
        CFI (cfiCond355) CFA_XSP16 add(XSP16, 23)
        CFI Block cfiCond356 Using cfiCommon0
        CFI (cfiCond356) NoFunction
        CFI (cfiCond356) Conditional ??CrossCallReturnLabel_122
        CFI (cfiCond356) R6 load(1, XDATA, add(CFA_XSP16, literal(-16)))
        CFI (cfiCond356) VB load(1, XDATA, add(CFA_XSP16, literal(-15)))
        CFI (cfiCond356) V0 load(1, XDATA, add(CFA_XSP16, literal(-14)))
        CFI (cfiCond356) V1 load(1, XDATA, add(CFA_XSP16, literal(-13)))
        CFI (cfiCond356) V2 load(1, XDATA, add(CFA_XSP16, literal(-12)))
        CFI (cfiCond356) V3 load(1, XDATA, add(CFA_XSP16, literal(-11)))
        CFI (cfiCond356) V4 load(1, XDATA, add(CFA_XSP16, literal(-10)))
        CFI (cfiCond356) V5 load(1, XDATA, add(CFA_XSP16, literal(-9)))
        CFI (cfiCond356) V6 load(1, XDATA, add(CFA_XSP16, literal(-8)))
        CFI (cfiCond356) V7 load(1, XDATA, add(CFA_XSP16, literal(-7)))
        CFI (cfiCond356) R7 load(1, XDATA, add(CFA_XSP16, literal(-6)))
        CFI (cfiCond356) ?RET_LOW load(1, XDATA, add(CFA_XSP16, literal(-5)))
        CFI (cfiCond356) ?RET_HIGH load(1, XDATA, add(CFA_XSP16, literal(-4)))
        CFI (cfiCond356) ?BRET_EXT load(1, XDATA, add(CFA_XSP16, literal(-3)))
        CFI (cfiCond356) DPL0 load(1, XDATA, add(CFA_XSP16, literal(-2)))
        CFI (cfiCond356) DPH0 load(1, XDATA, add(CFA_XSP16, literal(-1)))
        CFI (cfiCond356) CFA_SP SP+0
        CFI (cfiCond356) CFA_XSP16 add(XSP16, 23)
        CFI Block cfiPicker357 Using cfiCommon1
        CFI (cfiPicker357) NoFunction
        CFI (cfiPicker357) Picker
        MOV     R4,#0x20
        MOV     R1,#0x6
        MOV     R2,?V0 + 6
        MOV     R3,?V0 + 7
        CFI Block cfiCond358 Using cfiCommon0
        CFI (cfiCond358) NoFunction
        CFI (cfiCond358) Conditional ??CrossCallReturnLabel_123
        CFI (cfiCond358) R6 load(1, XDATA, add(CFA_XSP16, literal(-16)))
        CFI (cfiCond358) VB load(1, XDATA, add(CFA_XSP16, literal(-15)))
        CFI (cfiCond358) V0 load(1, XDATA, add(CFA_XSP16, literal(-14)))
        CFI (cfiCond358) V1 load(1, XDATA, add(CFA_XSP16, literal(-13)))
        CFI (cfiCond358) V2 load(1, XDATA, add(CFA_XSP16, literal(-12)))
        CFI (cfiCond358) V3 load(1, XDATA, add(CFA_XSP16, literal(-11)))
        CFI (cfiCond358) V4 load(1, XDATA, add(CFA_XSP16, literal(-10)))
        CFI (cfiCond358) V5 load(1, XDATA, add(CFA_XSP16, literal(-9)))
        CFI (cfiCond358) V6 load(1, XDATA, add(CFA_XSP16, literal(-8)))
        CFI (cfiCond358) V7 load(1, XDATA, add(CFA_XSP16, literal(-7)))
        CFI (cfiCond358) R7 load(1, XDATA, add(CFA_XSP16, literal(-6)))
        CFI (cfiCond358) ?RET_LOW load(1, XDATA, add(CFA_XSP16, literal(-5)))
        CFI (cfiCond358) ?RET_HIGH load(1, XDATA, add(CFA_XSP16, literal(-4)))
        CFI (cfiCond358) ?BRET_EXT load(1, XDATA, add(CFA_XSP16, literal(-3)))
        CFI (cfiCond358) DPL0 load(1, XDATA, add(CFA_XSP16, literal(-2)))
        CFI (cfiCond358) DPH0 load(1, XDATA, add(CFA_XSP16, literal(-1)))
        CFI (cfiCond358) CFA_SP SP+0
        CFI (cfiCond358) CFA_XSP16 add(XSP16, 28)
        CFI Block cfiCond359 Using cfiCommon0
        CFI (cfiCond359) NoFunction
        CFI (cfiCond359) Conditional ??CrossCallReturnLabel_124
        CFI (cfiCond359) R6 load(1, XDATA, add(CFA_XSP16, literal(-16)))
        CFI (cfiCond359) VB load(1, XDATA, add(CFA_XSP16, literal(-15)))
        CFI (cfiCond359) V0 load(1, XDATA, add(CFA_XSP16, literal(-14)))
        CFI (cfiCond359) V1 load(1, XDATA, add(CFA_XSP16, literal(-13)))
        CFI (cfiCond359) V2 load(1, XDATA, add(CFA_XSP16, literal(-12)))
        CFI (cfiCond359) V3 load(1, XDATA, add(CFA_XSP16, literal(-11)))
        CFI (cfiCond359) V4 load(1, XDATA, add(CFA_XSP16, literal(-10)))
        CFI (cfiCond359) V5 load(1, XDATA, add(CFA_XSP16, literal(-9)))
        CFI (cfiCond359) V6 load(1, XDATA, add(CFA_XSP16, literal(-8)))
        CFI (cfiCond359) V7 load(1, XDATA, add(CFA_XSP16, literal(-7)))
        CFI (cfiCond359) R7 load(1, XDATA, add(CFA_XSP16, literal(-6)))
        CFI (cfiCond359) ?RET_LOW load(1, XDATA, add(CFA_XSP16, literal(-5)))
        CFI (cfiCond359) ?RET_HIGH load(1, XDATA, add(CFA_XSP16, literal(-4)))
        CFI (cfiCond359) ?BRET_EXT load(1, XDATA, add(CFA_XSP16, literal(-3)))
        CFI (cfiCond359) DPL0 load(1, XDATA, add(CFA_XSP16, literal(-2)))
        CFI (cfiCond359) DPH0 load(1, XDATA, add(CFA_XSP16, literal(-1)))
        CFI (cfiCond359) CFA_SP SP+0
        CFI (cfiCond359) CFA_XSP16 add(XSP16, 43)
        CFI Block cfiCond360 Using cfiCommon0
        CFI (cfiCond360) NoFunction
        CFI (cfiCond360) Conditional ??CrossCallReturnLabel_125
        CFI (cfiCond360) R6 load(1, XDATA, add(CFA_XSP16, literal(-10)))
        CFI (cfiCond360) VB load(1, XDATA, add(CFA_XSP16, literal(-9)))
        CFI (cfiCond360) V0 load(1, XDATA, add(CFA_XSP16, literal(-8)))
        CFI (cfiCond360) V1 load(1, XDATA, add(CFA_XSP16, literal(-7)))
        CFI (cfiCond360) R7 load(1, XDATA, add(CFA_XSP16, literal(-6)))
        CFI (cfiCond360) ?RET_LOW load(1, XDATA, add(CFA_XSP16, literal(-5)))
        CFI (cfiCond360) ?RET_HIGH load(1, XDATA, add(CFA_XSP16, literal(-4)))
        CFI (cfiCond360) ?BRET_EXT load(1, XDATA, add(CFA_XSP16, literal(-3)))
        CFI (cfiCond360) DPL0 load(1, XDATA, add(CFA_XSP16, literal(-2)))
        CFI (cfiCond360) DPH0 load(1, XDATA, add(CFA_XSP16, literal(-1)))
        CFI (cfiCond360) CFA_SP SP+0
        CFI (cfiCond360) CFA_XSP16 add(XSP16, 38)
??Subroutine43_0:
        LCALL   ??SendMsg?relay
        MOV     A,#0x6
        RET
        CFI EndBlock cfiCond348
        CFI EndBlock cfiCond349
        CFI EndBlock cfiCond350
        CFI EndBlock cfiCond351
        CFI EndBlock cfiCond352
        CFI EndBlock cfiCond353
        CFI EndBlock cfiCond354
        CFI EndBlock cfiCond355
        CFI EndBlock cfiCond356
        CFI EndBlock cfiPicker357
        CFI EndBlock cfiCond358
        CFI EndBlock cfiCond359
        CFI EndBlock cfiCond360

        RSEG BANKED_CODE:CODE:NOROOT(0)
?Subroutine32:
        CFI Block cfiCond361 Using cfiCommon0
        CFI NoFunction
        CFI Conditional ??CrossCallReturnLabel_85
        CFI DPL0 Frame(CFA_SP, 4)
        CFI DPH0 Frame(CFA_SP, 5)
        CFI CFA_SP SP+-5
        CFI CFA_XSP16 add(XSP16, 1)
        CFI Block cfiCond362 Using cfiCommon0
        CFI (cfiCond362) NoFunction
        CFI (cfiCond362) Conditional ??CrossCallReturnLabel_86
        CFI (cfiCond362) DPL0 Frame(CFA_SP, 4)
        CFI (cfiCond362) DPH0 Frame(CFA_SP, 5)
        CFI (cfiCond362) CFA_SP SP+-5
        CFI Block cfiCond363 Using cfiCommon0
        CFI (cfiCond363) NoFunction
        CFI (cfiCond363) Conditional ??CrossCallReturnLabel_87
        CFI (cfiCond363) R6 load(1, XDATA, add(CFA_XSP16, literal(-12)))
        CFI (cfiCond363) VB load(1, XDATA, add(CFA_XSP16, literal(-11)))
        CFI (cfiCond363) V0 load(1, XDATA, add(CFA_XSP16, literal(-10)))
        CFI (cfiCond363) V1 load(1, XDATA, add(CFA_XSP16, literal(-9)))
        CFI (cfiCond363) V2 load(1, XDATA, add(CFA_XSP16, literal(-8)))
        CFI (cfiCond363) V3 load(1, XDATA, add(CFA_XSP16, literal(-7)))
        CFI (cfiCond363) R7 load(1, XDATA, add(CFA_XSP16, literal(-6)))
        CFI (cfiCond363) ?RET_LOW load(1, XDATA, add(CFA_XSP16, literal(-5)))
        CFI (cfiCond363) ?RET_HIGH load(1, XDATA, add(CFA_XSP16, literal(-4)))
        CFI (cfiCond363) ?BRET_EXT load(1, XDATA, add(CFA_XSP16, literal(-3)))
        CFI (cfiCond363) DPL0 load(1, XDATA, add(CFA_XSP16, literal(-2)))
        CFI (cfiCond363) DPH0 load(1, XDATA, add(CFA_XSP16, literal(-1)))
        CFI (cfiCond363) CFA_SP SP+0
        CFI (cfiCond363) CFA_XSP16 add(XSP16, 13)
        CFI Block cfiPicker364 Using cfiCommon1
        CFI (cfiPicker364) NoFunction
        CFI (cfiPicker364) Picker
        MOV     R2,#-0x80
        CFI Block cfiCond365 Using cfiCommon0
        CFI (cfiCond365) NoFunction
        CFI (cfiCond365) Conditional ??CrossCallReturnLabel_88
        CFI (cfiCond365) DPL0 Frame(CFA_SP, 4)
        CFI (cfiCond365) DPH0 Frame(CFA_SP, 5)
        CFI (cfiCond365) CFA_SP SP+-5
        CFI Block cfiCond366 Using cfiCommon0
        CFI (cfiCond366) NoFunction
        CFI (cfiCond366) Conditional ??CrossCallReturnLabel_89
        CFI (cfiCond366) R6 load(1, XDATA, add(CFA_XSP16, literal(-10)))
        CFI (cfiCond366) VB load(1, XDATA, add(CFA_XSP16, literal(-9)))
        CFI (cfiCond366) V0 load(1, XDATA, add(CFA_XSP16, literal(-8)))
        CFI (cfiCond366) V1 load(1, XDATA, add(CFA_XSP16, literal(-7)))
        CFI (cfiCond366) R7 load(1, XDATA, add(CFA_XSP16, literal(-6)))
        CFI (cfiCond366) ?RET_LOW load(1, XDATA, add(CFA_XSP16, literal(-5)))
        CFI (cfiCond366) ?RET_HIGH load(1, XDATA, add(CFA_XSP16, literal(-4)))
        CFI (cfiCond366) ?BRET_EXT load(1, XDATA, add(CFA_XSP16, literal(-3)))
        CFI (cfiCond366) DPL0 load(1, XDATA, add(CFA_XSP16, literal(-2)))
        CFI (cfiCond366) DPH0 load(1, XDATA, add(CFA_XSP16, literal(-1)))
        CFI (cfiCond366) CFA_SP SP+0
        CFI (cfiCond366) CFA_XSP16 add(XSP16, 32)
??Subroutine32_0:
        MOV     R3,#0x0
        CFI Block cfiCond367 Using cfiCommon0
        CFI (cfiCond367) NoFunction
        CFI (cfiCond367) Conditional ??CrossCallReturnLabel_90
        CFI (cfiCond367) DPL0 Frame(CFA_SP, 4)
        CFI (cfiCond367) DPH0 Frame(CFA_SP, 5)
        CFI (cfiCond367) CFA_SP SP+-5
        CFI (cfiCond367) CFA_XSP16 add(XSP16, 1)
??Subroutine32_1:
        MOV     DPTR,#p2p_test_TaskID
        MOVX    A,@DPTR
        MOV     R1,A
        LCALL   ??osal_start_timerEx?relay
        RET
        CFI EndBlock cfiCond361
        CFI EndBlock cfiCond362
        CFI EndBlock cfiCond363
        CFI EndBlock cfiPicker364
        CFI EndBlock cfiCond365
        CFI EndBlock cfiCond366
        CFI EndBlock cfiCond367
// 2299 

        RSEG BANKED_CODE:CODE:NOROOT(0)
// 2300 void p2p_test_StartDataSensorTimer()
p2p_test_StartDataSensorTimer:
        CFI Block cfiBlock368 Using cfiCommon0
        CFI Function p2p_test_StartDataSensorTimer
// 2301 {
        ; Saved register size: 0
        ; Auto size: 0
// 2302 #if RAIN_FLAG!=0
// 2303         osal_start_timerEx( p2p_test_TaskID,
// 2304                               p2p_test_SEND_RAIN_FREQ_MSG_EVT,
// 2305                               1000 );     
// 2306 #endif
// 2307 #if SOIL_FLAG!=0
// 2308         osal_start_timerEx(p2p_test_TaskID,
// 2309                               p2p_test_SEND_SOIL_HUMIDITY_FREQ_MSG_EVT,
// 2310                               2000); 
// 2311 #endif    
// 2312 #if EARTHQUAKE_FLAG!=0 
// 2313       
// 2314         osal_start_timerEx(p2p_test_TaskID,
// 2315                               p2p_test_SEND_ACCELEROMETER_FREQ_MSG_EVT,
// 2316                                1000);
// 2317 #endif         
// 2318          
// 2319            
// 2320             //  uint8 te=0xAA;
// 2321             //  HalUARTWrite(0,&te,1);
// 2322 
// 2323            
// 2324            
// 2325   /*         osal_start_timerEx(p2p_test_TaskID,
// 2326                               p2p_test_SEND_VCC_VALUE_FREQ_MSG_EVT ,
// 2327                               1000);   
// 2328   */        
// 2329 
// 2330      /*   if (  (p2p_test_NwkState == DEV_ROUTER)
// 2331               || (p2p_test_NwkState == DEV_END_DEVICE) )
// 2332           {
// 2333               osal_start_timerEx( p2p_test_TaskID,
// 2334                                 p2p_test_SEND_MSG_EVT,
// 2335                                10 );
// 2336           }  */
// 2337 #if WATER_GAGE_FLAG!=0   
// 2338    osal_start_timerEx(p2p_test_TaskID,
// 2339                              p2p_test_SEND_WATER_GAGE_MSG_EVT,
// 2340                              1000); 
// 2341     osal_start_timerEx(p2p_test_TaskID,
// 2342                           p2p_test_CHECK_WATER_GAGE_CHARGE_MSG_EVT, 
// 2343                           CheckWaterGageChargeTimeFreq * 1000);
// 2344  /*     osal_start_timerEx( p2p_test_TaskID,
// 2345                           p2p_test_START_WATER_GAGE_TIME_MSG_EVT, 
// 2346                           1000);*/
// 2347  #endif 
// 2348 }
        LJMP    ?BRET
        CFI EndBlock cfiBlock368
// 2349 
// 2350 /*********************************************************************
// 2351  * @fn      p2p_test_interrupt_rain
// 2352  *
// 2353  * @brief   
// 2354  *
// 2355  * @param   none
// 2356  *
// 2357  * @return  none
// 2358  
// 2359 
// 2360 void p2p_test_interrupt_rain(uint16 count)
// 2361 {
// 2362   if(++RainCountNum != SendRainCountFreq)
// 2363   {
// 2364     return;
// 2365   }
// 2366   if(count>=RainCountNum)
// 2367     count=count-RainCountNum;
// 2368     //reset
// 2369 
// 2370   RainMsg_t RainMsg;  
// 2371   fill_AppHead((AppHead_t *)&RainMsg.AppHead, ACK_NO, MAIN_VERSION, SUB_VERSION, TYPE_SENSOR, TYPE_CODE_SENSOR_RAIN);
// 2372   fill_NodeId_time((NodeIdAndTime_t *)&RainMsg.NodeIdAndTime,ARM_ID,Zigbee_ID,RAIN_ID);//start from load  
// 2373   RainMsg.count[0] = HI_UINT16(RainCountNum);
// 2374   RainMsg.count[1] = LO_UINT16(RainCountNum);
// 2375   RainCountNum=0;
// 2376   SendMsg((uint8 *)&RainMsg, sizeof(RainMsg), p2p_test_DstAddr, AF_DISCV_ROUTE,p2p_test_108ID);//no ack
// 2377 }
// 2378 */
// 2379 /*********************************************************************
// 2380  * @fn      p2p_test_SendRainTimeFreqAndRequire
// 2381  *
// 2382  * @brief   
// 2383  *
// 2384  * @param   none
// 2385  *
// 2386  * @return  none
// 2387  
// 2388 
// 2389 void p2p_test_SendRainTimeFreqAndRequire( uint8 FreqOrRequire )
// 2390 {
// 2391   if(FreqOrRequire == FREQ)
// 2392   {
// 2393     uint8 timeout = 0;  
// 2394     if(!SendRainRemainTime)//SendRainRemainTime==0, send the msg
// 2395     {
// 2396       SendRainRemainTime = SendRainTimeFreq;//test unit=second, product unit=minute
// 2397       //SendRainRemainTime = SendRainTimeFreq*60;
// 2398       timeout = 1;
// 2399     }
// 2400 
// 2401     if(SendRainRemainTime>65)//osal_start_timerEx max time is 65.535s
// 2402     {
// 2403       SendRainRemainTime -= 65;
// 2404       osal_start_timerEx( p2p_test_TaskID,
// 2405                       p2p_test_SEND_RAIN_FREQ_MSG_EVT,
// 2406                       65000 );//uint=ms
// 2407     }
// 2408     else
// 2409     {
// 2410        osal_start_timerEx( p2p_test_TaskID,
// 2411                       p2p_test_SEND_RAIN_FREQ_MSG_EVT,
// 2412                       SendRainTimeFreq*1000 );
// 2413        SendRainRemainTime = 0;
// 2414     }
// 2415     if(!timeout)
// 2416     {
// 2417       return;      
// 2418     }
// 2419   }
// 2420   
// 2421   static uint16 precount=0;
// 2422   RainMsg_t RainMsg;
// 2423   uint8 SendMsgOption, AckRequire;
// 2424   if(FreqOrRequire == FREQ)
// 2425   {
// 2426     SendMsgOption = AF_DISCV_ROUTE;
// 2427     AckRequire = ACK_NO;
// 2428   }
// 2429   else
// 2430   {
// 2431     SendMsgOption = AF_DISCV_ROUTE|AF_ACK_REQUEST;
// 2432     AckRequire = ACK_YES;      
// 2433   }
// 2434   fill_AppHead((AppHead_t *)&RainMsg.AppHead, AckRequire, MAIN_VERSION, SUB_VERSION, TYPE_SENSOR, TYPE_CODE_SENSOR_RAIN);
// 2435   fill_NodeId_time((NodeIdAndTime_t *)&RainMsg.NodeIdAndTime,ARM_ID,Zigbee_ID,RAIN_ID);;//start from load  
// 2436   uint16 count = QueryP1Interrupt(PIN_3);
// 2437   RainMsg.count[0] = HI_UINT16(count-precount);
// 2438   RainMsg.count[1] = LO_UINT16(count-precount);
// 2439   precount=count;
// 2440   SendMsg((uint8 *)&RainMsg, sizeof(RainMsg), p2p_test_DstAddr, SendMsgOption,p2p_test_108ID);
// 2441 }*/
// 2442 
// 2443 /*********************************************************************
// 2444  * @fn      p2p_test_SendSoilHumidityTimeFreqAndRequire
// 2445  *
// 2446  * @brief   
// 2447  *
// 2448  * @param   none
// 2449  *
// 2450  * @return  none
// 2451  */
// 2452 //void p2p_test_SendSoilHumidityTimeFreqAndRequire( uint8 FreqOrRequire )
// 2453 //{
// 2454   /*if(FreqOrRequire == FREQ)
// 2455   {
// 2456     uint8 timeout = 0;  
// 2457     if(!SendSoilHumidityRemainTime)//SendIlluminationRemainTime==0, send the msg
// 2458     {
// 2459       SendSoilHumidityRemainTime = SendSoilHumidityTimeFreq;//test unit=second product unit=minute
// 2460       //SendIlluminationRemainTime = SendIlluminationTimeFreq*60;
// 2461       timeout = 1;
// 2462     }
// 2463 
// 2464     if(SendSoilHumidityRemainTime>65)//osal_start_timerEx max time is 65.535s
// 2465     {
// 2466       SendSoilHumidityRemainTime -= 65;
// 2467       osal_start_timerEx( p2p_test_TaskID,
// 2468                       p2p_test_SEND_SOIL_HUMIDITY_FREQ_MSG_EVT,
// 2469                       65000 );//uint=ms
// 2470     }
// 2471     else
// 2472     {
// 2473        osal_start_timerEx( p2p_test_TaskID,
// 2474                       p2p_test_SEND_SOIL_HUMIDITY_FREQ_MSG_EVT,
// 2475                       SendSoilHumidityTimeFreq*1000 );
// 2476        SendSoilHumidityRemainTime = 0;
// 2477     }
// 2478     if(!timeout)
// 2479     {
// 2480       return;      
// 2481     }
// 2482   }
// 2483   */
// 2484 /*
// 2485   uint16 AdcValue=0,AdcVcc=0;
// 2486  // float tmp_value;
// 2487   //P0.1 IS GENERAL AND INPUT
// 2488   P0SEL &=~ (0x02);
// 2489   P0DIR &=~ (0x02);
// 2490   HalAdcInit();
// 2491   //adcground=HalAdcCheckGround(HAL_ADC_RESOLUTION_14);
// 2492   AdcVcc = HalAdcReadVcc( HAL_ADC_RESOLUTION_14 );
// 2493   AdcValue = HalAdcRead(1,HAL_ADC_RESOLUTION_14);
// 2494   AdcVcc = AdcVcc*3;
// 2495   
// 2496   Soil_Humidity_t Soil_Humidity;
// 2497   uint8 SendMsgOption, AckRequire;
// 2498   
// 2499   if(FreqOrRequire == FREQ)
// 2500   {
// 2501     SendMsgOption = AF_DISCV_ROUTE|AF_ACK_REQUEST;
// 2502     AckRequire = ACK_NO;    
// 2503   }
// 2504   else{
// 2505     SendMsgOption = AF_DISCV_ROUTE|AF_ACK_REQUEST;
// 2506     AckRequire = ACK_YES;     
// 2507   }
// 2508   fill_AppHead((AppHead_t *)&Soil_Humidity.AppHead, AckRequire, MAIN_VERSION, SUB_VERSION, TYPE_SENSOR, TYPE_CODE_SENSOR_SOIL_HUMIDITY);
// 2509   fill_NodeId_time((NodeIdAndTime_t *)&Soil_Humidity.NodeIdAndTime,ARM_ID,Zigbee_ID,SOIL_ID);  
// 2510   Soil_Humidity.AdcVcc[0] = HI_UINT16(AdcVcc);
// 2511   Soil_Humidity.AdcVcc[1] = LO_UINT16(AdcVcc);
// 2512   Soil_Humidity.AdcValue[0] = HI_UINT16(AdcValue);
// 2513   Soil_Humidity.AdcValue[1] = LO_UINT16(AdcValue);*/
// 2514 
// 2515   //GET PORT OF VALUE P0.1
// 2516  /* tmp_value = (float)AdcValue/0x1FFF;
// 2517   tmp_value = (float)AdcVcc/0x1FFF*1.25*tmp_value;
// 2518   if(tmp_value <= 2.5)
// 2519   {
// 2520     switch(SOIL_TYPE)
// 2521     {
// 2522      case Clay_Soil:
// 2523           Soil_Humidity.SoilValue = (0.055*tmp_value*tmp_value+0.02*tmp_value-0.0002)*100;
// 2524      break;
// 2525      case Loam_Soil:
// 2526           Soil_Humidity.SoilValue = (0.0145*tmp_value*tmp_value+0.1022*tmp_value+0.0003)*100;
// 2527      break;
// 2528      case Sand_Soil:
// 2529      Soil_Humidity.SoilValue = (0.0154*tmp_value*tmp_value+0.1438*tmp_value-0.0026)*100;
// 2530      break;
// 2531     }
// 2532   } 
// 2533   else 
// 2534   { 
// 2535     Soil_Humidity.SoilValue= 100.0;
// 2536   } */
// 2537   
// 2538 /*
// 2539   SendMsg((uint8 *)&Soil_Humidity, sizeof(Soil_Humidity), p2p_test_DstAddr, SendMsgOption,p2p_test_108ID);  
// 2540 
// 2541 //自己编写
// 2542   
// 2543 
// 2544   uint16 Soil_humidity_data_temp = BUILD_UINT16(Soil_Humidity.AdcValue[1], 
// 2545                                                 Soil_Humidity.AdcValue[0]);
// 2546   uint16 Soil_humidity_vcc_temp = BUILD_UINT16(Soil_Humidity.AdcVcc[1], 
// 2547                                                Soil_Humidity.AdcVcc[0]);
// 2548   float Soil_humidity_data =Soil_humidity_DtoA(Soil_humidity_data_temp,Soil_humidity_vcc_temp);
// 2549   //HalUARTWrite(0,(uint8 *)&(temp_water_gage.water_gage_value),sizeof(temp_water_gage.water_gage_value));
// 2550   //uint16 data = BUILD_UINT16(Msg[3], Msg[4]);
// 2551   //HalUARTWrite(0,(uint8*)&data, sizeof(data));
// 2552   //用于测试
// 2553      uint8 a1 =1;
// 2554      uint8 a2 =2;
// 2555      uint8 a3 =3;
// 2556      uint8 a4 =4;
// 2557      
// 2558       float x=Soil_humidity_data*100;
// 2559       HalUARTWrite_uint16((uint16)x);
// 2560 
// 2561        Soil_humidity_data_and_time.data[Soil_humidity_SerialNumber%3]=Soil_humidity_data;
// 2562        Soil_humidity_data_and_time.time[Soil_humidity_SerialNumber%3]= now;
// 2563               
// 2564       // HalUARTWrite(0,(uint8*)&Water_Gage_data_and_time.time[0], sizeof(Water_Gage_data_and_time.time[0]));
// 2565       // HalUARTWrite(0,(uint8*)&Water_Gage_data_and_time.time[1], sizeof(Water_Gage_data_and_time.time[1]));
// 2566       // HalUARTWrite(0,(uint8*)&Water_Gage_data_and_time.time[2], sizeof(Water_Gage_data_and_time.time[2]));
// 2567        
// 2568      //  HalUARTWrite(0,(uint8*)& Water_Gage_data_and_time.data[Water_gage_SerialNumber%3], sizeof( Water_Gage_data_and_time.data[Water_gage_SerialNumber%3]));
// 2569        Soil_humidity_SerialNumber++;
// 2570   
// 2571   //根据预测值选择定时器时间
// 2572        if(Soil_humidity_SerialNumber >=4)
// 2573            {
// 2574             Soil_humidity_err = (Soil_humidity_data >Soil_humidity_forValue )? 
// 2575                 ( Soil_humidity_data- Soil_humidity_forValue) : 
// 2576                  (Soil_humidity_forValue -Soil_humidity_data);    
// 2577         
// 2578             float y =Soil_humidity_err*100;
// 2579             HalUARTWrite_uint16((uint16)y);
// 2580            // HalUARTWrite_uint16((uint16)&x);
// 2581   
// 2582             
// 2583              if( Soil_humidity_err < Soil_humidity_err_a)
// 2584              {
// 2585                SendSoilHumidityTimeFreq += 2*Soil_humidity_time;
// 2586                HalUARTWrite(0,&a1, sizeof(a1));
// 2587              }
// 2588 
// 2589              else if((Soil_humidity_err >= Soil_humidity_err_a) && ( Soil_humidity_err < Soil_humidity_err_b))  
// 2590              {
// 2591                SendSoilHumidityTimeFreq += Soil_humidity_time;
// 2592                HalUARTWrite(0,&a2, sizeof(a2));
// 2593              }
// 2594             else if((Soil_humidity_err >= Soil_humidity_err_b) && ( Soil_humidity_err < Soil_humidity_err_c))
// 2595              {
// 2596                SendSoilHumidityTimeFreq -= Soil_humidity_time;
// 2597                HalUARTWrite(0,&a3, sizeof(a3));
// 2598              }
// 2599              else if (Soil_humidity_err >= Soil_humidity_err_c)
// 2600              {
// 2601                SendSoilHumidityTimeFreq = (SendSoilHumidityTimeFreq/2) ;
// 2602                HalUARTWrite(0,&a4, sizeof(a4));
// 2603              }
// 2604            }
// 2605        // HalUARTWrite(0,(uint8*)&Water_gage_forValue, sizeof(Water_gage_forValue));
// 2606        // HalUARTWrite(0,(uint8*)&Water_gage_err, sizeof(Water_gage_err));      
// 2607        // HalUARTWrite(0,(uint8*)&SendWaterGageTimeFreq, sizeof(SendWaterGageTimeFreq));
// 2608        // HalUARTWrite(0,(uint8*)&UartHead, sizeof(UartHead))
// 2609        if ( SendSoilHumidityTimeFreq > 8*Soil_humidity_time)
// 2610              SendSoilHumidityTimeFreq = 8*Soil_humidity_time;
// 2611        
// 2612         //HalUARTWrite(0,(uint8*)&SendWaterGageTimeFreq, sizeof(SendWaterGageTimeFreq));
// 2613         HalUARTWrite_uint16(SendSoilHumidityTimeFreq);
// 2614         
// 2615   //从收到第三个数据后开始预测下一个数据
// 2616        if(Soil_humidity_SerialNumber>=3)
// 2617          {
// 2618              Soil_humidity_forValue =Soil_humidity_forecastValue(Soil_humidity_data_and_time);
// 2619               if(Soil_humidity_forValue < 0 ) 
// 2620                 Soil_humidity_forValue=0;
// 2621               else if(Soil_humidity_forValue > 2.5)
// 2622                 Soil_humidity_forValue = 2.5;
// 2623              //HalUARTWrite(0,(uint8*)&Water_gage_forValue, sizeof(Water_gage_forValue));
// 2624             float z =Soil_humidity_forValue*100;
// 2625            HalUARTWrite_uint16((uint16)z);
// 2626          } 
// 2627 
// 2628        
// 2629         start_Soil_humidity_timer();
// 2630       // conPrintROMString("shoudao yige shuju ");
// 2631 
// 2632 
// 2633 
// 2634 
// 2635 }*/
// 2636 
// 2637 
// 2638 /*********************************************************************
// 2639  * @fn      p2p_test_SendAccelerometerTimeFreqAndRequire
// 2640  *
// 2641  * @brief   
// 2642  *
// 2643  * @param   none
// 2644  *
// 2645  * @return  none
// 2646 
// 2647 
// 2648 void p2p_test_SendAccelerometerTimeFreqAndRequire( uint8 FreqOrRequire )
// 2649 {
// 2650   if(FreqOrRequire == FREQ)
// 2651   {
// 2652     uint8 timeout = 0;  
// 2653     if(!SendAccelerometerRemainTime)//SendIlluminationRemainTime==0, send the msg
// 2654     {
// 2655       SendAccelerometerRemainTime = SendAccelerometerTimeFreq;//test unit=second product unit=minute
// 2656       //SendIlluminationRemainTime = SendIlluminationTimeFreq*60;
// 2657       timeout = 1;
// 2658     }
// 2659 
// 2660     if(SendAccelerometerRemainTime>65)//osal_start_timerEx max time is 65.535s
// 2661     {
// 2662       SendAccelerometerRemainTime -= 65;
// 2663       osal_start_timerEx( p2p_test_TaskID,
// 2664                       p2p_test_SEND_ACCELEROMETER_FREQ_MSG_EVT,
// 2665                       65000 );//uint=ms
// 2666     }
// 2667     else
// 2668     {
// 2669        osal_start_timerEx( p2p_test_TaskID,
// 2670                        p2p_test_SEND_ACCELEROMETER_FREQ_MSG_EVT,
// 2671                        SendAccelerometerTimeFreq*1000 );
// 2672        SendAccelerometerRemainTime = 0;
// 2673     }
// 2674     if(!timeout)
// 2675     {
// 2676       return;      
// 2677     }
// 2678   }
// 2679   
// 2680   uint16 AdcValue=0,AdcVcc=0;
// 2681   //HalUARTWrite(0,(uint8 *))
// 2682  // float tmp_value;
// 2683   //P0.7 is input externel Vcc
// 2684   //p0.4 p0.5 is about differential input
// 2685   // P0SEL &=~ (0x04);
// 2686    //P0DIR &=~ (0x04);
// 2687  //  P0SEL &=~ (0x30);
// 2688  //  P0DIR &=~ (0x30);
// 2689    P0SEL &=~ (0xc0);
// 2690    P0DIR &=~ (0xc0);
// 2691   HalAdcInit();
// 2692   //adcground=HalAdcCheckGround(HAL_ADC_RESOLUTION_14);
// 2693   //float tempvalue;
// 2694   AdcVcc = HalAdcReadVcc( HAL_ADC_RESOLUTION_14 );
// 2695  // AdcValue = HalAdcRead(5,HAL_ADC_RESOLUTION_14); 
// 2696   AdcValue=  HalDiffAdcRead(6,7,HAL_ADC_RESOLUTION_14);
// 2697   //tempvalue=(float)AdcVcc/0x1fff;
// 2698   //tempvalue=(float)AdcValue/0x1fff*tempvalue*5;
// 2699   
// 2700   Accelerometer_t Accelerometer;
// 2701   uint8 SendMsgOption, AckRequire;
// 2702   
// 2703   if(FreqOrRequire == FREQ)
// 2704   {
// 2705     SendMsgOption = AF_DISCV_ROUTE|AF_ACK_REQUEST;
// 2706     AckRequire = ACK_NO;    
// 2707   }
// 2708   else{
// 2709     SendMsgOption = AF_DISCV_ROUTE|AF_ACK_REQUEST;
// 2710     AckRequire = ACK_YES;     
// 2711   }
// 2712   fill_AppHead((AppHead_t *)&Accelerometer.AppHead, AckRequire, MAIN_VERSION, SUB_VERSION, TYPE_SENSOR, TYPE_CODE_SENSOR_ACCELEROMETER);
// 2713   fill_NodeId_time((NodeIdAndTime_t *)&Accelerometer.NodeIdAndTime,ARM_ID,Zigbee_ID,EARTHQUAKE_ID);  
// 2714   Accelerometer.AdcVcc[0] = HI_UINT16(AdcVcc);
// 2715   Accelerometer.AdcVcc[1] = LO_UINT16(AdcVcc);
// 2716   Accelerometer.AdcValue[0] = HI_UINT16(AdcValue);
// 2717   Accelerometer.AdcValue[1] = LO_UINT16(AdcValue);
// 2718  // Accelerometer.Accelevalue=tempvalue;
// 2719   SendMsg((uint8 *)&Accelerometer, sizeof(Accelerometer), p2p_test_DstAddr, SendMsgOption,p2p_test_108ID);  
// 2720 } */
// 2721 
// 2722 /*********************************************************************
// 2723  * @fn      p2p_test_Send_VCC_VALUE
// 2724  *
// 2725  * @brief   read vcc and sent to coor.COMMOND FOR supply voltage. read digital value is vcc/3 and ref 
// 2726  *          value is 1.25v of internal voltage .  RESOLUTION is 14 bit .if the dev is coor, 
// 2727  *          send to pc through serial port,other send to coor.
// 2728  *
// 2729  * @param   Freq: the time , send data to coor unit s
// 2730  *          Require: the commend for read value once
// 2731  *
// 2732  * @return  none
// 2733 
// 2734 void p2p_test_Send_VCC_VALUE(uint8 FreqOrRequire)
// 2735 {
// 2736    if (FreqOrRequire == FREQ)
// 2737    {
// 2738      uint8 timeout = 0;
// 2739      if(!SendVccValueRemainTime)
// 2740      {
// 2741        SendVccValueRemainTime = SendVccValueTimeFreq;
// 2742        timeout = 1;
// 2743      }
// 2744      if(SendVccValueRemainTime > 65)//osal_start_timerEx max time is 65.535s
// 2745      {
// 2746        SendVccValueRemainTime -= 65;
// 2747        osal_start_timerEx( p2p_test_TaskID,
// 2748                           p2p_test_SEND_VCC_VALUE_FREQ_MSG_EVT, 
// 2749                           65000);
// 2750      }
// 2751      else 
// 2752      {
// 2753        osal_start_timerEx(p2p_test_TaskID,
// 2754                           p2p_test_SEND_VCC_VALUE_FREQ_MSG_EVT, 
// 2755                           SendVccValueTimeFreq*1000);
// 2756       SendVccValueRemainTime = 0;
// 2757      }
// 2758      if(!timeout)
// 2759      {
// 2760        return;
// 2761      }
// 2762    }
// 2763   //set read adc
// 2764     uint16 AdcVccTmp =0;
// 2765     Vccvalue_t Vccvalue;
// 2766     uint8 SendMsgOption, AckRequire;
// 2767     HalAdcInit();
// 2768     AdcVccTmp = HalAdcReadVcc(HAL_ADC_RESOLUTION_14);
// 2769     AdcVccTmp = AdcVccTmp*3;
// 2770     
// 2771     if(FreqOrRequire == FREQ)
// 2772     {
// 2773       SendMsgOption = AF_DISCV_ROUTE;
// 2774       AckRequire = ACK_NO;
// 2775     }   
// 2776     else
// 2777      {
// 2778       SendMsgOption = AF_DISCV_ROUTE|AF_ACK_REQUEST;
// 2779       AckRequire = ACK_YES;          
// 2780      }
// 2781     fill_AppHead((AppHead_t *)&Vccvalue.AppHead,AckRequire,MAIN_VERSION,
// 2782                  SUB_VERSION,TYPE_SENSOR,TYPE_CODE_SENSOR_READ_VCC);
// 2783     fill_NodeId_time((NodeIdAndTime_t *)&Vccvalue.NodeIdAndTime,ARM_ID,Zigbee_ID,0);
// 2784     Vccvalue.AdcVcc[0] =  HI_UINT16(AdcVccTmp);
// 2785     Vccvalue.AdcVcc[1] =  LO_UINT16(AdcVccTmp);
// 2786     SendMsg((uint8 *)&Vccvalue, sizeof(Vccvalue), p2p_test_DstAddr, 
// 2787             SendMsgOption,p2p_test_108ID); 
// 2788  }
// 2789  */
// 2790 
// 2791 //*********************************************************************
// 2792  /* @fn       crc_water_gage
// 2793  *
// 2794  * @brief   
// 2795  *
// 2796  * @param   Freq: the time , send data to coor unit s
// 2797  *          Require: the commend for read value once
// 2798  *
// 2799  * @return  none
// 2800  */

        RSEG BANKED_CODE:CODE:NOROOT(0)
// 2801 void crc_water_gage(Water_Send_Infor_t *temp)
crc_water_gage:
        CFI Block cfiBlock369 Using cfiCommon0
        CFI Function crc_water_gage
// 2802 {
        MOV     A,#-0x9
        LCALL   ?BANKED_ENTER_XDATA
        CFI DPH0 load(1, XDATA, add(CFA_XSP16, literal(-1)))
        CFI DPL0 load(1, XDATA, add(CFA_XSP16, literal(-2)))
        CFI ?BRET_EXT load(1, XDATA, add(CFA_XSP16, literal(-3)))
        CFI ?RET_HIGH load(1, XDATA, add(CFA_XSP16, literal(-4)))
        CFI ?RET_LOW load(1, XDATA, add(CFA_XSP16, literal(-5)))
        CFI R7 load(1, XDATA, add(CFA_XSP16, literal(-6)))
        CFI V0 load(1, XDATA, add(CFA_XSP16, literal(-7)))
        CFI VB load(1, XDATA, add(CFA_XSP16, literal(-8)))
        CFI R6 load(1, XDATA, add(CFA_XSP16, literal(-9)))
        CFI CFA_SP SP+0
        CFI CFA_XSP16 add(XSP16, 9)
        ; Saved register size: 9
        ; Auto size: 8
        MOV     A,#-0x8
        LCALL   ?ALLOC_XSTACK8
        CFI CFA_XSP16 add(XSP16, 17)
// 2803    uint16 Crc=0xffff;
        MOV     R0,#-0x1
        MOV     R1,#-0x1
// 2804    uint16 a001=0xa001;
// 2805    
// 2806    uint8 a[6],crc[2];
// 2807    a[0]=temp->station_number;
        MOV     DPL,R2
        MOV     DPH,R3
        MOVX    A,@DPTR
        PUSH    A
        CFI CFA_SP SP+-1
        MOV     A,#0x2
        LCALL   ?XSTACK_DISP0_8
        POP     A
        CFI CFA_SP SP+0
        LCALL   ?Subroutine58 & 0xFFFF
// 2808    a[1]=temp->func_code;
??CrossCallReturnLabel_152:
        MOVX    A,@DPTR
        PUSH    A
        CFI CFA_SP SP+-1
        MOV     A,#0x3
        LCALL   ?XSTACK_DISP0_8
        POP     A
        CFI CFA_SP SP+0
        LCALL   ?Subroutine58 & 0xFFFF
// 2809    a[2]=temp->first_addr[0];
??CrossCallReturnLabel_153:
        INC     DPTR
        MOVX    A,@DPTR
        PUSH    A
        CFI CFA_SP SP+-1
        MOV     A,#0x4
        LCALL   ?XSTACK_DISP0_8
        POP     A
        CFI CFA_SP SP+0
        LCALL   ?Subroutine13 & 0xFFFF
// 2810    a[3]=temp->first_addr[1];
??CrossCallReturnLabel_35:
        MOVX    A,@DPTR
        PUSH    A
        CFI CFA_SP SP+-1
        MOV     A,#0x5
        LCALL   ?XSTACK_DISP0_8
        POP     A
        CFI CFA_SP SP+0
        LCALL   ?Subroutine9 & 0xFFFF
// 2811    a[4]=temp->read_num[0];
??CrossCallReturnLabel_28:
        MOVX    A,@DPTR
        PUSH    A
        CFI CFA_SP SP+-1
        MOV     A,#0x6
        LCALL   ?XSTACK_DISP0_8
        POP     A
        CFI CFA_SP SP+0
        LCALL   ?Subroutine9 & 0xFFFF
// 2812    a[5]=temp->read_num[1];
??CrossCallReturnLabel_29:
        INC     DPTR
        MOVX    A,@DPTR
        PUSH    A
        CFI CFA_SP SP+-1
        MOV     A,#0x7
        LCALL   ?XSTACK_DISP0_8
        POP     A
        CFI CFA_SP SP+0
        MOVX    @DPTR,A
// 2813 
// 2814    for(int i=0;i<6;i++)
        MOV     R4,#0x0
        MOV     R5,#0x0
// 2815    {   
// 2816        crc[0]= LO_UINT16(Crc);
??crc_water_gage_0:
        MOV     A,R0
        MOV     DPL,?XSP + 0
        MOV     DPH,?XSP + 1
        MOVX    @DPTR,A
// 2817        crc[1]= HI_UINT16(Crc);
        MOV     A,#0x1
        LCALL   ?XSTACK_DISP0_8
        MOV     A,R1
        MOVX    @DPTR,A
// 2818        crc[0]=crc[0]^a[i];
        MOV     A,#0x2
        LCALL   ?XSTACK_DISP0_8
        MOV     A,DPL
        ADD     A,R4
        MOV     DPL,A
        MOV     A,DPH
        ADDC    A,R5
        MOV     DPH,A
        MOVX    A,@DPTR
        MOV     R6,A
        MOV     DPL,?XSP + 0
        MOV     DPH,?XSP + 1
        MOVX    A,@DPTR
        XRL     A,R6
        MOVX    @DPTR,A
// 2819        Crc= BUILD_UINT16(crc[0],crc[1]);
        MOV     R6,A
        MOV     A,#0x1
        LCALL   ?XSTACK_DISP0_8
        MOVX    A,@DPTR
        MOV     R1,A
        MOV     A,R6
        MOV     R0,A
// 2820       	for(int j=0;j<8;j++)
        MOV     R6,#0x8
// 2821 	{
// 2822 	   if((Crc&0x0001)==1)
??crc_water_gage_1:
        MOV     A,R0
        MOV     C,0xE0 /* A   */.0
        MOV     A,R1
        JNC     ??crc_water_gage_2
// 2823 	   {
// 2824 	     Crc=(Crc>>1)&0x7fff;
// 2825              Crc=Crc^a001;
        CLR     C
        RRC     A
        MOV     R1,A
        MOV     A,R0
        RRC     A
        MOV     R0,A
        MOV     A,#0x1
        XRL     A,R0
        MOV     R0,A
        MOV     A,#-0x60
        XRL     A,R1
        MOV     R1,A
        SJMP    ??crc_water_gage_3
// 2826 	   }
// 2827 	   else if((Crc&0x0001)==0)
// 2828 	    Crc=(Crc>>1)&0x7fff;
??crc_water_gage_2:
        CLR     C
        RRC     A
        MOV     R1,A
        MOV     A,R0
        RRC     A
        MOV     R0,A
// 2829 	}
??crc_water_gage_3:
        DEC     R6
        MOV     A,R6
        JNZ     ??crc_water_gage_1
// 2830 		
// 2831    }
        MOV     A,R4
        ADD     A,#0x1
        INC     R4
        MOV     A,R5
        ADDC    A,#0x0
        MOV     R5,A
        CLR     C
        MOV     A,R4
        SUBB    A,#0x6
        MOV     A,R5
        SUBB    A,#0x0
        MOV     C,0xD0 /* PSW */.2
        XRL     A,PSW
        RLC     A
        JC      ??crc_water_gage_0
// 2832   // uint8 a,b;
// 2833     temp->crc[0]=LO_UINT16(Crc);
        MOV     A,R0
        MOV     DPL,R2
        MOV     DPH,R3
        INC     DPTR
        INC     DPTR
        INC     DPTR
        INC     DPTR
        INC     DPTR
        INC     DPTR
        MOVX    @DPTR,A
// 2834     temp->crc[1]=HI_UINT16(Crc);
        MOV     A,R1
        MOV     DPL,R2
        MOV     DPH,R3
        INC     DPTR
        INC     DPTR
        INC     DPTR
        INC     DPTR
        INC     DPTR
        INC     DPTR
        INC     DPTR
        MOVX    @DPTR,A
// 2835    
// 2836 }
        MOV     A,#0x8
        LCALL   ?DEALLOC_XSTACK8
        CFI CFA_XSP16 add(XSP16, 9)
        LJMP    ?Subroutine70 & 0xFFFF
        CFI EndBlock cfiBlock369

        RSEG BANKED_CODE:CODE:NOROOT(0)
?Subroutine13:
        CFI Block cfiCond370 Using cfiCommon0
        CFI NoFunction
        CFI Conditional ??CrossCallReturnLabel_34
        CFI R6 load(1, XDATA, add(CFA_XSP16, literal(-9)))
        CFI VB load(1, XDATA, add(CFA_XSP16, literal(-8)))
        CFI V0 load(1, XDATA, add(CFA_XSP16, literal(-7)))
        CFI R7 load(1, XDATA, add(CFA_XSP16, literal(-6)))
        CFI ?RET_LOW load(1, XDATA, add(CFA_XSP16, literal(-5)))
        CFI ?RET_HIGH load(1, XDATA, add(CFA_XSP16, literal(-4)))
        CFI ?BRET_EXT load(1, XDATA, add(CFA_XSP16, literal(-3)))
        CFI DPL0 load(1, XDATA, add(CFA_XSP16, literal(-2)))
        CFI DPH0 load(1, XDATA, add(CFA_XSP16, literal(-1)))
        CFI CFA_SP SP+0
        CFI CFA_XSP16 add(XSP16, 9)
        CFI Block cfiCond371 Using cfiCommon0
        CFI (cfiCond371) NoFunction
        CFI (cfiCond371) Conditional ??CrossCallReturnLabel_35
        CFI (cfiCond371) R6 load(1, XDATA, add(CFA_XSP16, literal(-9)))
        CFI (cfiCond371) VB load(1, XDATA, add(CFA_XSP16, literal(-8)))
        CFI (cfiCond371) V0 load(1, XDATA, add(CFA_XSP16, literal(-7)))
        CFI (cfiCond371) R7 load(1, XDATA, add(CFA_XSP16, literal(-6)))
        CFI (cfiCond371) ?RET_LOW load(1, XDATA, add(CFA_XSP16, literal(-5)))
        CFI (cfiCond371) ?RET_HIGH load(1, XDATA, add(CFA_XSP16, literal(-4)))
        CFI (cfiCond371) ?BRET_EXT load(1, XDATA, add(CFA_XSP16, literal(-3)))
        CFI (cfiCond371) DPL0 load(1, XDATA, add(CFA_XSP16, literal(-2)))
        CFI (cfiCond371) DPH0 load(1, XDATA, add(CFA_XSP16, literal(-1)))
        CFI (cfiCond371) CFA_SP SP+0
        CFI (cfiCond371) CFA_XSP16 add(XSP16, 17)
        CFI Block cfiPicker372 Using cfiCommon1
        CFI (cfiPicker372) NoFunction
        CFI (cfiPicker372) Picker
        LCALL   ?Subroutine50 & 0xFFFF
??CrossCallReturnLabel_134:
        RET
        CFI EndBlock cfiCond370
        CFI EndBlock cfiCond371
        CFI EndBlock cfiPicker372

        RSEG BANKED_CODE:CODE:NOROOT(0)
?Subroutine50:
        CFI Block cfiCond373 Using cfiCommon0
        CFI NoFunction
        CFI Conditional ??CrossCallReturnLabel_134, ??CrossCallReturnLabel_34
        CFI R6 load(1, XDATA, add(CFA_XSP16, literal(-9)))
        CFI VB load(1, XDATA, add(CFA_XSP16, literal(-8)))
        CFI V0 load(1, XDATA, add(CFA_XSP16, literal(-7)))
        CFI R7 load(1, XDATA, add(CFA_XSP16, literal(-6)))
        CFI ?RET_LOW load(1, XDATA, add(CFA_XSP16, literal(-5)))
        CFI ?RET_HIGH load(1, XDATA, add(CFA_XSP16, literal(-4)))
        CFI ?BRET_EXT load(1, XDATA, add(CFA_XSP16, literal(-3)))
        CFI DPL0 load(1, XDATA, add(CFA_XSP16, literal(-2)))
        CFI DPH0 load(1, XDATA, add(CFA_XSP16, literal(-1)))
        CFI CFA_SP SP+0
        CFI CFA_XSP16 add(XSP16, 9)
        CFI Block cfiCond374 Using cfiCommon0
        CFI (cfiCond374) NoFunction
        CFI (cfiCond374) Conditional ??CrossCallReturnLabel_134, ??CrossCallReturnLabel_35
        CFI (cfiCond374) R6 load(1, XDATA, add(CFA_XSP16, literal(-9)))
        CFI (cfiCond374) VB load(1, XDATA, add(CFA_XSP16, literal(-8)))
        CFI (cfiCond374) V0 load(1, XDATA, add(CFA_XSP16, literal(-7)))
        CFI (cfiCond374) R7 load(1, XDATA, add(CFA_XSP16, literal(-6)))
        CFI (cfiCond374) ?RET_LOW load(1, XDATA, add(CFA_XSP16, literal(-5)))
        CFI (cfiCond374) ?RET_HIGH load(1, XDATA, add(CFA_XSP16, literal(-4)))
        CFI (cfiCond374) ?BRET_EXT load(1, XDATA, add(CFA_XSP16, literal(-3)))
        CFI (cfiCond374) DPL0 load(1, XDATA, add(CFA_XSP16, literal(-2)))
        CFI (cfiCond374) DPH0 load(1, XDATA, add(CFA_XSP16, literal(-1)))
        CFI (cfiCond374) CFA_SP SP+0
        CFI (cfiCond374) CFA_XSP16 add(XSP16, 17)
        CFI Block cfiCond375 Using cfiCommon0
        CFI (cfiCond375) NoFunction
        CFI (cfiCond375) Conditional ??CrossCallReturnLabel_135, ??CrossCallReturnLabel_28
        CFI (cfiCond375) R6 load(1, XDATA, add(CFA_XSP16, literal(-9)))
        CFI (cfiCond375) VB load(1, XDATA, add(CFA_XSP16, literal(-8)))
        CFI (cfiCond375) V0 load(1, XDATA, add(CFA_XSP16, literal(-7)))
        CFI (cfiCond375) R7 load(1, XDATA, add(CFA_XSP16, literal(-6)))
        CFI (cfiCond375) ?RET_LOW load(1, XDATA, add(CFA_XSP16, literal(-5)))
        CFI (cfiCond375) ?RET_HIGH load(1, XDATA, add(CFA_XSP16, literal(-4)))
        CFI (cfiCond375) ?BRET_EXT load(1, XDATA, add(CFA_XSP16, literal(-3)))
        CFI (cfiCond375) DPL0 load(1, XDATA, add(CFA_XSP16, literal(-2)))
        CFI (cfiCond375) DPH0 load(1, XDATA, add(CFA_XSP16, literal(-1)))
        CFI (cfiCond375) CFA_SP SP+0
        CFI (cfiCond375) CFA_XSP16 add(XSP16, 17)
        CFI Block cfiCond376 Using cfiCommon0
        CFI (cfiCond376) NoFunction
        CFI (cfiCond376) Conditional ??CrossCallReturnLabel_135, ??CrossCallReturnLabel_29
        CFI (cfiCond376) R6 load(1, XDATA, add(CFA_XSP16, literal(-9)))
        CFI (cfiCond376) VB load(1, XDATA, add(CFA_XSP16, literal(-8)))
        CFI (cfiCond376) V0 load(1, XDATA, add(CFA_XSP16, literal(-7)))
        CFI (cfiCond376) R7 load(1, XDATA, add(CFA_XSP16, literal(-6)))
        CFI (cfiCond376) ?RET_LOW load(1, XDATA, add(CFA_XSP16, literal(-5)))
        CFI (cfiCond376) ?RET_HIGH load(1, XDATA, add(CFA_XSP16, literal(-4)))
        CFI (cfiCond376) ?BRET_EXT load(1, XDATA, add(CFA_XSP16, literal(-3)))
        CFI (cfiCond376) DPL0 load(1, XDATA, add(CFA_XSP16, literal(-2)))
        CFI (cfiCond376) DPH0 load(1, XDATA, add(CFA_XSP16, literal(-1)))
        CFI (cfiCond376) CFA_SP SP+0
        CFI (cfiCond376) CFA_XSP16 add(XSP16, 17)
        CFI Block cfiPicker377 Using cfiCommon1
        CFI (cfiPicker377) NoFunction
        CFI (cfiPicker377) Picker
        LCALL   ?Subroutine58 & 0xFFFF
??CrossCallReturnLabel_154:
        INC     DPTR
        INC     DPTR
        RET
        CFI EndBlock cfiCond373
        CFI EndBlock cfiCond374
        CFI EndBlock cfiCond375
        CFI EndBlock cfiCond376
        CFI EndBlock cfiPicker377

        RSEG BANKED_CODE:CODE:NOROOT(0)
?Subroutine58:
        CFI Block cfiCond378 Using cfiCommon0
        CFI NoFunction
        CFI Conditional ??CrossCallReturnLabel_152
        CFI R6 load(1, XDATA, add(CFA_XSP16, literal(-9)))
        CFI VB load(1, XDATA, add(CFA_XSP16, literal(-8)))
        CFI V0 load(1, XDATA, add(CFA_XSP16, literal(-7)))
        CFI R7 load(1, XDATA, add(CFA_XSP16, literal(-6)))
        CFI ?RET_LOW load(1, XDATA, add(CFA_XSP16, literal(-5)))
        CFI ?RET_HIGH load(1, XDATA, add(CFA_XSP16, literal(-4)))
        CFI ?BRET_EXT load(1, XDATA, add(CFA_XSP16, literal(-3)))
        CFI DPL0 load(1, XDATA, add(CFA_XSP16, literal(-2)))
        CFI DPH0 load(1, XDATA, add(CFA_XSP16, literal(-1)))
        CFI CFA_SP SP+0
        CFI CFA_XSP16 add(XSP16, 17)
        CFI Block cfiCond379 Using cfiCommon0
        CFI (cfiCond379) NoFunction
        CFI (cfiCond379) Conditional ??CrossCallReturnLabel_153
        CFI (cfiCond379) R6 load(1, XDATA, add(CFA_XSP16, literal(-9)))
        CFI (cfiCond379) VB load(1, XDATA, add(CFA_XSP16, literal(-8)))
        CFI (cfiCond379) V0 load(1, XDATA, add(CFA_XSP16, literal(-7)))
        CFI (cfiCond379) R7 load(1, XDATA, add(CFA_XSP16, literal(-6)))
        CFI (cfiCond379) ?RET_LOW load(1, XDATA, add(CFA_XSP16, literal(-5)))
        CFI (cfiCond379) ?RET_HIGH load(1, XDATA, add(CFA_XSP16, literal(-4)))
        CFI (cfiCond379) ?BRET_EXT load(1, XDATA, add(CFA_XSP16, literal(-3)))
        CFI (cfiCond379) DPL0 load(1, XDATA, add(CFA_XSP16, literal(-2)))
        CFI (cfiCond379) DPH0 load(1, XDATA, add(CFA_XSP16, literal(-1)))
        CFI (cfiCond379) CFA_SP SP+0
        CFI (cfiCond379) CFA_XSP16 add(XSP16, 17)
        CFI Block cfiCond380 Using cfiCommon0
        CFI (cfiCond380) NoFunction
        CFI (cfiCond380) Conditional ??CrossCallReturnLabel_154, ??CrossCallReturnLabel_134, ??CrossCallReturnLabel_34
        CFI (cfiCond380) R6 load(1, XDATA, add(CFA_XSP16, literal(-9)))
        CFI (cfiCond380) VB load(1, XDATA, add(CFA_XSP16, literal(-8)))
        CFI (cfiCond380) V0 load(1, XDATA, add(CFA_XSP16, literal(-7)))
        CFI (cfiCond380) R7 load(1, XDATA, add(CFA_XSP16, literal(-6)))
        CFI (cfiCond380) ?RET_LOW load(1, XDATA, add(CFA_XSP16, literal(-5)))
        CFI (cfiCond380) ?RET_HIGH load(1, XDATA, add(CFA_XSP16, literal(-4)))
        CFI (cfiCond380) ?BRET_EXT load(1, XDATA, add(CFA_XSP16, literal(-3)))
        CFI (cfiCond380) DPL0 load(1, XDATA, add(CFA_XSP16, literal(-2)))
        CFI (cfiCond380) DPH0 load(1, XDATA, add(CFA_XSP16, literal(-1)))
        CFI (cfiCond380) CFA_SP SP+0
        CFI (cfiCond380) CFA_XSP16 add(XSP16, 9)
        CFI Block cfiCond381 Using cfiCommon0
        CFI (cfiCond381) NoFunction
        CFI (cfiCond381) Conditional ??CrossCallReturnLabel_154, ??CrossCallReturnLabel_134, ??CrossCallReturnLabel_35
        CFI (cfiCond381) R6 load(1, XDATA, add(CFA_XSP16, literal(-9)))
        CFI (cfiCond381) VB load(1, XDATA, add(CFA_XSP16, literal(-8)))
        CFI (cfiCond381) V0 load(1, XDATA, add(CFA_XSP16, literal(-7)))
        CFI (cfiCond381) R7 load(1, XDATA, add(CFA_XSP16, literal(-6)))
        CFI (cfiCond381) ?RET_LOW load(1, XDATA, add(CFA_XSP16, literal(-5)))
        CFI (cfiCond381) ?RET_HIGH load(1, XDATA, add(CFA_XSP16, literal(-4)))
        CFI (cfiCond381) ?BRET_EXT load(1, XDATA, add(CFA_XSP16, literal(-3)))
        CFI (cfiCond381) DPL0 load(1, XDATA, add(CFA_XSP16, literal(-2)))
        CFI (cfiCond381) DPH0 load(1, XDATA, add(CFA_XSP16, literal(-1)))
        CFI (cfiCond381) CFA_SP SP+0
        CFI (cfiCond381) CFA_XSP16 add(XSP16, 17)
        CFI Block cfiCond382 Using cfiCommon0
        CFI (cfiCond382) NoFunction
        CFI (cfiCond382) Conditional ??CrossCallReturnLabel_154, ??CrossCallReturnLabel_135, ??CrossCallReturnLabel_28
        CFI (cfiCond382) R6 load(1, XDATA, add(CFA_XSP16, literal(-9)))
        CFI (cfiCond382) VB load(1, XDATA, add(CFA_XSP16, literal(-8)))
        CFI (cfiCond382) V0 load(1, XDATA, add(CFA_XSP16, literal(-7)))
        CFI (cfiCond382) R7 load(1, XDATA, add(CFA_XSP16, literal(-6)))
        CFI (cfiCond382) ?RET_LOW load(1, XDATA, add(CFA_XSP16, literal(-5)))
        CFI (cfiCond382) ?RET_HIGH load(1, XDATA, add(CFA_XSP16, literal(-4)))
        CFI (cfiCond382) ?BRET_EXT load(1, XDATA, add(CFA_XSP16, literal(-3)))
        CFI (cfiCond382) DPL0 load(1, XDATA, add(CFA_XSP16, literal(-2)))
        CFI (cfiCond382) DPH0 load(1, XDATA, add(CFA_XSP16, literal(-1)))
        CFI (cfiCond382) CFA_SP SP+0
        CFI (cfiCond382) CFA_XSP16 add(XSP16, 17)
        CFI Block cfiCond383 Using cfiCommon0
        CFI (cfiCond383) NoFunction
        CFI (cfiCond383) Conditional ??CrossCallReturnLabel_154, ??CrossCallReturnLabel_135, ??CrossCallReturnLabel_29
        CFI (cfiCond383) R6 load(1, XDATA, add(CFA_XSP16, literal(-9)))
        CFI (cfiCond383) VB load(1, XDATA, add(CFA_XSP16, literal(-8)))
        CFI (cfiCond383) V0 load(1, XDATA, add(CFA_XSP16, literal(-7)))
        CFI (cfiCond383) R7 load(1, XDATA, add(CFA_XSP16, literal(-6)))
        CFI (cfiCond383) ?RET_LOW load(1, XDATA, add(CFA_XSP16, literal(-5)))
        CFI (cfiCond383) ?RET_HIGH load(1, XDATA, add(CFA_XSP16, literal(-4)))
        CFI (cfiCond383) ?BRET_EXT load(1, XDATA, add(CFA_XSP16, literal(-3)))
        CFI (cfiCond383) DPL0 load(1, XDATA, add(CFA_XSP16, literal(-2)))
        CFI (cfiCond383) DPH0 load(1, XDATA, add(CFA_XSP16, literal(-1)))
        CFI (cfiCond383) CFA_SP SP+0
        CFI (cfiCond383) CFA_XSP16 add(XSP16, 17)
        CFI Block cfiPicker384 Using cfiCommon1
        CFI (cfiPicker384) NoFunction
        CFI (cfiPicker384) Picker
        MOVX    @DPTR,A
        MOV     DPL,R2
        MOV     DPH,R3
        INC     DPTR
        RET
        CFI EndBlock cfiCond378
        CFI EndBlock cfiCond379
        CFI EndBlock cfiCond380
        CFI EndBlock cfiCond381
        CFI EndBlock cfiCond382
        CFI EndBlock cfiCond383
        CFI EndBlock cfiPicker384

        RSEG BANKED_CODE:CODE:NOROOT(0)
?Subroutine9:
        CFI Block cfiCond385 Using cfiCommon0
        CFI NoFunction
        CFI Conditional ??CrossCallReturnLabel_28
        CFI R6 load(1, XDATA, add(CFA_XSP16, literal(-9)))
        CFI VB load(1, XDATA, add(CFA_XSP16, literal(-8)))
        CFI V0 load(1, XDATA, add(CFA_XSP16, literal(-7)))
        CFI R7 load(1, XDATA, add(CFA_XSP16, literal(-6)))
        CFI ?RET_LOW load(1, XDATA, add(CFA_XSP16, literal(-5)))
        CFI ?RET_HIGH load(1, XDATA, add(CFA_XSP16, literal(-4)))
        CFI ?BRET_EXT load(1, XDATA, add(CFA_XSP16, literal(-3)))
        CFI DPL0 load(1, XDATA, add(CFA_XSP16, literal(-2)))
        CFI DPH0 load(1, XDATA, add(CFA_XSP16, literal(-1)))
        CFI CFA_SP SP+0
        CFI CFA_XSP16 add(XSP16, 17)
        CFI Block cfiCond386 Using cfiCommon0
        CFI (cfiCond386) NoFunction
        CFI (cfiCond386) Conditional ??CrossCallReturnLabel_29
        CFI (cfiCond386) R6 load(1, XDATA, add(CFA_XSP16, literal(-9)))
        CFI (cfiCond386) VB load(1, XDATA, add(CFA_XSP16, literal(-8)))
        CFI (cfiCond386) V0 load(1, XDATA, add(CFA_XSP16, literal(-7)))
        CFI (cfiCond386) R7 load(1, XDATA, add(CFA_XSP16, literal(-6)))
        CFI (cfiCond386) ?RET_LOW load(1, XDATA, add(CFA_XSP16, literal(-5)))
        CFI (cfiCond386) ?RET_HIGH load(1, XDATA, add(CFA_XSP16, literal(-4)))
        CFI (cfiCond386) ?BRET_EXT load(1, XDATA, add(CFA_XSP16, literal(-3)))
        CFI (cfiCond386) DPL0 load(1, XDATA, add(CFA_XSP16, literal(-2)))
        CFI (cfiCond386) DPH0 load(1, XDATA, add(CFA_XSP16, literal(-1)))
        CFI (cfiCond386) CFA_SP SP+0
        CFI (cfiCond386) CFA_XSP16 add(XSP16, 17)
        CFI Block cfiPicker387 Using cfiCommon1
        CFI (cfiPicker387) NoFunction
        CFI (cfiPicker387) Picker
        LCALL   ?Subroutine50 & 0xFFFF
??CrossCallReturnLabel_135:
        INC     DPTR
        RET
        CFI EndBlock cfiCond385
        CFI EndBlock cfiCond386
        CFI EndBlock cfiPicker387
// 2837 
// 2838 /*********************************************************************
// 2839  * @fn      p2p_test_Send_Water_Gage
// 2840  *
// 2841  * @brief   
// 2842  *
// 2843  * @param   Freq: the time , send data to coor unit s
// 2844  *          Require: the commend for read value once
// 2845  *
// 2846  * @return  none
// 2847  */

        RSEG BANKED_CODE:CODE:NOROOT(0)
// 2848 void p2p_test_Send_Water_Gage(uint8 FreqOrRequire,uint16 watergageuint)
p2p_test_Send_Water_Gage:
        CFI Block cfiBlock388 Using cfiCommon0
        CFI Function p2p_test_Send_Water_Gage
// 2849 {
        FUNCALL p2p_test_Send_Water_Gage, osal_start_timerEx
        LOCFRAME ISTACK, 0, STACK
        LOCFRAME PSTACK, 0, STACK
        LOCFRAME XSTACK, 13, STACK
        LOCFRAME IOVERLAY, 0, STATIC
        LOCFRAME DOVERLAY, 0, STATIC
        ARGFRAME ISTACK, 0, STACK
        ARGFRAME PSTACK, 0, STACK
        ARGFRAME XSTACK, 13, STACK
        ARGFRAME IOVERLAY, 0, STATIC
        ARGFRAME DOVERLAY, 0, STATIC
        FUNCALL p2p_test_Send_Water_Gage, osal_msg_allocate
        LOCFRAME ISTACK, 0, STACK
        LOCFRAME PSTACK, 0, STACK
        LOCFRAME XSTACK, 13, STACK
        LOCFRAME IOVERLAY, 0, STATIC
        LOCFRAME DOVERLAY, 0, STATIC
        ARGFRAME ISTACK, 0, STACK
        ARGFRAME PSTACK, 0, STACK
        ARGFRAME XSTACK, 13, STACK
        ARGFRAME IOVERLAY, 0, STATIC
        ARGFRAME DOVERLAY, 0, STATIC
        FUNCALL p2p_test_Send_Water_Gage, crc_water_gage
        LOCFRAME ISTACK, 0, STACK
        LOCFRAME PSTACK, 0, STACK
        LOCFRAME XSTACK, 13, STACK
        LOCFRAME IOVERLAY, 0, STATIC
        LOCFRAME DOVERLAY, 0, STATIC
        ARGFRAME ISTACK, 0, STACK
        ARGFRAME PSTACK, 0, STACK
        ARGFRAME XSTACK, 13, STACK
        ARGFRAME IOVERLAY, 0, STATIC
        ARGFRAME DOVERLAY, 0, STATIC
        FUNCALL p2p_test_Send_Water_Gage, halWait
        LOCFRAME ISTACK, 0, STACK
        LOCFRAME PSTACK, 0, STACK
        LOCFRAME XSTACK, 13, STACK
        LOCFRAME IOVERLAY, 0, STATIC
        LOCFRAME DOVERLAY, 0, STATIC
        ARGFRAME ISTACK, 0, STACK
        ARGFRAME PSTACK, 0, STACK
        ARGFRAME XSTACK, 13, STACK
        ARGFRAME IOVERLAY, 0, STATIC
        ARGFRAME DOVERLAY, 0, STATIC
        FUNCALL p2p_test_Send_Water_Gage, HalUARTWrite
        LOCFRAME ISTACK, 0, STACK
        LOCFRAME PSTACK, 0, STACK
        LOCFRAME XSTACK, 13, STACK
        LOCFRAME IOVERLAY, 0, STATIC
        LOCFRAME DOVERLAY, 0, STATIC
        ARGFRAME ISTACK, 0, STACK
        ARGFRAME PSTACK, 0, STACK
        ARGFRAME XSTACK, 13, STACK
        ARGFRAME IOVERLAY, 0, STATIC
        ARGFRAME DOVERLAY, 0, STATIC
        FUNCALL p2p_test_Send_Water_Gage, halWait
        LOCFRAME ISTACK, 0, STACK
        LOCFRAME PSTACK, 0, STACK
        LOCFRAME XSTACK, 13, STACK
        LOCFRAME IOVERLAY, 0, STATIC
        LOCFRAME DOVERLAY, 0, STATIC
        ARGFRAME ISTACK, 0, STACK
        ARGFRAME PSTACK, 0, STACK
        ARGFRAME XSTACK, 13, STACK
        ARGFRAME IOVERLAY, 0, STATIC
        ARGFRAME DOVERLAY, 0, STATIC
        FUNCALL p2p_test_Send_Water_Gage, osal_msg_deallocate
        LOCFRAME ISTACK, 0, STACK
        LOCFRAME PSTACK, 0, STACK
        LOCFRAME XSTACK, 13, STACK
        LOCFRAME IOVERLAY, 0, STATIC
        LOCFRAME DOVERLAY, 0, STATIC
        ARGFRAME ISTACK, 0, STACK
        ARGFRAME PSTACK, 0, STACK
        ARGFRAME XSTACK, 13, STACK
        ARGFRAME IOVERLAY, 0, STATIC
        ARGFRAME DOVERLAY, 0, STATIC
        FUNCALL p2p_test_Send_Water_Gage, HalUARTWrite
        LOCFRAME ISTACK, 0, STACK
        LOCFRAME PSTACK, 0, STACK
        LOCFRAME XSTACK, 13, STACK
        LOCFRAME IOVERLAY, 0, STATIC
        LOCFRAME DOVERLAY, 0, STATIC
        ARGFRAME ISTACK, 0, STACK
        ARGFRAME PSTACK, 0, STACK
        ARGFRAME XSTACK, 13, STACK
        ARGFRAME IOVERLAY, 0, STATIC
        ARGFRAME DOVERLAY, 0, STATIC
        MOV     A,#-0xc
        LCALL   ?BANKED_ENTER_XDATA
        CFI DPH0 load(1, XDATA, add(CFA_XSP16, literal(-1)))
        CFI DPL0 load(1, XDATA, add(CFA_XSP16, literal(-2)))
        CFI ?BRET_EXT load(1, XDATA, add(CFA_XSP16, literal(-3)))
        CFI ?RET_HIGH load(1, XDATA, add(CFA_XSP16, literal(-4)))
        CFI ?RET_LOW load(1, XDATA, add(CFA_XSP16, literal(-5)))
        CFI R7 load(1, XDATA, add(CFA_XSP16, literal(-6)))
        CFI V3 load(1, XDATA, add(CFA_XSP16, literal(-7)))
        CFI V2 load(1, XDATA, add(CFA_XSP16, literal(-8)))
        CFI V1 load(1, XDATA, add(CFA_XSP16, literal(-9)))
        CFI V0 load(1, XDATA, add(CFA_XSP16, literal(-10)))
        CFI VB load(1, XDATA, add(CFA_XSP16, literal(-11)))
        CFI R6 load(1, XDATA, add(CFA_XSP16, literal(-12)))
        CFI CFA_SP SP+0
        CFI CFA_XSP16 add(XSP16, 12)
        ; Saved register size: 12
        ; Auto size: 1
        MOV     A,#-0x1
        LCALL   ?ALLOC_XSTACK8
        CFI CFA_XSP16 add(XSP16, 13)
        MOV     A,R2
        MOV     R6,A
        MOV     A,R3
        MOV     R7,A
// 2850  // if (FreqOrRequire == FREQ)
// 2851   //  start_Water_gage_timer();
// 2852  /*  {
// 2853      uint8 timeout = 0;
// 2854      if(!SendWaterGageRemainTime)
// 2855      {
// 2856        SendWaterGageRemainTime= SendWaterGageTimeFreq;
// 2857        timeout = 1;
// 2858      }
// 2859      if(SendWaterGageRemainTime > 65)//osal_start_timerEx max time is 65.535s
// 2860      {
// 2861        SendWaterGageRemainTime-= 65;
// 2862        osal_start_timerEx( p2p_test_TaskID,
// 2863                           p2p_test_SEND_WATER_GAGE_MSG_EVT, 
// 2864                           65000);
// 2865      }
// 2866      else 
// 2867      {
// 2868        osal_start_timerEx(p2p_test_TaskID,
// 2869                           p2p_test_SEND_WATER_GAGE_MSG_EVT, 
// 2870                           SendWaterGageRemainTime*1000);
// 2871       SendWaterGageRemainTime= 0;
// 2872      }
// 2873      if(!timeout)
// 2874      {
// 2875        return;
// 2876      }
// 2877    }*/
// 2878 //P1_1可用
// 2879   if(water_gage_on ==0 )
        MOV     DPTR,#water_gage_on
        MOVX    A,@DPTR
        JNZ     ??p2p_test_Send_Water_Gage_0
// 2880   {
// 2881     if(acceptance == 1)
        MOV     DPTR,#acceptance
        MOVX    A,@DPTR
        XRL     A,#0x1
        JNZ     ??p2p_test_Send_Water_Gage_1
// 2882     {
// 2883        P1_1 = 1;//开启水位计
??p2p_test_Send_Water_Gage_2:
        SETB    0x90.1
        SJMP    ??p2p_test_Send_Water_Gage_3
// 2884     }
// 2885     else if(acceptance == 0 && P1_1 == 0 )
??p2p_test_Send_Water_Gage_1:
        MOVX    A,@DPTR
        JNZ     ??p2p_test_Send_Water_Gage_3
        MOV     C,0x90.1
        JNC     ??p2p_test_Send_Water_Gage_2
// 2886     {
// 2887       P1_1 = 1;
// 2888     }
// 2889     P1_1 = 1;
??p2p_test_Send_Water_Gage_3:
        SETB    0x90.1
// 2890     water_gage_on = 1;
        MOV     A,#0x1
        MOV     DPTR,#water_gage_on
        MOVX    @DPTR,A
// 2891     osal_start_timerEx(p2p_test_TaskID,
// 2892                    p2p_test_SEND_WATER_GAGE_MSG_EVT, 
// 2893                    60000);   //等待一分钟，以使水位计数据稳定
        ; Setup parameters for call to function osal_start_timerEx
        MOV     R4,#0x60
        MOV     R5,#-0x16
        LCALL   ?Subroutine32 & 0xFFFF
??CrossCallReturnLabel_87:
        SJMP    ??CrossCallReturnLabel_165
// 2894   } 
// 2895   else 
// 2896   {
// 2897      no_charge_flag =1;
??p2p_test_Send_Water_Gage_0:
        MOV     A,#0x1
        MOV     DPTR,#no_charge_flag
        MOVX    @DPTR,A
// 2898  //send to uart 
// 2899      Water_Send_Infor_t *temp_water=(Water_Send_Infor_t *)osal_msg_allocate(sizeof(Water_Send_Infor_t));
        ; Setup parameters for call to function osal_msg_allocate
        MOV     R2,#0x8
        MOV     R3,#0x0
        LCALL   ??osal_msg_allocate?relay
        MOV     ?V0 + 0,R2
        MOV     ?V0 + 1,R3
// 2900      temp_water->station_number=Station_Num;
        MOV     A,#0x1
        MOV     DPL,R2
        MOV     DPH,R3
        MOVX    @DPTR,A
// 2901      temp_water->func_code=Water_Func_Code;
        MOV     A,#0x3
        INC     DPTR
        MOVX    @DPTR,A
// 2902      temp_water->first_addr[0]=HI_UINT16(watergageuint);
        MOV     A,R7
        MOV     DPL,R2
        MOV     DPH,R3
        INC     DPTR
        INC     DPTR
        MOVX    @DPTR,A
// 2903      temp_water->first_addr[1]=LO_UINT16(watergageuint);
        MOV     A,R6
        MOV     DPL,R2
        MOV     DPH,R3
        INC     DPTR
        INC     DPTR
        LCALL   ?Subroutine10 & 0xFFFF
// 2904      temp_water->read_num[0]=HI_UINT16(Water_num);
??CrossCallReturnLabel_183:
        INC     DPTR
        INC     DPTR
        MOVX    @DPTR,A
// 2905      temp_water->read_num[1]=LO_UINT16(Water_num);
        MOV     A,#0x2
        MOV     DPL,R2
        MOV     DPH,R3
        INC     DPTR
        INC     DPTR
        INC     DPTR
        INC     DPTR
        INC     DPTR
        MOVX    @DPTR,A
// 2906      crc_water_gage(temp_water);
        ; Setup parameters for call to function crc_water_gage
        LCALL   ??crc_water_gage?relay
// 2907      P1_0=1;
        SETB    0x90.0
// 2908     // P2_0=1;
// 2909      halWait(21);
        ; Setup parameters for call to function halWait
        MOV     R1,#0x15
        LCALL   ??halWait?relay
// 2910    //  halWait(251);
// 2911    //  halWait(251);
// 2912   // HalUARTWrite(0, (uint8 *)(temp_water),sizeof(Water_Send_Infor_t)); 
// 2913    HalUARTWrite(1, (uint8 *)temp_water,sizeof(Water_Send_Infor_t)); 
        ; Setup parameters for call to function HalUARTWrite
        MOV     R4,#0x8
        MOV     R5,#0x0
        MOV     R2,?V0 + 0
        MOV     R3,?V0 + 1
        MOV     R1,#0x1
        LCALL   ??HalUARTWrite?relay
// 2914    halWait(15);
        ; Setup parameters for call to function halWait
        MOV     R1,#0xf
        LCALL   ??halWait?relay
// 2915    osal_msg_deallocate((uint8 *)temp_water);
        ; Setup parameters for call to function osal_msg_deallocate
        MOV     R2,?V0 + 0
        MOV     R3,?V0 + 1
        LCALL   ??osal_msg_deallocate?relay
// 2916    P1_0=~P1_0;
        MOV     C,0x90.0
        CPL     C
        MOV     0x90.0,C
// 2917     
// 2918    //  halWait(20);
// 2919    
// 2920     // Water_Gage_t  temp_water_gage;
// 2921  
// 2922    
// 2923     /* temp_water.station_number=0x01;
// 2924      temp_water.func_code=0x03;
// 2925      temp_water.first_addr[0]=0x00;
// 2926      temp_water.first_addr[1]=0x01;
// 2927      temp_water.read_num[0]=0x00;
// 2928      temp_water.read_num[1]=0x02;
// 2929     // uint8 a=0x01;
// 2930      crc_water_gage(&temp_water);*/
// 2931      
// 2932     // temp_water.crc[0]=0xc4;//LO_UINT16(crc_water_gage(&temp));
// 2933      //temp_water.crc[1]=0x0b;//HI_UINT16(crc_water_gage(&temp));
// 2934       //p2p_test_SendToUart((uint8 *)(&a),1);
// 2935 #if DEBUG 
// 2936           uint8 x3 = 0xCC;
        MOV     A,#-0x34
        LCALL   ?Subroutine1 & 0xFFFF
// 2937           HalUARTWrite(0,&x3, sizeof(x3));
// 2938 #endif  
// 2939   }   
// 2940  }
??CrossCallReturnLabel_165:
        MOV     A,#0x1
        LJMP    ?Subroutine69 & 0xFFFF
        CFI EndBlock cfiBlock388
        REQUIRE _A_P1

        RSEG BANKED_CODE:CODE:NOROOT(0)
?Subroutine10:
        CFI Block cfiCond389 Using cfiCommon0
        CFI NoFunction
        CFI Conditional ??CrossCallReturnLabel_182
        CFI R6 load(1, XDATA, add(CFA_XSP16, literal(-9)))
        CFI VB load(1, XDATA, add(CFA_XSP16, literal(-8)))
        CFI V0 load(1, XDATA, add(CFA_XSP16, literal(-7)))
        CFI R7 load(1, XDATA, add(CFA_XSP16, literal(-6)))
        CFI ?RET_LOW load(1, XDATA, add(CFA_XSP16, literal(-5)))
        CFI ?RET_HIGH load(1, XDATA, add(CFA_XSP16, literal(-4)))
        CFI ?BRET_EXT load(1, XDATA, add(CFA_XSP16, literal(-3)))
        CFI DPL0 load(1, XDATA, add(CFA_XSP16, literal(-2)))
        CFI DPH0 load(1, XDATA, add(CFA_XSP16, literal(-1)))
        CFI CFA_SP SP+0
        CFI CFA_XSP16 add(XSP16, 9)
        CFI Block cfiCond390 Using cfiCommon0
        CFI (cfiCond390) NoFunction
        CFI (cfiCond390) Conditional ??CrossCallReturnLabel_183
        CFI (cfiCond390) R6 load(1, XDATA, add(CFA_XSP16, literal(-12)))
        CFI (cfiCond390) VB load(1, XDATA, add(CFA_XSP16, literal(-11)))
        CFI (cfiCond390) V0 load(1, XDATA, add(CFA_XSP16, literal(-10)))
        CFI (cfiCond390) V1 load(1, XDATA, add(CFA_XSP16, literal(-9)))
        CFI (cfiCond390) V2 load(1, XDATA, add(CFA_XSP16, literal(-8)))
        CFI (cfiCond390) V3 load(1, XDATA, add(CFA_XSP16, literal(-7)))
        CFI (cfiCond390) R7 load(1, XDATA, add(CFA_XSP16, literal(-6)))
        CFI (cfiCond390) ?RET_LOW load(1, XDATA, add(CFA_XSP16, literal(-5)))
        CFI (cfiCond390) ?RET_HIGH load(1, XDATA, add(CFA_XSP16, literal(-4)))
        CFI (cfiCond390) ?BRET_EXT load(1, XDATA, add(CFA_XSP16, literal(-3)))
        CFI (cfiCond390) DPL0 load(1, XDATA, add(CFA_XSP16, literal(-2)))
        CFI (cfiCond390) DPH0 load(1, XDATA, add(CFA_XSP16, literal(-1)))
        CFI (cfiCond390) CFA_SP SP+0
        CFI (cfiCond390) CFA_XSP16 add(XSP16, 13)
        CFI Block cfiPicker391 Using cfiCommon1
        CFI (cfiPicker391) NoFunction
        CFI (cfiPicker391) Picker
        INC     DPTR
        MOVX    @DPTR,A
        CLR     A
        MOV     DPL,R2
        LJMP    ?Subroutine65 & 0xFFFF
        CFI EndBlock cfiCond389
        CFI EndBlock cfiCond390
        CFI EndBlock cfiPicker391
// 2941 
// 2942 
// 2943 
// 2944 /*********************************************************************
// 2945  * @fn      halWait
// 2946  *
// 2947  * @brief   
// 2948  *
// 2949  * @param   none
// 2950  *
// 2951  * @return  none
// 2952  */

        RSEG BANKED_CODE:CODE:NOROOT(0)
// 2953 uint8 halWait(unsigned char wait){
halWait:
        CFI Block cfiBlock392 Using cfiCommon0
        CFI Function halWait
        MOV     A,#-0x10
        LCALL   ?BANKED_ENTER_XDATA
        CFI DPH0 load(1, XDATA, add(CFA_XSP16, literal(-1)))
        CFI DPL0 load(1, XDATA, add(CFA_XSP16, literal(-2)))
        CFI ?BRET_EXT load(1, XDATA, add(CFA_XSP16, literal(-3)))
        CFI ?RET_HIGH load(1, XDATA, add(CFA_XSP16, literal(-4)))
        CFI ?RET_LOW load(1, XDATA, add(CFA_XSP16, literal(-5)))
        CFI R7 load(1, XDATA, add(CFA_XSP16, literal(-6)))
        CFI V7 load(1, XDATA, add(CFA_XSP16, literal(-7)))
        CFI V6 load(1, XDATA, add(CFA_XSP16, literal(-8)))
        CFI V5 load(1, XDATA, add(CFA_XSP16, literal(-9)))
        CFI V4 load(1, XDATA, add(CFA_XSP16, literal(-10)))
        CFI V3 load(1, XDATA, add(CFA_XSP16, literal(-11)))
        CFI V2 load(1, XDATA, add(CFA_XSP16, literal(-12)))
        CFI V1 load(1, XDATA, add(CFA_XSP16, literal(-13)))
        CFI V0 load(1, XDATA, add(CFA_XSP16, literal(-14)))
        CFI VB load(1, XDATA, add(CFA_XSP16, literal(-15)))
        CFI R6 load(1, XDATA, add(CFA_XSP16, literal(-16)))
        CFI CFA_SP SP+0
        CFI CFA_XSP16 add(XSP16, 16)
        ; Saved register size: 16
        ; Auto size: 0
// 2954    unsigned long largeWait;
// 2955 
// 2956    if(wait == 0)
        MOV     A,R1
        JNZ     ??halWait_0
// 2957    {return 0;}
??halWait_1:
        MOV     R1,#0x0
        LJMP    ??Subroutine68_0 & 0xFFFF
// 2958    largeWait = ((unsigned short) (wait << 7));
// 2959    largeWait += 114*wait;
// 2960 
// 2961 
// 2962    largeWait = (largeWait >> CLKSPD);
??halWait_0:
        MOV     DPL,R1
        MOV     R2,DPL
        MOV     ?V0 + 0,R2
        MOV     ?V0 + 1,#0x0
        MOV     A,#0x7
        MOV     R0,#?V0 + 0
        LCALL   ?S_SHL
        MOV     ?V0 + 2,A
        MOV     ?V0 + 3,A
        MOV     A,R2
        MOV     B,#0x72
        MUL     AB
        MOV     R2,A
        MOV     R4,B
        CLR     A
        ADD     A,R4
        MOV     ?V0 + 4,R2
        MOV     ?V0 + 5,A
        RLC     A
        SUBB    A,0xE0 /* A   */
        MOV     ?V0 + 6,A
        MOV     ?V0 + 7,A
        MOV     R0,#?V0 + 0
        MOV     R1,#?V0 + 4
        LCALL   ?L_ADD
        MOV     A,0xc6
        MOV     C,0xE0 /* A   */.0
        CLR     A
        MOV     0xE0 /* A   */.0,C
        MOV     R0,#?V0 + 0
        LCALL   ?UL_SHR
// 2963    while(largeWait--);
??halWait_2:
        MOV     ?V0 + 4,?V0 + 0
        MOV     ?V0 + 5,?V0 + 1
        MOV     ?V0 + 6,?V0 + 2
        MOV     ?V0 + 7,?V0 + 3
        MOV     DPTR,#__Constant_ffffffff
        MOV     R0,#?V0 + 0
        LCALL   ?L_ADD_X
        MOV     DPTR,#__Constant_0
        MOV     R0,#?V0 + 4
        LCALL   ?L_EQ_X
        JNZ     ??halWait_2
        SJMP    ??halWait_1
        CFI EndBlock cfiBlock392
        REQUIRE CLKCON
// 2964 
// 2965    return 0;
// 2966 }
// 2967 
// 2968 //test for route to route
// 2969 
// 2970 /*
// 2971 void READ_TEST(afIncomingMSGPacket_t *pkt )
// 2972 {
// 2973    // afIncomingMSGPacket_t *tmp_pkt=(afIncomingMSGPacket_t)*pkt;
// 2974    // p2p_test_SendToUart(pkt->cmd.Data, pkt->cmd.DataLength);
// 2975     HalUARTWrite(0,(pkt->cmd.Data), pkt->cmd.DataLength);
// 2976 }
// 2977 */
// 2978 

        RSEG BANKED_CODE:CODE:NOROOT(0)
// 2979 void insert_RelationMap(struct RelationMap_t *map,uint16 addr,uint8 zigbee_id)
insert_RelationMap:
        CFI Block cfiBlock393 Using cfiCommon0
        CFI Function insert_RelationMap
// 2980 {
        FUNCALL insert_RelationMap, osal_msg_allocate
        LOCFRAME ISTACK, 0, STACK
        LOCFRAME PSTACK, 0, STACK
        LOCFRAME XSTACK, 14, STACK
        LOCFRAME IOVERLAY, 0, STATIC
        LOCFRAME DOVERLAY, 0, STATIC
        ARGFRAME ISTACK, 0, STACK
        ARGFRAME PSTACK, 0, STACK
        ARGFRAME XSTACK, 14, STACK
        ARGFRAME IOVERLAY, 0, STATIC
        ARGFRAME DOVERLAY, 0, STATIC
        MOV     A,#-0xe
        LCALL   ?BANKED_ENTER_XDATA
        CFI DPH0 load(1, XDATA, add(CFA_XSP16, literal(-1)))
        CFI DPL0 load(1, XDATA, add(CFA_XSP16, literal(-2)))
        CFI ?BRET_EXT load(1, XDATA, add(CFA_XSP16, literal(-3)))
        CFI ?RET_HIGH load(1, XDATA, add(CFA_XSP16, literal(-4)))
        CFI ?RET_LOW load(1, XDATA, add(CFA_XSP16, literal(-5)))
        CFI R7 load(1, XDATA, add(CFA_XSP16, literal(-6)))
        CFI V5 load(1, XDATA, add(CFA_XSP16, literal(-7)))
        CFI V4 load(1, XDATA, add(CFA_XSP16, literal(-8)))
        CFI V3 load(1, XDATA, add(CFA_XSP16, literal(-9)))
        CFI V2 load(1, XDATA, add(CFA_XSP16, literal(-10)))
        CFI V1 load(1, XDATA, add(CFA_XSP16, literal(-11)))
        CFI V0 load(1, XDATA, add(CFA_XSP16, literal(-12)))
        CFI VB load(1, XDATA, add(CFA_XSP16, literal(-13)))
        CFI R6 load(1, XDATA, add(CFA_XSP16, literal(-14)))
        CFI CFA_SP SP+0
        CFI CFA_XSP16 add(XSP16, 14)
        ; Saved register size: 14
        ; Auto size: 0
        MOV     A,R4
        MOV     R6,A
        MOV     A,R5
        MOV     R7,A
        MOV     ?V0 + 2,R1
// 2981    struct RelationMap_t *temp_map=Tail_Map;
        MOV     DPTR,#Tail_Map
        LCALL   ?Subroutine25 & 0xFFFF
// 2982    map=(struct RelationMap_t *)osal_msg_allocate(sizeof(struct RelationMap_t));
??CrossCallReturnLabel_69:
        ; Setup parameters for call to function osal_msg_allocate
        MOV     R2,#0x5
        MOV     R3,#0x0
        LCALL   ??osal_msg_allocate?relay
        MOV     ?V0 + 4,R2
        MOV     ?V0 + 5,R3
        MOV     R0,?V0 + 4
        MOV     R1,?V0 + 5
// 2983    map->addr16=addr;
        MOV     DPL,R0
        MOV     DPH,R1
        MOV     A,R6
        MOVX    @DPTR,A
        INC     DPTR
        MOV     A,R7
        MOVX    @DPTR,A
// 2984    map->Zigbee_id=zigbee_id;
        MOV     DPL,R0
        MOV     DPH,R1
        INC     DPTR
        INC     DPTR
        MOV     A,?V0 + 2
        MOVX    @DPTR,A
// 2985    map->next = NULL;
        MOV     DPL,R0
        MOV     DPH,R1
        INC     DPTR
        INC     DPTR
        INC     DPTR
        CLR     A
        MOVX    @DPTR,A
        INC     DPTR
        MOVX    @DPTR,A
// 2986    if(temp_map!=NULL && map!=NULL)
        MOV     A,?V0 + 0
        JNZ     ??insert_RelationMap_0
        MOV     A,?V0 + 1
??insert_RelationMap_0:
        JZ      ??CrossCallReturnLabel_25
        MOV     A,R0
        JNZ     ??insert_RelationMap_1
        MOV     A,R1
??insert_RelationMap_1:
        JZ      ??CrossCallReturnLabel_25
// 2987    {
// 2988      Tail_Map->next=map;
        MOV     DPTR,#Tail_Map
        MOVX    A,@DPTR
        MOV     R2,A
        INC     DPTR
        MOVX    A,@DPTR
        MOV     DPH,A
        MOV     DPL,R2
        INC     DPTR
        INC     DPTR
        INC     DPTR
        LCALL   ??Subroutine7_0 & 0xFFFF
// 2989      Tail_Map=map;
??CrossCallReturnLabel_24:
        LCALL   ?Subroutine7 & 0xFFFF
// 2990    }
// 2991    //osal_msg_deallocate((uint8 *)map);
// 2992 }
??CrossCallReturnLabel_25:
        MOV     R7,#0x6
        LJMP    ?BANKED_LEAVE_XDATA
        CFI EndBlock cfiBlock393
// 2993 
// 2994 

        RSEG BANKED_CODE:CODE:NOROOT(0)
// 2995 uint8 search_RelationMap(uint16 addr)
search_RelationMap:
        CFI Block cfiBlock394 Using cfiCommon0
        CFI Function search_RelationMap
// 2996 {
        PUSH    DPL
        CFI DPL0 Frame(CFA_SP, 4)
        CFI CFA_SP SP+-4
        PUSH    DPH
        CFI DPH0 Frame(CFA_SP, 5)
        CFI CFA_SP SP+-5
        ; Saved register size: 2
        ; Auto size: 0
// 2997   struct RelationMap_t *temp_map;
// 2998   temp_map=Head_Map;
        MOV     DPTR,#Head_Map
        SJMP    ??search_RelationMap_0
// 2999   while(temp_map!=NULL)
// 3000   {
// 3001     if(addr==temp_map->addr16)
// 3002     {
// 3003       return (temp_map->Zigbee_id);
// 3004     }
// 3005     else
// 3006     {
// 3007       temp_map=temp_map->next;
??search_RelationMap_1:
        INC     DPTR
??search_RelationMap_0:
        LCALL   ??Subroutine27_0 & 0xFFFF
// 3008     }
??CrossCallReturnLabel_80:
        MOV     A,R0
        JNZ     ??search_RelationMap_2
        MOV     A,R1
??search_RelationMap_2:
        JZ      ??search_RelationMap_3
        MOV     DPL,R0
        MOV     DPH,R1
        MOVX    A,@DPTR
        XRL     A,R2
        JNZ     ??search_RelationMap_4
        INC     DPTR
        MOVX    A,@DPTR
        XRL     A,R3
??search_RelationMap_4:
        MOV     DPL,R0
        MOV     DPH,R1
        INC     DPTR
        INC     DPTR
        JNZ     ??search_RelationMap_1
        MOVX    A,@DPTR
        MOV     R1,A
        SJMP    ??search_RelationMap_5
// 3009   }
// 3010   return 0;
??search_RelationMap_3:
        MOV     R1,#0x0
??search_RelationMap_5:
        LJMP    ??Subroutine67_0 & 0xFFFF
        CFI EndBlock cfiBlock394
// 3011 }

        RSEG XDATA_ID:CODE:NOROOT(0)
        DATA
`?<Initializer for p2p_test_ClusterList>`:
        DW 1, 2, 4

        RSEG XDATA_ID:CODE:NOROOT(0)
        DATA
`?<Initializer for p2p_test_SimpleDesc>`:
        DB 10
        DW 3844, 1
        DB 0, 3
        DW p2p_test_ClusterList
        DB 3
        DW p2p_test_ClusterList

        RSEG XDATA_ID:CODE:NOROOT(0)
        DATA
`?<Initializer for __Constant_40400000>`:
        DD 40400000H

        RSEG XDATA_ID:CODE:NOROOT(0)
        DATA
`?<Initializer for __Constant_ffffffff>`:
        DD 4294967295

        RSEG XDATA_ID:CODE:NOROOT(0)
        DATA
`?<Initializer for __Constant_0>`:
        DD 0

        RSEG BANK_RELAYS:CODE:REORDER:NOROOT(0)
??print_AssociatedDevList?relay:
        LCALL   ?BDISPATCH
        DATA
        DC24    print_AssociatedDevList

        RSEG BANK_RELAYS:CODE:REORDER:NOROOT(0)
??check_water_gage_charge?relay:
        LCALL   ?BDISPATCH
        DATA
        DC24    check_water_gage_charge

        RSEG BANK_RELAYS:CODE:REORDER:NOROOT(0)
??HalUARTWrite_uint16?relay:
        LCALL   ?BDISPATCH
        DATA
        DC24    HalUARTWrite_uint16

        RSEG BANK_RELAYS:CODE:REORDER:NOROOT(0)
??Water_gage_forecastValue?relay:
        LCALL   ?BDISPATCH
        DATA
        DC24    Water_gage_forecastValue

        RSEG BANK_RELAYS:CODE:REORDER:NOROOT(0)
??start_Water_gage_timer?relay:
        LCALL   ?BDISPATCH
        DATA
        DC24    start_Water_gage_timer

        RSEG BANK_RELAYS:CODE:REORDER:NOROOT(0)
??p2p_test_Init?relay:
        LCALL   ?BDISPATCH
        DATA
        DC24    p2p_test_Init

        RSEG BANK_RELAYS:CODE:REORDER:NOROOT(0)
??p2p_test_ProcessEvent?relay:
        LCALL   ?BDISPATCH
        DATA
        DC24    p2p_test_ProcessEvent

        RSEG BANK_RELAYS:CODE:REORDER:NOROOT(0)
??p2p_test_ProcessZDOMsgs?relay:
        LCALL   ?BDISPATCH
        DATA
        DC24    p2p_test_ProcessZDOMsgs

        RSEG BANK_RELAYS:CODE:REORDER:NOROOT(0)
??p2p_test_MessageMSGCB?relay:
        LCALL   ?BDISPATCH
        DATA
        DC24    p2p_test_MessageMSGCB

        RSEG BANK_RELAYS:CODE:REORDER:NOROOT(0)
??p2p_test_recv_108clusterId?relay:
        LCALL   ?BDISPATCH
        DATA
        DC24    p2p_test_recv_108clusterId

        RSEG BANK_RELAYS:CODE:REORDER:NOROOT(0)
??p2p_test_recv_RelationMsgclusterId?relay:
        LCALL   ?BDISPATCH
        DATA
        DC24    p2p_test_recv_RelationMsgclusterId

        RSEG BANK_RELAYS:CODE:REORDER:NOROOT(0)
??p2p_test_RecvFromUart?relay:
        LCALL   ?BDISPATCH
        DATA
        DC24    p2p_test_RecvFromUart

        RSEG BANK_RELAYS:CODE:REORDER:NOROOT(0)
??p2p_test_SendToUart?relay:
        LCALL   ?BDISPATCH
        DATA
        DC24    p2p_test_SendToUart

        RSEG BANK_RELAYS:CODE:REORDER:NOROOT(0)
??fill_AppHead?relay:
        LCALL   ?BDISPATCH
        DATA
        DC24    fill_AppHead

        RSEG BANK_RELAYS:CODE:REORDER:NOROOT(0)
??fill_AppHead_sn?relay:
        LCALL   ?BDISPATCH
        DATA
        DC24    fill_AppHead_sn

        RSEG BANK_RELAYS:CODE:REORDER:NOROOT(0)
??fill_NodeId_time?relay:
        LCALL   ?BDISPATCH
        DATA
        DC24    fill_NodeId_time

        RSEG BANK_RELAYS:CODE:REORDER:NOROOT(0)
??SendMsg?relay:
        LCALL   ?BDISPATCH
        DATA
        DC24    SendMsg

        RSEG BANK_RELAYS:CODE:REORDER:NOROOT(0)
??p2p_test_SendRelationPkt?relay:
        LCALL   ?BDISPATCH
        DATA
        DC24    p2p_test_SendRelationPkt

        RSEG BANK_RELAYS:CODE:REORDER:NOROOT(0)
??p2p_test_StartDataSensorTimer?relay:
        LCALL   ?BDISPATCH
        DATA
        DC24    p2p_test_StartDataSensorTimer

        RSEG BANK_RELAYS:CODE:REORDER:NOROOT(0)
??crc_water_gage?relay:
        LCALL   ?BDISPATCH
        DATA
        DC24    crc_water_gage

        RSEG BANK_RELAYS:CODE:REORDER:NOROOT(0)
??p2p_test_Send_Water_Gage?relay:
        LCALL   ?BDISPATCH
        DATA
        DC24    p2p_test_Send_Water_Gage

        RSEG BANK_RELAYS:CODE:REORDER:NOROOT(0)
??halWait?relay:
        LCALL   ?BDISPATCH
        DATA
        DC24    halWait

        RSEG BANK_RELAYS:CODE:REORDER:NOROOT(0)
??insert_RelationMap?relay:
        LCALL   ?BDISPATCH
        DATA
        DC24    insert_RelationMap

        RSEG BANK_RELAYS:CODE:REORDER:NOROOT(0)
??search_RelationMap?relay:
        LCALL   ?BDISPATCH
        DATA
        DC24    search_RelationMap

        END
// 
// 7 562 bytes in segment BANKED_CODE
//   144 bytes in segment BANK_RELAYS
//     9 bytes in segment SFR_AN
//    30 bytes in segment XDATA_I
//    30 bytes in segment XDATA_ID
//    77 bytes in segment XDATA_Z
// 
// 7 724 bytes of CODE  memory (+ 12 bytes shared)
//     0 bytes of DATA  memory (+  9 bytes shared)
//    95 bytes of XDATA memory (+ 12 bytes shared)
//
//Errors: none
//Warnings: none
