///////////////////////////////////////////////////////////////////////////////
//                                                                            /
// IAR 8051 C/C++ Compiler V7.30B/W32                   24/Jun/2011  23:53:23 /
// Copyright 2004-2007 IAR Systems. All rights reserved.                      /
//                                                                            /
//    Core               =  plain                                             /
//    Code model         =  banked                                            /
//    Data model         =  large                                             /
//    Calling convention =  xdata reentrant                                   /
//    Constant location  =  data                                              /
//    Dptr setup         =  1,16                                              /
//    Source file        =  C:\Texas Instruments\ZStack-1.4.3-1.2.1\Component /
//                          s\hal\target\CC2430EB\hal_key.c                   /
//    Command line       =  -f "C:\Texas Instruments\ZStack-1.4.3-1.2.1\Proje /
//                          cts\zstack\Samples\SampleApp\CC2430DB\..\..\..\To /
//                          ols\CC2430DB\f8wCoord.cfg" (-DCPU32MHZ            /
//                          -DFORCE_MAC_NEAR -DROOT=__near_func               /
//                          -DMAC_CFG_APP_PENDING_QUEUE=TRUE                  /
//                          -DZDO_COORDINATOR -DRTR_NWK -DBLINK_LEDS          /
//                          "-DCONST=const __code" -DGENERIC=__generic) -f    /
//                          "C:\Texas Instruments\ZStack-1.4.3-1.2.1\Projects /
//                          \zstack\Samples\SampleApp\CC2430DB\..\..\..\Tools /
//                          \CC2430DB\f8wConfig.cfg" (-DSECURE=0              /
//                          -DDEFAULT_CHANLIST=0x00000800                     /
//                          -DZDAPP_CONFIG_PAN_ID=0xFFFF                      /
//                          -DNWK_START_DELAY=100 -DEXTENDED_JOINING_RANDOM_M /
//                          ASK=0x007F -DBEACON_REQUEST_DELAY=100             /
//                          -DBEACON_REQ_DELAY_MASK=0x00FF                    /
//                          -DROUTE_EXPIRY_TIME=30 -DAPSC_ACK_WAIT_DURATION_P /
//                          OLLED=3000 -DNWK_INDIRECT_MSG_TIMEOUT=7           /
//                          -DMAX_RREQ_ENTRIES=10 -DAPSC_MAX_FRAME_RETRIES=3  /
//                          -DNWK_MAX_DATA_RETRIES=2                          /
//                          -DMAX_POLL_FAILURE_RETRIES=2 -DMAX_BCAST=9        /
//                          -DAPS_MAX_GROUPS=16 -DMAX_RTG_ENTRIES=20          /
//                          -DNWK_MAX_BINDING_ENTRIES=10                      /
//                          -DMAX_BINDING_CLUSTER_IDS=5                       /
//                          "-DDEFAULT_KEY={0x01, 0x03, 0x05, 0x07, 0x09,     /
//                          0x0B, 0x0D, 0x0F, 0x00, 0x02, 0x04, 0x06, 0x08,   /
//                          0x0A, 0x0C, 0x0D}" -DRFD_RCVC_ALWAYS_ON=FALSE     /
//                          -DPOLL_RATE=1000 -DQUEUED_POLL_RATE=100           /
//                          -DRESPONSE_POLL_RATE=100) -DREJOIN_POLL_RATE=440  /
//                          "C:\Texas Instruments\ZStack-1.4.3-1.2.1\Componen /
//                          ts\hal\target\CC2430EB\hal_key.c" -D CC2430EB -D  /
//                          ZAPP_P1 -D MT_TASK -D LCD_SUPPORTED=DEBUG -lC     /
//                          "C:\Texas Instruments\ZStack-1.4.3-1.2.1\Projects /
//                          \zstack\Samples\SampleApp\CC2430DB\CoordinatorEB\ /
//                          List\" -lA "C:\Texas Instruments\ZStack-1.4.3-1.2 /
//                          .1\Projects\zstack\Samples\SampleApp\CC2430DB\Coo /
//                          rdinatorEB\List\" --diag_suppress Pe001,Pa010     /
//                          --diag_remark pe550 -o "C:\Texas                  /
//                          Instruments\ZStack-1.4.3-1.2.1\Projects\zstack\Sa /
//                          mples\SampleApp\CC2430DB\CoordinatorEB\Obj\" -e   /
//                          --require_prototypes -z9 --no_code_motion         /
//                          --debug --core=plain --dptr=16,1                  /
//                          --data_model=large --code_model=banked            /
//                          --calling_convention=xdata_reentrant              /
//                          --place_constants=data --nr_virtual_regs 8 -I     /
//                          "C:\Texas Instruments\ZStack-1.4.3-1.2.1\Projects /
//                          \zstack\Samples\SampleApp\CC2430DB\" -I           /
//                          "C:\Texas Instruments\ZStack-1.4.3-1.2.1\Projects /
//                          \zstack\Samples\SampleApp\CC2430DB\..\SOURCE\"    /
//                          -I "C:\Texas Instruments\ZStack-1.4.3-1.2.1\Proje /
//                          cts\zstack\Samples\SampleApp\CC2430DB\..\..\..\ZM /
//                          AIN\TI2430DB\" -I "C:\Texas                       /
//                          Instruments\ZStack-1.4.3-1.2.1\Projects\zstack\Sa /
//                          mples\SampleApp\CC2430DB\..\..\..\..\..\COMPONENT /
//                          S\MT\" -I "C:\Texas Instruments\ZStack-1.4.3-1.2. /
//                          1\Projects\zstack\Samples\SampleApp\CC2430DB\..\. /
//                          .\..\..\..\COMPONENTS\HAL\INCLUDE\" -I "C:\Texas  /
//                          Instruments\ZStack-1.4.3-1.2.1\Projects\zstack\Sa /
//                          mples\SampleApp\CC2430DB\..\..\..\..\..\COMPONENT /
//                          S\HAL\TARGET\CC2430EB\" -I "C:\Texas              /
//                          Instruments\ZStack-1.4.3-1.2.1\Projects\zstack\Sa /
//                          mples\SampleApp\CC2430DB\..\..\..\..\..\COMPONENT /
//                          S\OSAL\MCU\CCSOC\" -I "C:\Texas                   /
//                          Instruments\ZStack-1.4.3-1.2.1\Projects\zstack\Sa /
//                          mples\SampleApp\CC2430DB\..\..\..\..\..\COMPONENT /
//                          S\OSAL\INCLUDE\" -I "C:\Texas                     /
//                          Instruments\ZStack-1.4.3-1.2.1\Projects\zstack\Sa /
//                          mples\SampleApp\CC2430DB\..\..\..\..\..\COMPONENT /
//                          S\STACK\AF\" -I "C:\Texas                         /
//                          Instruments\ZStack-1.4.3-1.2.1\Projects\zstack\Sa /
//                          mples\SampleApp\CC2430DB\..\..\..\..\..\COMPONENT /
//                          S\STACK\NWK\" -I "C:\Texas                        /
//                          Instruments\ZStack-1.4.3-1.2.1\Projects\zstack\Sa /
//                          mples\SampleApp\CC2430DB\..\..\..\..\..\COMPONENT /
//                          S\STACK\SEC\" -I "C:\Texas                        /
//                          Instruments\ZStack-1.4.3-1.2.1\Projects\zstack\Sa /
//                          mples\SampleApp\CC2430DB\..\..\..\..\..\COMPONENT /
//                          S\STACK\SYS\" -I "C:\Texas                        /
//                          Instruments\ZStack-1.4.3-1.2.1\Projects\zstack\Sa /
//                          mples\SampleApp\CC2430DB\..\..\..\..\..\COMPONENT /
//                          S\STACK\ZDO\" -I "C:\Texas                        /
//                          Instruments\ZStack-1.4.3-1.2.1\Projects\zstack\Sa /
//                          mples\SampleApp\CC2430DB\..\..\..\..\..\COMPONENT /
//                          S\ZMAC\F8W\" -I "C:\Texas                         /
//                          Instruments\ZStack-1.4.3-1.2.1\Projects\zstack\Sa /
//                          mples\SampleApp\CC2430DB\..\..\..\..\..\COMPONENT /
//                          S\ZMAC\" -I "C:\Texas Instruments\ZStack-1.4.3-1. /
//                          2.1\Projects\zstack\Samples\SampleApp\CC2430DB\.. /
//                          \..\..\..\..\COMPONENTS\SERVICES\SADDR\" -I       /
//                          "C:\Texas Instruments\ZStack-1.4.3-1.2.1\Projects /
//                          \zstack\Samples\SampleApp\CC2430DB\..\..\..\..\.. /
//                          \COMPONENTS\SERVICES\SDATA\" -I "C:\Texas         /
//                          Instruments\ZStack-1.4.3-1.2.1\Projects\zstack\Sa /
//                          mples\SampleApp\CC2430DB\..\..\..\..\..\COMPONENT /
//                          S\MAC\INCLUDE\" -I "C:\Texas                      /
//                          Instruments\ZStack-1.4.3-1.2.1\Projects\zstack\Sa /
//                          mples\SampleApp\CC2430DB\..\..\..\..\..\COMPONENT /
//                          S\MAC\HIGH_LEVEL\" -I "C:\Texas                   /
//                          Instruments\ZStack-1.4.3-1.2.1\Projects\zstack\Sa /
//                          mples\SampleApp\CC2430DB\..\..\..\..\..\COMPONENT /
//                          S\MAC\LOW_LEVEL\SRF03\" -I "C:\Texas              /
//                          Instruments\ZStack-1.4.3-1.2.1\Projects\zstack\Sa /
//                          mples\SampleApp\CC2430DB\..\..\..\..\..\COMPONENT /
//                          S\MAC\LOW_LEVEL\SRF03\SINGLE_CHIP\" -I            /
//                          "C:\Program Files\IAR Systems\Embedded Workbench  /
//                          4.0 Evaluation version\8051\INC\" -I "C:\Program  /
//                          Files\IAR Systems\Embedded Workbench 4.0          /
//                          Evaluation version\8051\INC\CLIB\"                /
//    List file          =  C:\Texas Instruments\ZStack-1.4.3-1.2.1\Projects\ /
//                          zstack\Samples\SampleApp\CC2430DB\CoordinatorEB\L /
//                          ist\hal_key.s51                                   /
//                                                                            /
//                                                                            /
///////////////////////////////////////////////////////////////////////////////

        NAME hal_key

        RTMODEL "__calling_convention", "xdata_reentrant"
        RTMODEL "__code_model", "banked"
        RTMODEL "__core", "plain"
        RTMODEL "__data_model", "large"
        RTMODEL "__dptr_size", "16"
        RTMODEL "__extended_stack", "disabled"
        RTMODEL "__location_for_constants", "data"
        RTMODEL "__number_of_dptrs", "1"
        RTMODEL "__rt_version", "1"

        RSEG DOVERLAY:DATA:NOROOT(0)
        RSEG IOVERLAY:IDATA:NOROOT(0)
        RSEG ISTACK:IDATA:NOROOT(0)
        RSEG PSTACK:XDATA:NOROOT(0)
        RSEG XSTACK:XDATA:NOROOT(0)

        EXTERN ??OpenP1Interrupt?relay
        EXTERN ??P1_0_ISR_fun?relay
        EXTERN ??P1_1_ISR_fun?relay
        EXTERN ??P1_2_ISR_fun?relay
        EXTERN ??P1_3_ISR_fun?relay
        EXTERN ??P1_4_ISR_fun?relay
        EXTERN ??P1_5_ISR_fun?relay
        EXTERN ??P1_6_ISR_fun?relay
        EXTERN ??P1_7_ISR_fun?relay
        EXTERN ??StartP1Interrupt?relay
        EXTERN ?BANKED_ENTER_XDATA
        EXTERN ?BANKED_LEAVE_XDATA
        EXTERN ?BDISPATCH
        EXTERN ?BRET
        EXTERN ?CALL_IND
        EXTERN ?INTERRUPT_ENTER_XSP
        EXTERN ?INTERRUPT_LEAVE_XSP
        EXTERN ?S_SHL
        EXTERN ?UC_SWITCH_DENSE
        EXTERN ?V0
        EXTERN __INIT_XDATA_Z

        PUBLIC ??CloseP1Interrupt?relay
        FUNCTION ??CloseP1Interrupt?relay,0203H
        PUBLIC ??HalKeyConfig?relay
        FUNCTION ??HalKeyConfig?relay,0203H
        PUBLIC ??HalKeyEnterSleep?relay
        FUNCTION ??HalKeyEnterSleep?relay,0203H
        PUBLIC ??HalKeyExitSleep?relay
        FUNCTION ??HalKeyExitSleep?relay,0203H
        PUBLIC ??HalKeyInit?relay
        FUNCTION ??HalKeyInit?relay,0203H
        PUBLIC ??HalKeyPoll?relay
        FUNCTION ??HalKeyPoll?relay,0203H
        PUBLIC ??HalKeyRead?relay
        FUNCTION ??HalKeyRead?relay,0203H
        PUBLIC ??HalP1InterruptConfigAfter?relay
        FUNCTION ??HalP1InterruptConfigAfter?relay,0203H
        PUBLIC ??HalP1InterruptConfigBefore?relay
        FUNCTION ??HalP1InterruptConfigBefore?relay,0203H
        PUBLIC ??OpenP1Interrupt?relay
        FUNCTION ??OpenP1Interrupt?relay,0203H
        PUBLIC ??P1_0_ISR_fun?relay
        FUNCTION ??P1_0_ISR_fun?relay,0203H
        PUBLIC ??P1_1_ISR_fun?relay
        FUNCTION ??P1_1_ISR_fun?relay,0203H
        PUBLIC ??P1_2_ISR_fun?relay
        FUNCTION ??P1_2_ISR_fun?relay,0203H
        PUBLIC ??P1_3_ISR_fun?relay
        FUNCTION ??P1_3_ISR_fun?relay,0203H
        PUBLIC ??P1_4_ISR_fun?relay
        FUNCTION ??P1_4_ISR_fun?relay,0203H
        PUBLIC ??P1_5_ISR_fun?relay
        FUNCTION ??P1_5_ISR_fun?relay,0203H
        PUBLIC ??P1_6_ISR_fun?relay
        FUNCTION ??P1_6_ISR_fun?relay,0203H
        PUBLIC ??P1_7_ISR_fun?relay
        FUNCTION ??P1_7_ISR_fun?relay,0203H
        PUBLIC ??QueryP1Interrupt?relay
        FUNCTION ??QueryP1Interrupt?relay,0203H
        PUBLIC ??RegisterP1Interrupt?relay
        FUNCTION ??RegisterP1Interrupt?relay,0203H
        PUBLIC ??StartP1Interrupt?relay
        FUNCTION ??StartP1Interrupt?relay,0203H
        PUBLIC ??StopP1Interrupt?relay
        FUNCTION ??StopP1Interrupt?relay,0203H
        PUBWEAK `??halP1Isr??INTVEC 123`
        PUBLIC ??halProcessKeyInterrupt?relay
        FUNCTION ??halProcessKeyInterrupt?relay,0203H
        PUBLIC CloseP1Interrupt
        FUNCTION CloseP1Interrupt,0203H
        ARGFRAME XSTACK, 0, STACK
        LOCFRAME ISTACK, 2, STACK
        PUBLIC HalKeyConfig
        FUNCTION HalKeyConfig,0203H
        ARGFRAME XSTACK, 0, STACK
        PUBLIC HalKeyEnterSleep
        FUNCTION HalKeyEnterSleep,0203H
        ARGFRAME XSTACK, 0, STACK
        PUBLIC HalKeyExitSleep
        FUNCTION HalKeyExitSleep,0203H
        ARGFRAME XSTACK, 0, STACK
        PUBLIC HalKeyInit
        FUNCTION HalKeyInit,0203H
        ARGFRAME XSTACK, 0, STACK
        PUBLIC HalKeyPoll
        FUNCTION HalKeyPoll,0203H
        ARGFRAME XSTACK, 0, STACK
        PUBLIC HalKeyRead
        FUNCTION HalKeyRead,0203H
        ARGFRAME XSTACK, 0, STACK
        PUBLIC HalP1InterruptConfigAfter
        FUNCTION HalP1InterruptConfigAfter,021203H
        ARGFRAME XSTACK, 0, STACK
        LOCFRAME ISTACK, 2, STACK
        PUBLIC HalP1InterruptConfigBefore
        FUNCTION HalP1InterruptConfigBefore,0203H
        ARGFRAME XSTACK, 0, STACK
        LOCFRAME ISTACK, 3, STACK
        PUBLIC Hal_KeyIntEnable
        PUBWEAK IEN2
        PUBLIC OpenP1Interrupt
        FUNCTION OpenP1Interrupt,080203H
        ARGFRAME XSTACK, 0, STACK
        ARGFRAME IOVERLAY, 0, STATIC
        ARGFRAME DOVERLAY, 0, STATIC
        LOCFRAME XSTACK, 10, STACK
        PUBWEAK P0INP
        PUBWEAK P1DIR
        PUBWEAK P1IEN
        PUBWEAK P1IFG
        PUBWEAK P1INP
        PUBWEAK P1SEL
        PUBLIC P1_0_ISR_fun
        FUNCTION P1_0_ISR_fun,0603H
        ARGFRAME XSTACK, 0, STACK
        PUBLIC P1_1_ISR_fun
        FUNCTION P1_1_ISR_fun,0603H
        ARGFRAME XSTACK, 0, STACK
        PUBLIC P1_2_ISR_fun
        FUNCTION P1_2_ISR_fun,021603H
        ARGFRAME XSTACK, 0, STACK
        LOCFRAME ISTACK, 1, STACK
        LOCFRAME XSTACK, 10, STACK
        PUBLIC P1_3_ISR_fun
        FUNCTION P1_3_ISR_fun,0603H
        ARGFRAME XSTACK, 0, STACK
        PUBLIC P1_4_ISR_fun
        FUNCTION P1_4_ISR_fun,0603H
        ARGFRAME XSTACK, 0, STACK
        PUBLIC P1_5_ISR_fun
        FUNCTION P1_5_ISR_fun,0603H
        ARGFRAME XSTACK, 0, STACK
        PUBLIC P1_6_ISR_fun
        FUNCTION P1_6_ISR_fun,0603H
        ARGFRAME XSTACK, 0, STACK
        PUBLIC P1_7_ISR_fun
        FUNCTION P1_7_ISR_fun,0603H
        ARGFRAME XSTACK, 0, STACK
        PUBWEAK P2DIR
        PUBWEAK P2INP
        PUBWEAK P2SEL
        PUBWEAK PICTL
        PUBLIC QueryP1Interrupt
        FUNCTION QueryP1Interrupt,080203H
        ARGFRAME XSTACK, 0, STACK
        LOCFRAME ISTACK, 2, STACK
        PUBLIC RegisterP1Interrupt
        FUNCTION RegisterP1Interrupt,0203H
        ARGFRAME XSTACK, 0, STACK
        LOCFRAME ISTACK, 1, STACK
        LOCFRAME XSTACK, 10, STACK
        PUBLIC StartP1Interrupt
        FUNCTION StartP1Interrupt,0203H
        ARGFRAME XSTACK, 0, STACK
        ARGFRAME IOVERLAY, 0, STATIC
        ARGFRAME DOVERLAY, 0, STATIC
        LOCFRAME ISTACK, 2, STACK
        PUBLIC StopP1Interrupt
        FUNCTION StopP1Interrupt,0203H
        ARGFRAME XSTACK, 0, STACK
        LOCFRAME ISTACK, 2, STACK
        PUBWEAK _A_IEN0
        PUBWEAK _A_IRCON2
        PUBWEAK _A_P2
        PUBLIC halP1Isr
        FUNCTION halP1Isr,0233H
        ARGFRAME XSTACK, 0, STACK
        LOCFRAME ISTACK, 16, STACK
        PUBLIC halProcessKeyInterrupt
        FUNCTION halProcessKeyInterrupt,0203H
        ARGFRAME XSTACK, 0, STACK
        PUBLIC halSaveIntKey
        
        CFI Names cfiNames0
        CFI StackFrame CFA_SP SP DATA
        CFI StackFrame CFA_PSP16 PSP16 XDATA
        CFI StackFrame CFA_XSP16 XSP16 XDATA
        CFI StaticOverlayFrame CFA_IOVERLAY IOVERLAY
        CFI StaticOverlayFrame CFA_DOVERLAY DOVERLAY
        CFI Resource `PSW.CY`:1, `B.BR0`:1, `B.BR1`:1, `B.BR2`:1, `B.BR3`:1
        CFI Resource `B.BR4`:1, `B.BR5`:1, `B.BR6`:1, `B.BR7`:1, `VB.BR8`:1
        CFI Resource `VB.BR9`:1, `VB.BR10`:1, `VB.BR11`:1, `VB.BR12`:1
        CFI Resource `VB.BR13`:1, `VB.BR14`:1, `VB.BR15`:1, VB:8, B:8, A:8
        CFI Resource PSW:8, DPL0:8, DPH0:8, R0:8, R1:8, R2:8, R3:8, R4:8, R5:8
        CFI Resource R6:8, R7:8, V0:8, V1:8, V2:8, V3:8, V4:8, V5:8, V6:8, V7:8
        CFI Resource SP:8, PSPH:8, PSPL:8, PSP16:16, XSPH:8, XSPL:8, XSP16:16
        CFI VirtualResource ?RET:24
        CFI Resource ?BRET_EXT:8
        CFI VirtualResource ?RET_HIGH:8, ?RET_LOW:8
        CFI ResourceParts PSP16 PSPH, PSPL
        CFI ResourceParts XSP16 XSPH, XSPL
        CFI ResourceParts ?RET ?BRET_EXT, ?RET_HIGH, ?RET_LOW
        CFI EndNames cfiNames0
        
        CFI Common cfiCommon0 Using cfiNames0
        CFI CodeAlign 1
        CFI DataAlign -1
        CFI ReturnAddress ?RET CODE
        CFI CFA_DOVERLAY Used
        CFI CFA_IOVERLAY Used
        CFI CFA_SP SP+-3
        CFI CFA_PSP16 PSP16+0
        CFI CFA_XSP16 XSP16+0
        CFI `PSW.CY` SameValue
        CFI `B.BR0` SameValue
        CFI `B.BR1` SameValue
        CFI `B.BR2` SameValue
        CFI `B.BR3` SameValue
        CFI `B.BR4` SameValue
        CFI `B.BR5` SameValue
        CFI `B.BR6` SameValue
        CFI `B.BR7` SameValue
        CFI `VB.BR8` SameValue
        CFI `VB.BR9` SameValue
        CFI `VB.BR10` SameValue
        CFI `VB.BR11` SameValue
        CFI `VB.BR12` SameValue
        CFI `VB.BR13` SameValue
        CFI `VB.BR14` SameValue
        CFI `VB.BR15` SameValue
        CFI VB SameValue
        CFI B Undefined
        CFI A Undefined
        CFI PSW SameValue
        CFI DPL0 SameValue
        CFI DPH0 SameValue
        CFI R0 Undefined
        CFI R1 Undefined
        CFI R2 Undefined
        CFI R3 Undefined
        CFI R4 Undefined
        CFI R5 Undefined
        CFI R6 SameValue
        CFI R7 SameValue
        CFI V0 SameValue
        CFI V1 SameValue
        CFI V2 SameValue
        CFI V3 SameValue
        CFI V4 SameValue
        CFI V5 SameValue
        CFI V6 SameValue
        CFI V7 SameValue
        CFI PSPH Undefined
        CFI PSPL Undefined
        CFI XSPH Undefined
        CFI XSPL Undefined
        CFI ?RET Concat
        CFI ?BRET_EXT Frame(CFA_SP, 3)
        CFI ?RET_HIGH Frame(CFA_SP, 2)
        CFI ?RET_LOW Frame(CFA_SP, 1)
        CFI EndCommon cfiCommon0
        
        
        CFI Common cfiCommon1 Using cfiNames0
        CFI CodeAlign 1
        CFI DataAlign -1
        CFI ReturnAddress ?RET CODE
        CFI CFA_DOVERLAY Used
        CFI CFA_IOVERLAY Used
        CFI CFA_SP SP+-2
        CFI CFA_PSP16 PSP16+0
        CFI CFA_XSP16 XSP16+0
        CFI `PSW.CY` SameValue
        CFI `B.BR0` SameValue
        CFI `B.BR1` SameValue
        CFI `B.BR2` SameValue
        CFI `B.BR3` SameValue
        CFI `B.BR4` SameValue
        CFI `B.BR5` SameValue
        CFI `B.BR6` SameValue
        CFI `B.BR7` SameValue
        CFI `VB.BR8` SameValue
        CFI `VB.BR9` SameValue
        CFI `VB.BR10` SameValue
        CFI `VB.BR11` SameValue
        CFI `VB.BR12` SameValue
        CFI `VB.BR13` SameValue
        CFI `VB.BR14` SameValue
        CFI `VB.BR15` SameValue
        CFI VB SameValue
        CFI B SameValue
        CFI A SameValue
        CFI PSW SameValue
        CFI DPL0 SameValue
        CFI DPH0 SameValue
        CFI R0 SameValue
        CFI R1 SameValue
        CFI R2 SameValue
        CFI R3 SameValue
        CFI R4 SameValue
        CFI R5 SameValue
        CFI R6 SameValue
        CFI R7 SameValue
        CFI V0 SameValue
        CFI V1 SameValue
        CFI V2 SameValue
        CFI V3 SameValue
        CFI V4 SameValue
        CFI V5 SameValue
        CFI V6 SameValue
        CFI V7 SameValue
        CFI PSPH Undefined
        CFI PSPL Undefined
        CFI XSPH Undefined
        CFI XSPL Undefined
        CFI ?RET Concat
        CFI ?BRET_EXT SameValue
        CFI ?RET_HIGH Frame(CFA_SP, 2)
        CFI ?RET_LOW Frame(CFA_SP, 1)
        CFI EndCommon cfiCommon1
        
osal_msg_allocate   SYMBOL "osal_msg_allocate"
osal_msg_send       SYMBOL "osal_msg_send"
??osal_msg_allocate?relay SYMBOL "?relay", osal_msg_allocate
??osal_msg_send?relay SYMBOL "?relay", osal_msg_send
CloseP1Interrupt    SYMBOL "CloseP1Interrupt"
??CloseP1Interrupt?relay SYMBOL "?relay", CloseP1Interrupt
HalKeyConfig        SYMBOL "HalKeyConfig"
??HalKeyConfig?relay SYMBOL "?relay", HalKeyConfig
HalKeyEnterSleep    SYMBOL "HalKeyEnterSleep"
??HalKeyEnterSleep?relay SYMBOL "?relay", HalKeyEnterSleep
HalKeyExitSleep     SYMBOL "HalKeyExitSleep"
??HalKeyExitSleep?relay SYMBOL "?relay", HalKeyExitSleep
HalKeyInit          SYMBOL "HalKeyInit"
??HalKeyInit?relay  SYMBOL "?relay", HalKeyInit
HalKeyPoll          SYMBOL "HalKeyPoll"
??HalKeyPoll?relay  SYMBOL "?relay", HalKeyPoll
HalKeyRead          SYMBOL "HalKeyRead"
??HalKeyRead?relay  SYMBOL "?relay", HalKeyRead
HalP1InterruptConfigAfter SYMBOL "HalP1InterruptConfigAfter"
??HalP1InterruptConfigAfter?relay SYMBOL "?relay", HalP1InterruptConfigAfter
HalP1InterruptConfigBefore SYMBOL "HalP1InterruptConfigBefore"
??HalP1InterruptConfigBefore?relay SYMBOL "?relay", HalP1InterruptConfigBefore
OpenP1Interrupt     SYMBOL "OpenP1Interrupt"
??OpenP1Interrupt?relay SYMBOL "?relay", OpenP1Interrupt
P1_0_ISR_fun        SYMBOL "P1_0_ISR_fun"
??P1_0_ISR_fun?relay SYMBOL "?relay", P1_0_ISR_fun
P1_1_ISR_fun        SYMBOL "P1_1_ISR_fun"
??P1_1_ISR_fun?relay SYMBOL "?relay", P1_1_ISR_fun
P1_2_ISR_fun        SYMBOL "P1_2_ISR_fun"
??P1_2_ISR_fun?relay SYMBOL "?relay", P1_2_ISR_fun
P1_3_ISR_fun        SYMBOL "P1_3_ISR_fun"
??P1_3_ISR_fun?relay SYMBOL "?relay", P1_3_ISR_fun
P1_4_ISR_fun        SYMBOL "P1_4_ISR_fun"
??P1_4_ISR_fun?relay SYMBOL "?relay", P1_4_ISR_fun
P1_5_ISR_fun        SYMBOL "P1_5_ISR_fun"
??P1_5_ISR_fun?relay SYMBOL "?relay", P1_5_ISR_fun
P1_6_ISR_fun        SYMBOL "P1_6_ISR_fun"
??P1_6_ISR_fun?relay SYMBOL "?relay", P1_6_ISR_fun
P1_7_ISR_fun        SYMBOL "P1_7_ISR_fun"
??P1_7_ISR_fun?relay SYMBOL "?relay", P1_7_ISR_fun
QueryP1Interrupt    SYMBOL "QueryP1Interrupt"
??QueryP1Interrupt?relay SYMBOL "?relay", QueryP1Interrupt
RegisterP1Interrupt SYMBOL "RegisterP1Interrupt"
??RegisterP1Interrupt?relay SYMBOL "?relay", RegisterP1Interrupt
StartP1Interrupt    SYMBOL "StartP1Interrupt"
??StartP1Interrupt?relay SYMBOL "?relay", StartP1Interrupt
StopP1Interrupt     SYMBOL "StopP1Interrupt"
??StopP1Interrupt?relay SYMBOL "?relay", StopP1Interrupt
halP1Isr            SYMBOL "halP1Isr"
`??halP1Isr??INTVEC 123` SYMBOL "??INTVEC 123", halP1Isr
halProcessKeyInterrupt SYMBOL "halProcessKeyInterrupt"
??halProcessKeyInterrupt?relay SYMBOL "?relay", halProcessKeyInterrupt

        EXTERN osal_msg_allocate
        FUNCTION osal_msg_allocate,0202H
        ARGFRAME ISTACK, 0, STACK
        ARGFRAME PSTACK, 0, STACK
        ARGFRAME XSTACK, 10, STACK
        ARGFRAME IOVERLAY, 0, STATIC
        ARGFRAME DOVERLAY, 0, STATIC
        EXTERN osal_msg_send
        FUNCTION osal_msg_send,0202H
        ARGFRAME ISTACK, 0, STACK
        ARGFRAME PSTACK, 0, STACK
        ARGFRAME XSTACK, 10, STACK
        ARGFRAME IOVERLAY, 0, STATIC
        ARGFRAME DOVERLAY, 0, STATIC
        EXTERN ??osal_msg_allocate?relay
        FUNCTION ??osal_msg_allocate?relay,00H
        EXTERN ??osal_msg_send?relay
        FUNCTION ??osal_msg_send?relay,00H

// C:\Texas Instruments\ZStack-1.4.3-1.2.1\Components\hal\target\CC2430EB\hal_key.c
//    1 /**************************************************************************************************
//    2   Filename:       hal_key.c
//    3   Revised:        $Date: 2007-11-07 11:54:17 -0800 (Wed, 07 Nov 2007) $
//    4   Revision:       $Revision: 15885 $
//    5 
//    6   Description:    This file contains the interface to the HAL KEY Service.
//    7 
//    8 
//    9   Copyright 2006-2007 Texas Instruments Incorporated. All rights reserved.
//   10 
//   11   IMPORTANT: Your use of this Software is limited to those specific rights
//   12   granted under the terms of a software license agreement between the user
//   13   who downloaded the software, his/her employer (which must be your employer)
//   14   and Texas Instruments Incorporated (the "License").  You may not use this
//   15   Software unless you agree to abide by the terms of the License. The License
//   16   limits your use, and you acknowledge, that the Software may not be modified,
//   17   copied or distributed unless embedded on a Texas Instruments microcontroller
//   18   or used solely and exclusively in conjunction with a Texas Instruments radio
//   19   frequency transceiver, which is integrated into your product.  Other than for
//   20   the foregoing purpose, you may not use, reproduce, copy, prepare derivative
//   21   works of, modify, distribute, perform, display or sell this Software and/or
//   22   its documentation for any purpose.
//   23 
//   24   YOU FURTHER ACKNOWLEDGE AND AGREE THAT THE SOFTWARE AND DOCUMENTATION ARE
//   25   PROVIDED “AS IS?WITHOUT WARRANTY OF ANY KIND, EITHER EXPRESS OR IMPLIED, 
//   26   INCLUDING WITHOUT LIMITATION, ANY WARRANTY OF MERCHANTABILITY, TITLE, 
//   27   NON-INFRINGEMENT AND FITNESS FOR A PARTICULAR PURPOSE. IN NO EVENT SHALL
//   28   TEXAS INSTRUMENTS OR ITS LICENSORS BE LIABLE OR OBLIGATED UNDER CONTRACT,
//   29   NEGLIGENCE, STRICT LIABILITY, CONTRIBUTION, BREACH OF WARRANTY, OR OTHER
//   30   LEGAL EQUITABLE THEORY ANY DIRECT OR INDIRECT DAMAGES OR EXPENSES
//   31   INCLUDING BUT NOT LIMITED TO ANY INCIDENTAL, SPECIAL, INDIRECT, PUNITIVE
//   32   OR CONSEQUENTIAL DAMAGES, LOST PROFITS OR LOST DATA, COST OF PROCUREMENT
//   33   OF SUBSTITUTE GOODS, TECHNOLOGY, SERVICES, OR ANY CLAIMS BY THIRD PARTIES
//   34   (INCLUDING BUT NOT LIMITED TO ANY DEFENSE THEREOF), OR OTHER SIMILAR COSTS.
//   35 
//   36   Should you have any questions regarding your right to use this Software,
//   37   contact Texas Instruments Incorporated at www.TI.com. 
//   38 **************************************************************************************************/
//   39 /*********************************************************************
//   40  NOTE: If polling is used, the hal_driver task schedules the KeyRead()
//   41        to occur every 100ms.  This should be long enough to naturally
//   42        debounce the keys.  The KeyRead() function remembers the key
//   43        state of the previous poll and will only return a non-zero
//   44        value if the key state changes.
//   45 
//   46  NOTE: If interrupts are used, the KeyRead() function is scheduled
//   47        25ms after the interrupt occurs by the ISR.  This delay is used
//   48        for key debouncing.  The ISR disables any further Key interrupt
//   49        until KeyRead() is executed.  KeyRead() will re-enable Key
//   50        interrupts after executing.  Unlike polling, when interrupts
//   51        are enabled, the previous key state is not remembered.  This
//   52        means that KeyRead() will return the current state of the keys
//   53        (not a change in state of the keys).
//   54 
//   55  NOTE: If interrupts are used, the KeyRead() fucntion is scheduled by
//   56        the ISR.  Therefore, the joystick movements will only be detected
//   57        during a pushbutton interrupt caused by S1 or the center joystick
//   58        pushbutton.
//   59 
//   60  NOTE: When a switch like S1 is pushed, the S1 signal goes from a normally
//   61        high state to a low state.  This transition is typically clean.  The
//   62        duration of the low state is around 200ms.  When the signal returns
//   63        to the high state, there is a high likelihood of signal bounce, which
//   64        causes a unwanted interrupts.  Normally, we would set the interrupt
//   65        edge to falling edge to generate an interrupt when S1 is pushed, but
//   66        because of the signal bounce, it is better to set the edge to rising
//   67        edge to generate an interrupt when S1 is released.  The debounce logic
//   68        can then filter out the signal bounce.  The result is that we typically
//   69        get only 1 interrupt per button push.  This mechanism is not totally
//   70        foolproof because occasionally, signal bound occurs during the falling
//   71        edge as well.  A similar mechanism is used to handle the joystick
//   72        pushbutton on the DB.  For the EB, we do not have independent control
//   73        of the interrupt edge for the S1 and center joystick pushbutton.  As
//   74        a result, only one or the other pushbuttons work reasonably well with
//   75        interrupts.  The default is the make the S1 switch on the EB work more
//   76        reliably.
//   77 
//   78 *********************************************************************/
//   79 
//   80 /**************************************************************************************************
//   81  *                                            INCLUDES
//   82  **************************************************************************************************/
//   83 #include "hal_mcu.h"

        ASEGN SFR_AN:DATA:NOROOT,08aH
// unsigned char volatile __sfr P1IFG
P1IFG:
        DS 1

        ASEGN SFR_AN:DATA:NOROOT,08cH
// unsigned char volatile __sfr PICTL
PICTL:
        DS 1

        ASEGN SFR_AN:DATA:NOROOT,08dH
// unsigned char volatile __sfr P1IEN
P1IEN:
        DS 1

        ASEGN SFR_AN:DATA:NOROOT,08fH
// unsigned char volatile __sfr P0INP
P0INP:
        DS 1

        ASEGN SFR_AN:DATA:NOROOT,09aH
// unsigned char volatile __sfr IEN2
IEN2:
        DS 1

        ASEGN SFR_AN:DATA:NOROOT,0a0H
// union <unnamed> volatile __sfr _A_P2
_A_P2:
        DS 1

        ASEGN SFR_AN:DATA:NOROOT,0a8H
// union <unnamed> volatile __sfr _A_IEN0
_A_IEN0:
        DS 1

        ASEGN SFR_AN:DATA:NOROOT,0e8H
// union <unnamed> volatile __sfr _A_IRCON2
_A_IRCON2:
        DS 1

        ASEGN SFR_AN:DATA:NOROOT,0f4H
// unsigned char volatile __sfr P1SEL
P1SEL:
        DS 1

        ASEGN SFR_AN:DATA:NOROOT,0f5H
// unsigned char volatile __sfr P2SEL
P2SEL:
        DS 1

        ASEGN SFR_AN:DATA:NOROOT,0f6H
// unsigned char volatile __sfr P1INP
P1INP:
        DS 1

        ASEGN SFR_AN:DATA:NOROOT,0f7H
// unsigned char volatile __sfr P2INP
P2INP:
        DS 1

        ASEGN SFR_AN:DATA:NOROOT,0feH
// unsigned char volatile __sfr P1DIR
P1DIR:
        DS 1

        ASEGN SFR_AN:DATA:NOROOT,0ffH
// unsigned char volatile __sfr P2DIR
P2DIR:
        DS 1
//   84 #include "hal_defs.h"
//   85 #include "hal_types.h"
//   86 #include "hal_drivers.h"
//   87 #include "hal_adc.h"
//   88 #include "hal_key.h"
//   89 #include "osal.h"
//   90 
//   91 /**************************************************************************************************
//   92  *                                              MACROS
//   93  **************************************************************************************************/
//   94 
//   95 /**************************************************************************************************
//   96  *                                            CONSTANTS
//   97  **************************************************************************************************/
//   98 #define HAL_KEY_BIT0   0x01
//   99 #define HAL_KEY_BIT1   0x02
//  100 #define HAL_KEY_BIT2   0x04
//  101 #define HAL_KEY_BIT3   0x08
//  102 #define HAL_KEY_BIT4   0x10
//  103 #define HAL_KEY_BIT5   0x20
//  104 #define HAL_KEY_BIT6   0x40
//  105 #define HAL_KEY_BIT7   0x80
//  106 
//  107 #define HAL_KEY_RISING_EDGE   0
//  108 #define HAL_KEY_FALLING_EDGE  1
//  109 
//  110 #define HAL_KEY_PDUP2           0x80
//  111 #define HAL_KEY_PDUP1           0x40
//  112 #define HAL_KEY_PDUP0           0x20
//  113 
//  114 #define HAL_KEY_DEBOUNCE_VALUE  25
//  115 #define HAL_KEY_POLLING_VALUE   100
//  116 
//  117 
//  118 #if defined (HAL_BOARD_CC2430DB)
//  119   #define HAL_KEY_SW_6_ENABLE
//  120   #define HAL_KEY_SW_6_PORT     P0                      /* Port location of SW1 */
//  121   #define HAL_KEY_SW_6_BIT      HAL_KEY_BIT1            /* Bit location of SW1 */
//  122   #define HAL_KEY_SW_6_SEL      P0SEL                   /* Port Select Register for SW1 */
//  123   #define HAL_KEY_SW_6_DIR      P0DIR                   /* Port Direction Register for SW1 */
//  124   #define HAL_KEY_SW_6_IEN      IEN1                    /* Interrupt Enable Register for SW1 */
//  125   #define HAL_KEY_SW_6_IENBIT   HAL_KEY_BIT5            /* Interrupt Enable bit for SW1 */
//  126   #define HAL_KEY_SW_6_EDGE     HAL_KEY_RISING_EDGE     /* Type of interrupt for SW1 */
//  127   #define HAL_KEY_SW_6_EDGEBIT  HAL_KEY_BIT0            /* EdgeType enable bit SW1 */
//  128   #define HAL_KEY_SW_6_ICTL     PICTL                   /* Port Interrupt Control for SW1 */
//  129   #define HAL_KEY_SW_6_ICTLBIT  HAL_KEY_BIT3            /* Interrupt enable bit for SW1 */
//  130   #define HAL_KEY_SW_6_PXIFG    P0IFG                   /* Port Interrupt Flag for SW1 */
//  131 
//  132   #define HAL_KEY_JOYSTICK_ENABLE
//  133   #define HAL_KEY_JOY_CHN   HAL_ADC_CHANNEL_6
//  134 
//  135   #define HAL_KEY_SW_5_ENABLE   /* 2430DB - SW5 is enabled based on key interrupt enable or not - see config */
//  136   #define HAL_KEY_SW_5_PORT     P2                      /* Port location of SW5 */
//  137   #define HAL_KEY_SW_5_BIT      HAL_KEY_BIT0            /* Bit location of SW5 */
//  138   #define HAL_KEY_SW_5_SEL      P2SEL                   /* Port Select Register for SW5 */
//  139   #define HAL_KEY_SW_5_DIR      P2DIR                   /* Port Direction Register for SW5 */
//  140   #define HAL_KEY_SW_5_INP      P2INP                   /* Port Input Mode Register for SW5 */
//  141   #define HAL_KEY_SW_5_IEN      IEN2                    /* Interrupt Enable Register for SW5 */
//  142   #define HAL_KEY_SW_5_IENBIT   HAL_KEY_BIT1            /* Interrupt Enable bit for SW5 */
//  143   #define HAL_KEY_SW_5_EDGE     HAL_KEY_FALLING_EDGE    /* Type of interrupt for SW5 */
//  144   #define HAL_KEY_SW_5_EDGEBIT  HAL_KEY_BIT2            /* EdgeType enable bit SW5 */
//  145   #define HAL_KEY_SW_5_ICTL     PICTL                   /* Port Interrupt Control for SW5 */
//  146   #define HAL_KEY_SW_5_ICTLBIT  HAL_KEY_BIT5            /* Interrupt enable bit for SW5 */
//  147   #define HAL_KEY_SW_5_PXIFG    P2IFG                   /* Port Interrupt Flag for SW5 */
//  148 
//  149   #define HAL_KEY_P0INT_LOW_USED    HAL_KEY_SW_6_BIT    /* P0 can only be enabled/disabled as group of high or low nibble */
//  150   #define HAL_KEY_POINT_HIGH_USED   0                   /* P0 can only be enabled/disabled as group of high or low nibble */
//  151 #endif
//  152 
//  153 #if defined (HAL_BOARD_CC2430EB) || defined (HAL_BOARD_CC2430BB)
//  154   #define HAL_KEY_SW_6_ENABLE
//  155   #define HAL_KEY_SW_6_PORT     P0                      /* Port location of SW1 */
//  156   #define HAL_KEY_SW_6_BIT      HAL_KEY_BIT1            /* Bit location of SW1 */
//  157   #define HAL_KEY_SW_6_SEL      P0SEL                   /* Port Select Register for SW1 */
//  158   #define HAL_KEY_SW_6_DIR      P0DIR                   /* Port Direction Register for SW1 */
//  159   #define HAL_KEY_SW_6_IEN      IEN1                    /* Interrupt Enable Register for SW1 */
//  160   #define HAL_KEY_SW_6_IENBIT   HAL_KEY_BIT5            /* Interrupt Enable bit for SW1 */
//  161   #define HAL_KEY_SW_6_EDGE     HAL_KEY_RISING_EDGE     /* Type of interrupt for SW1 */
//  162   #define HAL_KEY_SW_6_EDGEBIT  HAL_KEY_BIT0            /* EdgeType enable bit SW1 */
//  163   #define HAL_KEY_SW_6_ICTL     PICTL                   /* Port Interrupt Control for SW1 */
//  164   #define HAL_KEY_SW_6_ICTLBIT  HAL_KEY_BIT3            /* Interrupt enable bit for SW1 */
//  165   #define HAL_KEY_SW_6_PXIFG    P0IFG                   /* Port Interrupt Flag for SW1 */
//  166 
//  167   #define HAL_KEY_P0INT_LOW_USED    HAL_KEY_SW_6_BIT    /* P0 can only be enabled/disabled as group of high or low nibble */
//  168 #endif
//  169 
//  170 #if defined (HAL_BOARD_CC2430BB)
//  171   #define HAL_KEY_POINT_HIGH_USED  0
//  172 #endif
//  173 
//  174 #if defined (HAL_BOARD_CC2430EB)
//  175   #define HAL_KEY_JOYSTICK_ENABLE
//  176   #define HAL_KEY_JOY_CHN   HAL_ADC_CHANNEL_6
//  177 
//  178   #define HAL_KEY_SW_5_ENABLE
//  179   #define HAL_KEY_SW_5_PORT     P0                      /* Port location of SW5 */
//  180   #define HAL_KEY_SW_5_BIT      HAL_KEY_BIT5            /* Bit location of SW5 */
//  181   #define HAL_KEY_SW_5_SEL      P0SEL                   /* Port Select Register for SW5 */
//  182   #define HAL_KEY_SW_5_DIR      P0DIR                   /* Port Direction Register for SW5 */
//  183   #define HAL_KEY_SW_5_INP      P0INP                   /* Port Input Mode Register for SW5 */
//  184   #define HAL_KEY_SW_5_IEN      IEN1                    /* Interrupt Enable Register for SW5 */
//  185   #define HAL_KEY_SW_5_IENBIT   HAL_KEY_BIT5            /* Interrupt Enable bit for SW5 */
//  186   #define HAL_KEY_SW_5_EDGE     HAL_KEY_RISING_EDGE     /* Type of interrupt for SW5 */
//  187   #define HAL_KEY_SW_5_EDGEBIT  HAL_KEY_BIT2            /* EdgeType enable bit SW5 */
//  188   #define HAL_KEY_SW_5_ICTL     PICTL                   /* Port Interrupt Control for SW5 */
//  189   #define HAL_KEY_SW_5_ICTLBIT  HAL_KEY_BIT4            /* Interrupt enable bit for SW5 */
//  190   #define HAL_KEY_SW_5_PXIFG    P0IFG                   /* Port Interrupt Flag for SW5 */
//  191 
//  192   #define HAL_KEY_POINT_HIGH_USED   HAL_KEY_SW_5_BIT    /* P0 can only be enabled/disabled as group of high or low nibble */
//  193 #endif
//  194 
//  195 /**************************************************************************************************
//  196  *                                            TYPEDEFS
//  197  **************************************************************************************************/
//  198 
//  199 
//  200 /**************************************************************************************************
//  201  *                                        GLOBAL VARIABLES
//  202  **************************************************************************************************/
//  203 //static uint8 halKeySavedKeys;     /* used to store previous key state in polling mode */
//  204 //static halKeyCBack_t pHalKeyProcessFunction;

        RSEG XDATA_Z:XDATA:NOROOT(0)
//  205 bool Hal_KeyIntEnable;            /* interrupt enable/disable flag */
Hal_KeyIntEnable:
        DS 1
        REQUIRE __INIT_XDATA_Z

        RSEG XDATA_Z:XDATA:NOROOT(0)
//  206 uint8 halSaveIntKey;              /* used by ISR to save state of interrupt-driven keys */
halSaveIntKey:
        DS 1
        REQUIRE __INIT_XDATA_Z
//  207 
//  208 //static uint8 HalKeyConfigured;
//  209 
//  210 /**************************************************************************************************
//  211  *                                        FUNCTIONS - Local
//  212  **************************************************************************************************/
//  213 void halProcessKeyInterrupt (void);
//  214 
//  215 
//  216 /**************************************************************************************************
//  217  *                                        FUNCTIONS - API
//  218  **************************************************************************************************/
//  219 /**************************************************************************************************
//  220  * @fn      HalKeyInit
//  221  *
//  222  * @brief   Initilize Key Service
//  223  *
//  224  * @param   none
//  225  *
//  226  * @return  None
//  227  **************************************************************************************************/

        RSEG BANKED_CODE:CODE:NOROOT(0)
//  228 void HalKeyInit( void )
HalKeyInit:
        CFI Block cfiBlock0 Using cfiCommon0
        CFI Function HalKeyInit
//  229 {
        ; Saved register size: 0
        ; Auto size: 0
//  230 #if (HAL_KEY == TRUE)
//  231   /* Initialize previous key to 0 */
//  232   halKeySavedKeys = 0;
//  233 
//  234 #if defined (HAL_KEY_SW_6_ENABLE)
//  235   HAL_KEY_SW_6_SEL &= ~(HAL_KEY_SW_6_BIT);    /* Set pin function to GPIO */
//  236   HAL_KEY_SW_6_DIR &= ~(HAL_KEY_SW_6_BIT);    /* Set pin direction to Input */
//  237 #endif
//  238 
//  239 #if defined (HAL_KEY_SW_5_ENABLE)
//  240   HAL_KEY_SW_5_SEL &= ~(HAL_KEY_SW_5_BIT);    /* Set pin function to GPIO */
//  241   HAL_KEY_SW_5_DIR &= ~(HAL_KEY_SW_5_BIT);    /* Set pin direction to Input */
//  242   HAL_KEY_SW_5_INP |= HAL_KEY_SW_5_BIT;       /* Set pin input mode to tri-state */
//  243 #endif
//  244 
//  245   /* Initialize callback function */
//  246   pHalKeyProcessFunction  = NULL;
//  247 
//  248   /* Start with key is not configured */
//  249   HalKeyConfigured = FALSE;
//  250 #endif /* HAL_KEY */
//  251 }
        LJMP    ?BRET
        CFI EndBlock cfiBlock0
//  252 
//  253 /**************************************************************************************************
//  254  * @fn      HalKeyConfig
//  255  *
//  256  * @brief   Configure the Key serivce
//  257  *
//  258  * @param   interruptEnable - TRUE/FALSE, enable/disable interrupt
//  259  *          cback - pointer to the CallBack function
//  260  *
//  261  * @return  None
//  262  **************************************************************************************************/

        RSEG BANKED_CODE:CODE:NOROOT(0)
//  263 void HalKeyConfig (bool interruptEnable, halKeyCBack_t cback)
HalKeyConfig:
        CFI Block cfiBlock1 Using cfiCommon0
        CFI Function HalKeyConfig
//  264 {
        ; Saved register size: 0
        ; Auto size: 0
//  265 #if (HAL_KEY == TRUE)
//  266   /* Enable/Disable Interrupt or */
//  267   Hal_KeyIntEnable = interruptEnable;
//  268 
//  269   /* Register the callback fucntion */
//  270   pHalKeyProcessFunction = cback;
//  271 
//  272   /* Determine if interrupt is enable or not */
//  273   if (Hal_KeyIntEnable)
//  274   {
//  275 
//  276     /*
//  277        Work around for CC2430DB when interrupt is enabled and SW5 (center joystick)
//  278        is used. This SW5 uses P2 which also has debug lines connected to it. This
//  279        causes contant interruption on P2INT_VECTOR. Disable the usage of P2 interrupt
//  280        will stop this problem.
//  281     */
//  282     #if defined (HAL_BOARD_CC2430DB)
//  283       #undef HAL_KEY_SW_5_ENABLE                      /* Dis-allow SW5 when key interrupt is enable */
//  284     #endif
//  285 
//  286 #if defined (HAL_KEY_SW_5_ENABLE)
//  287     PICTL &= ~(HAL_KEY_SW_5_EDGEBIT);                 /* Set rising or falling edge */
//  288   #if (HAL_KEY_SW_5_EDGE == HAL_KEY_FALLING_EDGE)
//  289     PICTL |= HAL_KEY_SW_5_EDGEBIT;
//  290   #endif
//  291     HAL_KEY_SW_5_ICTL |= HAL_KEY_SW_5_ICTLBIT;        /* Set interrupt enable bit */
//  292     HAL_KEY_SW_5_IEN |= HAL_KEY_SW_5_IENBIT;
//  293     HAL_KEY_SW_5_PXIFG = ~(HAL_KEY_SW_5_BIT);        /* Clear any pending interrupts */
//  294 #endif
//  295 
//  296 #if defined (HAL_KEY_SW_6_ENABLE)
//  297     PICTL &= ~(HAL_KEY_SW_6_EDGEBIT);                 /* Set rising or falling edge */
//  298   #if (HAL_KEY_SW_6_EDGE == HAL_KEY_FALLING_EDGE)
//  299     PICTL |= HAL_KEY_SW_6_EDGEBIT;
//  300   #endif
//  301     HAL_KEY_SW_6_ICTL |= HAL_KEY_SW_6_ICTLBIT;        /* Set interrupt enable bit */
//  302     HAL_KEY_SW_6_IEN |= HAL_KEY_SW_6_IENBIT;
//  303     HAL_KEY_SW_6_PXIFG = ~(HAL_KEY_SW_6_BIT);        /* Clear any pending interrupts */
//  304 #endif
//  305 
//  306     /* Do this only after the hal_key is configured - to work with sleep stuff */
//  307     if (HalKeyConfigured == TRUE)
//  308     {
//  309       osal_stop_timerEx( Hal_TaskID, HAL_KEY_EVENT);  /* Cancel polling if active */
//  310     }
//  311   }
//  312   else    /* Interrupts NOT enabled */
//  313   {
//  314 
//  315     /*
//  316        Work around for CC2430DB when interrupt is enabled and SW5 (center joystick)
//  317        is used. This SW5 uses P2 which also has debug lines connected to it. This
//  318        causes contant interruption on P2INT_VECTOR. Disable the usage of P2 interrupt
//  319        will stop this problem.
//  320     */
//  321     #if defined (HAL_BOARD_CC2430DB)
//  322       #define HAL_KEY_SW_5_ENABLE                     /* Allow SW5 only when key interrupt is disable */
//  323     #endif
//  324 
//  325 #if defined (HAL_KEY_SW_6_ENABLE)
//  326     HAL_KEY_SW_6_ICTL &= ~(HAL_KEY_SW_6_ICTLBIT);     /* Clear interrupt enable bit */
//  327     HAL_KEY_SW_6_IEN &= ~(HAL_KEY_SW_6_IENBIT);
//  328 #endif
//  329 
//  330 #if defined (HAL_KEY_SW_5_ENABLE)
//  331     HAL_KEY_SW_5_ICTL &= ~(HAL_KEY_SW_5_ICTLBIT);     /* Clear interrupt enable bit */
//  332     HAL_KEY_SW_5_IEN &= ~(HAL_KEY_SW_5_IENBIT);
//  333 #endif
//  334     osal_start_timerEx (Hal_TaskID, HAL_KEY_EVENT, HAL_KEY_POLLING_VALUE);    /* Kick off polling */
//  335   }
//  336 
//  337   /* Key now is configured */
//  338   HalKeyConfigured = TRUE;
//  339 #endif /* HAL_KEY */
//  340 }
        LJMP    ?BRET
        CFI EndBlock cfiBlock1
//  341 
//  342 /**************************************************************************************************
//  343  * @fn      HalKeyRead
//  344  *
//  345  * @brief   Read the current value of a key
//  346  *
//  347  * @param   None
//  348  *
//  349  * @return  keys - current keys status
//  350  **************************************************************************************************/
//  351 

        RSEG BANKED_CODE:CODE:NOROOT(0)
//  352 uint8 HalKeyRead ( void )
HalKeyRead:
//  353 {
        ; Saved register size: 0
        ; Auto size: 0
//  354 
//  355   uint8 keys = 0;
//  356 
//  357 #if (HAL_KEY == TRUE)
//  358 
//  359 #if defined (HAL_KEY_JOYSTICK_ENABLE)
//  360   uint8 ksave0 = 0;
//  361   uint8 ksave1;
//  362   uint8 adc;
//  363 #endif
//  364 
//  365 #if defined (HAL_KEY_SW_6_ENABLE)
//  366   if (!(HAL_KEY_SW_6_PORT & HAL_KEY_SW_6_BIT))    /* Key is active low */
//  367   {
//  368     keys |= HAL_KEY_SW_6;
//  369   }
//  370 #endif
//  371 #if defined (HAL_KEY_SW_5_ENABLE)
//  372   if (HAL_KEY_SW_5_PORT & HAL_KEY_SW_5_BIT)       /* Key is active high */
//  373   {
//  374     keys |= HAL_KEY_SW_5;
//  375   }
//  376 #endif
//  377 
//  378 #if defined (HAL_KEY_JOYSTICK_ENABLE)
//  379 /*
//  380 *  The joystick control is encoded as an analog voltage.  Keep on reading
//  381 *  the ADC until two consecutive key decisions are the same.
//  382 */
//  383 
//  384   do
//  385   {
//  386     ksave1 = ksave0;    /* save previouse key reading */
//  387 
//  388     adc = HalAdcRead (HAL_KEY_JOY_CHN, HAL_ADC_RESOLUTION_8);
//  389 
//  390     if  (CHVER == 0x01)
//  391     {
//  392       /* Rev B */
//  393       if ((adc >= 90) && (adc <= 100))
//  394       {
//  395          ksave0 |= HAL_KEY_UP;
//  396       }
//  397       else if ((adc >= 75) && (adc <= 85))
//  398       {
//  399         ksave0 |= HAL_KEY_RIGHT;
//  400       }
//  401       else if ((adc >= 45) && (adc <= 55))
//  402       {
//  403         ksave0 |= HAL_KEY_LEFT;
//  404       }
//  405       else if (adc <= 10)
//  406       {
//  407         ksave0 |= HAL_KEY_DOWN;
//  408       }
//  409       else if ((adc >= 101) && (adc <= 115))
//  410       {
//  411       }
//  412     }
//  413     else
//  414     {
//  415        /* Rev C */
//  416       if ((adc >= 90)  && (adc <= 104))
//  417       {
//  418          ksave0 |= HAL_KEY_UP;
//  419       }
//  420       else if ((adc >= 75)  && (adc <= 89))
//  421       {
//  422         ksave0 |= HAL_KEY_RIGHT;
//  423       }
//  424       else if ((adc >= 45)  && (adc <= 56))
//  425       {
//  426         ksave0 |= HAL_KEY_LEFT;
//  427       }
//  428       else if (adc <= 10)
//  429       {
//  430         ksave0 |= HAL_KEY_DOWN;
//  431       }
//  432       else if ((adc >= 105) && (adc <= 121))
//  433       {
//  434       }
//  435     }
//  436 
//  437   } while (ksave0 != ksave1);
//  438 
//  439   keys |= ksave0;
//  440 
//  441 #endif
//  442 
//  443 #endif /* HAL_KEY */
//  444 
//  445   return keys;
        REQUIRE ?Subroutine7
        ; // Fall through to label ?Subroutine7

        RSEG BANKED_CODE:CODE:NOROOT(0)
?Subroutine7:
        CFI Block cfiBlock2 Using cfiCommon0
        CFI NoFunction
        MOV     R1,#0x0
        LJMP    ?BRET
        CFI EndBlock cfiBlock2
//  446 
//  447 }
//  448 
//  449 
//  450 /**************************************************************************************************
//  451  * @fn      HalKeyPoll
//  452  *
//  453  * @brief   Called by hal_driver to poll the keys
//  454  *
//  455  * @param   None
//  456  *
//  457  * @return  None
//  458  **************************************************************************************************/

        RSEG BANKED_CODE:CODE:NOROOT(0)
//  459 void HalKeyPoll (void)
HalKeyPoll:
        CFI Block cfiBlock3 Using cfiCommon0
        CFI Function HalKeyPoll
//  460 {
        ; Saved register size: 0
        ; Auto size: 0
//  461 #if (HAL_KEY == TRUE)
//  462 
//  463   uint8 keys = 0;
//  464 
//  465 #if defined (HAL_KEY_JOYSTICK_ENABLE)
//  466   uint8 ksave0 = 0;
//  467   uint8 ksave1;
//  468   uint8 adc;
//  469 #endif
//  470 
//  471   /*
//  472   *  If interrupts are enabled, get the status of the interrupt-driven keys from 'halSaveIntKey'
//  473   *  which is updated by the key ISR.  If Polling, read these keys directly.
//  474   */
//  475 #if defined (HAL_KEY_SW_6_ENABLE)
//  476   if (!(HAL_KEY_SW_6_PORT & HAL_KEY_SW_6_BIT))    /* Key is active low */
//  477   {
//  478     keys |= HAL_KEY_SW_6;
//  479   }
//  480 #endif
//  481 #if defined (HAL_KEY_SW_5_ENABLE)
//  482   if (HAL_KEY_SW_5_PORT & HAL_KEY_SW_5_BIT)       /* Key is active high */
//  483   {
//  484     keys |= HAL_KEY_SW_5;
//  485   }
//  486 #endif
//  487 
//  488 #if defined (HAL_KEY_JOYSTICK_ENABLE)
//  489 /*
//  490 *  The joystick control is encoded as an analog voltage.  Keep on reading
//  491 *  the ADC until two consecutive key decisions are the same.
//  492 */
//  493 
//  494   do
//  495   {
//  496     ksave1 = ksave0;    /* save previouse key reading */
//  497 
//  498     adc = HalAdcRead (HAL_KEY_JOY_CHN, HAL_ADC_RESOLUTION_8);
//  499 
//  500     if  (CHVER == 0x01)
//  501     {
//  502       /* Rev B */
//  503       if ((adc >= 90) && (adc <= 100))
//  504       {
//  505          ksave0 |= HAL_KEY_UP;
//  506       }
//  507       else if ((adc >= 75) && (adc <= 85))
//  508       {
//  509         ksave0 |= HAL_KEY_RIGHT;
//  510       }
//  511       else if ((adc >= 45) && (adc <= 55))
//  512       {
//  513         ksave0 |= HAL_KEY_LEFT;
//  514       }
//  515       else if (adc <= 10)
//  516       {
//  517         ksave0 |= HAL_KEY_DOWN;
//  518       }
//  519       else if ((adc >= 101) && (adc <= 115))
//  520       {
//  521       }
//  522     }
//  523     else
//  524     {
//  525        /* Rev C */
//  526       if ((adc >= 90)  && (adc <= 104))
//  527       {
//  528          ksave0 |= HAL_KEY_UP;
//  529       }
//  530       else if ((adc >= 75)  && (adc <= 89))
//  531       {
//  532         ksave0 |= HAL_KEY_RIGHT;
//  533       }
//  534       else if ((adc >= 45)  && (adc <= 56))
//  535       {
//  536         ksave0 |= HAL_KEY_LEFT;
//  537       }
//  538       else if (adc <= 10)
//  539       {
//  540         ksave0 |= HAL_KEY_DOWN;
//  541       }
//  542       else if ((adc >= 105) && (adc <= 121))
//  543       {
//  544       }
//  545     }
//  546 
//  547 
//  548   } while (ksave0 != ksave1);
//  549 
//  550   keys |= ksave0;
//  551 
//  552 #endif
//  553 
//  554   /* Exit if polling and no keys have changed */
//  555   if (!Hal_KeyIntEnable)
//  556   {
//  557     if (keys == halKeySavedKeys)
//  558     {
//  559       return;
//  560     }
//  561     halKeySavedKeys = keys;     /* Store the current keys for comparation next time */
//  562   }
//  563 
//  564   /* Invoke Callback if new keys were depressed */
//  565   if (keys && (pHalKeyProcessFunction))
//  566   {
//  567     (pHalKeyProcessFunction) (keys, HAL_KEY_STATE_NORMAL);
//  568   }
//  569 
//  570 #endif /* HAL_KEY */
//  571 
//  572 }
        LJMP    ?BRET
        CFI EndBlock cfiBlock3
//  573 
//  574 
//  575 /**************************************************************************************************
//  576  * @fn      halProcessKeyInterrupt
//  577  *
//  578  * @brief   Checks to see if it's a valid key interrupt, saves interrupt driven key states for
//  579  *          processing by HalKeyRead(), and debounces keys by scheduling HalKeyRead() 25ms later.
//  580  *
//  581  * @param
//  582  *
//  583  * @return
//  584  **************************************************************************************************/

        RSEG BANKED_CODE:CODE:NOROOT(0)
//  585 void halProcessKeyInterrupt (void)
halProcessKeyInterrupt:
        CFI Block cfiBlock4 Using cfiCommon0
        CFI Function halProcessKeyInterrupt
//  586 {
        ; Saved register size: 0
        ; Auto size: 0
//  587 
//  588 #if (HAL_KEY == TRUE)
//  589 
//  590   bool    valid=FALSE;
//  591 
//  592 #if defined (HAL_KEY_SW_6_ENABLE)
//  593   if (HAL_KEY_SW_6_PXIFG & HAL_KEY_SW_6_BIT)      /* Interrupt Flag has been set */
//  594   {
//  595     HAL_KEY_SW_6_PXIFG = ~(HAL_KEY_SW_6_BIT);    /* Clear Interrupt Flag */
//  596     valid = TRUE;
//  597   }
//  598 #endif
//  599 
//  600 #if defined (HAL_KEY_SW_5_ENABLE)
//  601   if (HAL_KEY_SW_5_PXIFG & HAL_KEY_SW_5_BIT)      /* Interrupt Flag has been set */
//  602   {
//  603     HAL_KEY_SW_5_PXIFG = ~(HAL_KEY_SW_5_BIT);    /* Clear Interrupt Flag */
//  604     valid = TRUE;
//  605   }
//  606 #endif
//  607 
//  608   if (valid)
//  609   {
//  610     osal_start_timerEx (Hal_TaskID, HAL_KEY_EVENT, HAL_KEY_DEBOUNCE_VALUE);
//  611   }
//  612 #endif /* HAL_KEY */
//  613 }
        LJMP    ?BRET
        CFI EndBlock cfiBlock4
//  614 
//  615 /**************************************************************************************************
//  616  * @fn      HalKeyEnterSleep
//  617  *
//  618  * @brief  - Get called to enter sleep mode
//  619  *
//  620  * @param
//  621  *
//  622  * @return
//  623  **************************************************************************************************/

        RSEG BANKED_CODE:CODE:NOROOT(0)
//  624 void HalKeyEnterSleep ( void )
HalKeyEnterSleep:
        CFI Block cfiBlock5 Using cfiCommon0
        CFI Function HalKeyEnterSleep
//  625 {
        ; Saved register size: 0
        ; Auto size: 0
//  626   /* Sleep!!! Note that HAL_KEY_SW_5 is shared with CTS pin of RS-232.
//  627    * It was set to tri-state during active state. It needs to be pulled-up.
//  628    */
//  629 #if defined (HAL_KEY_SW_5_ENABLE)
//  630   HAL_KEY_SW_5_INP &= ~HAL_KEY_SW_5_BIT;       /* Set pin input mode to pull-up */
        ANL     0x8f,#0xdf
//  631 #endif
//  632 }
        LJMP    ?BRET
        CFI EndBlock cfiBlock5
        REQUIRE P0INP
//  633 
//  634 /**************************************************************************************************
//  635  * @fn      HalKeyExitSleep
//  636  *
//  637  * @brief   - Get called when sleep is over
//  638  *
//  639  * @param
//  640  *
//  641  * @return  - return saved keys
//  642  **************************************************************************************************/

        RSEG BANKED_CODE:CODE:NOROOT(0)
//  643 uint8 HalKeyExitSleep ( void )
HalKeyExitSleep:
        CFI Block cfiBlock6 Using cfiCommon0
        CFI Function HalKeyExitSleep
//  644 {
        ; Saved register size: 0
        ; Auto size: 0
//  645   /* Wakeup!!! Note that HAL_KEY_SW_5 is shared with CTS pin of RS-232.
//  646    * It was pulled up during sleep. It needs to be set to tri-state during active state.
//  647    */
//  648 #if defined (HAL_KEY_SW_5_ENABLE)
//  649   HAL_KEY_SW_5_INP |= HAL_KEY_SW_5_BIT;       /* Set pin input mode to tri-state */
        ORL     0x8f,#0x20
//  650 #endif
//  651 
//  652   /* Wake up and read keys */
//  653   return ( HalKeyRead () );
        SJMP    ?Subroutine7
        CFI EndBlock cfiBlock6
        REQUIRE P0INP
//  654 }
//  655 
//  656 /***************************************************************************************************
//  657  *                                    INTERRUPT SERVICE ROUTINE
//  658  ***************************************************************************************************/
//  659 
//  660 /**************************************************************************************************
//  661  * @fn      halKeyPort0Isr
//  662  *
//  663  * @brief   Port0 ISR
//  664  *
//  665  * @param
//  666  *
//  667  * @return
//  668  **************************************************************************************************/
//  669 //HAL_ISR_FUNCTION( halKeyPort0Isr, P0INT_VECTOR )
//  670 //{
//  671   /* P0IF is cleared by HW for CHVER < REV_E */
//  672 
//  673 //  halProcessKeyInterrupt();
//  674 
//  675 //  if( CHVER >= REV_E )
//  676 //  {
//  677     /* Make sure that we clear all enabled, but unused P0IFG bits.
//  678      * For P0 we can only enable or disable high or low nibble, not bit by
//  679      * bit. For P1 and P2 enabling of single bits are possible, therefore
//  680      * will not any unused pins generate interrupts on P1 or P2.
//  681      * We could have checked for low and high nibble in P0, but this
//  682      * isn't necessary as long as we only clear unused pin interrupts.
//  683      */
//  684 //    P0IFG = (HAL_KEY_P0INT_LOW_USED | HAL_KEY_POINT_HIGH_USED);
//  685 //    P0IF = 0;
//  686 //    CLEAR_SLEEP_MODE();
//  687 //  }
//  688 //}
//  689 
//  690 /**************************************************************************************************
//  691  * @fn      halKeyPort1Isr
//  692  *
//  693  * @brief   Port1 ISR
//  694  *
//  695  * @param
//  696  *
//  697  * @return
//  698  **************************************************************************************************/
//  699 /*
//  700 HAL_ISR_FUNCTION( halKeyPort1Isr, P1INT_VECTOR )
//  701 {
//  702   if( CHVER <= REV_D )
//  703   {
//  704     P1IF = 0;
//  705   }
//  706 
//  707   halProcessKeyInterrupt();
//  708 
//  709   if( CHVER >= REV_E )
//  710   {
//  711     P1IF = 0;
//  712     CLEAR_SLEEP_MODE();
//  713   }
//  714 }
//  715 */
//  716 /**************************************************************************************************
//  717  * @fn      halKeyPort2Isr
//  718  *
//  719  * @brief   Port2 ISR
//  720  *
//  721  * @param
//  722  *
//  723  * @return
//  724  **************************************************************************************************/
//  725 /*
//  726 HAL_ISR_FUNCTION( halKeyPort2Isr, P2INT_VECTOR )
//  727 {
//  728   if( CHVER <= REV_D )
//  729   {
//  730     P2IF = 0;
//  731   }
//  732 
//  733   halProcessKeyInterrupt();
//  734 
//  735   if( CHVER >= REV_E )
//  736   {
//  737     P2IF = 0;
//  738     CLEAR_SLEEP_MODE();
//  739   }
//  740 */
//  741 
//  742 /**************************************************************************************************
//  743 zyq add 
//  744 **************************************************************************************************/
//  745 #define FUN_SELECT_GENERAL      0
//  746 #define FUN_SELECT_PERIPHERAL   1
//  747 
//  748 #define DIRECTION_INPUT         0
//  749 #define DIRECTION_OUTPUT        1
//  750 
//  751 #define INPUT_MODE_PULLUP       0
//  752 #define INPUT_MODE_PULLDOWN     1
//  753 #define INPUT_MODE_TRISTATE     2
//  754 #define INPUT_MODE_NULL         3
//  755 
//  756 #define RISE_EDGE               0
//  757 #define FALL_EDGE               1
//  758 
//  759 //
//  760 typedef void (*ISR_t) (void);
//  761 

        RSEG XDATA_Z:XDATA:NOROOT(0)
//  762 static ISR_t P1_ISR_fun[8];
P1_ISR_fun:
        DS 16
        REQUIRE __INIT_XDATA_Z

        RSEG XDATA_Z:XDATA:NOROOT(0)
//  763 static uint8 P1InterruptTaskID[8];
P1InterruptTaskID:
        DS 8
        REQUIRE __INIT_XDATA_Z

        RSEG XDATA_Z:XDATA:NOROOT(0)
//  764 static rain_t sensor_rain;
sensor_rain:
        DS 4
        REQUIRE __INIT_XDATA_Z
//  765 
//  766 /**************************************************************************************************
//  767  * @fn      OpenP1Interrupt
//  768  *
//  769  * @brief   
//  770  *
//  771  * @param
//  772  *
//  773  * @return
//  774  **************************************************************************************************/

        RSEG BANKED_CODE:CODE:NOROOT(0)
//  775 void OpenP1Interrupt( uint8 pin, uint8 FunSelect, uint8 direction, uint8 InputMode, uint8 RiseFallEdge)
OpenP1Interrupt:
        CFI Block cfiBlock7 Using cfiCommon0
        CFI Function OpenP1Interrupt
//  776 {
        MOV     A,#-0xa
        LCALL   ?BANKED_ENTER_XDATA
        CFI DPH0 load(1, XDATA, add(CFA_XSP16, literal(-1)))
        CFI DPL0 load(1, XDATA, add(CFA_XSP16, literal(-2)))
        CFI ?BRET_EXT load(1, XDATA, add(CFA_XSP16, literal(-3)))
        CFI ?RET_HIGH load(1, XDATA, add(CFA_XSP16, literal(-4)))
        CFI ?RET_LOW load(1, XDATA, add(CFA_XSP16, literal(-5)))
        CFI R7 load(1, XDATA, add(CFA_XSP16, literal(-6)))
        CFI V1 load(1, XDATA, add(CFA_XSP16, literal(-7)))
        CFI V0 load(1, XDATA, add(CFA_XSP16, literal(-8)))
        CFI VB load(1, XDATA, add(CFA_XSP16, literal(-9)))
        CFI R6 load(1, XDATA, add(CFA_XSP16, literal(-10)))
        CFI CFA_SP SP+0
        CFI CFA_XSP16 add(XSP16, 10)
        ; Saved register size: 10
        ; Auto size: 0
//  777   if(FunSelect==FUN_SELECT_GENERAL)
        MOV     A,R2
        MOV     ?V0 + 0,#0x1
        MOV     ?V0 + 1,#0x0
        JNZ     ??OpenP1Interrupt_0
//  778   {
//  779     P1SEL &= ~(1<<pin);
        MOV     A,R1
        MOV     R0,#?V0 + 0
        LCALL   ?S_SHL
        MOV     A,?V0 + 0
        CPL     A
        ANL     A,0xf4
        SJMP    ??OpenP1Interrupt_1
//  780   } 
//  781   else 
//  782   {
//  783     P1SEL |= (1<<pin);
??OpenP1Interrupt_0:
        MOV     A,R1
        MOV     R0,#?V0 + 0
        LCALL   ?S_SHL
        MOV     A,?V0 + 0
        ORL     A,0xf4
??OpenP1Interrupt_1:
        MOV     0xf4,A
//  784   }
//  785   
//  786   if(direction==DIRECTION_INPUT)
        MOV     A,R3
        MOV     ?V0 + 0,#0x1
        MOV     ?V0 + 1,#0x0
        JNZ     ??OpenP1Interrupt_2
//  787   {
//  788     P1DIR &= ~(1<<pin);
        MOV     A,R1
        MOV     R0,#?V0 + 0
        LCALL   ?S_SHL
        MOV     A,?V0 + 0
        CPL     A
        ANL     A,0xfe
        MOV     0xfe,A
//  789 
//  790     if(InputMode==INPUT_MODE_PULLUP)
        MOV     A,R4
        JNZ     ??OpenP1Interrupt_3
//  791     {
//  792       P1INP &= ~(1<<pin);
        MOV     ?V0 + 0,#0x1
        MOV     ?V0 + 1,#0x0
        MOV     A,R1
        MOV     R0,#?V0 + 0
        LCALL   ?S_SHL
        MOV     A,?V0 + 0
        CPL     A
        ANL     A,0xf6
        MOV     0xf6,A
//  793       P2INP &= ~(0x40);
        ANL     0xf7,#0xbf
        SJMP    ??OpenP1Interrupt_4
//  794     }
//  795     else if (InputMode==INPUT_MODE_PULLDOWN)
??OpenP1Interrupt_3:
        MOV     A,#0x1
        XRL     A,R4
        JNZ     ??OpenP1Interrupt_5
//  796     {
//  797       P1INP &= ~(1<<pin);
        MOV     ?V0 + 0,#0x1
        MOV     ?V0 + 1,#0x0
        MOV     A,R1
        MOV     R0,#?V0 + 0
        LCALL   ?S_SHL
        MOV     A,?V0 + 0
        CPL     A
        ANL     A,0xf6
        MOV     0xf6,A
//  798       P2INP |= (0x40);
        ORL     0xf7,#0x40
        SJMP    ??OpenP1Interrupt_4
//  799     } else if (InputMode==INPUT_MODE_TRISTATE)
??OpenP1Interrupt_5:
        MOV     A,#0x2
        XRL     A,R4
        JNZ     ??OpenP1Interrupt_4
//  800     {
//  801       P1INP |= (1<<pin);
        MOV     ?V0 + 0,#0x1
        MOV     ?V0 + 1,#0x0
        MOV     A,R1
        MOV     R0,#?V0 + 0
        LCALL   ?S_SHL
        MOV     A,?V0 + 0
        ORL     A,0xf6
        MOV     0xf6,A
//  802     }
//  803     
//  804     if(RiseFallEdge==RISE_EDGE)
??OpenP1Interrupt_4:
        MOV     A,R5
        JNZ     ??OpenP1Interrupt_6
//  805     {
//  806       PICTL &= ~(0x02);
        ANL     0x8c,#0xfd
        SJMP    ??OpenP1Interrupt_7
//  807     }
//  808     else
//  809     {
//  810       PICTL |= (0x02);
??OpenP1Interrupt_6:
        ORL     0x8c,#0x2
        SJMP    ??OpenP1Interrupt_7
//  811     }
//  812   } 
//  813   else 
//  814   {
//  815     P1DIR |= (1<<pin);
??OpenP1Interrupt_2:
        MOV     A,R1
        MOV     R0,#?V0 + 0
        LCALL   ?S_SHL
        MOV     A,?V0 + 0
        ORL     A,0xfe
        MOV     0xfe,A
//  816   }
//  817   
//  818   P1IFG &= ~(1<<pin);//clean
??OpenP1Interrupt_7:
        MOV     ?V0 + 0,#0x1
        MOV     ?V0 + 1,#0x0
        MOV     A,R1
        MOV     R0,#?V0 + 0
        LCALL   ?S_SHL
        MOV     A,?V0 + 0
        CPL     A
        ANL     A,0x8a
        MOV     0x8a,A
//  819   
//  820   
//  821   switch(pin)
        MOV     A,R1
        LCALL   ?UC_SWITCH_DENSE
`?<Jumptable for OpenP1Interrupt>_0`:
        DATA
        DB        0
        DB        7
        DW        ??OpenP1Interrupt_8
        DW        ??OpenP1Interrupt_9
        DW        ??OpenP1Interrupt_10
        DW        ??OpenP1Interrupt_11
        DW        ??OpenP1Interrupt_12
        DW        ??OpenP1Interrupt_13
        DW        ??OpenP1Interrupt_14
        DW        ??OpenP1Interrupt_15
        DW        ??OpenP1Interrupt_16
        CODE
//  822   {
//  823     case PIN_0:
//  824       P1_ISR_fun[pin] = P1_0_ISR_fun;
??OpenP1Interrupt_9:
        LCALL   ?Subroutine1 & 0xFFFF
??CrossCallReturnLabel_2:
        MOV     A,#(??P1_0_ISR_fun?relay & 0xff)
        MOVX    @DPTR,A
        INC     DPTR
        MOV     A,#((??P1_0_ISR_fun?relay >> 8) & 0xff)
        SJMP    ??OpenP1Interrupt_17
//  825       break;
//  826     case PIN_1:
//  827       P1_ISR_fun[pin] = P1_1_ISR_fun;
??OpenP1Interrupt_10:
        LCALL   ?Subroutine1 & 0xFFFF
??CrossCallReturnLabel_3:
        MOV     A,#(??P1_1_ISR_fun?relay & 0xff)
        MOVX    @DPTR,A
        INC     DPTR
        MOV     A,#((??P1_1_ISR_fun?relay >> 8) & 0xff)
        SJMP    ??OpenP1Interrupt_17
//  828       break;
//  829     case PIN_2:
//  830       P1_ISR_fun[pin] = P1_2_ISR_fun;
??OpenP1Interrupt_11:
        LCALL   ?Subroutine1 & 0xFFFF
??CrossCallReturnLabel_4:
        MOV     A,#(??P1_2_ISR_fun?relay & 0xff)
        MOVX    @DPTR,A
        INC     DPTR
        MOV     A,#((??P1_2_ISR_fun?relay >> 8) & 0xff)
        SJMP    ??OpenP1Interrupt_17
//  831       break;
//  832     case PIN_3:
//  833       P1_ISR_fun[pin] = P1_3_ISR_fun;
??OpenP1Interrupt_12:
        LCALL   ?Subroutine1 & 0xFFFF
??CrossCallReturnLabel_5:
        MOV     A,#(??P1_3_ISR_fun?relay & 0xff)
        MOVX    @DPTR,A
        INC     DPTR
        MOV     A,#((??P1_3_ISR_fun?relay >> 8) & 0xff)
        SJMP    ??OpenP1Interrupt_17
//  834       break;
//  835     case PIN_4:
//  836       P1_ISR_fun[pin] = P1_4_ISR_fun;
??OpenP1Interrupt_13:
        LCALL   ?Subroutine1 & 0xFFFF
??CrossCallReturnLabel_6:
        MOV     A,#(??P1_4_ISR_fun?relay & 0xff)
        MOVX    @DPTR,A
        INC     DPTR
        MOV     A,#((??P1_4_ISR_fun?relay >> 8) & 0xff)
        SJMP    ??OpenP1Interrupt_17
//  837       break;
//  838     case PIN_5:
//  839       P1_ISR_fun[pin] = P1_5_ISR_fun;
??OpenP1Interrupt_14:
        LCALL   ?Subroutine1 & 0xFFFF
??CrossCallReturnLabel_7:
        MOV     A,#(??P1_5_ISR_fun?relay & 0xff)
        MOVX    @DPTR,A
        INC     DPTR
        MOV     A,#((??P1_5_ISR_fun?relay >> 8) & 0xff)
        SJMP    ??OpenP1Interrupt_17
//  840       break;
//  841     case PIN_6:
//  842       P1_ISR_fun[pin] = P1_6_ISR_fun;
??OpenP1Interrupt_15:
        LCALL   ?Subroutine1 & 0xFFFF
??CrossCallReturnLabel_8:
        MOV     A,#(??P1_6_ISR_fun?relay & 0xff)
        MOVX    @DPTR,A
        INC     DPTR
        MOV     A,#((??P1_6_ISR_fun?relay >> 8) & 0xff)
        SJMP    ??OpenP1Interrupt_17
//  843       break;
//  844     case PIN_7:
//  845       P1_ISR_fun[pin] = P1_7_ISR_fun;
??OpenP1Interrupt_16:
        LCALL   ?Subroutine1 & 0xFFFF
??CrossCallReturnLabel_9:
        MOV     A,#(??P1_7_ISR_fun?relay & 0xff)
        MOVX    @DPTR,A
        INC     DPTR
        MOV     A,#((??P1_7_ISR_fun?relay >> 8) & 0xff)
??OpenP1Interrupt_17:
        MOVX    @DPTR,A
        CFI EndBlock cfiBlock7
//  846       break;
//  847   }
//  848 }
??OpenP1Interrupt_8:
        REQUIRE ?Subroutine8
        REQUIRE P1IFG
        REQUIRE PICTL
        REQUIRE P1SEL
        REQUIRE P1INP
        REQUIRE P2INP
        REQUIRE P1DIR
        ; // Fall through to label ?Subroutine8

        RSEG BANKED_CODE:CODE:NOROOT(0)
?Subroutine8:
        CFI Block cfiBlock8 Using cfiCommon0
        CFI NoFunction
        CFI CFA_SP SP+0
        CFI CFA_XSP16 add(XSP16, 10)
        CFI VB load(1, XDATA, add(CFA_XSP16, literal(-9)))
        CFI DPL0 load(1, XDATA, add(CFA_XSP16, literal(-2)))
        CFI DPH0 load(1, XDATA, add(CFA_XSP16, literal(-1)))
        CFI R6 load(1, XDATA, add(CFA_XSP16, literal(-10)))
        CFI R7 load(1, XDATA, add(CFA_XSP16, literal(-6)))
        CFI V0 load(1, XDATA, add(CFA_XSP16, literal(-8)))
        CFI V1 load(1, XDATA, add(CFA_XSP16, literal(-7)))
        CFI ?BRET_EXT load(1, XDATA, add(CFA_XSP16, literal(-3)))
        CFI ?RET_HIGH load(1, XDATA, add(CFA_XSP16, literal(-4)))
        CFI ?RET_LOW load(1, XDATA, add(CFA_XSP16, literal(-5)))
        MOV     R7,#0x2
        LJMP    ?BANKED_LEAVE_XDATA
        CFI EndBlock cfiBlock8

        RSEG BANKED_CODE:CODE:NOROOT(0)
?Subroutine1:
        CFI Block cfiCond9 Using cfiCommon0
        CFI NoFunction
        CFI Conditional ??CrossCallReturnLabel_2
        CFI R6 load(1, XDATA, add(CFA_XSP16, literal(-10)))
        CFI VB load(1, XDATA, add(CFA_XSP16, literal(-9)))
        CFI V0 load(1, XDATA, add(CFA_XSP16, literal(-8)))
        CFI V1 load(1, XDATA, add(CFA_XSP16, literal(-7)))
        CFI R7 load(1, XDATA, add(CFA_XSP16, literal(-6)))
        CFI ?RET_LOW load(1, XDATA, add(CFA_XSP16, literal(-5)))
        CFI ?RET_HIGH load(1, XDATA, add(CFA_XSP16, literal(-4)))
        CFI ?BRET_EXT load(1, XDATA, add(CFA_XSP16, literal(-3)))
        CFI DPL0 load(1, XDATA, add(CFA_XSP16, literal(-2)))
        CFI DPH0 load(1, XDATA, add(CFA_XSP16, literal(-1)))
        CFI CFA_SP SP+0
        CFI CFA_XSP16 add(XSP16, 10)
        CFI Block cfiCond10 Using cfiCommon0
        CFI (cfiCond10) NoFunction
        CFI (cfiCond10) Conditional ??CrossCallReturnLabel_3
        CFI (cfiCond10) R6 load(1, XDATA, add(CFA_XSP16, literal(-10)))
        CFI (cfiCond10) VB load(1, XDATA, add(CFA_XSP16, literal(-9)))
        CFI (cfiCond10) V0 load(1, XDATA, add(CFA_XSP16, literal(-8)))
        CFI (cfiCond10) V1 load(1, XDATA, add(CFA_XSP16, literal(-7)))
        CFI (cfiCond10) R7 load(1, XDATA, add(CFA_XSP16, literal(-6)))
        CFI (cfiCond10) ?RET_LOW load(1, XDATA, add(CFA_XSP16, literal(-5)))
        CFI (cfiCond10) ?RET_HIGH load(1, XDATA, add(CFA_XSP16, literal(-4)))
        CFI (cfiCond10) ?BRET_EXT load(1, XDATA, add(CFA_XSP16, literal(-3)))
        CFI (cfiCond10) DPL0 load(1, XDATA, add(CFA_XSP16, literal(-2)))
        CFI (cfiCond10) DPH0 load(1, XDATA, add(CFA_XSP16, literal(-1)))
        CFI (cfiCond10) CFA_SP SP+0
        CFI (cfiCond10) CFA_XSP16 add(XSP16, 10)
        CFI Block cfiCond11 Using cfiCommon0
        CFI (cfiCond11) NoFunction
        CFI (cfiCond11) Conditional ??CrossCallReturnLabel_4
        CFI (cfiCond11) R6 load(1, XDATA, add(CFA_XSP16, literal(-10)))
        CFI (cfiCond11) VB load(1, XDATA, add(CFA_XSP16, literal(-9)))
        CFI (cfiCond11) V0 load(1, XDATA, add(CFA_XSP16, literal(-8)))
        CFI (cfiCond11) V1 load(1, XDATA, add(CFA_XSP16, literal(-7)))
        CFI (cfiCond11) R7 load(1, XDATA, add(CFA_XSP16, literal(-6)))
        CFI (cfiCond11) ?RET_LOW load(1, XDATA, add(CFA_XSP16, literal(-5)))
        CFI (cfiCond11) ?RET_HIGH load(1, XDATA, add(CFA_XSP16, literal(-4)))
        CFI (cfiCond11) ?BRET_EXT load(1, XDATA, add(CFA_XSP16, literal(-3)))
        CFI (cfiCond11) DPL0 load(1, XDATA, add(CFA_XSP16, literal(-2)))
        CFI (cfiCond11) DPH0 load(1, XDATA, add(CFA_XSP16, literal(-1)))
        CFI (cfiCond11) CFA_SP SP+0
        CFI (cfiCond11) CFA_XSP16 add(XSP16, 10)
        CFI Block cfiCond12 Using cfiCommon0
        CFI (cfiCond12) NoFunction
        CFI (cfiCond12) Conditional ??CrossCallReturnLabel_5
        CFI (cfiCond12) R6 load(1, XDATA, add(CFA_XSP16, literal(-10)))
        CFI (cfiCond12) VB load(1, XDATA, add(CFA_XSP16, literal(-9)))
        CFI (cfiCond12) V0 load(1, XDATA, add(CFA_XSP16, literal(-8)))
        CFI (cfiCond12) V1 load(1, XDATA, add(CFA_XSP16, literal(-7)))
        CFI (cfiCond12) R7 load(1, XDATA, add(CFA_XSP16, literal(-6)))
        CFI (cfiCond12) ?RET_LOW load(1, XDATA, add(CFA_XSP16, literal(-5)))
        CFI (cfiCond12) ?RET_HIGH load(1, XDATA, add(CFA_XSP16, literal(-4)))
        CFI (cfiCond12) ?BRET_EXT load(1, XDATA, add(CFA_XSP16, literal(-3)))
        CFI (cfiCond12) DPL0 load(1, XDATA, add(CFA_XSP16, literal(-2)))
        CFI (cfiCond12) DPH0 load(1, XDATA, add(CFA_XSP16, literal(-1)))
        CFI (cfiCond12) CFA_SP SP+0
        CFI (cfiCond12) CFA_XSP16 add(XSP16, 10)
        CFI Block cfiCond13 Using cfiCommon0
        CFI (cfiCond13) NoFunction
        CFI (cfiCond13) Conditional ??CrossCallReturnLabel_6
        CFI (cfiCond13) R6 load(1, XDATA, add(CFA_XSP16, literal(-10)))
        CFI (cfiCond13) VB load(1, XDATA, add(CFA_XSP16, literal(-9)))
        CFI (cfiCond13) V0 load(1, XDATA, add(CFA_XSP16, literal(-8)))
        CFI (cfiCond13) V1 load(1, XDATA, add(CFA_XSP16, literal(-7)))
        CFI (cfiCond13) R7 load(1, XDATA, add(CFA_XSP16, literal(-6)))
        CFI (cfiCond13) ?RET_LOW load(1, XDATA, add(CFA_XSP16, literal(-5)))
        CFI (cfiCond13) ?RET_HIGH load(1, XDATA, add(CFA_XSP16, literal(-4)))
        CFI (cfiCond13) ?BRET_EXT load(1, XDATA, add(CFA_XSP16, literal(-3)))
        CFI (cfiCond13) DPL0 load(1, XDATA, add(CFA_XSP16, literal(-2)))
        CFI (cfiCond13) DPH0 load(1, XDATA, add(CFA_XSP16, literal(-1)))
        CFI (cfiCond13) CFA_SP SP+0
        CFI (cfiCond13) CFA_XSP16 add(XSP16, 10)
        CFI Block cfiCond14 Using cfiCommon0
        CFI (cfiCond14) NoFunction
        CFI (cfiCond14) Conditional ??CrossCallReturnLabel_7
        CFI (cfiCond14) R6 load(1, XDATA, add(CFA_XSP16, literal(-10)))
        CFI (cfiCond14) VB load(1, XDATA, add(CFA_XSP16, literal(-9)))
        CFI (cfiCond14) V0 load(1, XDATA, add(CFA_XSP16, literal(-8)))
        CFI (cfiCond14) V1 load(1, XDATA, add(CFA_XSP16, literal(-7)))
        CFI (cfiCond14) R7 load(1, XDATA, add(CFA_XSP16, literal(-6)))
        CFI (cfiCond14) ?RET_LOW load(1, XDATA, add(CFA_XSP16, literal(-5)))
        CFI (cfiCond14) ?RET_HIGH load(1, XDATA, add(CFA_XSP16, literal(-4)))
        CFI (cfiCond14) ?BRET_EXT load(1, XDATA, add(CFA_XSP16, literal(-3)))
        CFI (cfiCond14) DPL0 load(1, XDATA, add(CFA_XSP16, literal(-2)))
        CFI (cfiCond14) DPH0 load(1, XDATA, add(CFA_XSP16, literal(-1)))
        CFI (cfiCond14) CFA_SP SP+0
        CFI (cfiCond14) CFA_XSP16 add(XSP16, 10)
        CFI Block cfiCond15 Using cfiCommon0
        CFI (cfiCond15) NoFunction
        CFI (cfiCond15) Conditional ??CrossCallReturnLabel_8
        CFI (cfiCond15) R6 load(1, XDATA, add(CFA_XSP16, literal(-10)))
        CFI (cfiCond15) VB load(1, XDATA, add(CFA_XSP16, literal(-9)))
        CFI (cfiCond15) V0 load(1, XDATA, add(CFA_XSP16, literal(-8)))
        CFI (cfiCond15) V1 load(1, XDATA, add(CFA_XSP16, literal(-7)))
        CFI (cfiCond15) R7 load(1, XDATA, add(CFA_XSP16, literal(-6)))
        CFI (cfiCond15) ?RET_LOW load(1, XDATA, add(CFA_XSP16, literal(-5)))
        CFI (cfiCond15) ?RET_HIGH load(1, XDATA, add(CFA_XSP16, literal(-4)))
        CFI (cfiCond15) ?BRET_EXT load(1, XDATA, add(CFA_XSP16, literal(-3)))
        CFI (cfiCond15) DPL0 load(1, XDATA, add(CFA_XSP16, literal(-2)))
        CFI (cfiCond15) DPH0 load(1, XDATA, add(CFA_XSP16, literal(-1)))
        CFI (cfiCond15) CFA_SP SP+0
        CFI (cfiCond15) CFA_XSP16 add(XSP16, 10)
        CFI Block cfiCond16 Using cfiCommon0
        CFI (cfiCond16) NoFunction
        CFI (cfiCond16) Conditional ??CrossCallReturnLabel_9
        CFI (cfiCond16) R6 load(1, XDATA, add(CFA_XSP16, literal(-10)))
        CFI (cfiCond16) VB load(1, XDATA, add(CFA_XSP16, literal(-9)))
        CFI (cfiCond16) V0 load(1, XDATA, add(CFA_XSP16, literal(-8)))
        CFI (cfiCond16) V1 load(1, XDATA, add(CFA_XSP16, literal(-7)))
        CFI (cfiCond16) R7 load(1, XDATA, add(CFA_XSP16, literal(-6)))
        CFI (cfiCond16) ?RET_LOW load(1, XDATA, add(CFA_XSP16, literal(-5)))
        CFI (cfiCond16) ?RET_HIGH load(1, XDATA, add(CFA_XSP16, literal(-4)))
        CFI (cfiCond16) ?BRET_EXT load(1, XDATA, add(CFA_XSP16, literal(-3)))
        CFI (cfiCond16) DPL0 load(1, XDATA, add(CFA_XSP16, literal(-2)))
        CFI (cfiCond16) DPH0 load(1, XDATA, add(CFA_XSP16, literal(-1)))
        CFI (cfiCond16) CFA_SP SP+0
        CFI (cfiCond16) CFA_XSP16 add(XSP16, 10)
        CFI Block cfiPicker17 Using cfiCommon1
        CFI (cfiPicker17) NoFunction
        CFI (cfiPicker17) Picker
        MOV     A,R1
        LCALL   ?Subroutine3 & 0xFFFF
??CrossCallReturnLabel_13:
        RET
        CFI EndBlock cfiCond9
        CFI EndBlock cfiCond10
        CFI EndBlock cfiCond11
        CFI EndBlock cfiCond12
        CFI EndBlock cfiCond13
        CFI EndBlock cfiCond14
        CFI EndBlock cfiCond15
        CFI EndBlock cfiCond16
        CFI EndBlock cfiPicker17

        RSEG BANKED_CODE:CODE:NOROOT(0)
?Subroutine3:
        CFI Block cfiCond18 Using cfiCommon0
        CFI NoFunction
        CFI Conditional ??CrossCallReturnLabel_13, ??CrossCallReturnLabel_2
        CFI R6 load(1, XDATA, add(CFA_XSP16, literal(-10)))
        CFI VB load(1, XDATA, add(CFA_XSP16, literal(-9)))
        CFI V0 load(1, XDATA, add(CFA_XSP16, literal(-8)))
        CFI V1 load(1, XDATA, add(CFA_XSP16, literal(-7)))
        CFI R7 load(1, XDATA, add(CFA_XSP16, literal(-6)))
        CFI ?RET_LOW load(1, XDATA, add(CFA_XSP16, literal(-5)))
        CFI ?RET_HIGH load(1, XDATA, add(CFA_XSP16, literal(-4)))
        CFI ?BRET_EXT load(1, XDATA, add(CFA_XSP16, literal(-3)))
        CFI DPL0 load(1, XDATA, add(CFA_XSP16, literal(-2)))
        CFI DPH0 load(1, XDATA, add(CFA_XSP16, literal(-1)))
        CFI CFA_SP SP+0
        CFI CFA_XSP16 add(XSP16, 10)
        CFI Block cfiCond19 Using cfiCommon0
        CFI (cfiCond19) NoFunction
        CFI (cfiCond19) Conditional ??CrossCallReturnLabel_13, ??CrossCallReturnLabel_3
        CFI (cfiCond19) R6 load(1, XDATA, add(CFA_XSP16, literal(-10)))
        CFI (cfiCond19) VB load(1, XDATA, add(CFA_XSP16, literal(-9)))
        CFI (cfiCond19) V0 load(1, XDATA, add(CFA_XSP16, literal(-8)))
        CFI (cfiCond19) V1 load(1, XDATA, add(CFA_XSP16, literal(-7)))
        CFI (cfiCond19) R7 load(1, XDATA, add(CFA_XSP16, literal(-6)))
        CFI (cfiCond19) ?RET_LOW load(1, XDATA, add(CFA_XSP16, literal(-5)))
        CFI (cfiCond19) ?RET_HIGH load(1, XDATA, add(CFA_XSP16, literal(-4)))
        CFI (cfiCond19) ?BRET_EXT load(1, XDATA, add(CFA_XSP16, literal(-3)))
        CFI (cfiCond19) DPL0 load(1, XDATA, add(CFA_XSP16, literal(-2)))
        CFI (cfiCond19) DPH0 load(1, XDATA, add(CFA_XSP16, literal(-1)))
        CFI (cfiCond19) CFA_SP SP+0
        CFI (cfiCond19) CFA_XSP16 add(XSP16, 10)
        CFI Block cfiCond20 Using cfiCommon0
        CFI (cfiCond20) NoFunction
        CFI (cfiCond20) Conditional ??CrossCallReturnLabel_13, ??CrossCallReturnLabel_4
        CFI (cfiCond20) R6 load(1, XDATA, add(CFA_XSP16, literal(-10)))
        CFI (cfiCond20) VB load(1, XDATA, add(CFA_XSP16, literal(-9)))
        CFI (cfiCond20) V0 load(1, XDATA, add(CFA_XSP16, literal(-8)))
        CFI (cfiCond20) V1 load(1, XDATA, add(CFA_XSP16, literal(-7)))
        CFI (cfiCond20) R7 load(1, XDATA, add(CFA_XSP16, literal(-6)))
        CFI (cfiCond20) ?RET_LOW load(1, XDATA, add(CFA_XSP16, literal(-5)))
        CFI (cfiCond20) ?RET_HIGH load(1, XDATA, add(CFA_XSP16, literal(-4)))
        CFI (cfiCond20) ?BRET_EXT load(1, XDATA, add(CFA_XSP16, literal(-3)))
        CFI (cfiCond20) DPL0 load(1, XDATA, add(CFA_XSP16, literal(-2)))
        CFI (cfiCond20) DPH0 load(1, XDATA, add(CFA_XSP16, literal(-1)))
        CFI (cfiCond20) CFA_SP SP+0
        CFI (cfiCond20) CFA_XSP16 add(XSP16, 10)
        CFI Block cfiCond21 Using cfiCommon0
        CFI (cfiCond21) NoFunction
        CFI (cfiCond21) Conditional ??CrossCallReturnLabel_13, ??CrossCallReturnLabel_5
        CFI (cfiCond21) R6 load(1, XDATA, add(CFA_XSP16, literal(-10)))
        CFI (cfiCond21) VB load(1, XDATA, add(CFA_XSP16, literal(-9)))
        CFI (cfiCond21) V0 load(1, XDATA, add(CFA_XSP16, literal(-8)))
        CFI (cfiCond21) V1 load(1, XDATA, add(CFA_XSP16, literal(-7)))
        CFI (cfiCond21) R7 load(1, XDATA, add(CFA_XSP16, literal(-6)))
        CFI (cfiCond21) ?RET_LOW load(1, XDATA, add(CFA_XSP16, literal(-5)))
        CFI (cfiCond21) ?RET_HIGH load(1, XDATA, add(CFA_XSP16, literal(-4)))
        CFI (cfiCond21) ?BRET_EXT load(1, XDATA, add(CFA_XSP16, literal(-3)))
        CFI (cfiCond21) DPL0 load(1, XDATA, add(CFA_XSP16, literal(-2)))
        CFI (cfiCond21) DPH0 load(1, XDATA, add(CFA_XSP16, literal(-1)))
        CFI (cfiCond21) CFA_SP SP+0
        CFI (cfiCond21) CFA_XSP16 add(XSP16, 10)
        CFI Block cfiCond22 Using cfiCommon0
        CFI (cfiCond22) NoFunction
        CFI (cfiCond22) Conditional ??CrossCallReturnLabel_13, ??CrossCallReturnLabel_6
        CFI (cfiCond22) R6 load(1, XDATA, add(CFA_XSP16, literal(-10)))
        CFI (cfiCond22) VB load(1, XDATA, add(CFA_XSP16, literal(-9)))
        CFI (cfiCond22) V0 load(1, XDATA, add(CFA_XSP16, literal(-8)))
        CFI (cfiCond22) V1 load(1, XDATA, add(CFA_XSP16, literal(-7)))
        CFI (cfiCond22) R7 load(1, XDATA, add(CFA_XSP16, literal(-6)))
        CFI (cfiCond22) ?RET_LOW load(1, XDATA, add(CFA_XSP16, literal(-5)))
        CFI (cfiCond22) ?RET_HIGH load(1, XDATA, add(CFA_XSP16, literal(-4)))
        CFI (cfiCond22) ?BRET_EXT load(1, XDATA, add(CFA_XSP16, literal(-3)))
        CFI (cfiCond22) DPL0 load(1, XDATA, add(CFA_XSP16, literal(-2)))
        CFI (cfiCond22) DPH0 load(1, XDATA, add(CFA_XSP16, literal(-1)))
        CFI (cfiCond22) CFA_SP SP+0
        CFI (cfiCond22) CFA_XSP16 add(XSP16, 10)
        CFI Block cfiCond23 Using cfiCommon0
        CFI (cfiCond23) NoFunction
        CFI (cfiCond23) Conditional ??CrossCallReturnLabel_13, ??CrossCallReturnLabel_7
        CFI (cfiCond23) R6 load(1, XDATA, add(CFA_XSP16, literal(-10)))
        CFI (cfiCond23) VB load(1, XDATA, add(CFA_XSP16, literal(-9)))
        CFI (cfiCond23) V0 load(1, XDATA, add(CFA_XSP16, literal(-8)))
        CFI (cfiCond23) V1 load(1, XDATA, add(CFA_XSP16, literal(-7)))
        CFI (cfiCond23) R7 load(1, XDATA, add(CFA_XSP16, literal(-6)))
        CFI (cfiCond23) ?RET_LOW load(1, XDATA, add(CFA_XSP16, literal(-5)))
        CFI (cfiCond23) ?RET_HIGH load(1, XDATA, add(CFA_XSP16, literal(-4)))
        CFI (cfiCond23) ?BRET_EXT load(1, XDATA, add(CFA_XSP16, literal(-3)))
        CFI (cfiCond23) DPL0 load(1, XDATA, add(CFA_XSP16, literal(-2)))
        CFI (cfiCond23) DPH0 load(1, XDATA, add(CFA_XSP16, literal(-1)))
        CFI (cfiCond23) CFA_SP SP+0
        CFI (cfiCond23) CFA_XSP16 add(XSP16, 10)
        CFI Block cfiCond24 Using cfiCommon0
        CFI (cfiCond24) NoFunction
        CFI (cfiCond24) Conditional ??CrossCallReturnLabel_13, ??CrossCallReturnLabel_8
        CFI (cfiCond24) R6 load(1, XDATA, add(CFA_XSP16, literal(-10)))
        CFI (cfiCond24) VB load(1, XDATA, add(CFA_XSP16, literal(-9)))
        CFI (cfiCond24) V0 load(1, XDATA, add(CFA_XSP16, literal(-8)))
        CFI (cfiCond24) V1 load(1, XDATA, add(CFA_XSP16, literal(-7)))
        CFI (cfiCond24) R7 load(1, XDATA, add(CFA_XSP16, literal(-6)))
        CFI (cfiCond24) ?RET_LOW load(1, XDATA, add(CFA_XSP16, literal(-5)))
        CFI (cfiCond24) ?RET_HIGH load(1, XDATA, add(CFA_XSP16, literal(-4)))
        CFI (cfiCond24) ?BRET_EXT load(1, XDATA, add(CFA_XSP16, literal(-3)))
        CFI (cfiCond24) DPL0 load(1, XDATA, add(CFA_XSP16, literal(-2)))
        CFI (cfiCond24) DPH0 load(1, XDATA, add(CFA_XSP16, literal(-1)))
        CFI (cfiCond24) CFA_SP SP+0
        CFI (cfiCond24) CFA_XSP16 add(XSP16, 10)
        CFI Block cfiCond25 Using cfiCommon0
        CFI (cfiCond25) NoFunction
        CFI (cfiCond25) Conditional ??CrossCallReturnLabel_13, ??CrossCallReturnLabel_9
        CFI (cfiCond25) R6 load(1, XDATA, add(CFA_XSP16, literal(-10)))
        CFI (cfiCond25) VB load(1, XDATA, add(CFA_XSP16, literal(-9)))
        CFI (cfiCond25) V0 load(1, XDATA, add(CFA_XSP16, literal(-8)))
        CFI (cfiCond25) V1 load(1, XDATA, add(CFA_XSP16, literal(-7)))
        CFI (cfiCond25) R7 load(1, XDATA, add(CFA_XSP16, literal(-6)))
        CFI (cfiCond25) ?RET_LOW load(1, XDATA, add(CFA_XSP16, literal(-5)))
        CFI (cfiCond25) ?RET_HIGH load(1, XDATA, add(CFA_XSP16, literal(-4)))
        CFI (cfiCond25) ?BRET_EXT load(1, XDATA, add(CFA_XSP16, literal(-3)))
        CFI (cfiCond25) DPL0 load(1, XDATA, add(CFA_XSP16, literal(-2)))
        CFI (cfiCond25) DPH0 load(1, XDATA, add(CFA_XSP16, literal(-1)))
        CFI (cfiCond25) CFA_SP SP+0
        CFI (cfiCond25) CFA_XSP16 add(XSP16, 10)
        CFI Block cfiCond26 Using cfiCommon0
        CFI (cfiCond26) NoFunction
        CFI (cfiCond26) Conditional ??CrossCallReturnLabel_12, ??CrossCallReturnLabel_0
        CFI (cfiCond26) DPL0 Frame(CFA_SP, 4)
        CFI (cfiCond26) DPH0 Frame(CFA_SP, 5)
        CFI (cfiCond26) CFA_SP SP+-5
        CFI Block cfiCond27 Using cfiCommon0
        CFI (cfiCond27) NoFunction
        CFI (cfiCond27) Conditional ??CrossCallReturnLabel_12, ??CrossCallReturnLabel_1
        CFI (cfiCond27) DPL0 Frame(CFA_SP, 4)
        CFI (cfiCond27) DPH0 Frame(CFA_SP, 5)
        CFI (cfiCond27) CFA_SP SP+-5
        CFI Block cfiPicker28 Using cfiCommon1
        CFI (cfiPicker28) NoFunction
        CFI (cfiPicker28) Picker
        CLR     C
        RLC     A
        MOV     R0,A
        CLR     A
        RLC     A
        MOV     R1,A
        MOV     A,R0
        ADD     A,#(P1_ISR_fun & 0xff)
        MOV     DPL,A
        MOV     A,R1
        ADDC    A,#((P1_ISR_fun >> 8) & 0xff)
        MOV     DPH,A
        RET
        CFI EndBlock cfiCond18
        CFI EndBlock cfiCond19
        CFI EndBlock cfiCond20
        CFI EndBlock cfiCond21
        CFI EndBlock cfiCond22
        CFI EndBlock cfiCond23
        CFI EndBlock cfiCond24
        CFI EndBlock cfiCond25
        CFI EndBlock cfiCond26
        CFI EndBlock cfiCond27
        CFI EndBlock cfiPicker28
//  849 
//  850 /**************************************************************************************************
//  851  * @fn      CloseP1Interrupt
//  852  *
//  853  * @brief   
//  854  *
//  855  * @param
//  856  *
//  857  * @return
//  858  **************************************************************************************************/

        RSEG BANKED_CODE:CODE:NOROOT(0)
//  859 void CloseP1Interrupt(uint8 pin)
CloseP1Interrupt:
        CFI Block cfiBlock29 Using cfiCommon0
        CFI Function CloseP1Interrupt
//  860 {
        PUSH    DPL
        CFI DPL0 Frame(CFA_SP, 4)
        CFI CFA_SP SP+-4
        PUSH    DPH
        CFI DPH0 Frame(CFA_SP, 5)
        CFI CFA_SP SP+-5
        ; Saved register size: 2
        ; Auto size: 0
//  861   P1_ISR_fun[pin]=0;
        MOV     A,R1
        LCALL   ?Subroutine0 & 0xFFFF
//  862 }
??CrossCallReturnLabel_0:
        LJMP    ?Subroutine6 & 0xFFFF
        CFI EndBlock cfiBlock29
//  863 
//  864 /**************************************************************************************************
//  865  * @fn      StartP1Interrupt
//  866  *
//  867  * @brief   
//  868  *
//  869  * @param
//  870  *
//  871  * @return
//  872  **************************************************************************************************/

        RSEG BANKED_CODE:CODE:NOROOT(0)
//  873 void StartP1Interrupt(uint8 pin)
StartP1Interrupt:
        CFI Block cfiBlock30 Using cfiCommon0
        CFI Function StartP1Interrupt
//  874 {
        PUSH    ?V0 + 0
        CFI V0 Frame(CFA_SP, 4)
        CFI CFA_SP SP+-4
        PUSH    ?V0 + 1
        CFI V1 Frame(CFA_SP, 5)
        CFI CFA_SP SP+-5
        ; Saved register size: 2
        ; Auto size: 0
//  875   EA = 1;
        SETB    0xa8.7
//  876   IEN2 |= (0x10);
        ORL     0x9a,#0x10
//  877   P1IEN |= (1<<pin);
        MOV     ?V0 + 0,#0x1
        MOV     ?V0 + 1,#0x0
        MOV     A,R1
        MOV     R0,#?V0 + 0
        LCALL   ?S_SHL
        MOV     A,?V0 + 0
        ORL     A,0x8d
        CFI EndBlock cfiBlock30
        REQUIRE ?Subroutine5
        REQUIRE P1IEN
        REQUIRE IEN2
        REQUIRE _A_IEN0
        ; // Fall through to label ?Subroutine5
//  878 }

        RSEG BANKED_CODE:CODE:NOROOT(0)
?Subroutine5:
        CFI Block cfiBlock31 Using cfiCommon0
        CFI NoFunction
        CFI CFA_SP SP+-5
        CFI V0 Frame(CFA_SP, 4)
        CFI V1 Frame(CFA_SP, 5)
        MOV     0x8d,A
        POP     ?V0 + 1
        CFI CFA_SP SP+-4
        CFI V1 SameValue
        POP     ?V0 + 0
        CFI CFA_SP SP+-3
        CFI V0 SameValue
        LJMP    ?BRET
        CFI EndBlock cfiBlock31
//  879 
//  880 /**************************************************************************************************
//  881  * @fn      StopP1Interrupt
//  882  *
//  883  * @brief   
//  884  *
//  885  * @param
//  886  *
//  887  * @return
//  888  **************************************************************************************************/

        RSEG BANKED_CODE:CODE:NOROOT(0)
//  889 void StopP1Interrupt(uint8 pin)
StopP1Interrupt:
        CFI Block cfiBlock32 Using cfiCommon0
        CFI Function StopP1Interrupt
//  890 {
        PUSH    ?V0 + 0
        CFI V0 Frame(CFA_SP, 4)
        CFI CFA_SP SP+-4
        PUSH    ?V0 + 1
        CFI V1 Frame(CFA_SP, 5)
        CFI CFA_SP SP+-5
        ; Saved register size: 2
        ; Auto size: 0
//  891   P1IEN &= ~(1<<pin);  
        MOV     ?V0 + 0,#0x1
        MOV     ?V0 + 1,#0x0
        MOV     A,R1
        MOV     R0,#?V0 + 0
        LCALL   ?S_SHL
        MOV     A,?V0 + 0
        CPL     A
        ANL     A,0x8d
        SJMP    ?Subroutine5
        CFI EndBlock cfiBlock32
        REQUIRE P1IEN
//  892 }
//  893 
//  894 /**************************************************************************************************
//  895  * @fn      RegisterP1Interrupt
//  896  *
//  897  * @brief   
//  898  *
//  899  * @param
//  900  *
//  901  * @return
//  902  **************************************************************************************************/

        RSEG BANKED_CODE:CODE:NOROOT(0)
//  903 void RegisterP1Interrupt(uint8 pin, uint8 TaskID)
RegisterP1Interrupt:
        CFI Block cfiBlock33 Using cfiCommon0
        CFI Function RegisterP1Interrupt
//  904 {
        MOV     A,#-0xa
        LCALL   ?BANKED_ENTER_XDATA
        CFI DPH0 load(1, XDATA, add(CFA_XSP16, literal(-1)))
        CFI DPL0 load(1, XDATA, add(CFA_XSP16, literal(-2)))
        CFI ?BRET_EXT load(1, XDATA, add(CFA_XSP16, literal(-3)))
        CFI ?RET_HIGH load(1, XDATA, add(CFA_XSP16, literal(-4)))
        CFI ?RET_LOW load(1, XDATA, add(CFA_XSP16, literal(-5)))
        CFI R7 load(1, XDATA, add(CFA_XSP16, literal(-6)))
        CFI V1 load(1, XDATA, add(CFA_XSP16, literal(-7)))
        CFI V0 load(1, XDATA, add(CFA_XSP16, literal(-8)))
        CFI VB load(1, XDATA, add(CFA_XSP16, literal(-9)))
        CFI R6 load(1, XDATA, add(CFA_XSP16, literal(-10)))
        CFI CFA_SP SP+0
        CFI CFA_XSP16 add(XSP16, 10)
        ; Saved register size: 10
        ; Auto size: 0
//  905     P1InterruptTaskID[pin]=TaskID;
        MOV     A,R1
        LCALL   ?Subroutine2 & 0xFFFF
??CrossCallReturnLabel_10:
        MOV     A,R2
        MOVX    @DPTR,A
//  906 }
        SJMP    ?Subroutine8
        CFI EndBlock cfiBlock33
//  907 
//  908 /**************************************************************************************************
//  909  * @fn      QueryP1Interrupt
//  910  *
//  911  * @brief   
//  912  *
//  913  * @param
//  914  *
//  915  * @return
//  916  **************************************************************************************************/

        RSEG BANKED_CODE:CODE:NOROOT(0)
//  917 uint8 QueryP1Interrupt(uint8 pin)
QueryP1Interrupt:
        CFI Block cfiBlock34 Using cfiCommon0
        CFI Function QueryP1Interrupt
//  918 {
        PUSH    DPL
        CFI DPL0 Frame(CFA_SP, 4)
        CFI CFA_SP SP+-4
        PUSH    DPH
        CFI DPH0 Frame(CFA_SP, 5)
        CFI CFA_SP SP+-5
        ; Saved register size: 2
        ; Auto size: 0
//  919   switch(pin)
        MOV     A,R1
        LCALL   ?UC_SWITCH_DENSE
`?<Jumptable for QueryP1Interrupt>_0`:
        DATA
        DB        2
        DB        0
        DW        ??QueryP1Interrupt_0
        DW        ??QueryP1Interrupt_1
        CODE
//  920   {
//  921     case PIN_0:
//  922 
//  923       break;
//  924     case PIN_1:
//  925 
//  926       break;
//  927     case PIN_2:
//  928       sensor_rain.ReadState=1;
??QueryP1Interrupt_1:
        MOV     A,#0x1
        MOV     DPTR,#(sensor_rain + 3)
        MOVX    @DPTR,A
//  929       return sensor_rain.count;
        MOV     DPTR,#(sensor_rain + 2)
        MOVX    A,@DPTR
        MOV     R1,A
        SJMP    ??QueryP1Interrupt_2
//  930 //      break;
//  931     case PIN_3:
//  932       break;
//  933     case PIN_4:
//  934 
//  935       break;
//  936     case PIN_5:
//  937 
//  938       break;
//  939     case PIN_6:
//  940 
//  941       break;
//  942     case PIN_7:
//  943 
//  944       break;
//  945   }
//  946   return 0xFF;
??QueryP1Interrupt_0:
        MOV     R1,#-0x1
??QueryP1Interrupt_2:
        SJMP    ?Subroutine6
        CFI EndBlock cfiBlock34
//  947 }
//  948 
//  949 /**************************************************************************************************
//  950  * @fn      HalP1InterruptConfigBefore
//  951  *
//  952  * @brief   
//  953  *
//  954  * @param
//  955  *
//  956  * @return
//  957  **************************************************************************************************/

        RSEG BANKED_CODE:CODE:NOROOT(0)
//  958 void HalP1InterruptConfigBefore( void )
HalP1InterruptConfigBefore:
        CFI Block cfiBlock35 Using cfiCommon0
        CFI Function HalP1InterruptConfigBefore
//  959 {
        PUSH    DPL
        CFI DPL0 Frame(CFA_SP, 4)
        CFI CFA_SP SP+-4
        PUSH    DPH
        CFI DPH0 Frame(CFA_SP, 5)
        CFI CFA_SP SP+-5
        ; Saved register size: 2
        ; Auto size: 0
//  960   EA=1;
        SETB    0xa8.7
//  961   uint8 pin;
//  962   for(pin=0;pin<8;pin++)
        MOV     R4,#0x0
//  963   {
//  964     P1_ISR_fun[pin]=0;
??HalP1InterruptConfigBefore_0:
        MOV     DPL,R4
        MOV     R2,DPL
        MOV     A,R2
        LCALL   ?Subroutine0 & 0xFFFF
//  965     P1InterruptTaskID[pin]=0xFF;  //0xFF is not register
??CrossCallReturnLabel_1:
        MOV     A,R2
        LCALL   ?Subroutine2 & 0xFFFF
??CrossCallReturnLabel_11:
        MOV     A,#-0x1
        MOVX    @DPTR,A
//  966   }
        INC     R4
        MOV     A,R4
        CLR     C
        SUBB    A,#0x8
        JC      ??HalP1InterruptConfigBefore_0
//  967   EA=0;  
        CLR     0xa8.7
        CFI EndBlock cfiBlock35
//  968 }
        REQUIRE ?Subroutine6
        REQUIRE _A_IEN0
        ; // Fall through to label ?Subroutine6

        RSEG BANKED_CODE:CODE:NOROOT(0)
?Subroutine6:
        CFI Block cfiBlock36 Using cfiCommon0
        CFI NoFunction
        CFI CFA_SP SP+-5
        CFI DPL0 Frame(CFA_SP, 4)
        CFI DPH0 Frame(CFA_SP, 5)
        POP     DPH
        CFI CFA_SP SP+-4
        CFI DPH0 SameValue
        POP     DPL
        CFI CFA_SP SP+-3
        CFI DPL0 SameValue
        LJMP    ?BRET
        CFI EndBlock cfiBlock36

        RSEG BANKED_CODE:CODE:NOROOT(0)
?Subroutine2:
        CFI Block cfiCond37 Using cfiCommon0
        CFI NoFunction
        CFI Conditional ??CrossCallReturnLabel_10
        CFI R6 load(1, XDATA, add(CFA_XSP16, literal(-10)))
        CFI VB load(1, XDATA, add(CFA_XSP16, literal(-9)))
        CFI V0 load(1, XDATA, add(CFA_XSP16, literal(-8)))
        CFI V1 load(1, XDATA, add(CFA_XSP16, literal(-7)))
        CFI R7 load(1, XDATA, add(CFA_XSP16, literal(-6)))
        CFI ?RET_LOW load(1, XDATA, add(CFA_XSP16, literal(-5)))
        CFI ?RET_HIGH load(1, XDATA, add(CFA_XSP16, literal(-4)))
        CFI ?BRET_EXT load(1, XDATA, add(CFA_XSP16, literal(-3)))
        CFI DPL0 load(1, XDATA, add(CFA_XSP16, literal(-2)))
        CFI DPH0 load(1, XDATA, add(CFA_XSP16, literal(-1)))
        CFI CFA_SP SP+0
        CFI CFA_XSP16 add(XSP16, 10)
        CFI Block cfiCond38 Using cfiCommon0
        CFI (cfiCond38) NoFunction
        CFI (cfiCond38) Conditional ??CrossCallReturnLabel_11
        CFI (cfiCond38) DPL0 Frame(CFA_SP, 4)
        CFI (cfiCond38) DPH0 Frame(CFA_SP, 5)
        CFI (cfiCond38) CFA_SP SP+-5
        CFI Block cfiPicker39 Using cfiCommon1
        CFI (cfiPicker39) NoFunction
        CFI (cfiPicker39) Picker
        ADD     A,#(P1InterruptTaskID & 0xff)
        MOV     DPL,A
        CLR     A
        ADDC    A,#((P1InterruptTaskID >> 8) & 0xff)
        MOV     DPH,A
        RET
        CFI EndBlock cfiCond37
        CFI EndBlock cfiCond38
        CFI EndBlock cfiPicker39

        RSEG BANKED_CODE:CODE:NOROOT(0)
?Subroutine0:
        CFI Block cfiCond40 Using cfiCommon0
        CFI NoFunction
        CFI Conditional ??CrossCallReturnLabel_0
        CFI DPL0 Frame(CFA_SP, 4)
        CFI DPH0 Frame(CFA_SP, 5)
        CFI CFA_SP SP+-5
        CFI Block cfiCond41 Using cfiCommon0
        CFI (cfiCond41) NoFunction
        CFI (cfiCond41) Conditional ??CrossCallReturnLabel_1
        CFI (cfiCond41) DPL0 Frame(CFA_SP, 4)
        CFI (cfiCond41) DPH0 Frame(CFA_SP, 5)
        CFI (cfiCond41) CFA_SP SP+-5
        CFI Block cfiPicker42 Using cfiCommon1
        CFI (cfiPicker42) NoFunction
        CFI (cfiPicker42) Picker
        LCALL   ?Subroutine3 & 0xFFFF
??CrossCallReturnLabel_12:
        CLR     A
        MOVX    @DPTR,A
        INC     DPTR
        MOVX    @DPTR,A
        RET
        CFI EndBlock cfiCond40
        CFI EndBlock cfiCond41
        CFI EndBlock cfiPicker42
//  969 /**************************************************************************************************
//  970  * @fn      HalP1InterruptConfigAfter
//  971  *
//  972  * @brief   
//  973  *
//  974  * @param
//  975  *
//  976  * @return
//  977  **************************************************************************************************/

        RSEG BANKED_CODE:CODE:NOROOT(0)
//  978 void HalP1InterruptConfigAfter( void )
HalP1InterruptConfigAfter:
        CFI Block cfiBlock43 Using cfiCommon0
        CFI Function HalP1InterruptConfigAfter
//  979 {  
        FUNCALL HalP1InterruptConfigAfter, OpenP1Interrupt
        LOCFRAME ISTACK, 2, STACK
        LOCFRAME PSTACK, 0, STACK
        LOCFRAME XSTACK, 0, STACK
        LOCFRAME IOVERLAY, 0, STATIC
        LOCFRAME DOVERLAY, 0, STATIC
        ARGFRAME ISTACK, 2, STACK
        ARGFRAME PSTACK, 0, STACK
        ARGFRAME XSTACK, 0, STACK
        ARGFRAME IOVERLAY, 0, STATIC
        ARGFRAME DOVERLAY, 0, STATIC
        FUNCALL HalP1InterruptConfigAfter, StartP1Interrupt
        LOCFRAME ISTACK, 2, STACK
        LOCFRAME PSTACK, 0, STACK
        LOCFRAME XSTACK, 0, STACK
        LOCFRAME IOVERLAY, 0, STATIC
        LOCFRAME DOVERLAY, 0, STATIC
        ARGFRAME ISTACK, 2, STACK
        ARGFRAME PSTACK, 0, STACK
        ARGFRAME XSTACK, 0, STACK
        ARGFRAME IOVERLAY, 0, STATIC
        ARGFRAME DOVERLAY, 0, STATIC
        PUSH    DPL
        CFI DPL0 Frame(CFA_SP, 4)
        CFI CFA_SP SP+-4
        PUSH    DPH
        CFI DPH0 Frame(CFA_SP, 5)
        CFI CFA_SP SP+-5
        ; Saved register size: 2
        ; Auto size: 0
//  980   //add here
//  981   P2SEL &= ~(0x01);  //LED general-- test purpose
        ANL     0xf5,#0xfe
//  982   P2DIR |= (0x01);   //LED output-- test purpose
        ORL     0xff,#0x1
//  983   P2_0=1;            //LED brig.hten-- test purpose
        SETB    0xa0.0
//  984   //p1.2 -- general -- input -- pullup -- FallEdge
//  985   OpenP1Interrupt(PIN_2, FUN_SELECT_GENERAL, DIRECTION_INPUT, INPUT_MODE_PULLUP, FALL_EDGE);
        ; Setup parameters for call to function OpenP1Interrupt
        MOV     R5,#0x1
        MOV     R4,#0x0
        MOV     R3,#0x0
        MOV     R2,#0x0
        MOV     R1,#0x2
        LCALL   ??OpenP1Interrupt?relay
//  986   StartP1Interrupt(PIN_2);
        ; Setup parameters for call to function StartP1Interrupt
        MOV     R1,#0x2
        LCALL   ??StartP1Interrupt?relay
//  987 }
        SJMP    ?Subroutine6
        CFI EndBlock cfiBlock43
        REQUIRE _A_P2
        REQUIRE P2SEL
        REQUIRE P2DIR
//  988 
//  989 /**************************************************************************************************
//  990  * @fn      halP1Isr
//  991  *
//  992  * @brief   
//  993  *
//  994  * @param
//  995  *
//  996  * @return
//  997  **************************************************************************************************/

        RSEG NEAR_CODE:CODE:NOROOT(0)
//  998 HAL_ISR_FUNCTION( halP1Isr, P1INT_VECTOR )
halP1Isr:
        CFI Block cfiBlock44 Using cfiCommon1
        CFI Function halP1Isr
//  999 {
        PUSH    A
        CFI A Frame(CFA_SP, 3)
        CFI CFA_SP SP+-3
        MOV     A,#-0xf
        LCALL   ?INTERRUPT_ENTER_XSP
        CFI B load(1, XDATA, add(CFA_XSP16, literal(-1)))
        CFI VB load(1, XDATA, add(CFA_XSP16, literal(-2)))
        CFI PSW load(1, XDATA, add(CFA_XSP16, literal(-3)))
        CFI DPL0 load(1, XDATA, add(CFA_XSP16, literal(-4)))
        CFI DPH0 load(1, XDATA, add(CFA_XSP16, literal(-5)))
        CFI R7 load(1, XDATA, add(CFA_XSP16, literal(-6)))
        CFI R6 load(1, XDATA, add(CFA_XSP16, literal(-7)))
        CFI R5 load(1, XDATA, add(CFA_XSP16, literal(-8)))
        CFI R4 load(1, XDATA, add(CFA_XSP16, literal(-9)))
        CFI V1 load(1, XDATA, add(CFA_XSP16, literal(-10)))
        CFI V0 load(1, XDATA, add(CFA_XSP16, literal(-11)))
        CFI R3 load(1, XDATA, add(CFA_XSP16, literal(-12)))
        CFI R2 load(1, XDATA, add(CFA_XSP16, literal(-13)))
        CFI R1 load(1, XDATA, add(CFA_XSP16, literal(-14)))
        CFI R0 load(1, XDATA, add(CFA_XSP16, literal(-15)))
        CFI CFA_XSP16 add(XSP16, 15)
        ; Saved register size: 16
        ; Auto size: 0
// 1000   uint8 pin;  
// 1001   for(pin=0;pin<8;pin++)
        MOV     R6,#0x0
// 1002   {
// 1003     if((P1IFG & (1<<pin)) && P1_ISR_fun[pin])
??halP1Isr_0:
        MOV     ?V0 + 0,#0x1
        MOV     ?V0 + 1,#0x0
        MOV     A,R6
        MOV     R0,#?V0 + 0
        LCALL   ?S_SHL
        MOV     A,?V0 + 0
        ANL     A,0x8a
        JZ      ??halP1Isr_1
        MOV     A,R6
        CLR     C
        RLC     A
        MOV     R0,A
        CLR     A
        RLC     A
        MOV     R1,A
        MOV     A,R0
        LCALL   ?Subroutine4
??CrossCallReturnLabel_14:
        JNZ     ??halP1Isr_2
        INC     DPTR
        MOVX    A,@DPTR
??halP1Isr_2:
        JZ      ??halP1Isr_1
// 1004     {
// 1005       P2_0=!P2_0;           //LED -- test purpose      
        MOV     C,0xa0.0
        CPL     C
        MOV     0xa0.0,C
// 1006       P1IFG &= ~(1<<pin);   //clean
        MOV     ?V0 + 0,#0x1
        MOV     ?V0 + 1,#0x0
        MOV     A,R6
        MOV     R0,#?V0 + 0
        LCALL   ?S_SHL
        MOV     A,?V0 + 0
        CPL     A
        ANL     A,0x8a
        MOV     0x8a,A
// 1007       (P1_ISR_fun[pin])();
        ; Setup parameters for indirect call
        MOV     A,R6
        CLR     C
        RLC     A
        LCALL   ?Subroutine4
??CrossCallReturnLabel_15:
        MOV     R0,A
        INC     DPTR
        MOVX    A,@DPTR
        MOV     DPH,A
        MOV     DPL,R0
        LCALL   ?CALL_IND
// 1008     }
// 1009   }
??halP1Isr_1:
        INC     R6
        MOV     A,R6
        CLR     C
        SUBB    A,#0x8
        JC      ??halP1Isr_0
// 1010   P1IF=0;
        CLR     0xe8.3
// 1011 }
        MOV     R7,#0x2
        LJMP    ?INTERRUPT_LEAVE_XSP
        CFI EndBlock cfiBlock44
        REQUIRE P1IFG
        REQUIRE _A_P2
        REQUIRE _A_IRCON2

        RSEG NEAR_CODE:CODE:NOROOT(0)
?Subroutine4:
        CFI Block cfiCond45 Using cfiCommon1
        CFI NoFunction
        CFI Conditional ??CrossCallReturnLabel_14
        CFI A Frame(CFA_SP, 3)
        CFI R0 load(1, XDATA, add(CFA_XSP16, literal(-15)))
        CFI R1 load(1, XDATA, add(CFA_XSP16, literal(-14)))
        CFI R2 load(1, XDATA, add(CFA_XSP16, literal(-13)))
        CFI R3 load(1, XDATA, add(CFA_XSP16, literal(-12)))
        CFI V0 load(1, XDATA, add(CFA_XSP16, literal(-11)))
        CFI V1 load(1, XDATA, add(CFA_XSP16, literal(-10)))
        CFI R4 load(1, XDATA, add(CFA_XSP16, literal(-9)))
        CFI R5 load(1, XDATA, add(CFA_XSP16, literal(-8)))
        CFI R6 load(1, XDATA, add(CFA_XSP16, literal(-7)))
        CFI R7 load(1, XDATA, add(CFA_XSP16, literal(-6)))
        CFI DPH0 load(1, XDATA, add(CFA_XSP16, literal(-5)))
        CFI DPL0 load(1, XDATA, add(CFA_XSP16, literal(-4)))
        CFI PSW load(1, XDATA, add(CFA_XSP16, literal(-3)))
        CFI VB load(1, XDATA, add(CFA_XSP16, literal(-2)))
        CFI B load(1, XDATA, add(CFA_XSP16, literal(-1)))
        CFI CFA_SP SP+-3
        CFI CFA_XSP16 add(XSP16, 15)
        CFI Block cfiCond46 Using cfiCommon1
        CFI (cfiCond46) NoFunction
        CFI (cfiCond46) Conditional ??CrossCallReturnLabel_15
        CFI (cfiCond46) A Frame(CFA_SP, 3)
        CFI (cfiCond46) R0 load(1, XDATA, add(CFA_XSP16, literal(-15)))
        CFI (cfiCond46) R1 load(1, XDATA, add(CFA_XSP16, literal(-14)))
        CFI (cfiCond46) R2 load(1, XDATA, add(CFA_XSP16, literal(-13)))
        CFI (cfiCond46) R3 load(1, XDATA, add(CFA_XSP16, literal(-12)))
        CFI (cfiCond46) V0 load(1, XDATA, add(CFA_XSP16, literal(-11)))
        CFI (cfiCond46) V1 load(1, XDATA, add(CFA_XSP16, literal(-10)))
        CFI (cfiCond46) R4 load(1, XDATA, add(CFA_XSP16, literal(-9)))
        CFI (cfiCond46) R5 load(1, XDATA, add(CFA_XSP16, literal(-8)))
        CFI (cfiCond46) R6 load(1, XDATA, add(CFA_XSP16, literal(-7)))
        CFI (cfiCond46) R7 load(1, XDATA, add(CFA_XSP16, literal(-6)))
        CFI (cfiCond46) DPH0 load(1, XDATA, add(CFA_XSP16, literal(-5)))
        CFI (cfiCond46) DPL0 load(1, XDATA, add(CFA_XSP16, literal(-4)))
        CFI (cfiCond46) PSW load(1, XDATA, add(CFA_XSP16, literal(-3)))
        CFI (cfiCond46) VB load(1, XDATA, add(CFA_XSP16, literal(-2)))
        CFI (cfiCond46) B load(1, XDATA, add(CFA_XSP16, literal(-1)))
        CFI (cfiCond46) CFA_SP SP+-3
        CFI (cfiCond46) CFA_XSP16 add(XSP16, 15)
        CFI Block cfiPicker47 Using cfiCommon1
        CFI (cfiPicker47) NoFunction
        CFI (cfiPicker47) Picker
        ADD     A,#(P1_ISR_fun & 0xff)
        MOV     DPL,A
        MOV     A,R1
        ADDC    A,#((P1_ISR_fun >> 8) & 0xff)
        MOV     DPH,A
        MOVX    A,@DPTR
        RET
        CFI EndBlock cfiCond45
        CFI EndBlock cfiCond46
        CFI EndBlock cfiPicker47
// 1012 
// 1013 /**************************************************************************************************
// 1014  * @fn      P1_0_ISR_fun
// 1015  *
// 1016  * @brief   
// 1017  *
// 1018  * @param
// 1019  *
// 1020  * @return
// 1021  **************************************************************************************************/

        RSEG BANKED_CODE:CODE:NOROOT(0)
// 1022 void P1_0_ISR_fun()
P1_0_ISR_fun:
        CFI Block cfiBlock48 Using cfiCommon0
        CFI Function P1_0_ISR_fun
// 1023 {
        ; Saved register size: 0
        ; Auto size: 0
// 1024   
// 1025 }
        LJMP    ?BRET
        CFI EndBlock cfiBlock48
// 1026 
// 1027 /**************************************************************************************************
// 1028  * @fn      P1_1_ISR_fun
// 1029  *
// 1030  * @brief   
// 1031  *
// 1032  * @param
// 1033  *
// 1034  * @return
// 1035  **************************************************************************************************/

        RSEG BANKED_CODE:CODE:NOROOT(0)
// 1036 void P1_1_ISR_fun()
P1_1_ISR_fun:
        CFI Block cfiBlock49 Using cfiCommon0
        CFI Function P1_1_ISR_fun
// 1037 {
        ; Saved register size: 0
        ; Auto size: 0
// 1038   
// 1039 }
        LJMP    ?BRET
        CFI EndBlock cfiBlock49
// 1040 
// 1041 /**************************************************************************************************
// 1042  * @fn      P1_2_ISR_fun
// 1043  *
// 1044  * @brief   
// 1045  *
// 1046  * @param
// 1047  *
// 1048  * @return
// 1049  **************************************************************************************************/

        RSEG BANKED_CODE:CODE:NOROOT(0)
// 1050 void P1_2_ISR_fun()
P1_2_ISR_fun:
        CFI Block cfiBlock50 Using cfiCommon0
        CFI Function P1_2_ISR_fun
// 1051 {
        FUNCALL P1_2_ISR_fun, osal_msg_allocate
        LOCFRAME ISTACK, 0, STACK
        LOCFRAME PSTACK, 0, STACK
        LOCFRAME XSTACK, 10, STACK
        LOCFRAME IOVERLAY, 0, STATIC
        LOCFRAME DOVERLAY, 0, STATIC
        ARGFRAME ISTACK, 0, STACK
        ARGFRAME PSTACK, 0, STACK
        ARGFRAME XSTACK, 10, STACK
        ARGFRAME IOVERLAY, 0, STATIC
        ARGFRAME DOVERLAY, 0, STATIC
        FUNCALL P1_2_ISR_fun, osal_msg_send
        LOCFRAME ISTACK, 0, STACK
        LOCFRAME PSTACK, 0, STACK
        LOCFRAME XSTACK, 10, STACK
        LOCFRAME IOVERLAY, 0, STATIC
        LOCFRAME DOVERLAY, 0, STATIC
        ARGFRAME ISTACK, 0, STACK
        ARGFRAME PSTACK, 0, STACK
        ARGFRAME XSTACK, 10, STACK
        ARGFRAME IOVERLAY, 0, STATIC
        ARGFRAME DOVERLAY, 0, STATIC
        MOV     A,#-0xa
        LCALL   ?BANKED_ENTER_XDATA
        CFI DPH0 load(1, XDATA, add(CFA_XSP16, literal(-1)))
        CFI DPL0 load(1, XDATA, add(CFA_XSP16, literal(-2)))
        CFI ?BRET_EXT load(1, XDATA, add(CFA_XSP16, literal(-3)))
        CFI ?RET_HIGH load(1, XDATA, add(CFA_XSP16, literal(-4)))
        CFI ?RET_LOW load(1, XDATA, add(CFA_XSP16, literal(-5)))
        CFI R7 load(1, XDATA, add(CFA_XSP16, literal(-6)))
        CFI V1 load(1, XDATA, add(CFA_XSP16, literal(-7)))
        CFI V0 load(1, XDATA, add(CFA_XSP16, literal(-8)))
        CFI VB load(1, XDATA, add(CFA_XSP16, literal(-9)))
        CFI R6 load(1, XDATA, add(CFA_XSP16, literal(-10)))
        CFI CFA_SP SP+0
        CFI CFA_XSP16 add(XSP16, 10)
        ; Saved register size: 10
        ; Auto size: 0
// 1052   sensor_rain.count++;
        MOV     DPTR,#(sensor_rain + 2)
        MOVX    A,@DPTR
        INC     A
        MOVX    @DPTR,A
// 1053   sensor_rain.ReadState=0;
        CLR     A
        MOV     DPTR,#(sensor_rain + 3)
        MOVX    @DPTR,A
// 1054   if(P1InterruptTaskID[2]!=0xFF)
        MOV     DPTR,#(P1InterruptTaskID + 2)
        MOVX    A,@DPTR
        XRL     A,#0xff
        JZ      ??P1_2_ISR_fun_0
// 1055   {
// 1056     rain_t *msgPtr;
// 1057     msgPtr = (rain_t *)osal_msg_allocate( sizeof(rain_t) );
        ; Setup parameters for call to function osal_msg_allocate
        MOV     R2,#0x4
        MOV     R3,#0x0
        LCALL   ??osal_msg_allocate?relay
// 1058     if ( msgPtr )
        MOV     A,R2
        JNZ     ??P1_2_ISR_fun_1
        MOV     A,R3
??P1_2_ISR_fun_1:
        JZ      ??P1_2_ISR_fun_0
// 1059     {
// 1060       msgPtr->hdr.event = P1_2_INTERRUPT;
        MOV     A,#-0x3d
        MOV     DPL,R2
        MOV     DPH,R3
        MOVX    @DPTR,A
// 1061       msgPtr->count = sensor_rain.count;
        MOV     DPTR,#(sensor_rain + 2)
        MOVX    A,@DPTR
        MOV     DPL,R2
        MOV     DPH,R3
        INC     DPTR
        INC     DPTR
        MOVX    @DPTR,A
// 1062       osal_msg_send(P1InterruptTaskID[2], (uint8 *)msgPtr);         
        ; Setup parameters for call to function osal_msg_send
        MOV     DPTR,#(P1InterruptTaskID + 2)
        MOVX    A,@DPTR
        MOV     R1,A
        LCALL   ??osal_msg_send?relay
// 1063       sensor_rain.ReadState=1;
        MOV     A,#0x1
        MOV     DPTR,#(sensor_rain + 3)
        MOVX    @DPTR,A
// 1064     }
// 1065   }
// 1066 }
??P1_2_ISR_fun_0:
        LJMP    ?Subroutine8 & 0xFFFF
        CFI EndBlock cfiBlock50
// 1067 
// 1068 /**************************************************************************************************
// 1069  * @fn      P1_3_ISR_fun
// 1070  *
// 1071  * @brief   
// 1072  *
// 1073  * @param
// 1074  *
// 1075  * @return
// 1076  **************************************************************************************************/

        RSEG BANKED_CODE:CODE:NOROOT(0)
// 1077 void P1_3_ISR_fun()
P1_3_ISR_fun:
        CFI Block cfiBlock51 Using cfiCommon0
        CFI Function P1_3_ISR_fun
// 1078 {
        ; Saved register size: 0
        ; Auto size: 0
// 1079 }
        LJMP    ?BRET
        CFI EndBlock cfiBlock51
// 1080 
// 1081 /**************************************************************************************************
// 1082  * @fn      P1_4_ISR_fun
// 1083  *
// 1084  * @brief   
// 1085  *
// 1086  * @param
// 1087  *
// 1088  * @return
// 1089  **************************************************************************************************/

        RSEG BANKED_CODE:CODE:NOROOT(0)
// 1090 void P1_4_ISR_fun()
P1_4_ISR_fun:
        CFI Block cfiBlock52 Using cfiCommon0
        CFI Function P1_4_ISR_fun
// 1091 {
        ; Saved register size: 0
        ; Auto size: 0
// 1092 }
        LJMP    ?BRET
        CFI EndBlock cfiBlock52
// 1093 
// 1094 /**************************************************************************************************
// 1095  * @fn      P1_5_ISR_fun
// 1096  *
// 1097  * @brief   
// 1098  *
// 1099  * @param
// 1100  *
// 1101  * @return
// 1102  **************************************************************************************************/

        RSEG BANKED_CODE:CODE:NOROOT(0)
// 1103 void P1_5_ISR_fun()
P1_5_ISR_fun:
        CFI Block cfiBlock53 Using cfiCommon0
        CFI Function P1_5_ISR_fun
// 1104 {
        ; Saved register size: 0
        ; Auto size: 0
// 1105 }
        LJMP    ?BRET
        CFI EndBlock cfiBlock53
// 1106 
// 1107 /**************************************************************************************************
// 1108  * @fn      P1_6_ISR_fun
// 1109  *
// 1110  * @brief   
// 1111  *
// 1112  * @param
// 1113  *
// 1114  * @return
// 1115  **************************************************************************************************/

        RSEG BANKED_CODE:CODE:NOROOT(0)
// 1116 void P1_6_ISR_fun()
P1_6_ISR_fun:
        CFI Block cfiBlock54 Using cfiCommon0
        CFI Function P1_6_ISR_fun
// 1117 {
        ; Saved register size: 0
        ; Auto size: 0
// 1118 }
        LJMP    ?BRET
        CFI EndBlock cfiBlock54
// 1119 
// 1120 /**************************************************************************************************
// 1121  * @fn      P1_7_ISR_fun
// 1122  *
// 1123  * @brief   
// 1124  *
// 1125  * @param
// 1126  *
// 1127  * @return
// 1128  **************************************************************************************************/

        RSEG BANKED_CODE:CODE:NOROOT(0)
// 1129 void P1_7_ISR_fun()
P1_7_ISR_fun:
        CFI Block cfiBlock55 Using cfiCommon0
        CFI Function P1_7_ISR_fun
// 1130 {
        ; Saved register size: 0
        ; Auto size: 0
// 1131 }
        LJMP    ?BRET
        CFI EndBlock cfiBlock55

        COMMON INTVEC:CODE:ROOT(0)
        ORG 123
`??halP1Isr??INTVEC 123`:
        LJMP       (halP1Isr)

        RSEG BANK_RELAYS:CODE:REORDER:NOROOT(0)
??HalKeyInit?relay:
        LCALL   ?BDISPATCH
        DATA
        DC24    HalKeyInit

        RSEG BANK_RELAYS:CODE:REORDER:NOROOT(0)
??HalKeyConfig?relay:
        LCALL   ?BDISPATCH
        DATA
        DC24    HalKeyConfig

        RSEG BANK_RELAYS:CODE:REORDER:NOROOT(0)
??HalKeyRead?relay:
        LCALL   ?BDISPATCH
        DATA
        DC24    HalKeyRead

        RSEG BANK_RELAYS:CODE:REORDER:NOROOT(0)
??HalKeyPoll?relay:
        LCALL   ?BDISPATCH
        DATA
        DC24    HalKeyPoll

        RSEG BANK_RELAYS:CODE:REORDER:NOROOT(0)
??halProcessKeyInterrupt?relay:
        LCALL   ?BDISPATCH
        DATA
        DC24    halProcessKeyInterrupt

        RSEG BANK_RELAYS:CODE:REORDER:NOROOT(0)
??HalKeyEnterSleep?relay:
        LCALL   ?BDISPATCH
        DATA
        DC24    HalKeyEnterSleep

        RSEG BANK_RELAYS:CODE:REORDER:NOROOT(0)
??HalKeyExitSleep?relay:
        LCALL   ?BDISPATCH
        DATA
        DC24    HalKeyExitSleep

        RSEG BANK_RELAYS:CODE:REORDER:NOROOT(0)
??OpenP1Interrupt?relay:
        LCALL   ?BDISPATCH
        DATA
        DC24    OpenP1Interrupt

        RSEG BANK_RELAYS:CODE:REORDER:NOROOT(0)
??CloseP1Interrupt?relay:
        LCALL   ?BDISPATCH
        DATA
        DC24    CloseP1Interrupt

        RSEG BANK_RELAYS:CODE:REORDER:NOROOT(0)
??StartP1Interrupt?relay:
        LCALL   ?BDISPATCH
        DATA
        DC24    StartP1Interrupt

        RSEG BANK_RELAYS:CODE:REORDER:NOROOT(0)
??StopP1Interrupt?relay:
        LCALL   ?BDISPATCH
        DATA
        DC24    StopP1Interrupt

        RSEG BANK_RELAYS:CODE:REORDER:NOROOT(0)
??RegisterP1Interrupt?relay:
        LCALL   ?BDISPATCH
        DATA
        DC24    RegisterP1Interrupt

        RSEG BANK_RELAYS:CODE:REORDER:NOROOT(0)
??QueryP1Interrupt?relay:
        LCALL   ?BDISPATCH
        DATA
        DC24    QueryP1Interrupt

        RSEG BANK_RELAYS:CODE:REORDER:NOROOT(0)
??HalP1InterruptConfigBefore?relay:
        LCALL   ?BDISPATCH
        DATA
        DC24    HalP1InterruptConfigBefore

        RSEG BANK_RELAYS:CODE:REORDER:NOROOT(0)
??HalP1InterruptConfigAfter?relay:
        LCALL   ?BDISPATCH
        DATA
        DC24    HalP1InterruptConfigAfter

        RSEG BANK_RELAYS:CODE:REORDER:NOROOT(0)
??P1_0_ISR_fun?relay:
        LCALL   ?BDISPATCH
        DATA
        DC24    P1_0_ISR_fun

        RSEG BANK_RELAYS:CODE:REORDER:NOROOT(0)
??P1_1_ISR_fun?relay:
        LCALL   ?BDISPATCH
        DATA
        DC24    P1_1_ISR_fun

        RSEG BANK_RELAYS:CODE:REORDER:NOROOT(0)
??P1_2_ISR_fun?relay:
        LCALL   ?BDISPATCH
        DATA
        DC24    P1_2_ISR_fun

        RSEG BANK_RELAYS:CODE:REORDER:NOROOT(0)
??P1_3_ISR_fun?relay:
        LCALL   ?BDISPATCH
        DATA
        DC24    P1_3_ISR_fun

        RSEG BANK_RELAYS:CODE:REORDER:NOROOT(0)
??P1_4_ISR_fun?relay:
        LCALL   ?BDISPATCH
        DATA
        DC24    P1_4_ISR_fun

        RSEG BANK_RELAYS:CODE:REORDER:NOROOT(0)
??P1_5_ISR_fun?relay:
        LCALL   ?BDISPATCH
        DATA
        DC24    P1_5_ISR_fun

        RSEG BANK_RELAYS:CODE:REORDER:NOROOT(0)
??P1_6_ISR_fun?relay:
        LCALL   ?BDISPATCH
        DATA
        DC24    P1_6_ISR_fun

        RSEG BANK_RELAYS:CODE:REORDER:NOROOT(0)
??P1_7_ISR_fun?relay:
        LCALL   ?BDISPATCH
        DATA
        DC24    P1_7_ISR_fun

        END
// 1132 
// 
// 644 bytes in segment BANKED_CODE
// 138 bytes in segment BANK_RELAYS
//   3 bytes in segment INTVEC
// 109 bytes in segment NEAR_CODE
//  14 bytes in segment SFR_AN
//  30 bytes in segment XDATA_Z
// 
// 891 bytes of CODE  memory (+  3 bytes shared)
//   0 bytes of DATA  memory (+ 14 bytes shared)
//  30 bytes of XDATA memory
//
//Errors: none
//Warnings: none
