///////////////////////////////////////////////////////////////////////////////
//                                                                            /
// IAR 8051 C/C++ Compiler V7.30B/W32                   24/Jun/2011  23:53:47 /
// Copyright 2004-2007 IAR Systems. All rights reserved.                      /
//                                                                            /
//    Core               =  plain                                             /
//    Code model         =  banked                                            /
//    Data model         =  large                                             /
//    Calling convention =  xdata reentrant                                   /
//    Constant location  =  data                                              /
//    Dptr setup         =  1,16                                              /
//    Source file        =  C:\Texas Instruments\ZStack-1.4.3-1.2.1\Projects\ /
//                          zstack\Samples\SampleApp\CC2430DB\Source\SampleAp /
//                          pHw.c                                             /
//    Command line       =  -f "C:\Texas Instruments\ZStack-1.4.3-1.2.1\Proje /
//                          cts\zstack\Samples\SampleApp\CC2430DB\..\..\..\To /
//                          ols\CC2430DB\f8wCoord.cfg" (-DCPU32MHZ            /
//                          -DFORCE_MAC_NEAR -DROOT=__near_func               /
//                          -DMAC_CFG_APP_PENDING_QUEUE=TRUE                  /
//                          -DZDO_COORDINATOR -DRTR_NWK -DBLINK_LEDS          /
//                          "-DCONST=const __code" -DGENERIC=__generic) -f    /
//                          "C:\Texas Instruments\ZStack-1.4.3-1.2.1\Projects /
//                          \zstack\Samples\SampleApp\CC2430DB\..\..\..\Tools /
//                          \CC2430DB\f8wConfig.cfg" (-DSECURE=0              /
//                          -DDEFAULT_CHANLIST=0x00000800                     /
//                          -DZDAPP_CONFIG_PAN_ID=0xFFFF                      /
//                          -DNWK_START_DELAY=100 -DEXTENDED_JOINING_RANDOM_M /
//                          ASK=0x007F -DBEACON_REQUEST_DELAY=100             /
//                          -DBEACON_REQ_DELAY_MASK=0x00FF                    /
//                          -DROUTE_EXPIRY_TIME=30 -DAPSC_ACK_WAIT_DURATION_P /
//                          OLLED=3000 -DNWK_INDIRECT_MSG_TIMEOUT=7           /
//                          -DMAX_RREQ_ENTRIES=10 -DAPSC_MAX_FRAME_RETRIES=3  /
//                          -DNWK_MAX_DATA_RETRIES=2                          /
//                          -DMAX_POLL_FAILURE_RETRIES=2 -DMAX_BCAST=9        /
//                          -DAPS_MAX_GROUPS=16 -DMAX_RTG_ENTRIES=20          /
//                          -DNWK_MAX_BINDING_ENTRIES=10                      /
//                          -DMAX_BINDING_CLUSTER_IDS=5                       /
//                          "-DDEFAULT_KEY={0x01, 0x03, 0x05, 0x07, 0x09,     /
//                          0x0B, 0x0D, 0x0F, 0x00, 0x02, 0x04, 0x06, 0x08,   /
//                          0x0A, 0x0C, 0x0D}" -DRFD_RCVC_ALWAYS_ON=FALSE     /
//                          -DPOLL_RATE=1000 -DQUEUED_POLL_RATE=100           /
//                          -DRESPONSE_POLL_RATE=100) -DREJOIN_POLL_RATE=440  /
//                          "C:\Texas Instruments\ZStack-1.4.3-1.2.1\Projects /
//                          \zstack\Samples\SampleApp\CC2430DB\Source\SampleA /
//                          ppHw.c" -D CC2430EB -D ZAPP_P1 -D MT_TASK -D      /
//                          LCD_SUPPORTED=DEBUG -lC "C:\Texas                 /
//                          Instruments\ZStack-1.4.3-1.2.1\Projects\zstack\Sa /
//                          mples\SampleApp\CC2430DB\CoordinatorEB\List\"     /
//                          -lA "C:\Texas Instruments\ZStack-1.4.3-1.2.1\Proj /
//                          ects\zstack\Samples\SampleApp\CC2430DB\Coordinato /
//                          rEB\List\" --diag_suppress Pe001,Pa010            /
//                          --diag_remark pe550 -o "C:\Texas                  /
//                          Instruments\ZStack-1.4.3-1.2.1\Projects\zstack\Sa /
//                          mples\SampleApp\CC2430DB\CoordinatorEB\Obj\" -e   /
//                          --require_prototypes -z9 --no_code_motion         /
//                          --debug --core=plain --dptr=16,1                  /
//                          --data_model=large --code_model=banked            /
//                          --calling_convention=xdata_reentrant              /
//                          --place_constants=data --nr_virtual_regs 8 -I     /
//                          "C:\Texas Instruments\ZStack-1.4.3-1.2.1\Projects /
//                          \zstack\Samples\SampleApp\CC2430DB\" -I           /
//                          "C:\Texas Instruments\ZStack-1.4.3-1.2.1\Projects /
//                          \zstack\Samples\SampleApp\CC2430DB\..\SOURCE\"    /
//                          -I "C:\Texas Instruments\ZStack-1.4.3-1.2.1\Proje /
//                          cts\zstack\Samples\SampleApp\CC2430DB\..\..\..\ZM /
//                          AIN\TI2430DB\" -I "C:\Texas                       /
//                          Instruments\ZStack-1.4.3-1.2.1\Projects\zstack\Sa /
//                          mples\SampleApp\CC2430DB\..\..\..\..\..\COMPONENT /
//                          S\MT\" -I "C:\Texas Instruments\ZStack-1.4.3-1.2. /
//                          1\Projects\zstack\Samples\SampleApp\CC2430DB\..\. /
//                          .\..\..\..\COMPONENTS\HAL\INCLUDE\" -I "C:\Texas  /
//                          Instruments\ZStack-1.4.3-1.2.1\Projects\zstack\Sa /
//                          mples\SampleApp\CC2430DB\..\..\..\..\..\COMPONENT /
//                          S\HAL\TARGET\CC2430EB\" -I "C:\Texas              /
//                          Instruments\ZStack-1.4.3-1.2.1\Projects\zstack\Sa /
//                          mples\SampleApp\CC2430DB\..\..\..\..\..\COMPONENT /
//                          S\OSAL\MCU\CCSOC\" -I "C:\Texas                   /
//                          Instruments\ZStack-1.4.3-1.2.1\Projects\zstack\Sa /
//                          mples\SampleApp\CC2430DB\..\..\..\..\..\COMPONENT /
//                          S\OSAL\INCLUDE\" -I "C:\Texas                     /
//                          Instruments\ZStack-1.4.3-1.2.1\Projects\zstack\Sa /
//                          mples\SampleApp\CC2430DB\..\..\..\..\..\COMPONENT /
//                          S\STACK\AF\" -I "C:\Texas                         /
//                          Instruments\ZStack-1.4.3-1.2.1\Projects\zstack\Sa /
//                          mples\SampleApp\CC2430DB\..\..\..\..\..\COMPONENT /
//                          S\STACK\NWK\" -I "C:\Texas                        /
//                          Instruments\ZStack-1.4.3-1.2.1\Projects\zstack\Sa /
//                          mples\SampleApp\CC2430DB\..\..\..\..\..\COMPONENT /
//                          S\STACK\SEC\" -I "C:\Texas                        /
//                          Instruments\ZStack-1.4.3-1.2.1\Projects\zstack\Sa /
//                          mples\SampleApp\CC2430DB\..\..\..\..\..\COMPONENT /
//                          S\STACK\SYS\" -I "C:\Texas                        /
//                          Instruments\ZStack-1.4.3-1.2.1\Projects\zstack\Sa /
//                          mples\SampleApp\CC2430DB\..\..\..\..\..\COMPONENT /
//                          S\STACK\ZDO\" -I "C:\Texas                        /
//                          Instruments\ZStack-1.4.3-1.2.1\Projects\zstack\Sa /
//                          mples\SampleApp\CC2430DB\..\..\..\..\..\COMPONENT /
//                          S\ZMAC\F8W\" -I "C:\Texas                         /
//                          Instruments\ZStack-1.4.3-1.2.1\Projects\zstack\Sa /
//                          mples\SampleApp\CC2430DB\..\..\..\..\..\COMPONENT /
//                          S\ZMAC\" -I "C:\Texas Instruments\ZStack-1.4.3-1. /
//                          2.1\Projects\zstack\Samples\SampleApp\CC2430DB\.. /
//                          \..\..\..\..\COMPONENTS\SERVICES\SADDR\" -I       /
//                          "C:\Texas Instruments\ZStack-1.4.3-1.2.1\Projects /
//                          \zstack\Samples\SampleApp\CC2430DB\..\..\..\..\.. /
//                          \COMPONENTS\SERVICES\SDATA\" -I "C:\Texas         /
//                          Instruments\ZStack-1.4.3-1.2.1\Projects\zstack\Sa /
//                          mples\SampleApp\CC2430DB\..\..\..\..\..\COMPONENT /
//                          S\MAC\INCLUDE\" -I "C:\Texas                      /
//                          Instruments\ZStack-1.4.3-1.2.1\Projects\zstack\Sa /
//                          mples\SampleApp\CC2430DB\..\..\..\..\..\COMPONENT /
//                          S\MAC\HIGH_LEVEL\" -I "C:\Texas                   /
//                          Instruments\ZStack-1.4.3-1.2.1\Projects\zstack\Sa /
//                          mples\SampleApp\CC2430DB\..\..\..\..\..\COMPONENT /
//                          S\MAC\LOW_LEVEL\SRF03\" -I "C:\Texas              /
//                          Instruments\ZStack-1.4.3-1.2.1\Projects\zstack\Sa /
//                          mples\SampleApp\CC2430DB\..\..\..\..\..\COMPONENT /
//                          S\MAC\LOW_LEVEL\SRF03\SINGLE_CHIP\" -I            /
//                          "C:\Program Files\IAR Systems\Embedded Workbench  /
//                          4.0 Evaluation version\8051\INC\" -I "C:\Program  /
//                          Files\IAR Systems\Embedded Workbench 4.0          /
//                          Evaluation version\8051\INC\CLIB\"                /
//    List file          =  C:\Texas Instruments\ZStack-1.4.3-1.2.1\Projects\ /
//                          zstack\Samples\SampleApp\CC2430DB\CoordinatorEB\L /
//                          ist\SampleAppHw.s51                               /
//                                                                            /
//                                                                            /
///////////////////////////////////////////////////////////////////////////////

        NAME SampleAppHw

        RTMODEL "__calling_convention", "xdata_reentrant"
        RTMODEL "__code_model", "banked"
        RTMODEL "__core", "plain"
        RTMODEL "__data_model", "large"
        RTMODEL "__dptr_size", "16"
        RTMODEL "__extended_stack", "disabled"
        RTMODEL "__location_for_constants", "data"
        RTMODEL "__number_of_dptrs", "1"
        RTMODEL "__rt_version", "1"

        RSEG DOVERLAY:DATA:NOROOT(0)
        RSEG IOVERLAY:IDATA:NOROOT(0)
        RSEG ISTACK:IDATA:NOROOT(0)
        RSEG PSTACK:XDATA:NOROOT(0)
        RSEG XSTACK:XDATA:NOROOT(0)

        EXTERN ?BANKED_ENTER_XDATA
        EXTERN ?BANKED_LEAVE_XDATA
        EXTERN ?BDISPATCH
        EXTERN ?V0

        PUBLIC ??readCoordinatorJumper?relay
        FUNCTION ??readCoordinatorJumper?relay,0203H
        PUBWEAK P0DIR
        PUBWEAK P0INP
        PUBWEAK P0SEL
        PUBWEAK _A_P0
        PUBLIC readCoordinatorJumper
        FUNCTION readCoordinatorJumper,0203H
        ARGFRAME XSTACK, 0, STACK
        LOCFRAME XSTACK, 10, STACK
        
        CFI Names cfiNames0
        CFI StackFrame CFA_SP SP DATA
        CFI StackFrame CFA_PSP16 PSP16 XDATA
        CFI StackFrame CFA_XSP16 XSP16 XDATA
        CFI StaticOverlayFrame CFA_IOVERLAY IOVERLAY
        CFI StaticOverlayFrame CFA_DOVERLAY DOVERLAY
        CFI Resource `PSW.CY`:1, `B.BR0`:1, `B.BR1`:1, `B.BR2`:1, `B.BR3`:1
        CFI Resource `B.BR4`:1, `B.BR5`:1, `B.BR6`:1, `B.BR7`:1, `VB.BR8`:1
        CFI Resource `VB.BR9`:1, `VB.BR10`:1, `VB.BR11`:1, `VB.BR12`:1
        CFI Resource `VB.BR13`:1, `VB.BR14`:1, `VB.BR15`:1, VB:8, B:8, A:8
        CFI Resource PSW:8, DPL0:8, DPH0:8, R0:8, R1:8, R2:8, R3:8, R4:8, R5:8
        CFI Resource R6:8, R7:8, V0:8, V1:8, V2:8, V3:8, V4:8, V5:8, V6:8, V7:8
        CFI Resource SP:8, PSPH:8, PSPL:8, PSP16:16, XSPH:8, XSPL:8, XSP16:16
        CFI VirtualResource ?RET:24
        CFI Resource ?BRET_EXT:8
        CFI VirtualResource ?RET_HIGH:8, ?RET_LOW:8
        CFI ResourceParts PSP16 PSPH, PSPL
        CFI ResourceParts XSP16 XSPH, XSPL
        CFI ResourceParts ?RET ?BRET_EXT, ?RET_HIGH, ?RET_LOW
        CFI EndNames cfiNames0
        
        CFI Common cfiCommon0 Using cfiNames0
        CFI CodeAlign 1
        CFI DataAlign -1
        CFI ReturnAddress ?RET CODE
        CFI CFA_DOVERLAY Used
        CFI CFA_IOVERLAY Used
        CFI CFA_SP SP+-3
        CFI CFA_PSP16 PSP16+0
        CFI CFA_XSP16 XSP16+0
        CFI `PSW.CY` SameValue
        CFI `B.BR0` SameValue
        CFI `B.BR1` SameValue
        CFI `B.BR2` SameValue
        CFI `B.BR3` SameValue
        CFI `B.BR4` SameValue
        CFI `B.BR5` SameValue
        CFI `B.BR6` SameValue
        CFI `B.BR7` SameValue
        CFI `VB.BR8` SameValue
        CFI `VB.BR9` SameValue
        CFI `VB.BR10` SameValue
        CFI `VB.BR11` SameValue
        CFI `VB.BR12` SameValue
        CFI `VB.BR13` SameValue
        CFI `VB.BR14` SameValue
        CFI `VB.BR15` SameValue
        CFI VB SameValue
        CFI B Undefined
        CFI A Undefined
        CFI PSW SameValue
        CFI DPL0 SameValue
        CFI DPH0 SameValue
        CFI R0 Undefined
        CFI R1 Undefined
        CFI R2 Undefined
        CFI R3 Undefined
        CFI R4 Undefined
        CFI R5 Undefined
        CFI R6 SameValue
        CFI R7 SameValue
        CFI V0 SameValue
        CFI V1 SameValue
        CFI V2 SameValue
        CFI V3 SameValue
        CFI V4 SameValue
        CFI V5 SameValue
        CFI V6 SameValue
        CFI V7 SameValue
        CFI PSPH Undefined
        CFI PSPL Undefined
        CFI XSPH Undefined
        CFI XSPL Undefined
        CFI ?RET Concat
        CFI ?BRET_EXT Frame(CFA_SP, 3)
        CFI ?RET_HIGH Frame(CFA_SP, 2)
        CFI ?RET_LOW Frame(CFA_SP, 1)
        CFI EndCommon cfiCommon0
        
readCoordinatorJumper SYMBOL "readCoordinatorJumper"
??readCoordinatorJumper?relay SYMBOL "?relay", readCoordinatorJumper

// C:\Texas Instruments\ZStack-1.4.3-1.2.1\Projects\zstack\Samples\SampleApp\CC2430DB\Source\SampleAppHw.c
//    1 /**************************************************************************************************
//    2   Filename:       SampleAppHw.c
//    3   Revised:        $Date: 2007-10-27 17:16:54 -0700 (Sat, 27 Oct 2007) $
//    4   Revision:       $Revision: 15793 $
//    5 
//    6   Description:    Describe the purpose and contents of the file.
//    7 
//    8 
//    9   Copyright 2007 Texas Instruments Incorporated. All rights reserved.
//   10 
//   11   IMPORTANT: Your use of this Software is limited to those specific rights
//   12   granted under the terms of a software license agreement between the user
//   13   who downloaded the software, his/her employer (which must be your employer)
//   14   and Texas Instruments Incorporated (the "License").  You may not use this
//   15   Software unless you agree to abide by the terms of the License. The License
//   16   limits your use, and you acknowledge, that the Software may not be modified,
//   17   copied or distributed unless embedded on a Texas Instruments microcontroller
//   18   or used solely and exclusively in conjunction with a Texas Instruments radio
//   19   frequency transceiver, which is integrated into your product.  Other than for
//   20   the foregoing purpose, you may not use, reproduce, copy, prepare derivative
//   21   works of, modify, distribute, perform, display or sell this Software and/or
//   22   its documentation for any purpose.
//   23 
//   24   YOU FURTHER ACKNOWLEDGE AND AGREE THAT THE SOFTWARE AND DOCUMENTATION ARE
//   25   PROVIDED “AS IS” WITHOUT WARRANTY OF ANY KIND, EITHER EXPRESS OR IMPLIED, 
//   26   INCLUDING WITHOUT LIMITATION, ANY WARRANTY OF MERCHANTABILITY, TITLE, 
//   27   NON-INFRINGEMENT AND FITNESS FOR A PARTICULAR PURPOSE. IN NO EVENT SHALL
//   28   TEXAS INSTRUMENTS OR ITS LICENSORS BE LIABLE OR OBLIGATED UNDER CONTRACT,
//   29   NEGLIGENCE, STRICT LIABILITY, CONTRIBUTION, BREACH OF WARRANTY, OR OTHER
//   30   LEGAL EQUITABLE THEORY ANY DIRECT OR INDIRECT DAMAGES OR EXPENSES
//   31   INCLUDING BUT NOT LIMITED TO ANY INCIDENTAL, SPECIAL, INDIRECT, PUNITIVE
//   32   OR CONSEQUENTIAL DAMAGES, LOST PROFITS OR LOST DATA, COST OF PROCUREMENT
//   33   OF SUBSTITUTE GOODS, TECHNOLOGY, SERVICES, OR ANY CLAIMS BY THIRD PARTIES
//   34   (INCLUDING BUT NOT LIMITED TO ANY DEFENSE THEREOF), OR OTHER SIMILAR COSTS.
//   35 
//   36   Should you have any questions regarding your right to use this Software,
//   37   contact Texas Instruments Incorporated at www.TI.com. 
//   38 **************************************************************************************************/
//   39 
//   40 /*********************************************************************
//   41  * INCLUDES
//   42  */
//   43 #include "ZComDef.h"
//   44 #include "hal_mcu.h"

        ASEGN SFR_AN:DATA:NOROOT,080H
// union <unnamed> volatile __sfr _A_P0
_A_P0:
        DS 1

        ASEGN SFR_AN:DATA:NOROOT,08fH
// unsigned char volatile __sfr P0INP
P0INP:
        DS 1

        ASEGN SFR_AN:DATA:NOROOT,0f3H
// unsigned char volatile __sfr P0SEL
P0SEL:
        DS 1

        ASEGN SFR_AN:DATA:NOROOT,0fdH
// unsigned char volatile __sfr P0DIR
P0DIR:
        DS 1
//   45 #include "hal_defs.h"
//   46 
//   47 #include "SampleAppHw.h"
//   48 
//   49 /*********************************************************************
//   50  * MACROS
//   51  */
//   52 
//   53 /*********************************************************************
//   54  * CONSTANTS
//   55  */
//   56 
//   57 #if defined( CC2430DB )
//   58   /* NOTES:   Jumper should be between P7.1 and P7.3 on the CC2430DB.
//   59    *          P7.1 -> CC2430 P1.3
//   60    *          p7.3 -> CC2430 P0.4
//   61    */
//   62   #define JUMPERIN_BIT  0x08
//   63   #define JUMPERIN_SEL  P1SEL
//   64   #define JUMPERIN_DIR  P1DIR
//   65   #define JUMPERIN_INP  P1INP
//   66   #define JUMPERIN      P1
//   67   
//   68   #define JUMPEROUT_BIT 0x10
//   69   #define JUMPEROUT_SEL P0SEL
//   70   #define JUMPEROUT_DIR P0DIR
//   71   #define JUMPEROUT_INP P0INP
//   72   #define JUMPEROUT     P0
//   73 
//   74 #elif defined( CC2430EB )
//   75   /* NOTES:   Jumper should be between I/O A pin 9 and 11 on the CC2430EB.
//   76    *          I/O A pin 9  -> CC2430 P0.2
//   77    *          I/O A pin 11 -> CC2430 P0.3
//   78    */
//   79   #define JUMPERIN_BIT  0x04
//   80   #define JUMPERIN_SEL  P0SEL
//   81   #define JUMPERIN_DIR  P0DIR
//   82   #define JUMPERIN_INP  P0INP
//   83   #define JUMPERIN      P0
//   84   
//   85   #define JUMPEROUT_BIT 0x08
//   86   #define JUMPEROUT_SEL P0SEL
//   87   #define JUMPEROUT_DIR P0DIR
//   88   #define JUMPEROUT_INP P0INP
//   89   #define JUMPEROUT     P0
//   90 
//   91   #if defined (HAL_UART) && (HAL_UART==TRUE)
//   92     #error The UART will not work with this configuration. The RX & TX pins are used.
//   93   #endif
//   94 #else
//   95   #error Unsupported board
//   96 #endif
//   97 /*********************************************************************
//   98  * TYPEDEFS
//   99  */
//  100 
//  101 /*********************************************************************
//  102  * GLOBAL VARIABLES
//  103  */
//  104 
//  105 /*********************************************************************
//  106  * EXTERNAL VARIABLES
//  107  */
//  108 
//  109 /*********************************************************************
//  110  * EXTERNAL FUNCTIONS
//  111  */
//  112 
//  113 /*********************************************************************
//  114  * LOCAL VARIABLES
//  115  */
//  116 
//  117 /*********************************************************************
//  118  * LOCAL FUNCTIONS
//  119  */
//  120 
//  121 /*********************************************************************
//  122  * @fn      readCoordinatorJumper
//  123  *
//  124  * @brief   Checks for a jumper to determine if the device should
//  125  *          become a coordinator
//  126  *
//  127  * NOTES:   Jumper should be between P7.1 and P7.3 on the CC2430DB.
//  128  *          P7.1 -> CC2430 P1.3
//  129  *          p7.3 -> CC2430 P0.4
//  130  *
//  131  * NOTES:   Jumper should be between I/O A pin 9 and 11 on the CC2430EB.
//  132  *          I/O A pin 9  -> CC2430 P0.2
//  133  *          I/O A pin 11 -> CC2430 P0.3
//  134  *
//  135  * @return  TRUE if the jumper is there, FALSE if not
//  136  */

        RSEG BANKED_CODE:CODE:NOROOT(0)
//  137 uint8 readCoordinatorJumper( void )
readCoordinatorJumper:
        CFI Block cfiBlock0 Using cfiCommon0
        CFI Function readCoordinatorJumper
//  138 {
        MOV     A,#-0xa
        LCALL   ?BANKED_ENTER_XDATA
        CFI DPH0 load(1, XDATA, add(CFA_XSP16, literal(-1)))
        CFI DPL0 load(1, XDATA, add(CFA_XSP16, literal(-2)))
        CFI ?BRET_EXT load(1, XDATA, add(CFA_XSP16, literal(-3)))
        CFI ?RET_HIGH load(1, XDATA, add(CFA_XSP16, literal(-4)))
        CFI ?RET_LOW load(1, XDATA, add(CFA_XSP16, literal(-5)))
        CFI R7 load(1, XDATA, add(CFA_XSP16, literal(-6)))
        CFI V1 load(1, XDATA, add(CFA_XSP16, literal(-7)))
        CFI V0 load(1, XDATA, add(CFA_XSP16, literal(-8)))
        CFI VB load(1, XDATA, add(CFA_XSP16, literal(-9)))
        CFI R6 load(1, XDATA, add(CFA_XSP16, literal(-10)))
        CFI CFA_SP SP+0
        CFI CFA_XSP16 add(XSP16, 10)
        ; Saved register size: 10
        ; Auto size: 0
//  139   uint8 jumpered;
//  140   uint8 x, y;
//  141   uint8 result;
//  142   uint8 saveJumpInSEL;
//  143   uint8 saveJumpInDIR;
//  144   uint8 saveJumpInINP;
//  145   uint8 saveJumpOutSEL;
//  146   uint8 saveJumpOutDIR;
//  147   uint8 saveJumpOutINP;
//  148   
//  149   jumpered = TRUE;
        MOV     R1,#0x1
//  150   
//  151   // Setup PORTs
//  152   saveJumpInSEL = JUMPERIN_SEL;
        MOV     A,0xf3
        MOV     R4,A
//  153   saveJumpInDIR = JUMPERIN_DIR;
        MOV     A,0xfd
        MOV     R5,A
//  154   saveJumpInINP = JUMPERIN_INP;
        MOV     A,0x8f
        MOV     R6,A
//  155   saveJumpOutSEL = P0SEL;
        MOV     A,0xf3
        MOV     R7,A
//  156   saveJumpOutDIR = P0DIR;
        MOV     A,0xfd
        MOV     ?V0 + 0,A
//  157   saveJumpOutINP = P0INP;
        MOV     A,0x8f
        MOV     ?V0 + 1,A
//  158   
//  159   JUMPERIN_SEL &= ~(JUMPERIN_BIT);
        ANL     0xf3,#0xfb
//  160   JUMPERIN_DIR &= ~(JUMPERIN_BIT);
        ANL     0xfd,#0xfb
//  161   JUMPERIN_INP &= ~(JUMPERIN_BIT);
        ANL     0x8f,#0xfb
//  162   JUMPEROUT_SEL &= ~(JUMPEROUT_BIT);
        ANL     0xf3,#0xf7
//  163   JUMPEROUT_DIR |= JUMPEROUT_BIT;
        ORL     0xfd,#0x8
//  164   JUMPEROUT_INP &= ~(JUMPERIN_BIT);
        ANL     0x8f,#0xfb
//  165   
//  166   for ( x = 0; x < 8; x++ )
        MOV     R3,#0x0
//  167   {    
//  168     if ( x & 0x01 )
//  169     {
//  170       JUMPEROUT |= JUMPEROUT_BIT;      
//  171       for ( y = 0; y < 8; y++ );
//  172       result = JUMPERIN & JUMPERIN_BIT;
//  173       if ( result != JUMPERIN_BIT )
//  174         jumpered = FALSE;
//  175     }
//  176     else
//  177     {      
//  178       JUMPEROUT &= ~(JUMPEROUT_BIT);      
??readCoordinatorJumper_0:
        CLR     0x80.3
//  179       for ( y = 0; y < 8; y++ );
        MOV     R2,#0x8
??readCoordinatorJumper_1:
        DEC     R2
        MOV     A,R2
        JNZ     ??readCoordinatorJumper_1
//  180       result = JUMPERIN & JUMPERIN_BIT;
        MOV     A,#0x4
        ANL     A,0x80
//  181       if ( result != 0x00 )
        JNZ     ??readCoordinatorJumper_2
//  182         jumpered = FALSE;
//  183     }
??readCoordinatorJumper_3:
        INC     R3
        MOV     A,R3
        CLR     C
        SUBB    A,#0x8
        JNC     ??readCoordinatorJumper_4
        MOV     A,R3
        MOV     C,0xE0 /* A   */.0
        JNC     ??readCoordinatorJumper_0
        SETB    0x80.3
        MOV     R2,#0x8
??readCoordinatorJumper_5:
        DEC     R2
        MOV     A,R2
        JNZ     ??readCoordinatorJumper_5
        MOV     A,#0x4
        ANL     A,0x80
        MOV     R2,A
        MOV     A,#0x4
        XRL     A,R2
        JZ      ??readCoordinatorJumper_3
??readCoordinatorJumper_2:
        MOV     R1,#0x0
        SJMP    ??readCoordinatorJumper_3
//  184   }
//  185   
//  186   // Restore directions
//  187   JUMPERIN_SEL = saveJumpInSEL;
??readCoordinatorJumper_4:
        MOV     0xf3,R4
//  188   JUMPERIN_DIR = saveJumpInDIR;
        MOV     0xfd,R5
//  189   JUMPERIN_INP = saveJumpInINP;
        MOV     0x8f,R6
//  190   JUMPEROUT_SEL = saveJumpOutSEL;
        MOV     0xf3,R7
//  191   JUMPEROUT_DIR = saveJumpOutDIR;
        MOV     0xfd,?V0 + 0
//  192   JUMPEROUT_INP = saveJumpOutINP;
        MOV     0x8f,?V0 + 1
//  193   
//  194   return ( jumpered );
        MOV     R7,#0x2
        LJMP    ?BANKED_LEAVE_XDATA
        CFI EndBlock cfiBlock0
        REQUIRE _A_P0
        REQUIRE P0INP
        REQUIRE P0SEL
        REQUIRE P0DIR
//  195 }

        RSEG BANK_RELAYS:CODE:REORDER:NOROOT(0)
??readCoordinatorJumper?relay:
        LCALL   ?BDISPATCH
        DATA
        DC24    readCoordinatorJumper

        END
// 
// 114 bytes in segment BANKED_CODE
//   6 bytes in segment BANK_RELAYS
//   4 bytes in segment SFR_AN
// 
// 120 bytes of CODE memory
//   0 bytes of DATA memory (+ 4 bytes shared)
//
//Errors: none
//Warnings: none
