###############################################################################
#                                                                             #
# IAR 8051 C/C++ Compiler V7.30B/W32                    24/Jun/2011  23:53:47 #
# Copyright 2004-2007 IAR Systems. All rights reserved.                       #
#                                                                             #
#    Core               =  plain                                              #
#    Code model         =  banked                                             #
#    Data model         =  large                                              #
#    Calling convention =  xdata reentrant                                    #
#    Constant location  =  data                                               #
#    Dptr setup         =  1,16                                               #
#    Source file        =  C:\Texas Instruments\ZStack-1.4.3-1.2.1\Projects\z #
#                          stack\Samples\SampleApp\CC2430DB\Source\SampleAppH #
#                          w.c                                                #
#    Command line       =  -f "C:\Texas Instruments\ZStack-1.4.3-1.2.1\Projec #
#                          ts\zstack\Samples\SampleApp\CC2430DB\..\..\..\Tool #
#                          s\CC2430DB\f8wCoord.cfg" (-DCPU32MHZ               #
#                          -DFORCE_MAC_NEAR -DROOT=__near_func                #
#                          -DMAC_CFG_APP_PENDING_QUEUE=TRUE                   #
#                          -DZDO_COORDINATOR -DRTR_NWK -DBLINK_LEDS           #
#                          "-DCONST=const __code" -DGENERIC=__generic) -f     #
#                          "C:\Texas Instruments\ZStack-1.4.3-1.2.1\Projects\ #
#                          zstack\Samples\SampleApp\CC2430DB\..\..\..\Tools\C #
#                          C2430DB\f8wConfig.cfg" (-DSECURE=0                 #
#                          -DDEFAULT_CHANLIST=0x00000800                      #
#                          -DZDAPP_CONFIG_PAN_ID=0xFFFF                       #
#                          -DNWK_START_DELAY=100 -DEXTENDED_JOINING_RANDOM_MA #
#                          SK=0x007F -DBEACON_REQUEST_DELAY=100               #
#                          -DBEACON_REQ_DELAY_MASK=0x00FF                     #
#                          -DROUTE_EXPIRY_TIME=30 -DAPSC_ACK_WAIT_DURATION_PO #
#                          LLED=3000 -DNWK_INDIRECT_MSG_TIMEOUT=7             #
#                          -DMAX_RREQ_ENTRIES=10 -DAPSC_MAX_FRAME_RETRIES=3   #
#                          -DNWK_MAX_DATA_RETRIES=2                           #
#                          -DMAX_POLL_FAILURE_RETRIES=2 -DMAX_BCAST=9         #
#                          -DAPS_MAX_GROUPS=16 -DMAX_RTG_ENTRIES=20           #
#                          -DNWK_MAX_BINDING_ENTRIES=10                       #
#                          -DMAX_BINDING_CLUSTER_IDS=5 "-DDEFAULT_KEY={0x01,  #
#                          0x03, 0x05, 0x07, 0x09, 0x0B, 0x0D, 0x0F, 0x00,    #
#                          0x02, 0x04, 0x06, 0x08, 0x0A, 0x0C, 0x0D}"         #
#                          -DRFD_RCVC_ALWAYS_ON=FALSE -DPOLL_RATE=1000        #
#                          -DQUEUED_POLL_RATE=100 -DRESPONSE_POLL_RATE=100)   #
#                          -DREJOIN_POLL_RATE=440 "C:\Texas                   #
#                          Instruments\ZStack-1.4.3-1.2.1\Projects\zstack\Sam #
#                          ples\SampleApp\CC2430DB\Source\SampleAppHw.c" -D   #
#                          CC2430EB -D ZAPP_P1 -D MT_TASK -D                  #
#                          LCD_SUPPORTED=DEBUG -lC "C:\Texas                  #
#                          Instruments\ZStack-1.4.3-1.2.1\Projects\zstack\Sam #
#                          ples\SampleApp\CC2430DB\CoordinatorEB\List\" -lA   #
#                          "C:\Texas Instruments\ZStack-1.4.3-1.2.1\Projects\ #
#                          zstack\Samples\SampleApp\CC2430DB\CoordinatorEB\Li #
#                          st\" --diag_suppress Pe001,Pa010 --diag_remark     #
#                          pe550 -o "C:\Texas Instruments\ZStack-1.4.3-1.2.1\ #
#                          Projects\zstack\Samples\SampleApp\CC2430DB\Coordin #
#                          atorEB\Obj\" -e --require_prototypes -z9           #
#                          --no_code_motion --debug --core=plain --dptr=16,1  #
#                          --data_model=large --code_model=banked             #
#                          --calling_convention=xdata_reentrant               #
#                          --place_constants=data --nr_virtual_regs 8 -I      #
#                          "C:\Texas Instruments\ZStack-1.4.3-1.2.1\Projects\ #
#                          zstack\Samples\SampleApp\CC2430DB\" -I "C:\Texas   #
#                          Instruments\ZStack-1.4.3-1.2.1\Projects\zstack\Sam #
#                          ples\SampleApp\CC2430DB\..\SOURCE\" -I "C:\Texas   #
#                          Instruments\ZStack-1.4.3-1.2.1\Projects\zstack\Sam #
#                          ples\SampleApp\CC2430DB\..\..\..\ZMAIN\TI2430DB\"  #
#                          -I "C:\Texas Instruments\ZStack-1.4.3-1.2.1\Projec #
#                          ts\zstack\Samples\SampleApp\CC2430DB\..\..\..\..\. #
#                          .\COMPONENTS\MT\" -I "C:\Texas                     #
#                          Instruments\ZStack-1.4.3-1.2.1\Projects\zstack\Sam #
#                          ples\SampleApp\CC2430DB\..\..\..\..\..\COMPONENTS\ #
#                          HAL\INCLUDE\" -I "C:\Texas                         #
#                          Instruments\ZStack-1.4.3-1.2.1\Projects\zstack\Sam #
#                          ples\SampleApp\CC2430DB\..\..\..\..\..\COMPONENTS\ #
#                          HAL\TARGET\CC2430EB\" -I "C:\Texas                 #
#                          Instruments\ZStack-1.4.3-1.2.1\Projects\zstack\Sam #
#                          ples\SampleApp\CC2430DB\..\..\..\..\..\COMPONENTS\ #
#                          OSAL\MCU\CCSOC\" -I "C:\Texas                      #
#                          Instruments\ZStack-1.4.3-1.2.1\Projects\zstack\Sam #
#                          ples\SampleApp\CC2430DB\..\..\..\..\..\COMPONENTS\ #
#                          OSAL\INCLUDE\" -I "C:\Texas                        #
#                          Instruments\ZStack-1.4.3-1.2.1\Projects\zstack\Sam #
#                          ples\SampleApp\CC2430DB\..\..\..\..\..\COMPONENTS\ #
#                          STACK\AF\" -I "C:\Texas Instruments\ZStack-1.4.3-1 #
#                          .2.1\Projects\zstack\Samples\SampleApp\CC2430DB\.. #
#                          \..\..\..\..\COMPONENTS\STACK\NWK\" -I "C:\Texas   #
#                          Instruments\ZStack-1.4.3-1.2.1\Projects\zstack\Sam #
#                          ples\SampleApp\CC2430DB\..\..\..\..\..\COMPONENTS\ #
#                          STACK\SEC\" -I "C:\Texas                           #
#                          Instruments\ZStack-1.4.3-1.2.1\Projects\zstack\Sam #
#                          ples\SampleApp\CC2430DB\..\..\..\..\..\COMPONENTS\ #
#                          STACK\SYS\" -I "C:\Texas                           #
#                          Instruments\ZStack-1.4.3-1.2.1\Projects\zstack\Sam #
#                          ples\SampleApp\CC2430DB\..\..\..\..\..\COMPONENTS\ #
#                          STACK\ZDO\" -I "C:\Texas                           #
#                          Instruments\ZStack-1.4.3-1.2.1\Projects\zstack\Sam #
#                          ples\SampleApp\CC2430DB\..\..\..\..\..\COMPONENTS\ #
#                          ZMAC\F8W\" -I "C:\Texas Instruments\ZStack-1.4.3-1 #
#                          .2.1\Projects\zstack\Samples\SampleApp\CC2430DB\.. #
#                          \..\..\..\..\COMPONENTS\ZMAC\" -I "C:\Texas        #
#                          Instruments\ZStack-1.4.3-1.2.1\Projects\zstack\Sam #
#                          ples\SampleApp\CC2430DB\..\..\..\..\..\COMPONENTS\ #
#                          SERVICES\SADDR\" -I "C:\Texas                      #
#                          Instruments\ZStack-1.4.3-1.2.1\Projects\zstack\Sam #
#                          ples\SampleApp\CC2430DB\..\..\..\..\..\COMPONENTS\ #
#                          SERVICES\SDATA\" -I "C:\Texas                      #
#                          Instruments\ZStack-1.4.3-1.2.1\Projects\zstack\Sam #
#                          ples\SampleApp\CC2430DB\..\..\..\..\..\COMPONENTS\ #
#                          MAC\INCLUDE\" -I "C:\Texas                         #
#                          Instruments\ZStack-1.4.3-1.2.1\Projects\zstack\Sam #
#                          ples\SampleApp\CC2430DB\..\..\..\..\..\COMPONENTS\ #
#                          MAC\HIGH_LEVEL\" -I "C:\Texas                      #
#                          Instruments\ZStack-1.4.3-1.2.1\Projects\zstack\Sam #
#                          ples\SampleApp\CC2430DB\..\..\..\..\..\COMPONENTS\ #
#                          MAC\LOW_LEVEL\SRF03\" -I "C:\Texas                 #
#                          Instruments\ZStack-1.4.3-1.2.1\Projects\zstack\Sam #
#                          ples\SampleApp\CC2430DB\..\..\..\..\..\COMPONENTS\ #
#                          MAC\LOW_LEVEL\SRF03\SINGLE_CHIP\" -I "C:\Program   #
#                          Files\IAR Systems\Embedded Workbench 4.0           #
#                          Evaluation version\8051\INC\" -I "C:\Program       #
#                          Files\IAR Systems\Embedded Workbench 4.0           #
#                          Evaluation version\8051\INC\CLIB\"                 #
#    List file          =  C:\Texas Instruments\ZStack-1.4.3-1.2.1\Projects\z #
#                          stack\Samples\SampleApp\CC2430DB\CoordinatorEB\Lis #
#                          t\SampleAppHw.lst                                  #
#    Object file        =  C:\Texas Instruments\ZStack-1.4.3-1.2.1\Projects\z #
#                          stack\Samples\SampleApp\CC2430DB\CoordinatorEB\Obj #
#                          \SampleAppHw.r51                                   #
#                                                                             #
#                                                                             #
###############################################################################

C:\Texas Instruments\ZStack-1.4.3-1.2.1\Projects\zstack\Samples\SampleApp\CC2430DB\Source\SampleAppHw.c
      1          /**************************************************************************************************
      2            Filename:       SampleAppHw.c
      3            Revised:        $Date: 2007-10-27 17:16:54 -0700 (Sat, 27 Oct 2007) $
      4            Revision:       $Revision: 15793 $
      5          
      6            Description:    Describe the purpose and contents of the file.
      7          
      8          
      9            Copyright 2007 Texas Instruments Incorporated. All rights reserved.
     10          
     11            IMPORTANT: Your use of this Software is limited to those specific rights
     12            granted under the terms of a software license agreement between the user
     13            who downloaded the software, his/her employer (which must be your employer)
     14            and Texas Instruments Incorporated (the "License").  You may not use this
     15            Software unless you agree to abide by the terms of the License. The License
     16            limits your use, and you acknowledge, that the Software may not be modified,
     17            copied or distributed unless embedded on a Texas Instruments microcontroller
     18            or used solely and exclusively in conjunction with a Texas Instruments radio
     19            frequency transceiver, which is integrated into your product.  Other than for
     20            the foregoing purpose, you may not use, reproduce, copy, prepare derivative
     21            works of, modify, distribute, perform, display or sell this Software and/or
     22            its documentation for any purpose.
     23          
     24            YOU FURTHER ACKNOWLEDGE AND AGREE THAT THE SOFTWARE AND DOCUMENTATION ARE
     25            PROVIDED “AS IS” WITHOUT WARRANTY OF ANY KIND, EITHER EXPRESS OR IMPLIED, 
     26            INCLUDING WITHOUT LIMITATION, ANY WARRANTY OF MERCHANTABILITY, TITLE, 
     27            NON-INFRINGEMENT AND FITNESS FOR A PARTICULAR PURPOSE. IN NO EVENT SHALL
     28            TEXAS INSTRUMENTS OR ITS LICENSORS BE LIABLE OR OBLIGATED UNDER CONTRACT,
     29            NEGLIGENCE, STRICT LIABILITY, CONTRIBUTION, BREACH OF WARRANTY, OR OTHER
     30            LEGAL EQUITABLE THEORY ANY DIRECT OR INDIRECT DAMAGES OR EXPENSES
     31            INCLUDING BUT NOT LIMITED TO ANY INCIDENTAL, SPECIAL, INDIRECT, PUNITIVE
     32            OR CONSEQUENTIAL DAMAGES, LOST PROFITS OR LOST DATA, COST OF PROCUREMENT
     33            OF SUBSTITUTE GOODS, TECHNOLOGY, SERVICES, OR ANY CLAIMS BY THIRD PARTIES
     34            (INCLUDING BUT NOT LIMITED TO ANY DEFENSE THEREOF), OR OTHER SIMILAR COSTS.
     35          
     36            Should you have any questions regarding your right to use this Software,
     37            contact Texas Instruments Incorporated at www.TI.com. 
     38          **************************************************************************************************/
     39          
     40          /*********************************************************************
     41           * INCLUDES
     42           */
     43          #include "ZComDef.h"
     44          #include "hal_mcu.h"

   \                                 In  segment SFR_AN, at 0x80
   \   union <unnamed> volatile __sfr _A_P0
   \                     _A_P0:
   \   000000                DS 1

   \                                 In  segment SFR_AN, at 0x8f
   \   unsigned char volatile __sfr P0INP
   \                     P0INP:
   \   000000                DS 1

   \                                 In  segment SFR_AN, at 0xf3
   \   unsigned char volatile __sfr P0SEL
   \                     P0SEL:
   \   000000                DS 1

   \                                 In  segment SFR_AN, at 0xfd
   \   unsigned char volatile __sfr P0DIR
   \                     P0DIR:
   \   000000                DS 1
     45          #include "hal_defs.h"
     46          
     47          #include "SampleAppHw.h"
     48          
     49          /*********************************************************************
     50           * MACROS
     51           */
     52          
     53          /*********************************************************************
     54           * CONSTANTS
     55           */
     56          
     57          #if defined( CC2430DB )
     58            /* NOTES:   Jumper should be between P7.1 and P7.3 on the CC2430DB.
     59             *          P7.1 -> CC2430 P1.3
     60             *          p7.3 -> CC2430 P0.4
     61             */
     62            #define JUMPERIN_BIT  0x08
     63            #define JUMPERIN_SEL  P1SEL
     64            #define JUMPERIN_DIR  P1DIR
     65            #define JUMPERIN_INP  P1INP
     66            #define JUMPERIN      P1
     67            
     68            #define JUMPEROUT_BIT 0x10
     69            #define JUMPEROUT_SEL P0SEL
     70            #define JUMPEROUT_DIR P0DIR
     71            #define JUMPEROUT_INP P0INP
     72            #define JUMPEROUT     P0
     73          
     74          #elif defined( CC2430EB )
     75            /* NOTES:   Jumper should be between I/O A pin 9 and 11 on the CC2430EB.
     76             *          I/O A pin 9  -> CC2430 P0.2
     77             *          I/O A pin 11 -> CC2430 P0.3
     78             */
     79            #define JUMPERIN_BIT  0x04
     80            #define JUMPERIN_SEL  P0SEL
     81            #define JUMPERIN_DIR  P0DIR
     82            #define JUMPERIN_INP  P0INP
     83            #define JUMPERIN      P0
     84            
     85            #define JUMPEROUT_BIT 0x08
     86            #define JUMPEROUT_SEL P0SEL
     87            #define JUMPEROUT_DIR P0DIR
     88            #define JUMPEROUT_INP P0INP
     89            #define JUMPEROUT     P0
     90          
     91            #if defined (HAL_UART) && (HAL_UART==TRUE)
     92              #error The UART will not work with this configuration. The RX & TX pins are used.
     93            #endif
     94          #else
     95            #error Unsupported board
     96          #endif
     97          /*********************************************************************
     98           * TYPEDEFS
     99           */
    100          
    101          /*********************************************************************
    102           * GLOBAL VARIABLES
    103           */
    104          
    105          /*********************************************************************
    106           * EXTERNAL VARIABLES
    107           */
    108          
    109          /*********************************************************************
    110           * EXTERNAL FUNCTIONS
    111           */
    112          
    113          /*********************************************************************
    114           * LOCAL VARIABLES
    115           */
    116          
    117          /*********************************************************************
    118           * LOCAL FUNCTIONS
    119           */
    120          
    121          /*********************************************************************
    122           * @fn      readCoordinatorJumper
    123           *
    124           * @brief   Checks for a jumper to determine if the device should
    125           *          become a coordinator
    126           *
    127           * NOTES:   Jumper should be between P7.1 and P7.3 on the CC2430DB.
    128           *          P7.1 -> CC2430 P1.3
    129           *          p7.3 -> CC2430 P0.4
    130           *
    131           * NOTES:   Jumper should be between I/O A pin 9 and 11 on the CC2430EB.
    132           *          I/O A pin 9  -> CC2430 P0.2
    133           *          I/O A pin 11 -> CC2430 P0.3
    134           *
    135           * @return  TRUE if the jumper is there, FALSE if not
    136           */

   \                                 In  segment BANKED_CODE, align 1, keep-with-next
    137          uint8 readCoordinatorJumper( void )
   \                     readCoordinatorJumper:
    138          {
   \   000000   74F6         MOV     A,#-0xa
   \   000002   12....       LCALL   ?BANKED_ENTER_XDATA
   \   000005                ; Saved register size: 10
   \   000005                ; Auto size: 0
    139            uint8 jumpered;
    140            uint8 x, y;
    141            uint8 result;
    142            uint8 saveJumpInSEL;
    143            uint8 saveJumpInDIR;
    144            uint8 saveJumpInINP;
    145            uint8 saveJumpOutSEL;
    146            uint8 saveJumpOutDIR;
    147            uint8 saveJumpOutINP;
    148            
    149            jumpered = TRUE;
   \   000005   7901         MOV     R1,#0x1
    150            
    151            // Setup PORTs
    152            saveJumpInSEL = JUMPERIN_SEL;
   \   000007   E5F3         MOV     A,0xf3
   \   000009   FC           MOV     R4,A
    153            saveJumpInDIR = JUMPERIN_DIR;
   \   00000A   E5FD         MOV     A,0xfd
   \   00000C   FD           MOV     R5,A
    154            saveJumpInINP = JUMPERIN_INP;
   \   00000D   E58F         MOV     A,0x8f
   \   00000F   FE           MOV     R6,A
    155            saveJumpOutSEL = P0SEL;
   \   000010   E5F3         MOV     A,0xf3
   \   000012   FF           MOV     R7,A
    156            saveJumpOutDIR = P0DIR;
   \   000013   E5FD         MOV     A,0xfd
   \   000015   F5..         MOV     ?V0 + 0,A
    157            saveJumpOutINP = P0INP;
   \   000017   E58F         MOV     A,0x8f
   \   000019   F5..         MOV     ?V0 + 1,A
    158            
    159            JUMPERIN_SEL &= ~(JUMPERIN_BIT);
   \   00001B   53F3FB       ANL     0xf3,#0xfb
    160            JUMPERIN_DIR &= ~(JUMPERIN_BIT);
   \   00001E   53FDFB       ANL     0xfd,#0xfb
    161            JUMPERIN_INP &= ~(JUMPERIN_BIT);
   \   000021   538FFB       ANL     0x8f,#0xfb
    162            JUMPEROUT_SEL &= ~(JUMPEROUT_BIT);
   \   000024   53F3F7       ANL     0xf3,#0xf7
    163            JUMPEROUT_DIR |= JUMPEROUT_BIT;
   \   000027   43FD08       ORL     0xfd,#0x8
    164            JUMPEROUT_INP &= ~(JUMPERIN_BIT);
   \   00002A   538FFB       ANL     0x8f,#0xfb
    165            
    166            for ( x = 0; x < 8; x++ )
   \   00002D   7B00         MOV     R3,#0x0
    167            {    
    168              if ( x & 0x01 )
    169              {
    170                JUMPEROUT |= JUMPEROUT_BIT;      
    171                for ( y = 0; y < 8; y++ );
    172                result = JUMPERIN & JUMPERIN_BIT;
    173                if ( result != JUMPERIN_BIT )
    174                  jumpered = FALSE;
    175              }
    176              else
    177              {      
    178                JUMPEROUT &= ~(JUMPEROUT_BIT);      
   \                     ??readCoordinatorJumper_0:
   \   00002F   C283         CLR     0x80.3
    179                for ( y = 0; y < 8; y++ );
   \   000031   7A08         MOV     R2,#0x8
   \                     ??readCoordinatorJumper_1:
   \   000033   1A           DEC     R2
   \   000034   EA           MOV     A,R2
   \   000035   70FC         JNZ     ??readCoordinatorJumper_1
    180                result = JUMPERIN & JUMPERIN_BIT;
   \   000037   7404         MOV     A,#0x4
   \   000039   5580         ANL     A,0x80
    181                if ( result != 0x00 )
   \   00003B   701E         JNZ     ??readCoordinatorJumper_2
    182                  jumpered = FALSE;
    183              }
   \                     ??readCoordinatorJumper_3:
   \   00003D   0B           INC     R3
   \   00003E   EB           MOV     A,R3
   \   00003F   C3           CLR     C
   \   000040   9408         SUBB    A,#0x8
   \   000042   501B         JNC     ??readCoordinatorJumper_4
   \   000044   EB           MOV     A,R3
   \   000045   A2E0         MOV     C,0xE0 /* A   */.0
   \   000047   50E6         JNC     ??readCoordinatorJumper_0
   \   000049   D283         SETB    0x80.3
   \   00004B   7A08         MOV     R2,#0x8
   \                     ??readCoordinatorJumper_5:
   \   00004D   1A           DEC     R2
   \   00004E   EA           MOV     A,R2
   \   00004F   70FC         JNZ     ??readCoordinatorJumper_5
   \   000051   7404         MOV     A,#0x4
   \   000053   5580         ANL     A,0x80
   \   000055   FA           MOV     R2,A
   \   000056   7404         MOV     A,#0x4
   \   000058   6A           XRL     A,R2
   \   000059   60E2         JZ      ??readCoordinatorJumper_3
   \                     ??readCoordinatorJumper_2:
   \   00005B   7900         MOV     R1,#0x0
   \   00005D   80DE         SJMP    ??readCoordinatorJumper_3
    184            }
    185            
    186            // Restore directions
    187            JUMPERIN_SEL = saveJumpInSEL;
   \                     ??readCoordinatorJumper_4:
   \   00005F   8CF3         MOV     0xf3,R4
    188            JUMPERIN_DIR = saveJumpInDIR;
   \   000061   8DFD         MOV     0xfd,R5
    189            JUMPERIN_INP = saveJumpInINP;
   \   000063   8E8F         MOV     0x8f,R6
    190            JUMPEROUT_SEL = saveJumpOutSEL;
   \   000065   8FF3         MOV     0xf3,R7
    191            JUMPEROUT_DIR = saveJumpOutDIR;
   \   000067   85..FD       MOV     0xfd,?V0 + 0
    192            JUMPEROUT_INP = saveJumpOutINP;
   \   00006A   85..8F       MOV     0x8f,?V0 + 1
    193            
    194            return ( jumpered );
   \   00006D   7F02         MOV     R7,#0x2
   \   00006F   02....       LJMP    ?BANKED_LEAVE_XDATA
   \   000072                REQUIRE _A_P0
   \   000072                REQUIRE P0INP
   \   000072                REQUIRE P0SEL
   \   000072                REQUIRE P0DIR
    195          }

   \                                 In  segment BANK_RELAYS, align 1
   \                     ??readCoordinatorJumper?relay:
   \   000000   12....       LCALL   ?BDISPATCH
   \   000003   ......       DC24    readCoordinatorJumper

   Maximum stack usage in bytes:

     Function              ISTACK PSTACK XSTACK
     --------              ------ ------ ------
     readCoordinatorJumper     0      0     10


   Segment part sizes:

     Function/Label                Bytes
     --------------                -----
     _A_P0                            1
     P0INP                            1
     P0SEL                            1
     P0DIR                            1
     readCoordinatorJumper          114
     ??readCoordinatorJumper?relay    6

 
 114 bytes in segment BANKED_CODE
   6 bytes in segment BANK_RELAYS
   4 bytes in segment SFR_AN
 
 120 bytes of CODE memory
   0 bytes of DATA memory (+ 4 bytes shared)

Errors: none
Warnings: none
